 ToDoList

 Timestamp is 57bac05c (Mon Aug 22 19:05:32 2016)

 Preferred load address is 00400000

 Start         Length     Name                   Class
 0001:00000000 00158fc4H .text                   CODE
 0001:00158fd0 0001b0c2H .text$x                 CODE
 0002:00000000 00001300H .idata$5                DATA
 0002:00001300 00016258H .rdata                  DATA
 0002:00017558 0000008cH .rdata$r                DATA
 0002:000175e8 00022de0H .xdata$x                DATA
 0002:0003a3c8 00000168H .idata$2                DATA
 0002:0003a530 00000014H .idata$3                DATA
 0002:0003a544 00001300H .idata$4                DATA
 0002:0003b844 00001c7aH .idata$6                DATA
 0002:0003d4be 00000000H .edata                  DATA
 0003:00000000 00000004H .CRT$XCA                DATA
 0003:00000004 00000004H .CRT$XCL                DATA
 0003:00000008 00005764H .CRT$XCU                DATA
 0003:0000576c 00000004H .CRT$XCZ                DATA
 0003:00005770 00000004H .CRT$XIA                DATA
 0003:00005774 00000004H .CRT$XIZ                DATA
 0003:00005780 00015f70H .data                   DATA
 0003:0001b6f0 0000d278H .bss                    DATA
 0004:00000000 00002b20H .rsrc$01                DATA
 0004:00002b20 0003c430H .rsrc$02                DATA

  Address         Publics by Value              Rva+Base     Lib:Object

 0001:00000f0b       ??0CFilteredToDoCtrl@@QAE@AAVCUIExtensionMgr@@AAVCContentMgr@@ABVCONTENTFORMAT@@ABUTDCCOLEDITFILTERVISIBILITY@@@Z 00401f0b f   FilteredToDoCtrl.obj
 0001:00000f70       ?BeginModalState@CWnd@@UAEXXZ 00401f70 f i FilteredToDoCtrl.obj
 0001:00000f7c       ?EndModalState@CWnd@@UAEXXZ 00401f7c f i FilteredToDoCtrl.obj
 0001:00000f88       ?GetInitialPos@CRuntimeDlg@@MBE?AVCPoint@@XZ 00401f88 f i FilteredToDoCtrl.obj
 0001:00000f96       ?OverrideItemText@CRuntimeDlg@@MAE?AVCString@@I@Z 00401f96 f i FilteredToDoCtrl.obj
 0001:00000fb2       ?NewViewData@CFilteredToDoCtrl@@MAEPAUVIEWDATA@@XZ 00401fb2 f i FilteredToDoCtrl.obj
 0001:00000ffd       ??0VIEWDATA@@QAE@XZ        00401ffd f i FilteredToDoCtrl.obj
 0001:00001062       ??0TDSORT@@QAE@W4TDC_COLUMN@@H@Z 00402062 f i FilteredToDoCtrl.obj
 0001:00001095       ??_GVIEWDATA@@UAEPAXI@Z    00402095 f i FilteredToDoCtrl.obj
 0001:00001095       ??_EVIEWDATA@@UAEPAXI@Z    00402095 f i FilteredToDoCtrl.obj
 0001:000010b1       ??1VIEWDATA@@UAE@XZ        004020b1 f i FilteredToDoCtrl.obj
 0001:000010ed       ??_EVIEWDATA2@@UAEPAXI@Z   004020ed f i FilteredToDoCtrl.obj
 0001:000010ed       ??_GVIEWDATA2@@UAEPAXI@Z   004020ed f i FilteredToDoCtrl.obj
 0001:00001109       ??1VIEWDATA2@@UAE@XZ       00402109 f i FilteredToDoCtrl.obj
 0001:00001145       ??_ECFilteredToDoCtrl@@UAEPAXI@Z 00402145 f i FilteredToDoCtrl.obj
 0001:00001145       ??_GCFilteredToDoCtrl@@UAEPAXI@Z 00402145 f i FilteredToDoCtrl.obj
 0001:00001161       ??1CFilteredToDoCtrl@@UAE@XZ 00402161 f   FilteredToDoCtrl.obj
 0001:000011b1       ?GetMessageMap@CFilteredToDoCtrl@@MBEPBUAFX_MSGMAP@@XZ 004021b1 f   FilteredToDoCtrl.obj
 0001:000011b7       ?OnInitDialog@CFilteredToDoCtrl@@MAEHXZ 004021b7 f   FilteredToDoCtrl.obj
 0001:000011bf       ?LoadTasks@CFilteredToDoCtrl@@MAEHABVCTaskFile@@@Z 004021bf f   FilteredToDoCtrl.obj
 0001:00001326       ?DelayLoad@CFilteredToDoCtrl@@QAEHABVCString@@AAVCOleDateTime@@@Z 00402326 f   FilteredToDoCtrl.obj
 0001:0000134c       ?SaveSettings@CFilteredToDoCtrl@@IBEXXZ 0040234c f   FilteredToDoCtrl.obj
 0001:000013cd       ?LoadSettings@CFilteredToDoCtrl@@IAEXXZ 004023cd f   FilteredToDoCtrl.obj
 0001:00001460       ?OnDestroy@CFilteredToDoCtrl@@IAEXXZ 00402460 f   FilteredToDoCtrl.obj
 0001:00001471       ?OnEditChangeDueTime@CFilteredToDoCtrl@@IAEXXZ 00402471 f   FilteredToDoCtrl.obj
 0001:000014c7       ?OnTreeExpandItem@CFilteredToDoCtrl@@IAEXPAUtagNMHDR@@PAJ@Z 004024c7 f   FilteredToDoCtrl.obj
 0001:00001506       ?OnPreTabViewChange@CFilteredToDoCtrl@@IAEJIJ@Z 00402506 f   FilteredToDoCtrl.obj
 0001:000015cd       ?CopyCurrentSelection@CFilteredToDoCtrl@@MBEHXZ 004025cd f   FilteredToDoCtrl.obj
 0001:000018a0       ??_GCObject@@UAEPAXI@Z     004028a0 f i FilteredToDoCtrl.obj
 0001:000018a0       ??_ECObject@@UAEPAXI@Z     004028a0 f i FilteredToDoCtrl.obj
 0001:000018bd       ??1CObject@@UAE@XZ         004028bd f i FilteredToDoCtrl.obj
 0001:000018c4       ??_GCHTIList@@UAEPAXI@Z    004028c4 f i FilteredToDoCtrl.obj
 0001:000018c4       ??_ECHTIList@@UAEPAXI@Z    004028c4 f i FilteredToDoCtrl.obj
 0001:000018e0       ??1CHTIList@@UAE@XZ        004028e0 f i FilteredToDoCtrl.obj
 0001:00001913       ??0TDCGETTASKS@@QAE@W4TDC_GETTASKS@@K@Z 00402913 f i FilteredToDoCtrl.obj
 0001:00001968       ?InitDueByDate@TDCGETTASKS@@IAEXXZ 00402968 f i FilteredToDoCtrl.obj
 0001:000019b5       ?GetTrueTaskID@CToDoCtrl@@IBEKPAU_TREEITEM@@@Z 004029b5 f i FilteredToDoCtrl.obj
 0001:000019d7       ??1TDCGETTASKS@@QAE@XZ     004029d7 f i FilteredToDoCtrl.obj
 0001:00001a0d       ?ArchiveDoneTasks@CFilteredToDoCtrl@@QAEHW4TDC_ARCHIVE@@H@Z 00402a0d f   FilteredToDoCtrl.obj
 0001:00001a61       ?ArchiveSelectedTasks@CFilteredToDoCtrl@@QAEHH@Z 00402a61 f   FilteredToDoCtrl.obj
 0001:00001ab1       ?GetArchivableTasks@CFilteredToDoCtrl@@UBEHAAVCTaskFile@@H@Z 00402ab1 f   FilteredToDoCtrl.obj
 0001:00001afc       ?RemoveArchivedTask@CFilteredToDoCtrl@@MAEHK@Z 00402afc f   FilteredToDoCtrl.obj
 0001:00001b47       ?GetCompletedTasks@CFilteredToDoCtrl@@IBEXPBVTODOSTRUCTURE@@AAVCTaskFile@@PAXH@Z 00402b47 f   FilteredToDoCtrl.obj
 0001:00001c66       ?GetFilteredTasks@CFilteredToDoCtrl@@QBEHAAVCTaskFile@@ABUTDCGETTASKS@@@Z 00402c66 f   FilteredToDoCtrl.obj
 0001:00001c88       ?GetFilter@CFilteredToDoCtrl@@QBE?AW4FILTER_SHOW@@AAUFTDCFILTER@@@Z 00402c88 f   FilteredToDoCtrl.obj
 0001:00001c9a       ?SetFilter@CFilteredToDoCtrl@@QAEXABUFTDCFILTER@@@Z 00402c9a f   FilteredToDoCtrl.obj
 0001:00001d58       ?ClearFilter@CFilteredToDoCtrl@@QAEXXZ 00402d58 f   FilteredToDoCtrl.obj
 0001:00001d7a       ?ToggleFilter@CFilteredToDoCtrl@@QAEXXZ 00402d7a f   FilteredToDoCtrl.obj
 0001:00001d9c       ?FiltersMatch@FTDCFILTER@@SAHABU1@0K@Z 00402d9c f i FilteredToDoCtrl.obj
 0001:00002099       ?HasFlag@FTDCFILTER@@QBEHK@Z 00403099 f i FilteredToDoCtrl.obj
 0001:00002103       ?FilterMatches@CFilteredToDoCtrl@@IBEHABUFTDCFILTER@@W4FTC_VIEW@@@Z 00403103 f   FilteredToDoCtrl.obj
 0001:00002130       ?IsFilterSet@CFilteredToDoCtrl@@IBEHW4FTC_VIEW@@@Z 00403130 f   FilteredToDoCtrl.obj
 0001:00002155       ?GetTaskCount@CFilteredToDoCtrl@@QBEIPAI@Z 00403155 f   FilteredToDoCtrl.obj
 0001:0000218e       ?FindTasks@CFilteredToDoCtrl@@QBEHABUSEARCHPARAMS@@AAV?$CArray@USEARCHRESULT@@AAU1@@@@Z 0040318e f   FilteredToDoCtrl.obj
 0001:000021b2       ?HasCustomFilter@CFilteredToDoCtrl@@QBEHXZ 004031b2 f   FilteredToDoCtrl.obj
 0001:000021bd       ?GetCustomFilterName@CFilteredToDoCtrl@@QBE?AVCString@@XZ 004031bd f   FilteredToDoCtrl.obj
 0001:000021da       ?GetCustomFilterFlags@CFilteredToDoCtrl@@QBEKXZ 004031da f   FilteredToDoCtrl.obj
 0001:000021f7       ?SetCustomFilter@CFilteredToDoCtrl@@QAEHABUFTDCCUSTOMFILTER@@@Z 004031f7 f   FilteredToDoCtrl.obj
 0001:0000224f       ?OnRefreshFilter@CFilteredToDoCtrl@@IAEJIJ@Z 0040324f f   FilteredToDoCtrl.obj
 0001:00002289       ?FilterMatches@CFilteredToDoCtrl@@QBEHABUFTDCFILTER@@PBGKK@Z 00403289 f   FilteredToDoCtrl.obj
 0001:000022a7       ?RefreshFilter@CFilteredToDoCtrl@@QAEXXZ 004032a7 f   FilteredToDoCtrl.obj
 0001:00002348       ?SetListNeedRefilter@CFilteredToDoCtrl@@IAEXH@Z 00403348 f   FilteredToDoCtrl.obj
 0001:0000235c       ?SetExtensionsNeedRefilter@CFilteredToDoCtrl@@IAEXHW4FTC_VIEW@@@Z 0040335c f   FilteredToDoCtrl.obj
 0001:0000239e       ?RefreshTreeFilter@CFilteredToDoCtrl@@IAEXXZ 0040339e f   FilteredToDoCtrl.obj
 0001:00002591       ??0TDCSELECTIONCACHE@@QAE@XZ 00403591 f i FilteredToDoCtrl.obj
 0001:000025ca       ??1CWaitCursor@@QAE@XZ     004035ca f i FilteredToDoCtrl.obj
 0001:000025d7       ??1TDCSELECTIONCACHE@@QAE@XZ 004035d7 f i FilteredToDoCtrl.obj
 0001:0000260c       ?RebuildTree@CFilteredToDoCtrl@@MAEPAU_TREEITEM@@PBX@Z 0040360c f   FilteredToDoCtrl.obj
 0001:000026b3       ??0SEARCHPARAMS@@QAE@XZ    004036b3 f i FilteredToDoCtrl.obj
 0001:000026ed       ??_GCTDCCustomAttribDefinitionArray@@UAEPAXI@Z 004036ed f i FilteredToDoCtrl.obj
 0001:000026ed       ??_ECTDCCustomAttribDefinitionArray@@UAEPAXI@Z 004036ed f i FilteredToDoCtrl.obj
 0001:00002709       ??1CTDCCustomAttribDefinitionArray@@UAE@XZ 00403709 f i FilteredToDoCtrl.obj
 0001:0000270e       ??1SEARCHPARAMS@@QAE@XZ    0040370e f i FilteredToDoCtrl.obj
 0001:00002743       ?WantAddTask@CFilteredToDoCtrl@@MBEHPBVTODOITEM@@PBVTODOSTRUCTURE@@PBX@Z 00403743 f   FilteredToDoCtrl.obj
 0001:00002946       ?HasAttribute@SEARCHPARAMS@@QBEHW4TDC_ATTRIBUTE@@@Z 00403946 f i FilteredToDoCtrl.obj
 0001:00002aaf       ??1SEARCHPARAM@@QAE@XZ     00403aaf f i FilteredToDoCtrl.obj
 0001:00002ae5       ??1SEARCHRESULT@@QAE@XZ    00403ae5 f i FilteredToDoCtrl.obj
 0001:00002aed       ?RefreshExtensionFilter@CFilteredToDoCtrl@@IAEXW4FTC_VIEW@@H@Z 00403aed f   FilteredToDoCtrl.obj
 0001:00002bd2       ?RebuildList@CFilteredToDoCtrl@@MAEXPBX@Z 00403bd2 f   FilteredToDoCtrl.obj
 0001:00002be3       ?RefreshListFilter@CFilteredToDoCtrl@@IAEXXZ 00403be3 f   FilteredToDoCtrl.obj
 0001:00002c92       ?RebuildList@CFilteredToDoCtrl@@IAEXABUSEARCHPARAMS@@@Z 00403c92 f   FilteredToDoCtrl.obj
 0001:00002e3d       ?AddTreeItemToList@CFilteredToDoCtrl@@MAEXPAU_TREEITEM@@PBX@Z 00403e3d f   FilteredToDoCtrl.obj
 0001:00002fdc       ?SetStyles@CFilteredToDoCtrl@@QAEHABV?$CMap@W4TDC_STYLE@@W41@HAAH@@@Z 00403fdc f   FilteredToDoCtrl.obj
 0001:00003033       ?SetStyle@CFilteredToDoCtrl@@MAEHW4TDC_STYLE@@HH@Z 00404033 f   FilteredToDoCtrl.obj
 0001:00003080       ?SplitSelectedTask@CFilteredToDoCtrl@@QAEHH@Z 00404080 f   FilteredToDoCtrl.obj
 0001:000030ad       ?CreateNewTask@CFilteredToDoCtrl@@QAEHPBGW4TDC_INSERTWHERE@@HK@Z 004040ad f   FilteredToDoCtrl.obj
 0001:00003130       ?CanCreateNewTask@CFilteredToDoCtrl@@QBEHW4TDC_INSERTWHERE@@@Z 00404130 f   FilteredToDoCtrl.obj
 0001:0000313c       ?SetModified@CFilteredToDoCtrl@@MAEXHW4TDC_ATTRIBUTE@@K@Z 0040413c f   FilteredToDoCtrl.obj
 0001:0000324e       ?EndTimeTracking@CFilteredToDoCtrl@@MAEXHH@Z 0040424e f   FilteredToDoCtrl.obj
 0001:00003296       ?ModNeedsRefilter@CFilteredToDoCtrl@@IBEHW4TDC_ATTRIBUTE@@W4FTC_VIEW@@K@Z 00404296 f   FilteredToDoCtrl.obj
 0001:00003409       ?Sort@CFilteredToDoCtrl@@UAEXW4TDC_COLUMN@@H@Z 00404409 f   FilteredToDoCtrl.obj
 0001:00003419       ?GetViewData2@CFilteredToDoCtrl@@IBEPAUVIEWDATA2@@W4FTC_VIEW@@@Z 00404419 f   FilteredToDoCtrl.obj
 0001:00003425       ?OnTimerMidnight@CFilteredToDoCtrl@@MAEXXZ 00404425 f   FilteredToDoCtrl.obj
 0001:000034d2       ??0FTDCFILTER@@QAE@XZ      004044d2 f i FilteredToDoCtrl.obj
 0001:000035ca       ??1FTDCFILTER@@QAE@XZ      004045ca f i FilteredToDoCtrl.obj
 0001:00003642       ?ResetNowFilterTimer@CFilteredToDoCtrl@@IAEXXZ 00404642 f   FilteredToDoCtrl.obj
 0001:000036c8       ?OnTimer@CFilteredToDoCtrl@@IAEXI@Z 004046c8 f   FilteredToDoCtrl.obj
 0001:00003728       ?OnTimerNow@CFilteredToDoCtrl@@IAEXXZ 00404728 f   FilteredToDoCtrl.obj
 0001:000038f2       ?AfxGetMainWnd@@YGPAVCWnd@@XZ 004048f2 f i FilteredToDoCtrl.obj
 0001:00003906       ??1CHTIMap@@UAE@XZ         00404906 f i FilteredToDoCtrl.obj
 0001:00003939       ??_ECHTIMap@@UAEPAXI@Z     00404939 f i FilteredToDoCtrl.obj
 0001:00003939       ??_GCHTIMap@@UAEPAXI@Z     00404939 f i FilteredToDoCtrl.obj
 0001:00003955       ?FindNewNowFilterTasks@CFilteredToDoCtrl@@IBEHPBVTODOSTRUCTURE@@ABUSEARCHPARAMS@@ABVCHTIMap@@@Z 00404955 f   FilteredToDoCtrl.obj
 0001:00003a01       ?GetAllTasksForExtensionViewUpdate@CFilteredToDoCtrl@@MBEHAAVCTaskFile@@ABVCTDCAttributeMap@@@Z 00404a01 f   FilteredToDoCtrl.obj
 0001:00003a51       ??0?$CList@PAU_TREEITEM@@PAU1@@@QAE@H@Z 00404a51 f i FilteredToDoCtrl.obj
 0001:00003a74       ?RemoveAll@?$CList@PAU_TREEITEM@@PAU1@@@QAEXXZ 00404a74 f i FilteredToDoCtrl.obj
 0001:00003a9f       ?Serialize@?$CList@PAU_TREEITEM@@PAU1@@@UAEXAAVCArchive@@@Z 00404a9f f i FilteredToDoCtrl.obj
 0001:00003b05       ?AddTail@?$CList@PAU_TREEITEM@@PAU1@@@QAEPAU__POSITION@@PAU_TREEITEM@@@Z 00404b05 f i FilteredToDoCtrl.obj
 0001:00003b2e       ??1?$CArray@UTDCCUSTOMATTRIBUTEDEFINITION@@AAU1@@@UAE@XZ 00404b2e f i FilteredToDoCtrl.obj
 0001:00003b75       ?Serialize@?$CArray@UTDCCUSTOMATTRIBUTEDEFINITION@@AAU1@@@UAEXAAVCArchive@@@Z 00404b75 f i FilteredToDoCtrl.obj
 0001:00003bb4       ??A?$CArray@USEARCHPARAM@@U1@@@QBE?AUSEARCHPARAM@@H@Z 00404bb4 f i FilteredToDoCtrl.obj
 0001:00003bce       ??1?$CArray@USEARCHPARAM@@U1@@@UAE@XZ 00404bce f i FilteredToDoCtrl.obj
 0001:00003c2e       ?Serialize@?$CArray@USEARCHPARAM@@U1@@@UAEXAAVCArchive@@@Z 00404c2e f i FilteredToDoCtrl.obj
 0001:00003c6d       ??1?$CArray@USEARCHRESULT@@AAU1@@@UAE@XZ 00404c6d f i FilteredToDoCtrl.obj
 0001:00003cb4       ?Serialize@?$CArray@USEARCHRESULT@@AAU1@@@UAEXAAVCArchive@@@Z 00404cb4 f i FilteredToDoCtrl.obj
 0001:00003cf3       ??_E?$CMap@KKPAU_TREEITEM@@AAPAU1@@@UAEPAXI@Z 00404cf3 f i FilteredToDoCtrl.obj
 0001:00003cf3       ??_G?$CMap@KKPAU_TREEITEM@@AAPAU1@@@UAEPAXI@Z 00404cf3 f i FilteredToDoCtrl.obj
 0001:00003d0f       ??1?$CMap@KKPAU_TREEITEM@@AAPAU1@@@UAE@XZ 00404d0f f i FilteredToDoCtrl.obj
 0001:00003d42       ??_G?$CList@PAU_TREEITEM@@PAU1@@@UAEPAXI@Z 00404d42 f i FilteredToDoCtrl.obj
 0001:00003d42       ??_E?$CList@PAU_TREEITEM@@PAU1@@@UAEPAXI@Z 00404d42 f i FilteredToDoCtrl.obj
 0001:00003d5e       ??1?$CList@PAU_TREEITEM@@PAU1@@@UAE@XZ 00404d5e f i FilteredToDoCtrl.obj
 0001:00003d91       ??_G?$CArray@UTDCCUSTOMATTRIBUTEDEFINITION@@AAU1@@@UAEPAXI@Z 00404d91 f i FilteredToDoCtrl.obj
 0001:00003d91       ??_E?$CArray@UTDCCUSTOMATTRIBUTEDEFINITION@@AAU1@@@UAEPAXI@Z 00404d91 f i FilteredToDoCtrl.obj
 0001:00003dad       ??_E?$CArray@USEARCHPARAM@@U1@@@UAEPAXI@Z 00404dad f i FilteredToDoCtrl.obj
 0001:00003dad       ??_G?$CArray@USEARCHPARAM@@U1@@@UAEPAXI@Z 00404dad f i FilteredToDoCtrl.obj
 0001:00003dc9       ??_E?$CArray@USEARCHRESULT@@AAU1@@@UAEPAXI@Z 00404dc9 f i FilteredToDoCtrl.obj
 0001:00003dc9       ??_G?$CArray@USEARCHRESULT@@AAU1@@@UAEPAXI@Z 00404dc9 f i FilteredToDoCtrl.obj
 0001:00003de5       ?NewNode@?$CList@PAU_TREEITEM@@PAU1@@@IAEPAUCNode@1@PAU21@0@Z 00404de5 f i FilteredToDoCtrl.obj
 0001:00003e4d       ?SetSize@?$CArray@UTDCCUSTOMATTRIBUTEDEFINITION@@AAU1@@@QAEXHH@Z 00404e4d f i FilteredToDoCtrl.obj
 0001:00003f6d       ?DestructElements@@YGXPAUTDCCUSTOMATTRIBUTEDEFINITION@@H@Z 00404f6d f i FilteredToDoCtrl.obj
 0001:00003f91       ??1TDCCUSTOMATTRIBUTEDEFINITION@@QAE@XZ 00404f91 f i FilteredToDoCtrl.obj
 0001:00003fed       ?ConstructElements@@YGXPAUTDCCUSTOMATTRIBUTEDEFINITION@@H@Z 00404fed f i FilteredToDoCtrl.obj
 0001:00004047       ??0TDCCUSTOMATTRIBUTEDEFINITION@@QAE@XZ 00405047 f i FilteredToDoCtrl.obj
 0001:000040ba       ?SerializeElements@@YGXAAVCArchive@@PAUTDCCUSTOMATTRIBUTEDEFINITION@@H@Z 004050ba f i FilteredToDoCtrl.obj
 0001:000040ea       ?SetSize@?$CArray@USEARCHPARAM@@U1@@@QAEXHH@Z 004050ea f i FilteredToDoCtrl.obj
 0001:00004215       ?GetAt@?$CArray@USEARCHPARAM@@U1@@@QBE?AUSEARCHPARAM@@H@Z 00405215 f i FilteredToDoCtrl.obj
 0001:00004239       ?DestructElements@@YGXPAUSEARCHPARAM@@H@Z 00405239 f i FilteredToDoCtrl.obj
 0001:0000425d       ?SerializeElements@@YGXAAVCArchive@@PAUSEARCHPARAM@@H@Z 0040525d f i FilteredToDoCtrl.obj
 0001:00004290       ?FindT@Misc@@YAHABVCDWordArray@@ABK@Z 00405290 f i FilteredToDoCtrl.obj
 0001:000042be       ?SetSize@?$CArray@USEARCHRESULT@@AAU1@@@QAEXHH@Z 004052be f i FilteredToDoCtrl.obj
 0001:000043de       ?DestructElements@@YGXPAUSEARCHRESULT@@H@Z 004053de f i FilteredToDoCtrl.obj
 0001:00004402       ?SerializeElements@@YGXAAVCArchive@@PAUSEARCHRESULT@@H@Z 00405402 f i FilteredToDoCtrl.obj
 0001:00004432       ??0SEARCHPARAM@@QAE@ABU0@@Z 00405432 f i FilteredToDoCtrl.obj
 0001:0000449d       ??_GSEARCHPARAM@@QAEPAXI@Z 0040549d f i FilteredToDoCtrl.obj
 0001:000044b9       ?ConstructElements@@YGXPAUSEARCHPARAM@@H@Z 004054b9 f i FilteredToDoCtrl.obj
 0001:00004518       ??0SEARCHPARAM@@QAE@W4TDC_ATTRIBUTE@@W4FIND_OPERATOR@@@Z 00405518 f i FilteredToDoCtrl.obj
 0001:0000457f       ?SetAttribute@SEARCHPARAM@@QAEHW4TDC_ATTRIBUTE@@W4FIND_ATTRIBTYPE@@@Z 0040557f f i FilteredToDoCtrl.obj
 0001:000045f7       ?GetAttribType@SEARCHPARAM@@QBE?AW4FIND_ATTRIBTYPE@@XZ 004055f7 f i FilteredToDoCtrl.obj
 0001:00004692       ?ValidateOperator@SEARCHPARAM@@QAEXXZ 00405692 f i FilteredToDoCtrl.obj
 0001:000046af       ?IsValidOperator@SEARCHPARAM@@SAHW4FIND_ATTRIBTYPE@@W4FIND_OPERATOR@@@Z 004056af f i FilteredToDoCtrl.obj
 0001:0000472c       ?ConstructElements@@YGXPAUSEARCHRESULT@@H@Z 0040572c f i FilteredToDoCtrl.obj
 0001:0000478e       ??0CMultiTaskFile@@QAE@XZ  0040578e f   MultiTaskFile.obj
 0001:000047ac       ?Release@CTaskFile@@UAGKXZ 004057ac f i MultiTaskFile.obj
 0001:000047ac       ?Release@CMultiTaskFile@@UAGKXZ 004057ac f i MultiTaskFile.obj
 0001:000047ac       ?AddRef@CMultiTaskFile@@UAGKXZ 004057ac f i MultiTaskFile.obj
 0001:000047ac       ?ShowContainerUI@CRichEditBaseCtrl@@MAEJH@Z 004057ac f i MultiTaskFile.obj
 0001:000047ac       ?AddRef@CTaskFile@@UAGKXZ  004057ac f i MultiTaskFile.obj
 0001:000047b2       ??_ECMultiTaskFile@@UAEPAXI@Z 004057b2 f i MultiTaskFile.obj
 0001:000047b2       ??_GCMultiTaskFile@@UAEPAXI@Z 004057b2 f i MultiTaskFile.obj
 0001:000047ce       ??1CMultiTaskFile@@UAE@XZ  004057ce f   MultiTaskFile.obj
 0001:00004828       ?GetTaskFile@CMultiTaskFile@@QAEAAVCTaskFile@@H@Z 00405828 f   MultiTaskFile.obj
 0001:00004892       ??3CObject@@SGXPAX@Z       00405892 f i MultiTaskFile.obj
 0001:0000489f       ?QueryInterface@CMultiTaskFile@@UAGJABU_GUID@@PAPAX@Z 0040589f f   MultiTaskFile.obj
 0001:000048ba       ?GetRemainingOccurrenceCount@TDCRECURRENCE@@QBEHXZ 004058ba f   MultiTaskFile.obj
 0001:000048ba       ?GetTaskListCount@CMultiTaskFile@@UBEHXZ 004058ba f   MultiTaskFile.obj
 0001:000048be       ?GetTaskList@CMultiTaskFile@@UBEPBVITaskList@@H@Z 004058be f   MultiTaskFile.obj
 0001:000048d4       ??1?$CArray@PAVCTaskFile@@AAPAV1@@@UAE@XZ 004058d4 f i MultiTaskFile.obj
 0001:00004910       ??_E?$CArray@PAVCTaskFile@@AAPAV1@@@UAEPAXI@Z 00405910 f i MultiTaskFile.obj
 0001:00004910       ??_G?$CArray@PAVCTaskFile@@AAPAV1@@@UAEPAXI@Z 00405910 f i MultiTaskFile.obj
 0001:0000492c       ?SetSize@?$CArray@W4TDC_ATTRIBUTE@@W41@@@QAEXHH@Z 0040592c f i MultiTaskFile.obj
 0001:0000492c       ?SetSize@?$CArray@W4IUI_ATTRIBUTE@@W41@@@QAEXHH@Z 0040592c f i MultiTaskFile.obj
 0001:0000492c       ?SetSize@?$CArray@PAUTRACKTASKLIST@@AAPAU1@@@QAEXHH@Z 0040592c f i MultiTaskFile.obj
 0001:0000492c       ?SetSize@?$CArray@PAUHWND__@@PAU1@@@QAEXHH@Z 0040592c f i MultiTaskFile.obj
 0001:0000492c       ?SetSize@?$CArray@HH@@QAEXHH@Z 0040592c f i MultiTaskFile.obj
 0001:0000492c       ?SetSize@?$CArray@PAVIImportTasklist@@PAV1@@@QAEXHH@Z 0040592c f i MultiTaskFile.obj
 0001:0000492c       ?SetSize@?$CArray@PAVCMapIDToTimeAndPeriod@CTDCTaskTimeLogAnalysis@@AAPAV12@@@QAEXHH@Z 0040592c f i MultiTaskFile.obj
 0001:0000492c       ?SetSize@?$CArray@W4TDC_COLUMN@@W41@@@QAEXHH@Z 0040592c f i MultiTaskFile.obj
 0001:0000492c       ?SetSize@?$CArray@PAVCTaskFile@@AAPAV1@@@QAEXHH@Z 0040592c f i MultiTaskFile.obj
 0001:0000492c       ?SetSize@?$CArray@PAVIUIExtensionWindow@@PAV1@@@QAEXHH@Z 0040592c f i MultiTaskFile.obj
 0001:0000492c       ?SetSize@?$CArray@PAVIContent@@PAV1@@@QAEXHH@Z 0040592c f i MultiTaskFile.obj
 0001:0000492c       ?SetSize@?$CArray@PAVIExportTasklist@@PAV1@@@QAEXHH@Z 0040592c f i MultiTaskFile.obj
 0001:0000492c       ?SetSize@?$CArray@PAVTODOSTRUCTURE@@AAPAV1@@@QAEXHH@Z 0040592c f i MultiTaskFile.obj
 0001:00005642       ??0CPreferencesDlg@@QAE@PAVCShortcutManager@@PBVCContentMgr@@PBVCImportExportMgr@@PBVCUIExtensionMgr@@PAVCWnd@@@Z 00406642 f   PreferencesDlg.obj
 0001:00005946       ??0TDCAUTOLISTDATA@@QAE@XZ 00406946 f i PreferencesDlg.obj
 0001:000059a7       ??_GCTreeCtrl@@UAEPAXI@Z   004069a7 f i PreferencesDlg.obj
 0001:000059a7       ??_ECTreeCtrl@@UAEPAXI@Z   004069a7 f i PreferencesDlg.obj
 0001:000059c3       ??_ECPreferencesDlg@@UAEPAXI@Z 004069c3 f i PreferencesDlg.obj
 0001:000059c3       ??_GCPreferencesDlg@@UAEPAXI@Z 004069c3 f i PreferencesDlg.obj
 0001:000059df       ??1CPreferencesDlgBase@@UAE@XZ 004069df f i PreferencesDlg.obj
 0001:00005a23       ??1TDCAUTOLISTDATA@@QAE@XZ 00406a23 f i PreferencesDlg.obj
 0001:00005a8b       ??1CPreferencesDlg@@UAE@XZ 00406a8b f   PreferencesDlg.obj
 0001:00005c3b       ?DoDataExchange@CPreferencesDlg@@UAEXPAVCDataExchange@@@Z 00406c3b f   PreferencesDlg.obj
 0001:00005c8f       ?_GetBaseMessageMap@CPreferencesDlg@@KGPBUAFX_MSGMAP@@XZ 00406c8f f   PreferencesDlg.obj
 0001:00005c95       ?GetMessageMap@CPreferencesDlg@@MBEPBUAFX_MSGMAP@@XZ 00406c95 f   PreferencesDlg.obj
 0001:00005c9b       ?OnInitDialog@CPreferencesDlg@@MAEHXZ 00406c9b f   PreferencesDlg.obj
 0001:00006021       ?OnHelpInfo@CPreferencesDlg@@IAEHPAUtagHELPINFO@@@Z 00407021 f   PreferencesDlg.obj
 0001:0000602b       ?SynchronizeTree@CPreferencesDlg@@IAEXXZ 0040702b f   PreferencesDlg.obj
 0001:0000607f       ?PreTranslateMessage@CPreferencesDlg@@UAEHPAUtagMSG@@@Z 0040707f f   PreferencesDlg.obj
 0001:000060aa       ?OnHelp@CPreferencesDlg@@IAEXXZ 004070aa f   PreferencesDlg.obj
 0001:000060d4       ?AddPage@CPreferencesDlg@@IAEXPAVCPreferencesPageBase@@II@Z 004070d4 f   PreferencesDlg.obj
 0001:000062d9       ?OnSelchangedPages@CPreferencesDlg@@IAEXPAUtagNMHDR@@PAJ@Z 004072d9 f   PreferencesDlg.obj
 0001:00006442       ?SetActivePage@CPreferencesDlg@@MAEHH@Z 00407442 f   PreferencesDlg.obj
 0001:00006464       ?GetItemPath@CPreferencesDlg@@IBE?AVCString@@PAU_TREEITEM@@@Z 00407464 f   PreferencesDlg.obj
 0001:0000657f       ?GetDefaultListItems@CPreferencesDlg@@QBEHAAUTDCAUTOLISTDATA@@@Z 0040757f f   PreferencesDlg.obj
 0001:00006699       ?GetSize@TDCAUTOLISTDATA@@QBEHXZ 00407699 f i PreferencesDlg.obj
 0001:000066ac       ??1TODOITEM@@QAE@XZ        004076ac f i PreferencesDlg.obj
 0001:000067a1       ?OnToolPageTestTool@CPreferencesDlg@@IAEJIJ@Z 004077a1 f   PreferencesDlg.obj
 0001:000067c3       ?OnGenPageClearMRU@CPreferencesDlg@@IAEJIJ@Z 004077c3 f   PreferencesDlg.obj
 0001:000067e5       ?OnGenPageCleanupDictionary@CPreferencesDlg@@IAEJIJ@Z 004077e5 f   PreferencesDlg.obj
 0001:00006807       ?OnApply@CPreferencesDlg@@IAEXXZ 00407807 f   PreferencesDlg.obj
 0001:00006826       ?OnControlChange@CPreferencesDlg@@IAEJIJ@Z 00407826 f   PreferencesDlg.obj
 0001:0000683e       ?OnSize@CPreferencesDlg@@IAEXIHH@Z 0040783e f   PreferencesDlg.obj
 0001:00006871       ?OnGetMinMaxInfo@CPreferencesDlg@@IAEXPAUtagMINMAXINFO@@@Z 00407871 f   PreferencesDlg.obj
 0001:0000688b       ?Resize@CPreferencesDlg@@IAEXHH@Z 0040788b f   PreferencesDlg.obj
 0001:000069cc       ?SetUITheme@CPreferencesDlg@@QAEXABVCUIThemeFile@@@Z 004079cc f   PreferencesDlg.obj
 0001:00006a18       ?SetTitleThemeColors@CPreferencesDlg@@KAXAAVCEnStatic@@ABVCUIThemeFile@@@Z 00407a18 f   PreferencesDlg.obj
 0001:00006a45       ?OnEraseBkgnd@CPreferencesDlg@@IAEHPAVCDC@@@Z 00407a45 f   PreferencesDlg.obj
 0001:00006a8d       ?GetDefaultTaskAttributes@CPreferencesDlg@@QBEXAAVTODOITEM@@@Z 00407a8d f   PreferencesDlg.obj
 0001:00006ae2       ?GetDefaultCommentsFormat@CPreferencesUIPage@@QBE?AVCONTENTFORMAT@@XZ 00407ae2 f i PreferencesDlg.obj
 0001:00006b00       ?Lookup@?$CMap@PAVCFilteredToDoCtrl@@PAV1@PAVCBrowserDlg@@PAV2@@@QBEHPAVCFilteredToDoCtrl@@AAPAVCBrowserDlg@@@Z 00407b00 f i PreferencesDlg.obj
 0001:00006b00       ?Lookup@?$CMap@KKPAU_TREEITEM@@AAPAU1@@@QBEHKAAPAU_TREEITEM@@@Z 00407b00 f i PreferencesDlg.obj
 0001:00006b00       ?Lookup@?$CMap@PAU_TREEITEM@@PAU1@IAAI@@QBEHPAU_TREEITEM@@AAI@Z 00407b00 f i PreferencesDlg.obj
 0001:00006b00       ?Lookup@?$CMap@PAVCPreferencesPageBase@@PAV1@PAU_TREEITEM@@AAPAU2@@@QBEHPAVCPreferencesPageBase@@AAPAU_TREEITEM@@@Z 00407b00 f i PreferencesDlg.obj
 0001:00006b00       ?Lookup@?$CMap@KKHH@@QBEHKAAH@Z 00407b00 f i PreferencesDlg.obj
 0001:00006b00       ?Lookup@?$CMap@IIKAAK@@QBEHIAAK@Z 00407b00 f i PreferencesDlg.obj
 0001:00006b00       ?Lookup@?$CMap@KKHAAH@@QBEHKAAH@Z 00407b00 f i PreferencesDlg.obj
 0001:00006b00       ?Lookup@?$CMap@W4TDC_COLUMN@@W41@PBUTDCCOLUMN@@AAPBU2@@@QBEHW4TDC_COLUMN@@AAPBUTDCCOLUMN@@@Z 00407b00 f i PreferencesDlg.obj
 0001:00006b00       ?Lookup@?$CMap@KKKK@@QBEHKAAK@Z 00407b00 f i PreferencesDlg.obj
 0001:00006b00       ?Lookup@?$CMap@KKPAVTODOSTRUCTURE@@AAPAV1@@@QBEHKAAPAVTODOSTRUCTURE@@@Z 00407b00 f i PreferencesDlg.obj
 0001:00006b00       ?Lookup@?$CMap@KKPAVTODOITEM@@AAPAV1@@@QBEHKAAPAVTODOITEM@@@Z 00407b00 f i PreferencesDlg.obj
 0001:00006b00       ?Lookup@?$CMap@KKKAAK@@QBEHKAAK@Z 00407b00 f i PreferencesDlg.obj
 0001:00006b00       ?Lookup@?$CMap@KKPAVCXmlItem@@AAPAV1@@@QBEHKAAPAVCXmlItem@@@Z 00407b00 f i PreferencesDlg.obj
 0001:00006b00       ?Lookup@?$CMap@W4TDC_STYLE@@W41@HAAH@@QBEHW4TDC_STYLE@@AAH@Z 00407b00 f i PreferencesDlg.obj
 0001:00006b42       ??A?$CMap@PAXPAXPAVCXmlItem@@AAPAV1@@@QAEAAPAVCXmlItem@@PAX@Z 00407b42 f i PreferencesDlg.obj
 0001:00006b42       ??A?$CMap@W4TDC_COLUMN@@W41@PBUTDCCOLUMN@@AAPBU2@@@QAEAAPBUTDCCOLUMN@@W4TDC_COLUMN@@@Z 00407b42 f i PreferencesDlg.obj
 0001:00006b42       ??A?$CMap@PAU_TREEITEM@@PAU1@IAAI@@QAEAAIPAU_TREEITEM@@@Z 00407b42 f i PreferencesDlg.obj
 0001:00006b42       ??A?$CMap@KKKAAK@@QAEAAKK@Z 00407b42 f i PreferencesDlg.obj
 0001:00006b42       ??A?$CMap@KKHAAH@@QAEAAHK@Z 00407b42 f i PreferencesDlg.obj
 0001:00006b42       ??A?$CMap@IIKAAK@@QAEAAKI@Z 00407b42 f i PreferencesDlg.obj
 0001:00006b42       ??A?$CMap@KKPAVCXmlItem@@AAPAV1@@@QAEAAPAVCXmlItem@@K@Z 00407b42 f i PreferencesDlg.obj
 0001:00006b42       ??A?$CMap@KKKK@@QAEAAKK@Z  00407b42 f i PreferencesDlg.obj
 0001:00006b42       ??A?$CMap@W4TDC_STYLE@@W41@HAAH@@QAEAAHW4TDC_STYLE@@@Z 00407b42 f i PreferencesDlg.obj
 0001:00006b42       ??A?$CMap@KKPAVTODOSTRUCTURE@@AAPAV1@@@QAEAAPAVTODOSTRUCTURE@@K@Z 00407b42 f i PreferencesDlg.obj
 0001:00006b42       ??A?$CMap@PAVCFilteredToDoCtrl@@PAV1@PAVCBrowserDlg@@PAV2@@@QAEAAPAVCBrowserDlg@@PAVCFilteredToDoCtrl@@@Z 00407b42 f i PreferencesDlg.obj
 0001:00006b42       ??A?$CMap@KKHH@@QAEAAHK@Z  00407b42 f i PreferencesDlg.obj
 0001:00006b42       ??A?$CMap@KKPAVTODOITEM@@AAPAV1@@@QAEAAPAVTODOITEM@@K@Z 00407b42 f i PreferencesDlg.obj
 0001:00006b42       ??A?$CMap@KKPAU_TREEITEM@@AAPAU1@@@QAEAAPAU_TREEITEM@@K@Z 00407b42 f i PreferencesDlg.obj
 0001:00006b42       ??A?$CMap@PAVCPreferencesPageBase@@PAV1@PAU_TREEITEM@@AAPAU2@@@QAEAAPAU_TREEITEM@@PAVCPreferencesPageBase@@@Z 00407b42 f i PreferencesDlg.obj
 0001:00006baf       ??1?$CMap@PAVCPreferencesPageBase@@PAV1@PAU_TREEITEM@@AAPAU2@@@UAE@XZ 00407baf f i PreferencesDlg.obj
 0001:00006be2       ??1?$CMap@PAU_TREEITEM@@PAU1@IAAI@@UAE@XZ 00407be2 f i PreferencesDlg.obj
 0001:00006c15       ?Serialize@?$CMap@KKPAVTODOITEM@@AAPAV1@@@UAEXAAVCArchive@@@Z 00407c15 f i PreferencesDlg.obj
 0001:00006c15       ?Serialize@?$CMap@PAXPAXPAVCXmlItem@@AAPAV1@@@UAEXAAVCArchive@@@Z 00407c15 f i PreferencesDlg.obj
 0001:00006c15       ?Serialize@?$CMap@PAU_TREEITEM@@PAU1@IAAI@@UAEXAAVCArchive@@@Z 00407c15 f i PreferencesDlg.obj
 0001:00006c15       ?Serialize@?$CMap@KKKAAK@@UAEXAAVCArchive@@@Z 00407c15 f i PreferencesDlg.obj
 0001:00006c15       ?Serialize@?$CMap@KKPAU_TREEITEM@@AAPAU1@@@UAEXAAVCArchive@@@Z 00407c15 f i PreferencesDlg.obj
 0001:00006c15       ?Serialize@?$CMap@KKPAVTODOSTRUCTURE@@AAPAV1@@@UAEXAAVCArchive@@@Z 00407c15 f i PreferencesDlg.obj
 0001:00006c15       ?Serialize@?$CMap@W4TDC_STYLE@@W41@HAAH@@UAEXAAVCArchive@@@Z 00407c15 f i PreferencesDlg.obj
 0001:00006c15       ?Serialize@?$CMap@IIKAAK@@UAEXAAVCArchive@@@Z 00407c15 f i PreferencesDlg.obj
 0001:00006c15       ?Serialize@?$CMap@W4TDC_COLUMN@@W41@PBUTDCCOLUMN@@AAPBU2@@@UAEXAAVCArchive@@@Z 00407c15 f i PreferencesDlg.obj
 0001:00006c15       ?Serialize@?$CMap@KKPAVCXmlItem@@AAPAV1@@@UAEXAAVCArchive@@@Z 00407c15 f i PreferencesDlg.obj
 0001:00006c15       ?Serialize@?$CMap@KKHAAH@@UAEXAAVCArchive@@@Z 00407c15 f i PreferencesDlg.obj
 0001:00006c15       ?Serialize@?$CMap@PAVCPreferencesPageBase@@PAV1@PAU_TREEITEM@@AAPAU2@@@UAEXAAVCArchive@@@Z 00407c15 f i PreferencesDlg.obj
 0001:00006cb4       ??_E?$CMap@PAVCPreferencesPageBase@@PAV1@PAU_TREEITEM@@AAPAU2@@@UAEPAXI@Z 00407cb4 f i PreferencesDlg.obj
 0001:00006cb4       ??_G?$CMap@PAVCPreferencesPageBase@@PAV1@PAU_TREEITEM@@AAPAU2@@@UAEPAXI@Z 00407cb4 f i PreferencesDlg.obj
 0001:00006cd0       ??_E?$CMap@PAU_TREEITEM@@PAU1@IAAI@@UAEPAXI@Z 00407cd0 f i PreferencesDlg.obj
 0001:00006cd0       ??_G?$CMap@PAU_TREEITEM@@PAU1@IAAI@@UAEPAXI@Z 00407cd0 f i PreferencesDlg.obj
 0001:00006cec       ?NewAssoc@?$CMap@PAU_TREEITEM@@PAU1@IAAI@@IAEPAUCAssoc@1@XZ 00407cec f i PreferencesDlg.obj
 0001:00006cec       ?NewAssoc@?$CMap@KKKAAK@@IAEPAUCAssoc@1@XZ 00407cec f i PreferencesDlg.obj
 0001:00006cec       ?NewAssoc@?$CMap@PAVCFilteredToDoCtrl@@PAV1@PAVCBrowserDlg@@PAV2@@@IAEPAUCAssoc@1@XZ 00407cec f i PreferencesDlg.obj
 0001:00006cec       ?NewAssoc@?$CMap@W4TDC_STYLE@@W41@HAAH@@IAEPAUCAssoc@1@XZ 00407cec f i PreferencesDlg.obj
 0001:00006cec       ?NewAssoc@?$CMap@KKHH@@IAEPAUCAssoc@1@XZ 00407cec f i PreferencesDlg.obj
 0001:00006cec       ?NewAssoc@?$CMap@KKPAVCXmlItem@@AAPAV1@@@IAEPAUCAssoc@1@XZ 00407cec f i PreferencesDlg.obj
 0001:00006cec       ?NewAssoc@?$CMap@PAXPAXPAVCXmlItem@@AAPAV1@@@IAEPAUCAssoc@1@XZ 00407cec f i PreferencesDlg.obj
 0001:00006cec       ?NewAssoc@?$CMap@KKKK@@IAEPAUCAssoc@1@XZ 00407cec f i PreferencesDlg.obj
 0001:00006cec       ?NewAssoc@?$CMap@KKPAU_TREEITEM@@AAPAU1@@@IAEPAUCAssoc@1@XZ 00407cec f i PreferencesDlg.obj
 0001:00006cec       ?NewAssoc@?$CMap@IIKAAK@@IAEPAUCAssoc@1@XZ 00407cec f i PreferencesDlg.obj
 0001:00006cec       ?NewAssoc@?$CMap@KKPAVTODOITEM@@AAPAV1@@@IAEPAUCAssoc@1@XZ 00407cec f i PreferencesDlg.obj
 0001:00006cec       ?NewAssoc@?$CMap@KKHAAH@@IAEPAUCAssoc@1@XZ 00407cec f i PreferencesDlg.obj
 0001:00006cec       ?NewAssoc@?$CMap@PAVCPreferencesPageBase@@PAV1@PAU_TREEITEM@@AAPAU2@@@IAEPAUCAssoc@1@XZ 00407cec f i PreferencesDlg.obj
 0001:00006cec       ?NewAssoc@?$CMap@KKPAVTODOSTRUCTURE@@AAPAV1@@@IAEPAUCAssoc@1@XZ 00407cec f i PreferencesDlg.obj
 0001:00006cec       ?NewAssoc@?$CMap@W4TDC_COLUMN@@W41@PBUTDCCOLUMN@@AAPBU2@@@IAEPAUCAssoc@1@XZ 00407cec f i PreferencesDlg.obj
 0001:00006dbf       ?CreateObject@CPreferencesExportPage@@SGPAVCObject@@XZ 00407dbf f   PreferencesExportPage.obj
 0001:00006df4       ?GetRuntimeClass@CPreferencesExportPage@@UBEPAUCRuntimeClass@@XZ 00407df4 f   PreferencesExportPage.obj
 0001:00006dfa       ??0CPreferencesExportPage@@QAE@XZ 00407dfa f   PreferencesExportPage.obj
 0001:00006f0c       ??_GCPreferencesExportPage@@UAEPAXI@Z 00407f0c f i PreferencesExportPage.obj
 0001:00006f0c       ??_ECPreferencesExportPage@@UAEPAXI@Z 00407f0c f i PreferencesExportPage.obj
 0001:00006f28       ??1CPreferencesExportPage@@UAE@XZ 00407f28 f   PreferencesExportPage.obj
 0001:00006fc3       ?DoDataExchange@CPreferencesExportPage@@MAEXPAVCDataExchange@@@Z 00407fc3 f   PreferencesExportPage.obj
 0001:0000710a       ?GetMessageMap@CPreferencesExportPage@@MBEPBUAFX_MSGMAP@@XZ 0040810a f   PreferencesExportPage.obj
 0001:00007110       ?OnInitDialog@CPreferencesExportPage@@MAEHXZ 00408110 f   PreferencesExportPage.obj
 0001:00007177       ?OnChangeTextIndentType@CPreferencesExportPage@@IAEXXZ 00408177 f   PreferencesExportPage.obj
 0001:000071ba       ?GetHtmlCharSet@CPreferencesExportPage@@QBE?AVCString@@XZ 004081ba f   PreferencesExportPage.obj
 0001:0000721f       ?LoadPreferences@CPreferencesExportPage@@MAEXABVCPreferences@@@Z 0040821f f   PreferencesExportPage.obj
 0001:000073a8       ?SavePreferences@CPreferencesExportPage@@MAEXAAVCPreferences@@@Z 004083a8 f   PreferencesExportPage.obj
 0001:0000747a       ?OnEEBtnClick@CPreferencesExportPage@@IAEJIJ@Z 0040847a f   PreferencesExportPage.obj
 0001:000074fe       ?OnExportspacefornotes@CPreferencesExportPage@@IAEXXZ 004084fe f   PreferencesExportPage.obj
 0001:00007541       ??_GCComboBox@@UAEPAXI@Z   00408541 f i PreferencesExportPage.obj
 0001:00007541       ??_ECComboBox@@UAEPAXI@Z   00408541 f i PreferencesExportPage.obj
 0001:00007e7a       ?CreateObject@CPreferencesFile2Page@@SGPAVCObject@@XZ 00408e7a f   PreferencesFile2Page.obj
 0001:00007eb0       ?GetRuntimeClass@CPreferencesFile2Page@@UBEPAUCRuntimeClass@@XZ 00408eb0 f   PreferencesFile2Page.obj
 0001:00007eb6       ??0CPreferencesFile2Page@@QAE@PBVCImportExportMgr@@@Z 00408eb6 f   PreferencesFile2Page.obj
 0001:0000801a       ??_ECPreferencesFile2Page@@UAEPAXI@Z 0040901a f i PreferencesFile2Page.obj
 0001:0000801a       ??_GCPreferencesFile2Page@@UAEPAXI@Z 0040901a f i PreferencesFile2Page.obj
 0001:00008036       ??1CPreferencesFile2Page@@UAE@XZ 00409036 f   PreferencesFile2Page.obj
 0001:000080ef       ?DoDataExchange@CPreferencesFile2Page@@MAEXPAVCDataExchange@@@Z 004090ef f   PreferencesFile2Page.obj
 0001:00008300       ?GetMessageMap@CPreferencesFile2Page@@MBEPBUAFX_MSGMAP@@XZ 00409300 f   PreferencesFile2Page.obj
 0001:00008306       ?OnInitDialog@CPreferencesFile2Page@@MAEHXZ 00409306 f   PreferencesFile2Page.obj
 0001:00008630       ?OnEEBtnClick@CPreferencesFile2Page@@IAEJIJ@Z 00409630 f   PreferencesFile2Page.obj
 0001:000086be       ?LoadPreferences@CPreferencesFile2Page@@MAEXABVCPreferences@@@Z 004096be f   PreferencesFile2Page.obj
 0001:000089b2       ?SavePreferences@CPreferencesFile2Page@@MAEXAAVCPreferences@@@Z 004099b2 f   PreferencesFile2Page.obj
 0001:00008b09       ?OnBackuponsave@CPreferencesFile2Page@@IAEXXZ 00409b09 f   PreferencesFile2Page.obj
 0001:00008be6       ?OnAutosave@CPreferencesFile2Page@@IAEXXZ 00409be6 f   PreferencesFile2Page.obj
 0001:00008c14       ?OnExporttofolder@CPreferencesFile2Page@@IAEXXZ 00409c14 f   PreferencesFile2Page.obj
 0001:00008c52       ?OnAutoexport@CPreferencesFile2Page@@IAEXXZ 00409c52 f   PreferencesFile2Page.obj
 0001:00008d7f       ?GetAutoExportFolderPath@CPreferencesFile2Page@@QBE?AVCString@@XZ 00409d7f f   PreferencesFile2Page.obj
 0001:00008dfa       ?OnUsestylesheetforsave@CPreferencesFile2Page@@IAEXXZ 00409dfa f   PreferencesFile2Page.obj
 0001:00008e55       ?OnOtherexport@CPreferencesFile2Page@@IAEXXZ 00409e55 f   PreferencesFile2Page.obj
 0001:00008e55       ?OnHtmlexport@CPreferencesFile2Page@@IAEXXZ 00409e55 f   PreferencesFile2Page.obj
 0001:00008ef3       ?GetSaveExportStylesheet@CPreferencesFile2Page@@QBE?AVCString@@XZ 00409ef3 f   PreferencesFile2Page.obj
 0001:00008f8b       ?GetBackupLocation@CPreferencesFile2Page@@QBE?AVCString@@PBG@Z 00409f8b f   PreferencesFile2Page.obj
 0001:000090a6       ?OnChangeBackupFolderType@CPreferencesFile2Page@@IAEXXZ 0040a0a6 f   PreferencesFile2Page.obj
 0001:00009a7b       ?CreateObject@CPreferencesFilePage@@SGPAVCObject@@XZ 0040aa7b f   PreferencesFilePage.obj
 0001:00009ab0       ?GetRuntimeClass@CPreferencesFilePage@@UBEPAUCRuntimeClass@@XZ 0040aab0 f   PreferencesFilePage.obj
 0001:00009ab6       ??0CPreferencesFilePage@@QAE@XZ 0040aab6 f   PreferencesFilePage.obj
 0001:00009b5b       ??_GCPreferencesFilePage@@UAEPAXI@Z 0040ab5b f i PreferencesFilePage.obj
 0001:00009b5b       ??_ECPreferencesFilePage@@UAEPAXI@Z 0040ab5b f i PreferencesFilePage.obj
 0001:00009b77       ??1CPreferencesFilePage@@UAE@XZ 0040ab77 f   PreferencesFilePage.obj
 0001:00009bf4       ?DoDataExchange@CPreferencesFilePage@@MAEXPAVCDataExchange@@@Z 0040abf4 f   PreferencesFilePage.obj
 0001:00009d6e       ?GetMessageMap@CPreferencesFilePage@@MBEPBUAFX_MSGMAP@@XZ 0040ad6e f   PreferencesFilePage.obj
 0001:00009d74       ?OnInitDialog@CPreferencesFilePage@@MAEHXZ 0040ad74 f   PreferencesFilePage.obj
 0001:00009ec7       ?OnRemovearchiveditems@CPreferencesFilePage@@IAEXXZ 0040aec7 f   PreferencesFilePage.obj
 0001:00009f12       ?OnNotifyDueOnLoad@CPreferencesFilePage@@IAEXXZ 0040af12 f   PreferencesFilePage.obj
 0001:00009f40       ?OnNotifyDueOnSwitch@CPreferencesFilePage@@IAEXXZ 0040af40 f   PreferencesFilePage.obj
 0001:00009f6e       ?OnDisplayduetasksinhtml@CPreferencesFilePage@@IAEXXZ 0040af6e f   PreferencesFilePage.obj
 0001:00009fde       ?OnUsestylesheetfordueitems@CPreferencesFilePage@@IAEXXZ 0040afde f   PreferencesFilePage.obj
 0001:0000a01c       ?OnOnlyshowduetaskforperson@CPreferencesFilePage@@IAEXXZ 0040b01c f   PreferencesFilePage.obj
 0001:0000a04a       ?LoadPreferences@CPreferencesFilePage@@MAEXABVCPreferences@@@Z 0040b04a f   PreferencesFilePage.obj
 0001:0000a31e       ?SavePreferences@CPreferencesFilePage@@MAEXAAVCPreferences@@@Z 0040b31e f   PreferencesFilePage.obj
 0001:0000a49b       ?GetDueTaskStylesheet@CPreferencesFilePage@@QBE?AVCString@@XZ 0040b49b f   PreferencesFilePage.obj
 0001:0000ae99       ?CreateObject@CPreferencesGenPage@@SGPAVCObject@@XZ 0040be99 f   PreferencesGenPage.obj
 0001:0000aece       ?GetRuntimeClass@CPreferencesGenPage@@UBEPAUCRuntimeClass@@XZ 0040bece f   PreferencesGenPage.obj
 0001:0000aed4       ??0CPreferencesGenPage@@QAE@XZ 0040bed4 f   PreferencesGenPage.obj
 0001:0000af9b       ??_ECPreferencesGenPage@@UAEPAXI@Z 0040bf9b f i PreferencesGenPage.obj
 0001:0000af9b       ??_GCPreferencesGenPage@@UAEPAXI@Z 0040bf9b f i PreferencesGenPage.obj
 0001:0000afb7       ??1CPreferencesGenPage@@UAE@XZ 0040bfb7 f   PreferencesGenPage.obj
 0001:0000b043       ?DoDataExchange@CPreferencesGenPage@@MAEXPAVCDataExchange@@@Z 0040c043 f   PreferencesGenPage.obj
 0001:0000b2b4       ?GetMessageMap@CPreferencesGenPage@@MBEPBUAFX_MSGMAP@@XZ 0040c2b4 f   PreferencesGenPage.obj
 0001:0000b2ba       ?OnInitDialog@CPreferencesGenPage@@MAEHXZ 0040c2ba f   PreferencesGenPage.obj
 0001:0000b470       ?OnUseSystray@CPreferencesGenPage@@IAEXXZ 0040c470 f   PreferencesGenPage.obj
 0001:0000b4bb       ?OnSpecifyglobalhotkey@CPreferencesGenPage@@IAEXXZ 0040c4bb f   PreferencesGenPage.obj
 0001:0000b50c       ?OnMultiinstance@CPreferencesGenPage@@IAEXXZ 0040c50c f   PreferencesGenPage.obj
 0001:0000b56d       ?OnClearMRU@CPreferencesGenPage@@IAEXXZ 0040c56d f   PreferencesGenPage.obj
 0001:0000b590       ?LoadPreferences@CPreferencesGenPage@@MAEXABVCPreferences@@@Z 0040c590 f   PreferencesGenPage.obj
 0001:0000b81f       ?SavePreferences@CPreferencesGenPage@@MAEXAAVCPreferences@@@Z 0040c81f f   PreferencesGenPage.obj
 0001:0000ba54       ?OnSelchangeLanguage@CPreferencesGenPage@@IAEXXZ 0040ca54 f   PreferencesGenPage.obj
 0001:0000ba94       ?EnableDisableLanguageOptions@CPreferencesGenPage@@IAEXXZ 0040ca94 f   PreferencesGenPage.obj
 0001:0000bb57       ?OnMinimizeonnoedit@CPreferencesGenPage@@IAEXXZ 0040cb57 f   PreferencesGenPage.obj
 0001:0000bb7c       ?OnUseStickies@CPreferencesGenPage@@IAEXXZ 0040cb7c f   PreferencesGenPage.obj
 0001:0000bbbe       ?GetUseStickies@CPreferencesGenPage@@QBEHAAVCString@@@Z 0040cbbe f   PreferencesGenPage.obj
 0001:0000bbf3       ?OnCleanupDictionary@CPreferencesGenPage@@IAEXXZ 0040cbf3 f   PreferencesGenPage.obj
 0001:0000bc54       ??_ECStatic@@UAEPAXI@Z     0040cc54 f i PreferencesGenPage.obj
 0001:0000bc54       ??_GCStatic@@UAEPAXI@Z     0040cc54 f i PreferencesGenPage.obj
 0001:0000bc9c       ?CreateObject@CPreferencesMultiUserPage@@SGPAVCObject@@XZ 0040cc9c f   PreferencesMultiUserPage.obj
 0001:0000bcd1       ?GetRuntimeClass@CPreferencesMultiUserPage@@UBEPAUCRuntimeClass@@XZ 0040ccd1 f   PreferencesMultiUserPage.obj
 0001:0000bcd7       ??0CPreferencesMultiUserPage@@QAE@XZ 0040ccd7 f   PreferencesMultiUserPage.obj
 0001:0000bd53       ??_GCPreferencesMultiUserPage@@UAEPAXI@Z 0040cd53 f i PreferencesMultiUserPage.obj
 0001:0000bd53       ??_ECPreferencesMultiUserPage@@UAEPAXI@Z 0040cd53 f i PreferencesMultiUserPage.obj
 0001:0000bd6f       ??1CPreferencesMultiUserPage@@UAE@XZ 0040cd6f f   PreferencesMultiUserPage.obj
 0001:0000bdce       ?DoDataExchange@CPreferencesMultiUserPage@@MAEXPAVCDataExchange@@@Z 0040cdce f   PreferencesMultiUserPage.obj
 0001:0000bf12       ?GetMessageMap@CPreferencesMultiUserPage@@MBEPBUAFX_MSGMAP@@XZ 0040cf12 f   PreferencesMultiUserPage.obj
 0001:0000bf18       ?OnInitDialog@CPreferencesMultiUserPage@@MAEHXZ 0040cf18 f   PreferencesMultiUserPage.obj
 0001:0000bfa4       ?GetReadonlyReloadOption@CPreferencesMultiUserPage@@QBEHXZ 0040cfa4 f   PreferencesMultiUserPage.obj
 0001:0000bfb8       ?GetTimestampReloadOption@CPreferencesMultiUserPage@@QBEHXZ 0040cfb8 f   PreferencesMultiUserPage.obj
 0001:0000bfcc       ?OnPromptreloadonwritable@CPreferencesMultiUserPage@@IAEXXZ 0040cfcc f   PreferencesMultiUserPage.obj
 0001:0000bffa       ?OnPromptreloadontimestamp@CPreferencesMultiUserPage@@IAEXXZ 0040cffa f   PreferencesMultiUserPage.obj
 0001:0000c028       ?OnCheckinonnoedit@CPreferencesMultiUserPage@@IAEXXZ 0040d028 f   PreferencesMultiUserPage.obj
 0001:0000c056       ?LoadPreferences@CPreferencesMultiUserPage@@MAEXABVCPreferences@@@Z 0040d056 f   PreferencesMultiUserPage.obj
 0001:0000c170       ?SavePreferences@CPreferencesMultiUserPage@@MAEXAAVCPreferences@@@Z 0040d170 f   PreferencesMultiUserPage.obj
 0001:0000c26c       ?OnUse3rdpartysourcectrl@CPreferencesMultiUserPage@@IAEXXZ 0040d26c f   PreferencesMultiUserPage.obj
 0001:0000d302       ??0CPreferencesShortcutsPage@@QAE@PAVCShortcutManager@@@Z 0040e302 f   PreferencesShortcutsPage.obj
 0001:0000d48e       ??_ECPreferencesShortcutsPage@@UAEPAXI@Z 0040e48e f i PreferencesShortcutsPage.obj
 0001:0000d48e       ??_GCPreferencesShortcutsPage@@UAEPAXI@Z 0040e48e f i PreferencesShortcutsPage.obj
 0001:0000d4aa       ??1CPreferencesShortcutsPage@@UAE@XZ 0040e4aa f   PreferencesShortcutsPage.obj
 0001:0000d55b       ?DoDataExchange@CPreferencesShortcutsPage@@MAEXPAVCDataExchange@@@Z 0040e55b f   PreferencesShortcutsPage.obj
 0001:0000d5c5       ?GetMessageMap@CPreferencesShortcutsPage@@MBEPBUAFX_MSGMAP@@XZ 0040e5c5 f   PreferencesShortcutsPage.obj
 0001:0000d5cb       ?OnInitDialog@CPreferencesShortcutsPage@@MAEHXZ 0040e5cb f   PreferencesShortcutsPage.obj
 0001:0000d73b       ?AddMenuItem@CPreferencesShortcutsPage@@IAEPAU_TREEITEM@@PAU2@PBVCMenu@@H@Z 0040e73b f   PreferencesShortcutsPage.obj
 0001:0000d95a       ?GetMenuStringW@CMenu@@QBEHIAAVCString@@I@Z 0040e95a f i PreferencesShortcutsPage.obj
 0001:0000d9b6       ?AddMiscShortcuts@CPreferencesShortcutsPage@@IAEXXZ 0040e9b6 f   PreferencesShortcutsPage.obj
 0001:0000daee       ?OnSelchangedShortcuts@CPreferencesShortcutsPage@@IAEXPAUtagNMHDR@@PAJ@Z 0040eaee f   PreferencesShortcutsPage.obj
 0001:0000dbef       ?IsMiscCommandID@CPreferencesShortcutsPage@@KAHI@Z 0040ebef f   PreferencesShortcutsPage.obj
 0001:0000dc07       ?OnOK@CPreferencesShortcutsPage@@MAEXXZ 0040ec07 f   PreferencesShortcutsPage.obj
 0001:0000dc6b       ?OnHelpInfo@CPreferencesShortcutsPage@@IAEHPAUtagHELPINFO@@@Z 0040ec6b f   PreferencesShortcutsPage.obj
 0001:0000dc97       ?OnAssignshortcut@CPreferencesShortcutsPage@@IAEXXZ 0040ec97 f   PreferencesShortcutsPage.obj
 0001:0000de0a       ?OnChangeShortcut@CPreferencesShortcutsPage@@IAEXXZ 0040ee0a f   PreferencesShortcutsPage.obj
 0001:0000df6d       ?OnGutterDrawItem@CPreferencesShortcutsPage@@IAEJIJ@Z 0040ef6d f   PreferencesShortcutsPage.obj
 0001:0000e15b       ?OnGutterPostDrawItem@CPreferencesShortcutsPage@@IAEJIJ@Z 0040f15b f   PreferencesShortcutsPage.obj
 0001:0000e161       ?OnGutterRecalcColWidth@CPreferencesShortcutsPage@@IAEJIJ@Z 0040f161 f   PreferencesShortcutsPage.obj
 0001:0000e20a       ?IsHeld@CHoldRedraw@@SAHPAUHWND__@@@Z 0040f20a f i PreferencesShortcutsPage.obj
 0001:0000e22c       ?GetLongestShortcutText@CPreferencesShortcutsPage@@IAEHPAU_TREEITEM@@PAVCDC@@@Z 0040f22c f   PreferencesShortcutsPage.obj
 0001:0000e2ee       ?OnTreeCustomDraw@CPreferencesShortcutsPage@@IAEXPAUtagNMHDR@@PAJ@Z 0040f2ee f   PreferencesShortcutsPage.obj
 0001:0000e43f       ?PreTranslateMessage@CPreferencesShortcutsPage@@UAEHPAUtagMSG@@@Z 0040f43f f   PreferencesShortcutsPage.obj
 0001:0000e541       ?LoadPreferences@CPreferencesShortcutsPage@@MAEXABVCPreferences@@@Z 0040f541 f   PreferencesShortcutsPage.obj
 0001:0000e563       ?SavePreferences@CPreferencesShortcutsPage@@MAEXAAVCPreferences@@@Z 0040f563 f   PreferencesShortcutsPage.obj
 0001:0000e596       ?OnShowCmdIDs@CPreferencesShortcutsPage@@IAEXXZ 0040f596 f   PreferencesShortcutsPage.obj
 0001:0000e5ed       ?AddCommandIDsToTree@CPreferencesShortcutsPage@@IAEXPAU_TREEITEM@@H@Z 0040f5ed f   PreferencesShortcutsPage.obj
 0001:0000e74a       ?OnCopyall@CPreferencesShortcutsPage@@IAEXXZ 0040f74a f   PreferencesShortcutsPage.obj
 0001:0000e7c0       ?CopyItem@CPreferencesShortcutsPage@@IAEHPAU_TREEITEM@@AAVCString@@@Z 0040f7c0 f   PreferencesShortcutsPage.obj
 0001:0000e990       ?OnSize@CPreferencesShortcutsPage@@IAEXIHH@Z 0040f990 f   PreferencesShortcutsPage.obj
 0001:0000ea9a       ?RemoveKey@?$CMap@PAXPAXPAVCXmlItem@@AAPAV1@@@QAEHPAX@Z 0040fa9a f i PreferencesShortcutsPage.obj
 0001:0000ea9a       ?RemoveKey@?$CMap@IIKAAK@@QAEHI@Z 0040fa9a f i PreferencesShortcutsPage.obj
 0001:0000ea9a       ?RemoveKey@?$CMap@W4TDC_ATTRIBUTE@@W41@DAAD@@QAEHW4TDC_ATTRIBUTE@@@Z 0040fa9a f i PreferencesShortcutsPage.obj
 0001:0000ea9a       ?RemoveKey@?$CMap@KKPAU_TREEITEM@@AAPAU1@@@QAEHK@Z 0040fa9a f i PreferencesShortcutsPage.obj
 0001:0000ea9a       ?RemoveKey@?$CMap@KKPAVTODOITEM@@AAPAV1@@@QAEHK@Z 0040fa9a f i PreferencesShortcutsPage.obj
 0001:0000ea9a       ?RemoveKey@?$CMap@PAVCFilteredToDoCtrl@@PAV1@PAVCBrowserDlg@@PAV2@@@QAEHPAVCFilteredToDoCtrl@@@Z 0040fa9a f i PreferencesShortcutsPage.obj
 0001:0000ea9a       ?RemoveKey@?$CMap@KKPAVTODOSTRUCTURE@@AAPAV1@@@QAEHK@Z 0040fa9a f i PreferencesShortcutsPage.obj
 0001:0000ea9a       ?RemoveKey@?$CMap@W4TDC_COLUMN@@W41@DAAD@@QAEHW4TDC_COLUMN@@@Z 0040fa9a f i PreferencesShortcutsPage.obj
 0001:0000eadc       ??1?$CMap@IIKAAK@@UAE@XZ   0040fadc f i PreferencesShortcutsPage.obj
 0001:0000eb0f       ??_E?$CMap@IIKAAK@@UAEPAXI@Z 0040fb0f f i PreferencesShortcutsPage.obj
 0001:0000eb0f       ??_G?$CMap@IIKAAK@@UAEPAXI@Z 0040fb0f f i PreferencesShortcutsPage.obj
 0001:0000ebac       ?CreateObject@CPreferencesTaskCalcPage@@SGPAVCObject@@XZ 0040fbac f   PreferencesTaskCalcPage.obj
 0001:0000ebe1       ?GetRuntimeClass@CPreferencesTaskCalcPage@@UBEPAUCRuntimeClass@@XZ 0040fbe1 f   PreferencesTaskCalcPage.obj
 0001:0000ebe7       ??0CPreferencesTaskCalcPage@@QAE@XZ 0040fbe7 f   PreferencesTaskCalcPage.obj
 0001:0000ec39       ??_ECPreferencesTaskCalcPage@@UAEPAXI@Z 0040fc39 f i PreferencesTaskCalcPage.obj
 0001:0000ec39       ??_GCPreferencesTaskCalcPage@@UAEPAXI@Z 0040fc39 f i PreferencesTaskCalcPage.obj
 0001:0000ec55       ??1CPreferencesTaskCalcPage@@UAE@XZ 0040fc55 f   PreferencesTaskCalcPage.obj
 0001:0000eca5       ?DoDataExchange@CPreferencesTaskCalcPage@@MAEXPAVCDataExchange@@@Z 0040fca5 f   PreferencesTaskCalcPage.obj
 0001:0000ee57       ?GetMessageMap@CPreferencesTaskCalcPage@@MBEPBUAFX_MSGMAP@@XZ 0040fe57 f   PreferencesTaskCalcPage.obj
 0001:0000ee5d       ?OnInitDialog@CPreferencesTaskCalcPage@@MAEHXZ 0040fe5d f   PreferencesTaskCalcPage.obj
 0001:0000eec0       ?OnAveragepercentChange@CPreferencesTaskCalcPage@@IAEXXZ 0040fec0 f   PreferencesTaskCalcPage.obj
 0001:0000ef29       ?OnUsehighestpriority@CPreferencesTaskCalcPage@@IAEXXZ 0040ff29 f   PreferencesTaskCalcPage.obj
 0001:0000ef57       ?OnAutocalcpercentdone@CPreferencesTaskCalcPage@@IAEXXZ 0040ff57 f   PreferencesTaskCalcPage.obj
 0001:0000ef95       ?LoadPreferences@CPreferencesTaskCalcPage@@MAEXABVCPreferences@@@Z 0040ff95 f   PreferencesTaskCalcPage.obj
 0001:0000f1c8       ?SavePreferences@CPreferencesTaskCalcPage@@MAEXAAVCPreferences@@@Z 004101c8 f   PreferencesTaskCalcPage.obj
 0001:0000f37d       ?GetRecentlyModifiedPeriod@CPreferencesTaskCalcPage@@QBE?AVCOleDateTimeSpan@@XZ 0041037d f   PreferencesTaskCalcPage.obj
 0001:0000f3c8       ?OnSetStatusOnDone@CPreferencesTaskCalcPage@@IAEXXZ 004103c8 f   PreferencesTaskCalcPage.obj
 0001:0000f3f4       ?GetCompletionStatus@CPreferencesTaskCalcPage@@QBEHAAVCString@@@Z 004103f4 f   PreferencesTaskCalcPage.obj
 0001:0000f42a       ?OnChangeCompletionStatus@CPreferencesTaskCalcPage@@IAEXXZ 0041042a f   PreferencesTaskCalcPage.obj
 0001:0000f483       ?GetSyncCompletionToStatus@CPreferencesTaskCalcPage@@QBEHXZ 00410483 f   PreferencesTaskCalcPage.obj
 0001:0000f5dc       ?CreateObject@CPreferencesTaskDefPage@@SGPAVCObject@@XZ 004105dc f   PreferencesTaskDefPage.obj
 0001:0000f611       ?GetRuntimeClass@CPreferencesTaskDefPage@@UBEPAUCRuntimeClass@@XZ 00410611 f   PreferencesTaskDefPage.obj
 0001:0000f617       ??0CPreferencesTaskDefPage@@QAE@XZ 00410617 f   PreferencesTaskDefPage.obj
 0001:0000fba5       ??_ECPreferencesTaskDefPage@@UAEPAXI@Z 00410ba5 f i PreferencesTaskDefPage.obj
 0001:0000fba5       ??_GCPreferencesTaskDefPage@@UAEPAXI@Z 00410ba5 f i PreferencesTaskDefPage.obj
 0001:0000fbc1       ??1CBinaryData@@QAE@XZ     00410bc1 f i PreferencesTaskDefPage.obj
 0001:0000fbc1       ??1ATTRIBPREF@CPreferencesTaskDefPage@@QAE@XZ 00410bc1 f i PreferencesTaskDefPage.obj
 0001:0000fbc1       ??1TDCCADATA@@QAE@XZ       00410bc1 f i PreferencesTaskDefPage.obj
 0001:0000fbc1       ??1COLUMNVIS@CTDLColumnListBox@@QAE@XZ 00410bc1 f i PreferencesTaskDefPage.obj
 0001:0000fbc1       ??1ATTRIBCOLOR@@QAE@XZ     00410bc1 f i PreferencesTaskDefPage.obj
 0001:0000fbc1       ??1CONTENTFORMAT@@QAE@XZ   00410bc1 f i PreferencesTaskDefPage.obj
 0001:0000fbc6       ??1CPreferencesTaskDefPage@@UAE@XZ 00410bc6 f   PreferencesTaskDefPage.obj
 0001:0000fd7e       ?DoDataExchange@CPreferencesTaskDefPage@@MAEXPAVCDataExchange@@@Z 00410d7e f   PreferencesTaskDefPage.obj
 0001:0001006d       ?GetMessageMap@CPreferencesTaskDefPage@@MBEPBUAFX_MSGMAP@@XZ 0041106d f   PreferencesTaskDefPage.obj
 0001:00010073       ?OnInitDialog@CPreferencesTaskDefPage@@MAEHXZ 00411073 f   PreferencesTaskDefPage.obj
 0001:000104d7       ?LoadDefaultImages@CTDCImageList@@QAEHXZ 004114d7 f i PreferencesTaskDefPage.obj
 0001:00010525       ?GetReminder@CPreferencesTaskDefPage@@QBEHAAIAAH@Z 00411525 f   PreferencesTaskDefPage.obj
 0001:0001054c       ?SetPriorityColors@CPreferencesTaskDefPage@@QAEXABVCDWordArray@@@Z 0041154c f   PreferencesTaskDefPage.obj
 0001:0001055e       ?OnOK@CPreferencesTaskDefPage@@UAEXXZ 0041155e f   PreferencesTaskDefPage.obj
 0001:00010563       ?OnSetdefaultcolor@CPreferencesTaskDefPage@@IAEXXZ 00411563 f   PreferencesTaskDefPage.obj
 0001:00010577       ?OnUseparentattrib@CPreferencesTaskDefPage@@IAEXXZ 00411577 f   PreferencesTaskDefPage.obj
 0001:000105c2       ?GetListItems@CPreferencesTaskDefPage@@QBEHW4TDC_ATTRIBUTE@@AAVCStringArray@@@Z 004115c2 f   PreferencesTaskDefPage.obj
 0001:00010823       ?GetListIsReadonly@CPreferencesTaskDefPage@@QBEHW4TDC_ATTRIBUTE@@@Z 00411823 f   PreferencesTaskDefPage.obj
 0001:00010875       ?OnAttribUseChange@CPreferencesTaskDefPage@@IAEXXZ 00411875 f   PreferencesTaskDefPage.obj
 0001:00010909       ?GetParentAttribsUsed@CPreferencesTaskDefPage@@QBEHAAVCTDCAttributeMap@@AAH@Z 00411909 f   PreferencesTaskDefPage.obj
 0001:000109b2       ?LoadPreferences@CPreferencesTaskDefPage@@MAEXABVCPreferences@@@Z 004119b2 f   PreferencesTaskDefPage.obj
 0001:00010ef0       ?LoadDefaultListItems@CPreferencesTaskDefPage@@KA?AVCString@@ABVCPreferences@@PBG@Z 00411ef0 f   PreferencesTaskDefPage.obj
 0001:00010f60       ?SaveDefaultListItems@CPreferencesTaskDefPage@@KAXPBGAAVCPreferences@@0@Z 00411f60 f   PreferencesTaskDefPage.obj
 0001:00010fd5       ?SavePreferences@CPreferencesTaskDefPage@@MAEXAAVCPreferences@@@Z 00411fd5 f   PreferencesTaskDefPage.obj
 0001:000112f9       ?GetTaskAttributes@CPreferencesTaskDefPage@@QBEXAAVTODOITEM@@@Z 004122f9 f   PreferencesTaskDefPage.obj
 0001:00011467       ?OnSetdefaulticon@CPreferencesTaskDefPage@@IAEXXZ 00412467 f   PreferencesTaskDefPage.obj
 0001:0001151e       ??1CTDLTaskIconDlg@@UAE@XZ 0041251e f i PreferencesTaskDefPage.obj
 0001:00011595       ??1CTDLDialog@@UAE@XZ      00412595 f i PreferencesTaskDefPage.obj
 0001:000115ca       ?OnSelchangeReminder@CPreferencesTaskDefPage@@IAEXXZ 004125ca f   PreferencesTaskDefPage.obj
 0001:000115f6       ?Add@?$CArray@UATTRIBPREF@CPreferencesTaskDefPage@@AAU12@@@QAEHAAUATTRIBPREF@CPreferencesTaskDefPage@@@Z 004125f6 f i PreferencesTaskDefPage.obj
 0001:0001160a       ??A?$CArray@UCOLUMNVIS@CTDLColumnListBox@@AAU12@@@QBE?AUCOLUMNVIS@CTDLColumnListBox@@H@Z 0041260a f i PreferencesTaskDefPage.obj
 0001:0001160a       ??A?$CArray@UATTRIBVIS@CTDLAttributeListBox@@AAU12@@@QBE?AUATTRIBVIS@CTDLAttributeListBox@@H@Z 0041260a f i PreferencesTaskDefPage.obj
 0001:0001160a       ??A?$CArray@UATTRIBPREF@CPreferencesTaskDefPage@@AAU12@@@QBE?AUATTRIBPREF@CPreferencesTaskDefPage@@H@Z 0041260a f i PreferencesTaskDefPage.obj
 0001:00011624       ??1?$CArray@UATTRIBPREF@CPreferencesTaskDefPage@@AAU12@@@UAE@XZ 00412624 f i PreferencesTaskDefPage.obj
 0001:0001166b       ?Serialize@?$CArray@UATTRIBPREF@CPreferencesTaskDefPage@@AAU12@@@UAEXAAVCArchive@@@Z 0041266b f i PreferencesTaskDefPage.obj
 0001:000116aa       ??_G?$CArray@UATTRIBPREF@CPreferencesTaskDefPage@@AAU12@@@UAEPAXI@Z 004126aa f i PreferencesTaskDefPage.obj
 0001:000116aa       ??_E?$CArray@UATTRIBPREF@CPreferencesTaskDefPage@@AAU12@@@UAEPAXI@Z 004126aa f i PreferencesTaskDefPage.obj
 0001:000116c6       ?SetSize@?$CArray@UATTRIBPREF@CPreferencesTaskDefPage@@AAU12@@@QAEXHH@Z 004126c6 f i PreferencesTaskDefPage.obj
 0001:000117ed       ?SetAtGrow@?$CArray@UATTRIBPREF@CPreferencesTaskDefPage@@AAU12@@@QAEXHAAUATTRIBPREF@CPreferencesTaskDefPage@@@Z 004127ed f i PreferencesTaskDefPage.obj
 0001:0001182b       ?DestructElements@@YGXPAUATTRIBPREF@CPreferencesTaskDefPage@@H@Z 0041282b f i PreferencesTaskDefPage.obj
 0001:0001182b       ?DestructElements@@YGXPAUCOLUMNVIS@CTDLColumnListBox@@H@Z 0041282b f i PreferencesTaskDefPage.obj
 0001:0001184f       ?ConstructElements@@YGXPAUATTRIBPREF@CPreferencesTaskDefPage@@H@Z 0041284f f i PreferencesTaskDefPage.obj
 0001:000118de       ?CreateObject@CPreferencesTaskPage@@SGPAVCObject@@XZ 004128de f   PreferencesTaskPage.obj
 0001:00011913       ?GetRuntimeClass@CPreferencesTaskPage@@UBEPAUCRuntimeClass@@XZ 00412913 f   PreferencesTaskPage.obj
 0001:00011919       ??0CPreferencesTaskPage@@QAE@XZ 00412919 f   PreferencesTaskPage.obj
 0001:00011976       ??_ECPreferencesTaskPage@@UAEPAXI@Z 00412976 f i PreferencesTaskPage.obj
 0001:00011976       ??_GCPreferencesTaskPage@@UAEPAXI@Z 00412976 f i PreferencesTaskPage.obj
 0001:00011992       ??1CPreferencesTaskPage@@UAE@XZ 00412992 f   PreferencesTaskPage.obj
 0001:000119f1       ?DoDataExchange@CPreferencesTaskPage@@MAEXPAVCDataExchange@@@Z 004129f1 f   PreferencesTaskPage.obj
 0001:00011b47       ?GetMessageMap@CPreferencesTaskPage@@MBEPBUAFX_MSGMAP@@XZ 00412b47 f   PreferencesTaskPage.obj
 0001:00011b4d       ?OnInitDialog@CPreferencesTaskPage@@MAEHXZ 00412b4d f   PreferencesTaskPage.obj
 0001:00011bdd       ?GetHoursInOneDay@CPreferencesTaskPage@@QBENXZ 00412bdd f   PreferencesTaskPage.obj
 0001:00011c09       ?GetDaysInOneWeek@CPreferencesTaskPage@@QBENXZ 00412c09 f   PreferencesTaskPage.obj
 0001:00011c10       ?OnLogtime@CPreferencesTaskPage@@IAEXXZ 00412c10 f   PreferencesTaskPage.obj
 0001:00011c3e       ?OnChangeWeekends@CPreferencesTaskPage@@IAEXXZ 00412c3e f   PreferencesTaskPage.obj
 0001:00011c5c       ?LoadPreferences@CPreferencesTaskPage@@MAEXABVCPreferences@@@Z 00412c5c f   PreferencesTaskPage.obj
 0001:00011e06       ?SavePreferences@CPreferencesTaskPage@@MAEXAAVCPreferences@@@Z 00412e06 f   PreferencesTaskPage.obj
 0001:00011f56       ?OnNotifyTimeTracking@CPreferencesTaskPage@@IAEXXZ 00412f56 f   PreferencesTaskPage.obj
 0001:000128ae       ?CreateObject@CPreferencesToolPage@@SGPAVCObject@@XZ 004138ae f   PreferencesToolPage.obj
 0001:000128e5       ?GetRuntimeClass@CPreferencesToolPage@@UBEPAUCRuntimeClass@@XZ 004138e5 f   PreferencesToolPage.obj
 0001:000128eb       ??0CPreferencesToolPage@@QAE@H@Z 004138eb f   PreferencesToolPage.obj
 0001:00012a29       ??_GCPreferencesToolPage@@UAEPAXI@Z 00413a29 f i PreferencesToolPage.obj
 0001:00012a29       ??_ECPreferencesToolPage@@UAEPAXI@Z 00413a29 f i PreferencesToolPage.obj
 0001:00012a45       ??1CPreferencesToolPage@@UAE@XZ 00413a45 f   PreferencesToolPage.obj
 0001:00012b0d       ?DoDataExchange@CPreferencesToolPage@@MAEXPAVCDataExchange@@@Z 00413b0d f   PreferencesToolPage.obj
 0001:00012bbb       ?GetMessageMap@CPreferencesToolPage@@MBEPBUAFX_MSGMAP@@XZ 00413bbb f   PreferencesToolPage.obj
 0001:00012bc1       ?OnInitDialog@CPreferencesToolPage@@MAEHXZ 00413bc1 f   PreferencesToolPage.obj
 0001:00012e91       ?OnNewtool@CPreferencesToolPage@@IAEXXZ 00413e91 f   PreferencesToolPage.obj
 0001:00012f76       ?OnDeletetool@CPreferencesToolPage@@IAEXXZ 00413f76 f   PreferencesToolPage.obj
 0001:00012fc7       ?OnEndlabeleditToollist@CPreferencesToolPage@@IAEXPAUtagNMHDR@@PAJ@Z 00413fc7 f   PreferencesToolPage.obj
 0001:00013017       ?OnItemchangedToollist@CPreferencesToolPage@@IAEXPAUtagNMHDR@@PAJ@Z 00414017 f   PreferencesToolPage.obj
 0001:0001311a       ?EnableControls@CPreferencesToolPage@@IAEXXZ 0041411a f   PreferencesToolPage.obj
 0001:000131d5       ?GetCurSel@CPreferencesToolPage@@IAEHXZ 004141d5 f   PreferencesToolPage.obj
 0001:00013205       ?OnChangeToolpath@CPreferencesToolPage@@IAEXXZ 00414205 f   PreferencesToolPage.obj
 0001:00013245       ?RebuildListCtrlImages@CPreferencesToolPage@@IAEXXZ 00414245 f   PreferencesToolPage.obj
 0001:00013410       ?OnChangeIconPath@CPreferencesToolPage@@IAEXXZ 00414410 f   PreferencesToolPage.obj
 0001:00013450       ?GetUserTools@CPreferencesToolPage@@QBEHAAV?$CArray@UUSERTOOL@@AAU1@@@@Z 00414450 f   PreferencesToolPage.obj
 0001:0001346a       ?GetUserTool@CPreferencesToolPage@@QBEHHAAUUSERTOOL@@@Z 0041446a f   PreferencesToolPage.obj
 0001:000134c6       ??1USERTOOL@@QAE@XZ        004144c6 f i PreferencesToolPage.obj
 0001:00013516       ??4USERTOOL@@QAEAAU0@ABU0@@Z 00414516 f i PreferencesToolPage.obj
 0001:00013555       ?OnOK@CPreferencesToolPage@@UAEXXZ 00414555 f   PreferencesToolPage.obj
 0001:00013697       ??0USERTOOL@@QAE@XZ        00414697 f i PreferencesToolPage.obj
 0001:000136e0       ?OnKeydownToollist@CPreferencesToolPage@@IAEXPAUtagNMHDR@@PAJ@Z 004146e0 f   PreferencesToolPage.obj
 0001:0001372c       ?OnChangeCmdline@CPreferencesToolPage@@IAEXXZ 0041472c f   PreferencesToolPage.obj
 0001:00013764       ?OnInsertPlaceholder@CPreferencesToolPage@@IAEXI@Z 00414764 f   PreferencesToolPage.obj
 0001:000137a3       ?OnRunminimized@CPreferencesToolPage@@IAEXXZ 004147a3 f   PreferencesToolPage.obj
 0001:000137e4       ?OnGetFileIcon@CPreferencesToolPage@@IAEJIJ@Z 004147e4 f   PreferencesToolPage.obj
 0001:0001386d       ?OnTesttool@CPreferencesToolPage@@IAEXXZ 0041486d f   PreferencesToolPage.obj
 0001:00013965       ?MapCmdIDToPlaceholder@CPreferencesToolPage@@KA?AVCString@@I@Z 00414965 f   PreferencesToolPage.obj
 0001:00013b1f       ?MapCmdIDToType@CPreferencesToolPage@@KA?AW4CLA_TYPE@@I@Z 00414b1f f   PreferencesToolPage.obj
 0001:00013bc7       ?OnImport@CPreferencesToolPage@@IAEXXZ 00414bc7 f   PreferencesToolPage.obj
 0001:00013ea2       ??1CEnFileDialog@@UAE@XZ   00414ea2 f i PreferencesToolPage.obj
 0001:00013f0d       ??1CFileDialog@@UAE@XZ     00414f0d f i PreferencesToolPage.obj
 0001:00013f45       ?LoadPreferences@CPreferencesToolPage@@MAEXABVCPreferences@@@Z 00414f45 f   PreferencesToolPage.obj
 0001:000140e0       ?SavePreferences@CPreferencesToolPage@@MAEXAAVCPreferences@@@Z 004150e0 f   PreferencesToolPage.obj
 0001:0001420a       ??0USERTOOL@@QAE@ABU0@@Z   0041520a f i PreferencesToolPage.obj
 0001:0001426d       ?OnSize@CPreferencesToolPage@@IAEXIHH@Z 0041526d f   PreferencesToolPage.obj
 0001:000143dc       ?Add@?$CArray@UUSERTOOL@@AAU1@@@QAEHAAUUSERTOOL@@@Z 004153dc f i PreferencesToolPage.obj
 0001:00014407       ?Copy@?$CArray@UUSERTOOL@@AAU1@@@QAEXABV1@@Z 00415407 f i PreferencesToolPage.obj
 0001:00014446       ??A?$CArray@UUSERTOOL@@AAU1@@@QBE?AUUSERTOOL@@H@Z 00415446 f i PreferencesToolPage.obj
 0001:00014460       ??1?$CArray@UUSERTOOL@@AAU1@@@UAE@XZ 00415460 f i PreferencesToolPage.obj
 0001:000144a7       ?Serialize@?$CArray@UUSERTOOL@@AAU1@@@UAEXAAVCArchive@@@Z 004154a7 f i PreferencesToolPage.obj
 0001:000144e6       ??_E?$CArray@UUSERTOOL@@AAU1@@@UAEPAXI@Z 004154e6 f i PreferencesToolPage.obj
 0001:000144e6       ??_G?$CArray@UUSERTOOL@@AAU1@@@UAEPAXI@Z 004154e6 f i PreferencesToolPage.obj
 0001:00014502       ?SetSize@?$CArray@UUSERTOOL@@AAU1@@@QAEXHH@Z 00415502 f i PreferencesToolPage.obj
 0001:00014629       ?GetAt@?$CArray@UUSERTOOL@@AAU1@@@QBE?AUUSERTOOL@@H@Z 00415629 f i PreferencesToolPage.obj
 0001:0001464d       ?DestructElements@@YGXPAUUSERTOOL@@H@Z 0041564d f i PreferencesToolPage.obj
 0001:00014671       ?ConstructElements@@YGXPAUUSERTOOL@@H@Z 00415671 f i PreferencesToolPage.obj
 0001:000146cc       ??_GCEdit@@UAEPAXI@Z       004156cc f i PreferencesToolPage.obj
 0001:000146cc       ??_ECEdit@@UAEPAXI@Z       004156cc f i PreferencesToolPage.obj
 0001:000146e8       ??_GCListCtrl@@UAEPAXI@Z   004156e8 f i PreferencesToolPage.obj
 0001:000146e8       ??_ECListCtrl@@UAEPAXI@Z   004156e8 f i PreferencesToolPage.obj
 0001:00014704       ?GetFirstSelectedItemPosition@CListCtrl@@QBEPAU__POSITION@@XZ 00415704 f i PreferencesToolPage.obj
 0001:00014718       ?GetNextSelectedItem@CListCtrl@@QBEHAAPAU__POSITION@@@Z 00415718 f i PreferencesToolPage.obj
 0001:00015059       ?CreateObject@CPreferencesUIPage@@SGPAVCObject@@XZ 00416059 f   PreferencesUIPage.obj
 0001:00015090       ?_GetBaseClass@CPreferencesMultiUserPage@@KGPAUCRuntimeClass@@XZ 00416090 f   PreferencesUIPage.obj
 0001:00015090       ?_GetBaseClass@CPreferencesExportPage@@KGPAUCRuntimeClass@@XZ 00416090 f   PreferencesUIPage.obj
 0001:00015090       ?_GetBaseClass@CPreferencesTaskCalcPage@@KGPAUCRuntimeClass@@XZ 00416090 f   PreferencesUIPage.obj
 0001:00015090       ?_GetBaseClass@CPreferencesUIPage@@KGPAUCRuntimeClass@@XZ 00416090 f   PreferencesUIPage.obj
 0001:00015090       ?_GetBaseClass@CPreferencesFilePage@@KGPAUCRuntimeClass@@XZ 00416090 f   PreferencesUIPage.obj
 0001:00015090       ?_GetBaseClass@CPreferencesGenPage@@KGPAUCRuntimeClass@@XZ 00416090 f   PreferencesUIPage.obj
 0001:00015090       ?_GetBaseClass@CPreferencesTaskDefPage@@KGPAUCRuntimeClass@@XZ 00416090 f   PreferencesUIPage.obj
 0001:00015090       ?_GetBaseClass@CPreferencesTaskPage@@KGPAUCRuntimeClass@@XZ 00416090 f   PreferencesUIPage.obj
 0001:00015090       ?_GetBaseClass@CPreferencesFile2Page@@KGPAUCRuntimeClass@@XZ 00416090 f   PreferencesUIPage.obj
 0001:00015090       ?_GetBaseClass@CPreferencesUIVisibilityPage@@KGPAUCRuntimeClass@@XZ 00416090 f   PreferencesUIPage.obj
 0001:00015090       ?_GetBaseClass@CPreferencesToolPage@@KGPAUCRuntimeClass@@XZ 00416090 f   PreferencesUIPage.obj
 0001:00015096       ?GetRuntimeClass@CPreferencesUIPage@@UBEPAUCRuntimeClass@@XZ 00416096 f   PreferencesUIPage.obj
 0001:0001509c       ??0CPreferencesUIPage@@QAE@PBVCContentMgr@@PBVCUIExtensionMgr@@@Z 0041609c f   PreferencesUIPage.obj
 0001:00015168       ??_ECPreferencesUIPage@@UAEPAXI@Z 00416168 f i PreferencesUIPage.obj
 0001:00015168       ??_GCPreferencesUIPage@@UAEPAXI@Z 00416168 f i PreferencesUIPage.obj
 0001:00015184       ??1CPreferencesUIPage@@UAE@XZ 00416184 f   PreferencesUIPage.obj
 0001:00015210       ?DoDataExchange@CPreferencesUIPage@@MAEXPAVCDataExchange@@@Z 00416210 f   PreferencesUIPage.obj
 0001:00015424       ?_GetBaseMessageMap@CPreferencesTaskCalcPage@@KGPBUAFX_MSGMAP@@XZ 00416424 f   PreferencesUIPage.obj
 0001:00015424       ?_GetBaseMessageMap@CPreferencesMultiUserPage@@KGPBUAFX_MSGMAP@@XZ 00416424 f   PreferencesUIPage.obj
 0001:00015424       ?_GetBaseMessageMap@CPreferencesUITasklistColorsPage@@KGPBUAFX_MSGMAP@@XZ 00416424 f   PreferencesUIPage.obj
 0001:00015424       ?_GetBaseMessageMap@CPreferencesUIVisibilityPage@@KGPBUAFX_MSGMAP@@XZ 00416424 f   PreferencesUIPage.obj
 0001:00015424       ?_GetBaseMessageMap@CPreferencesTaskPage@@KGPBUAFX_MSGMAP@@XZ 00416424 f   PreferencesUIPage.obj
 0001:00015424       ?_GetBaseMessageMap@CPreferencesFilePage@@KGPBUAFX_MSGMAP@@XZ 00416424 f   PreferencesUIPage.obj
 0001:00015424       ?_GetBaseMessageMap@CPreferencesShortcutsPage@@KGPBUAFX_MSGMAP@@XZ 00416424 f   PreferencesUIPage.obj
 0001:00015424       ?_GetBaseMessageMap@CPreferencesToolPage@@KGPBUAFX_MSGMAP@@XZ 00416424 f   PreferencesUIPage.obj
 0001:00015424       ?_GetBaseMessageMap@CPreferencesExportPage@@KGPBUAFX_MSGMAP@@XZ 00416424 f   PreferencesUIPage.obj
 0001:00015424       ?_GetBaseMessageMap@CPreferencesTaskDefPage@@KGPBUAFX_MSGMAP@@XZ 00416424 f   PreferencesUIPage.obj
 0001:00015424       ?_GetBaseMessageMap@CPreferencesUITasklistPage@@KGPBUAFX_MSGMAP@@XZ 00416424 f   PreferencesUIPage.obj
 0001:00015424       ?_GetBaseMessageMap@CPreferencesGenPage@@KGPBUAFX_MSGMAP@@XZ 00416424 f   PreferencesUIPage.obj
 0001:00015424       ?_GetBaseMessageMap@CPreferencesUIPage@@KGPBUAFX_MSGMAP@@XZ 00416424 f   PreferencesUIPage.obj
 0001:00015424       ?_GetBaseMessageMap@CPreferencesFile2Page@@KGPBUAFX_MSGMAP@@XZ 00416424 f   PreferencesUIPage.obj
 0001:0001542a       ?GetMessageMap@CPreferencesUIPage@@MBEPBUAFX_MSGMAP@@XZ 0041642a f   PreferencesUIPage.obj
 0001:00015430       ?OnInitDialog@CPreferencesUIPage@@MAEHXZ 00416430 f   PreferencesUIPage.obj
 0001:0001555f       ?OnSelchangeCommentsformat@CPreferencesUIPage@@IAEXXZ 0041655f f   PreferencesUIPage.obj
 0001:0001557f       ?LoadPreferences@CPreferencesUIPage@@MAEXABVCPreferences@@@Z 0041657f f   PreferencesUIPage.obj
 0001:00015a5b       ?SavePreferences@CPreferencesUIPage@@MAEXAAVCPreferences@@@Z 00416a5b f   PreferencesUIPage.obj
 0001:00015d48       ?OnUseuitheme@CPreferencesUIPage@@IAEXXZ 00416d48 f   PreferencesUIPage.obj
 0001:00015d76       ?GetUITheme@CPreferencesUIPage@@QBE?AVCString@@XZ 00416d76 f   PreferencesUIPage.obj
 0001:00015ee8       ??0CPreferencesUITasklistColorsPage@@QAE@ABUTDCAUTOLISTDATA@@@Z 00416ee8 f   PreferencesUITasklistColorsPage.obj
 0001:00016106       ??_ECPreferencesUITasklistColorsPage@@UAEPAXI@Z 00417106 f i PreferencesUITasklistColorsPage.obj
 0001:00016106       ??_GCPreferencesUITasklistColorsPage@@UAEPAXI@Z 00417106 f i PreferencesUITasklistColorsPage.obj
 0001:00016122       ??1CPreferencesUITasklistColorsPage@@UAE@XZ 00417122 f   PreferencesUITasklistColorsPage.obj
 0001:000162e9       ?DoDataExchange@CPreferencesUITasklistColorsPage@@MAEXPAVCDataExchange@@@Z 004172e9 f   PreferencesUITasklistColorsPage.obj
 0001:00016698       ?GetMessageMap@CPreferencesUITasklistColorsPage@@MBEPBUAFX_MSGMAP@@XZ 00417698 f   PreferencesUITasklistColorsPage.obj
 0001:0001669e       ?OnInitDialog@CPreferencesUITasklistColorsPage@@MAEHXZ 0041769e f   PreferencesUITasklistColorsPage.obj
 0001:00016c73       ?OnLowprioritycolor@CPreferencesUITasklistColorsPage@@IAEXXZ 00417c73 f   PreferencesUITasklistColorsPage.obj
 0001:00016c87       ?OnHighprioritycolor@CPreferencesUITasklistColorsPage@@IAEXXZ 00417c87 f   PreferencesUITasklistColorsPage.obj
 0001:00016c9b       ?OnSetprioritycolor@CPreferencesUITasklistColorsPage@@IAEXXZ 00417c9b f   PreferencesUITasklistColorsPage.obj
 0001:00016cdd       ?OnChangePriorityColorOption@CPreferencesUITasklistColorsPage@@IAEXXZ 00417cdd f   PreferencesUITasklistColorsPage.obj
 0001:00016db8       ?OnColorPriority@CPreferencesUITasklistColorsPage@@IAEXXZ 00417db8 f   PreferencesUITasklistColorsPage.obj
 0001:00016e2d       ?GetPriorityColors@CPreferencesUITasklistColorsPage@@QBEHAAVCDWordArray@@@Z 00417e2d f   PreferencesUITasklistColorsPage.obj
 0001:00016e9b       ?GetStartedTaskColors@CPreferencesUITasklistColorsPage@@QBEXAAK0@Z 00417e9b f   PreferencesUITasklistColorsPage.obj
 0001:00016ed2       ?GetDueTaskColors@CPreferencesUITasklistColorsPage@@QBEXAAK0@Z 00417ed2 f   PreferencesUITasklistColorsPage.obj
 0001:00016f09       ?GetAttributeColors@CPreferencesUITasklistColorsPage@@QBE?AW4TDC_ATTRIBUTE@@AAVCTDCColorMap@@@Z 00417f09 f   PreferencesUITasklistColorsPage.obj
 0001:00016f9b       ?OnSelchangePrioritycolors@CPreferencesUITasklistColorsPage@@IAEXXZ 00417f9b f   PreferencesUITasklistColorsPage.obj
 0001:00016fea       ?OnSpecifytreefont@CPreferencesUITasklistColorsPage@@IAEXXZ 00417fea f   PreferencesUITasklistColorsPage.obj
 0001:0001710f       ?GetTreeFont@CPreferencesUITasklistColorsPage@@QBEHAAVCString@@AAH@Z 0041810f f   PreferencesUITasklistColorsPage.obj
 0001:00017145       ?GetCommentsFont@CPreferencesUITasklistColorsPage@@QBEHAAVCString@@AAH@Z 00418145 f   PreferencesUITasklistColorsPage.obj
 0001:0001718c       ?OnSetgridlinecolor@CPreferencesUITasklistColorsPage@@IAEXXZ 0041818c f   PreferencesUITasklistColorsPage.obj
 0001:000171a0       ?OnSpecifygridlinecolor@CPreferencesUITasklistColorsPage@@IAEXXZ 004181a0 f   PreferencesUITasklistColorsPage.obj
 0001:000171c6       ?OnSetdonecolor@CPreferencesUITasklistColorsPage@@IAEXXZ 004181c6 f   PreferencesUITasklistColorsPage.obj
 0001:000171da       ?OnSetReferencecolor@CPreferencesUITasklistColorsPage@@IAEXXZ 004181da f   PreferencesUITasklistColorsPage.obj
 0001:000171ee       ?OnSetflaggedcolor@CPreferencesUITasklistColorsPage@@IAEXXZ 004181ee f   PreferencesUITasklistColorsPage.obj
 0001:00017202       ?OnSpecifydonecolor@CPreferencesUITasklistColorsPage@@IAEXXZ 00418202 f   PreferencesUITasklistColorsPage.obj
 0001:00017228       ?OnSpecifyflaggedcolor@CPreferencesUITasklistColorsPage@@IAEXXZ 00418228 f   PreferencesUITasklistColorsPage.obj
 0001:0001724e       ?OnSpecifyReferencecolor@CPreferencesUITasklistColorsPage@@IAEXXZ 0041824e f   PreferencesUITasklistColorsPage.obj
 0001:00017274       ?OnAltlinecolor@CPreferencesUITasklistColorsPage@@IAEXXZ 00418274 f   PreferencesUITasklistColorsPage.obj
 0001:00017288       ?OnSpecifyAlternatelinecolor@CPreferencesUITasklistColorsPage@@IAEXXZ 00418288 f   PreferencesUITasklistColorsPage.obj
 0001:000172ae       ?OnChangeTextColorOption@CPreferencesUITasklistColorsPage@@IAEXXZ 004182ae f   PreferencesUITasklistColorsPage.obj
 0001:00017359       ?OnSetAttribValuecolor@CPreferencesUITasklistColorsPage@@IAEXXZ 00418359 f   PreferencesUITasklistColorsPage.obj
 0001:000173ff       ?FindAttribValue@CPreferencesUITasklistColorsPage@@IAEHPBG@Z 004183ff f   PreferencesUITasklistColorsPage.obj
 0001:00017438       ?OnEditAttribValue@CPreferencesUITasklistColorsPage@@IAEXXZ 00418438 f   PreferencesUITasklistColorsPage.obj
 0001:00017471       ?OnSelchangeAttribValue@CPreferencesUITasklistColorsPage@@IAEXXZ 00418471 f   PreferencesUITasklistColorsPage.obj
 0001:000174ee       ?OnAttribValueAdded@CPreferencesUITasklistColorsPage@@IAEJIJ@Z 004184ee f   PreferencesUITasklistColorsPage.obj
 0001:00017586       ?OnAttribValueDeleted@CPreferencesUITasklistColorsPage@@IAEJIJ@Z 00418586 f   PreferencesUITasklistColorsPage.obj
 0001:000175ec       ?OnCommentsusetreefont@CPreferencesUITasklistColorsPage@@IAEXXZ 004185ec f   PreferencesUITasklistColorsPage.obj
 0001:000176ae       ?OnSpecifycommentsfont@CPreferencesUITasklistColorsPage@@IAEXXZ 004186ae f   PreferencesUITasklistColorsPage.obj
 0001:00017755       ?OnDuetaskcolor@CPreferencesUITasklistColorsPage@@IAEXXZ 00418755 f   PreferencesUITasklistColorsPage.obj
 0001:0001777b       ?OnStarttodaytaskcolor@CPreferencesUITasklistColorsPage@@IAEXXZ 0041877b f   PreferencesUITasklistColorsPage.obj
 0001:000177a1       ?OnSetStarttaskcolor@CPreferencesUITasklistColorsPage@@IAEXXZ 004187a1 f   PreferencesUITasklistColorsPage.obj
 0001:000177b5       ?OnSetStarttodaytaskcolor@CPreferencesUITasklistColorsPage@@IAEXXZ 004187b5 f   PreferencesUITasklistColorsPage.obj
 0001:000177c9       ?OnStarttaskcolor@CPreferencesUITasklistColorsPage@@IAEXXZ 004187c9 f   PreferencesUITasklistColorsPage.obj
 0001:000177ef       ?OnDuetodaytaskcolor@CPreferencesUITasklistColorsPage@@IAEXXZ 004187ef f   PreferencesUITasklistColorsPage.obj
 0001:00017815       ?OnSetduetaskcolor@CPreferencesUITasklistColorsPage@@IAEXXZ 00418815 f   PreferencesUITasklistColorsPage.obj
 0001:00017829       ?OnSetduetodaytaskcolor@CPreferencesUITasklistColorsPage@@IAEXXZ 00418829 f   PreferencesUITasklistColorsPage.obj
 0001:0001783d       ?LoadPreferences@CPreferencesUITasklistColorsPage@@MAEXABVCPreferences@@@Z 0041883d f   PreferencesUITasklistColorsPage.obj
 0001:00017e8e       ?AddDefaultListItemsToAttributeColors@CPreferencesUITasklistColorsPage@@IAEXXZ 00418e8e f   PreferencesUITasklistColorsPage.obj
 0001:00017fba       ?GetAt@CStringArray@@QBE?AVCString@@H@Z 00418fba f i PreferencesUITasklistColorsPage.obj
 0001:00017fdb       ?SavePreferences@CPreferencesUITasklistColorsPage@@MAEXAAVCPreferences@@@Z 00418fdb f   PreferencesUITasklistColorsPage.obj
 0001:000183af       ?OnPopulateattriblist@CPreferencesUITasklistColorsPage@@IAEXXZ 004193af f   PreferencesUITasklistColorsPage.obj
 0001:000183b4       ?OnSelchangeAttributetocolorby@CPreferencesUITasklistColorsPage@@IAEXXZ 004193b4 f   PreferencesUITasklistColorsPage.obj
 0001:000183bc       ??A?$CArray@UATTRIBCOLOR@@AAU1@@@QBE?AUATTRIBCOLOR@@H@Z 004193bc f i PreferencesUITasklistColorsPage.obj
 0001:000183d6       ?RemoveAt@?$CArray@UATTRIBCOLOR@@AAU1@@@QAEXHH@Z 004193d6 f i PreferencesUITasklistColorsPage.obj
 0001:00018431       ??1?$CArray@UATTRIBCOLOR@@AAU1@@@UAE@XZ 00419431 f i PreferencesUITasklistColorsPage.obj
 0001:00018478       ?Serialize@?$CArray@UATTRIBCOLOR@@AAU1@@@UAEXAAVCArchive@@@Z 00419478 f i PreferencesUITasklistColorsPage.obj
 0001:000184b7       ??_E?$CArray@UATTRIBCOLOR@@AAU1@@@UAEPAXI@Z 004194b7 f i PreferencesUITasklistColorsPage.obj
 0001:000184b7       ??_G?$CArray@UATTRIBCOLOR@@AAU1@@@UAEPAXI@Z 004194b7 f i PreferencesUITasklistColorsPage.obj
 0001:000184d3       ?SetSize@?$CArray@UATTRIBCOLOR@@AAU1@@@QAEXHH@Z 004194d3 f i PreferencesUITasklistColorsPage.obj
 0001:000185eb       ?GetAt@?$CArray@UATTRIBCOLOR@@AAU1@@@QBE?AUATTRIBCOLOR@@H@Z 004195eb f i PreferencesUITasklistColorsPage.obj
 0001:00018617       ?SetAtGrow@?$CArray@UATTRIBCOLOR@@AAU1@@@QAEXHAAUATTRIBCOLOR@@@Z 00419617 f i PreferencesUITasklistColorsPage.obj
 0001:0001864c       ?DestructElements@@YGXPAUATTRIBCOLOR@@H@Z 0041964c f i PreferencesUITasklistColorsPage.obj
 0001:00018670       ?SerializeElements@@YGXAAVCArchive@@PAUATTRIBCOLOR@@H@Z 00419670 f i PreferencesUITasklistColorsPage.obj
 0001:00018670       ?SerializeElements@@YGXAAVCArchive@@PANH@Z 00419670 f i PreferencesUITasklistColorsPage.obj
 0001:000186a0       ?ConstructElements@@YGXPAUATTRIBCOLOR@@H@Z 004196a0 f i PreferencesUITasklistColorsPage.obj
 0001:00018726       ??0CPreferencesUITasklistPage@@QAE@XZ 00419726 f   PreferencesUITasklistPage.obj
 0001:0001878d       ??_GCPreferencesUITasklistPage@@UAEPAXI@Z 0041978d f i PreferencesUITasklistPage.obj
 0001:0001878d       ??_ECPreferencesUITasklistPage@@UAEPAXI@Z 0041978d f i PreferencesUITasklistPage.obj
 0001:000187a9       ??1CPreferencesUITasklistPage@@UAE@XZ 004197a9 f   PreferencesUITasklistPage.obj
 0001:00018808       ?DoDataExchange@CPreferencesUITasklistPage@@MAEXPAVCDataExchange@@@Z 00419808 f   PreferencesUITasklistPage.obj
 0001:00018a5e       ?GetMessageMap@CPreferencesUITasklistPage@@MBEPBUAFX_MSGMAP@@XZ 00419a5e f   PreferencesUITasklistPage.obj
 0001:00018a64       ?OnInitDialog@CPreferencesUITasklistPage@@MAEHXZ 00419a64 f   PreferencesUITasklistPage.obj
 0001:00018b3c       ?GetMaxInfoTipCommentsLength@CPreferencesUITasklistPage@@QBEHXZ 00419b3c f   PreferencesUITasklistPage.obj
 0001:00018b5f       ?OnShowcomments@CPreferencesUITasklistPage@@IAEXXZ 00419b5f f   PreferencesUITasklistPage.obj
 0001:00018b84       ?OnShowinfotips@CPreferencesUITasklistPage@@IAEXXZ 00419b84 f   PreferencesUITasklistPage.obj
 0001:00018bdf       ?OnLimitinfotipcomments@CPreferencesUITasklistPage@@IAEXXZ 00419bdf f   PreferencesUITasklistPage.obj
 0001:00018c1d       ?LoadPreferences@CPreferencesUITasklistPage@@MAEXABVCPreferences@@@Z 00419c1d f   PreferencesUITasklistPage.obj
 0001:00018ecd       ?SavePreferences@CPreferencesUITasklistPage@@MAEXAAVCPreferences@@@Z 00419ecd f   PreferencesUITasklistPage.obj
 0001:00019122       ?OnLimitcolwidths@CPreferencesUITasklistPage@@IAEXXZ 0041a122 f   PreferencesUITasklistPage.obj
 0001:00019150       ?OnShowparentsasfolders@CPreferencesUITasklistPage@@IAEXXZ 0041a150 f   PreferencesUITasklistPage.obj
 0001:00019165       ?OnAppendTextToDateTimePaste@CPreferencesUITasklistPage@@IAEXXZ 0041a165 f   PreferencesUITasklistPage.obj
 0001:0001923a       ?CreateObject@CPreferencesUIVisibilityPage@@SGPAVCObject@@XZ 0041a23a f   PreferencesUIVisibilityPage.obj
 0001:0001926f       ?GetRuntimeClass@CPreferencesUIVisibilityPage@@UBEPAUCRuntimeClass@@XZ 0041a26f f   PreferencesUIVisibilityPage.obj
 0001:00019275       ??0CPreferencesUIVisibilityPage@@QAE@XZ 0041a275 f   PreferencesUIVisibilityPage.obj
 0001:000192be       ??_ECPreferencesUIVisibilityPage@@UAEPAXI@Z 0041a2be f i PreferencesUIVisibilityPage.obj
 0001:000192be       ??_GCPreferencesUIVisibilityPage@@UAEPAXI@Z 0041a2be f i PreferencesUIVisibilityPage.obj
 0001:000192da       ??1CPreferencesUIVisibilityPage@@UAE@XZ 0041a2da f   PreferencesUIVisibilityPage.obj
 0001:00019318       ?DoDataExchange@CPreferencesUIVisibilityPage@@MAEXPAVCDataExchange@@@Z 0041a318 f   PreferencesUIVisibilityPage.obj
 0001:00019349       ?GetMessageMap@CPreferencesUIVisibilityPage@@MBEPBUAFX_MSGMAP@@XZ 0041a349 f   PreferencesUIVisibilityPage.obj
 0001:0001934f       ?OnInitDialog@CPreferencesUIVisibilityPage@@MAEHXZ 0041a34f f   PreferencesUIVisibilityPage.obj
 0001:0001936c       ?GetColumnAttributeVisibility@CPreferencesUIVisibilityPage@@QBEXAAUTDCCOLEDITFILTERVISIBILITY@@@Z 0041a36c f   PreferencesUIVisibilityPage.obj
 0001:0001937e       ?SetColumnAttributeVisibility@CPreferencesUIVisibilityPage@@QAEXABUTDCCOLEDITFILTERVISIBILITY@@@Z 0041a37e f   PreferencesUIVisibilityPage.obj
 0001:00019390       ?LoadPreferences@CPreferencesUIVisibilityPage@@MAEXABVCPreferences@@@Z 0041a390 f   PreferencesUIVisibilityPage.obj
 0001:00019583       ??0TDCCOLEDITFILTERVISIBILITY@@QAE@XZ 0041a583 f i PreferencesUIVisibilityPage.obj
 0001:000195c7       ?SetEditFieldVisible@TDCCOLEDITFILTERVISIBILITY@@QAEHW4TDC_ATTRIBUTE@@H@Z 0041a5c7 f i PreferencesUIVisibilityPage.obj
 0001:00019661       ?IsEditFieldVisible@TDCCOLEDITFILTERVISIBILITY@@QBEHW4TDC_ATTRIBUTE@@@Z 0041a661 f i PreferencesUIVisibilityPage.obj
 0001:00019802       ?SetColumnVisible@TDCCOLEDITFILTERVISIBILITY@@QAEXW4TDC_COLUMN@@H@Z 0041a802 f i PreferencesUIVisibilityPage.obj
 0001:00019891       ?Load@TDCCOLEDITFILTERVISIBILITY@@QAEHABVCPreferences@@PBG@Z 0041a891 f i PreferencesUIVisibilityPage.obj
 0001:00019968       ?IsSupportedEdit@TDCCOLEDITFILTERVISIBILITY@@SAHW4TDC_ATTRIBUTE@@@Z 0041a968 f i PreferencesUIVisibilityPage.obj
 0001:00019999       ?UpdateEditAndFilterVisibility@TDCCOLEDITFILTERVISIBILITY@@IAEHXZ 0041a999 f i PreferencesUIVisibilityPage.obj
 0001:00019a07       ?IsFilterFieldVisible@TDCCOLEDITFILTERVISIBILITY@@QBEHW4TDC_ATTRIBUTE@@@Z 0041aa07 f i PreferencesUIVisibilityPage.obj
 0001:00019a72       ??1TDCCOLEDITFILTERVISIBILITY@@QAE@XZ 0041aa72 f i PreferencesUIVisibilityPage.obj
 0001:00019ab6       ?SavePreferences@CPreferencesUIVisibilityPage@@MAEXAAVCPreferences@@@Z 0041aab6 f   PreferencesUIVisibilityPage.obj
 0001:00019b0c       ?Save@TDCCOLEDITFILTERVISIBILITY@@QBEXAAVCPreferences@@PBG@Z 0041ab0c f i PreferencesUIVisibilityPage.obj
 0001:00019bc2       ?OnSize@CPreferencesUIVisibilityPage@@IAEXIHH@Z 0041abc2 f   PreferencesUIVisibilityPage.obj
 0001:00019c9f       ?OnChangeAttribShow@CPreferencesUIVisibilityPage@@IAEXXZ 0041ac9f f   PreferencesUIVisibilityPage.obj
 0001:00019cbc       _InitMultipleMonitorStubs  0041acbc f   StdAfx.obj
 0001:00019d94       _xGetSystemMetrics@4       0041ad94 f   StdAfx.obj
 0001:00019de2       _xMonitorFromRect@8        0041ade2 f   StdAfx.obj
 0001:00019e38       _xGetMonitorInfo@8         0041ae38 f   StdAfx.obj
 0001:0001add6       ??0CTabbedToDoCtrl@@QAE@AAVCUIExtensionMgr@@AAVCContentMgr@@ABVCONTENTFORMAT@@ABUTDCCOLEDITFILTERVISIBILITY@@@Z 0041bdd6 f   TabbedToDoCtrl.obj
 0001:0001af23       ?NewViewData@CTabbedToDoCtrl@@MAEPAUVIEWDATA@@XZ 0041bf23 f i TabbedToDoCtrl.obj
 0001:0001af58       ??_GCTabbedToDoCtrl@@UAEPAXI@Z 0041bf58 f i TabbedToDoCtrl.obj
 0001:0001af58       ??_ECTabbedToDoCtrl@@UAEPAXI@Z 0041bf58 f i TabbedToDoCtrl.obj
 0001:0001af74       ??1CTabbedToDoCtrl@@UAE@XZ 0041bf74 f   TabbedToDoCtrl.obj
 0001:0001b025       ?GetMessageMap@CTabbedToDoCtrl@@MBEPBUAFX_MSGMAP@@XZ 0041c025 f   TabbedToDoCtrl.obj
 0001:0001b025       ?_GetBaseMessageMap@CFilteredToDoCtrl@@KGPBUAFX_MSGMAP@@XZ 0041c025 f   TabbedToDoCtrl.obj
 0001:0001b105       ?DoDataExchange@CTabbedToDoCtrl@@MAEXPAVCDataExchange@@@Z 0041c105 f   TabbedToDoCtrl.obj
 0001:0001b12a       ?OnInitDialog@CTabbedToDoCtrl@@MAEHXZ 0041c12a f   TabbedToDoCtrl.obj
 0001:0001b2c5       ?OnStylesUpdated@CTabbedToDoCtrl@@MAEXXZ 0041c2c5 f   TabbedToDoCtrl.obj
 0001:0001b2e0       ?OnTaskIconsChanged@CTabbedToDoCtrl@@MAEXXZ 0041c2e0 f   TabbedToDoCtrl.obj
 0001:0001b2fb       ?OnTDCGetTaskReminder@CToDoCtrl@@IAEJIJ@Z 0041c2fb f   TabbedToDoCtrl.obj
 0001:0001b2fb       ?OnTDCGetTaskReminder@CTabbedToDoCtrl@@IAEJIJ@Z 0041c2fb f   TabbedToDoCtrl.obj
 0001:0001b307       ?PreTranslateMessage@CTabbedToDoCtrl@@UAEHPAUtagMSG@@@Z 0041c307 f   TabbedToDoCtrl.obj
 0001:0001b3ab       ?SetUITheme@CTabbedToDoCtrl@@QAEXABVCUIThemeFile@@@Z 0041c3ab f   TabbedToDoCtrl.obj
 0001:0001b460       ?LoadTasks@CTabbedToDoCtrl@@MAEHABVCTaskFile@@@Z 0041c460 f   TabbedToDoCtrl.obj
 0001:0001b5bb       ?LoadPrefs@CTabbedToDoCtrl@@IAEXXZ 0041c5bb f   TabbedToDoCtrl.obj
 0001:0001b757       ?SavePrefs@CTabbedToDoCtrl@@IAEXXZ 0041c757 f   TabbedToDoCtrl.obj
 0001:0001b943       ?OnDestroy@CTabbedToDoCtrl@@IAEXXZ 0041c943 f   TabbedToDoCtrl.obj
 0001:0001b954       ?UpdateVisibleColumns@CTabbedToDoCtrl@@MAEXXZ 0041c954 f   TabbedToDoCtrl.obj
 0001:0001b969       ?GetExtensionWnd@CTabbedToDoCtrl@@IBEPAVIUIExtensionWindow@@W4FTC_VIEW@@@Z 0041c969 f   TabbedToDoCtrl.obj
 0001:0001b98f       ?GetExtensionWnd@CTabbedToDoCtrl@@IBEHW4FTC_VIEW@@AAPAVIUIExtensionWindow@@AAPAUVIEWDATA@@@Z 0041c98f f   TabbedToDoCtrl.obj
 0001:0001b9c9       ?GetCreateExtensionWnd@CTabbedToDoCtrl@@IAEPAVIUIExtensionWindow@@W4FTC_VIEW@@@Z 0041c9c9 f   TabbedToDoCtrl.obj
 0001:0001bbeb       ?GetExtensionPrefsSubKey@CTabbedToDoCtrl@@IAE?AVCString@@PBVIUIExtensionWindow@@@Z 0041cbeb f   TabbedToDoCtrl.obj
 0001:0001bc51       ?OnPreTabViewChange@CTabbedToDoCtrl@@IAEJIJ@Z 0041cc51 f   TabbedToDoCtrl.obj
 0001:0001beed       ?GetTasks@CTabbedToDoCtrl@@IBEHAAVCTaskFile@@W4FTC_VIEW@@ABUTDCGETTASKS@@@Z 0041ceed f   TabbedToDoCtrl.obj
 0001:0001bfe1       ?IsSet@TDCGETTASKS@@QBEHH@Z 0041cfe1 f i TabbedToDoCtrl.obj
 0001:0001c01a       ?GetAllTasksForExtensionViewUpdate@CTabbedToDoCtrl@@MBEHAAVCTaskFile@@ABVCTDCAttributeMap@@@Z 0041d01a f   TabbedToDoCtrl.obj
 0001:0001c084       ?AddTreeChildrenToTaskFile@CTabbedToDoCtrl@@IBEHPAU_TREEITEM@@AAVCTaskFile@@PAXABUTDCGETTASKS@@@Z 0041d084 f   TabbedToDoCtrl.obj
 0001:0001c0dd       ?AddTreeItemToTaskFile@CTabbedToDoCtrl@@IBEHPAU_TREEITEM@@AAVCTaskFile@@PAXABUTDCGETTASKS@@@Z 0041d0dd f   TabbedToDoCtrl.obj
 0001:0001c16d       ?GetAttributesAffectedByMod@CTabbedToDoCtrl@@IBEXW4TDC_ATTRIBUTE@@AAVCTDCAttributeMap@@@Z 0041d16d f   TabbedToDoCtrl.obj
 0001:0001c305       ?GetSelectedTasksForExtensionViewUpdate@CTabbedToDoCtrl@@IBEHAAVCTaskFile@@ABVCTDCAttributeMap@@K@Z 0041d305 f   TabbedToDoCtrl.obj
 0001:0001c3d3       ?OnPostTabViewChange@CTabbedToDoCtrl@@IAEJIJ@Z 0041d3d3 f   TabbedToDoCtrl.obj
 0001:0001c43f       ?UpdateExtensionView@CTabbedToDoCtrl@@IAEXPAVIUIExtensionWindow@@ABVCTaskFile@@W4IUI_UPDATETYPE@@ABVCTDCAttributeMap@@@Z 0041d43f f   TabbedToDoCtrl.obj
 0001:0001c67d       ?RefreshExtensionViewSelection@CTabbedToDoCtrl@@IAEXXZ 0041d67d f   TabbedToDoCtrl.obj
 0001:0001c721       ?GetSingleSelectedTaskID@CTabbedToDoCtrl@@IBEKXZ 0041d721 f   TabbedToDoCtrl.obj
 0001:0001c758       ?GetFirstItem@CTreeSelectionHelper@@QBEPAU_TREEITEM@@XZ 0041d758 f i TabbedToDoCtrl.obj
 0001:0001c766       ?HasSingleSelectionChanged@CTabbedToDoCtrl@@IBEHK@Z 0041d766 f   TabbedToDoCtrl.obj
 0001:0001c7ab       ?GetViewData@CTabbedToDoCtrl@@IBEPAUVIEWDATA@@W4FTC_VIEW@@@Z 0041d7ab f   TabbedToDoCtrl.obj
 0001:0001c7bd       ?GetActiveViewData@CTabbedToDoCtrl@@IBEPAUVIEWDATA@@XZ 0041d7bd f   TabbedToDoCtrl.obj
 0001:0001c7d5       ?SetView@CTabbedToDoCtrl@@QAEXW4FTC_VIEW@@@Z 0041d7d5 f   TabbedToDoCtrl.obj
 0001:0001c811       ?SetNextView@CTabbedToDoCtrl@@QAEXXZ 0041d811 f   TabbedToDoCtrl.obj
 0001:0001c843       ?OnUIExtSelectTask@CTabbedToDoCtrl@@IAEJIJ@Z 0041d843 f   TabbedToDoCtrl.obj
 0001:0001c92d       ?OnUIExtSortColumnChange@CTabbedToDoCtrl@@IAEJIJ@Z 0041d92d f   TabbedToDoCtrl.obj
 0001:0001ca69       ?OnUIExtEditSelectedTaskTitle@CTabbedToDoCtrl@@IAEJIJ@Z 0041da69 f   TabbedToDoCtrl.obj
 0001:0001ca73       ?ProcessUIExtensionMod@CTabbedToDoCtrl@@IAEHABUIUITASKMOD@@@Z 0041da73 f   TabbedToDoCtrl.obj
 0001:0001cf27       ?OnUIExtModifySelectedTask@CTabbedToDoCtrl@@IAEJIJ@Z 0041df27 f   TabbedToDoCtrl.obj
 0001:0001d0f6       ?RebuildCustomAttributeUI@CTabbedToDoCtrl@@UAEXXZ 0041e0f6 f   TabbedToDoCtrl.obj
 0001:0001d10b       ?ReposTaskTree@CTabbedToDoCtrl@@MAEXPAVCDeferWndMove@@ABVCRect@@@Z 0041e10b f   TabbedToDoCtrl.obj
 0001:0001d13c       ?UpdateTasklistVisibility@CTabbedToDoCtrl@@MAEXXZ 0041e13c f   TabbedToDoCtrl.obj
 0001:0001d1aa       ?OnEraseBkgnd@CTabbedToDoCtrl@@IAEHPAVCDC@@@Z 0041e1aa f   TabbedToDoCtrl.obj
 0001:0001d1db       ?Resize@CTabbedToDoCtrl@@MAEXHHH@Z 0041e1db f   TabbedToDoCtrl.obj
 0001:0001d1ef       ?SetMaximizeState@CTabbedToDoCtrl@@QAEXW4TDC_MAXSTATE@@@Z 0041e1ef f   TabbedToDoCtrl.obj
 0001:0001d256       ?WantTaskContextMenu@CTabbedToDoCtrl@@UBEHXZ 0041e256 f   TabbedToDoCtrl.obj
 0001:0001d280       ?GetSelectionBoundingRect@CTabbedToDoCtrl@@UBEHAAVCRect@@@Z 0041e280 f   TabbedToDoCtrl.obj
 0001:0001d30b       ?SelectAll@CTabbedToDoCtrl@@QAEXXZ 0041e30b f   TabbedToDoCtrl.obj
 0001:0001d3e6       ?GetSelectedTasks@CTabbedToDoCtrl@@QBEHAAVCTaskFile@@ABUTDCGETTASKS@@K@Z 0041e3e6 f   TabbedToDoCtrl.obj
 0001:0001d40c       ?GetSelectedTasks@CTabbedToDoCtrl@@IBEHAAVCTaskFile@@W4FTC_VIEW@@ABUTDCGETTASKS@@K@Z 0041e40c f   TabbedToDoCtrl.obj
 0001:0001d53a       ?RedrawReminders@CTabbedToDoCtrl@@QAEXXZ 0041e53a f   TabbedToDoCtrl.obj
 0001:0001d580       ?SetMaxInfotipCommentsLength@CTabbedToDoCtrl@@QAEXH@Z 0041e580 f   TabbedToDoCtrl.obj
 0001:0001d5a7       ?SetEditTitleTaskID@CTabbedToDoCtrl@@MAEXK@Z 0041e5a7 f   TabbedToDoCtrl.obj
 0001:0001d5c6       ?SetStyle@CTabbedToDoCtrl@@MAEHW4TDC_STYLE@@HH@Z 0041e5c6 f   TabbedToDoCtrl.obj
 0001:0001d6a1       ?SetPriorityColors@CTabbedToDoCtrl@@QAEXABVCDWordArray@@@Z 0041e6a1 f   TabbedToDoCtrl.obj
 0001:0001d6d0       ?SetCompletedTaskColor@CTabbedToDoCtrl@@QAEXK@Z 0041e6d0 f   TabbedToDoCtrl.obj
 0001:0001d703       ?SetFlaggedTaskColor@CTabbedToDoCtrl@@QAEXK@Z 0041e703 f   TabbedToDoCtrl.obj
 0001:0001d736       ?SetReferenceTaskColor@CTabbedToDoCtrl@@QAEXK@Z 0041e736 f   TabbedToDoCtrl.obj
 0001:0001d769       ?SetAttributeColors@CTabbedToDoCtrl@@QAEXW4TDC_ATTRIBUTE@@ABVCTDCColorMap@@@Z 0041e769 f   TabbedToDoCtrl.obj
 0001:0001d7a4       ?SetStartedTaskColors@CTabbedToDoCtrl@@QAEXKK@Z 0041e7a4 f   TabbedToDoCtrl.obj
 0001:0001d7df       ?SetDueTaskColors@CTabbedToDoCtrl@@QAEXKK@Z 0041e7df f   TabbedToDoCtrl.obj
 0001:0001d816       ?SetGridlineColor@CTabbedToDoCtrl@@QAEXK@Z 0041e816 f   TabbedToDoCtrl.obj
 0001:0001d83b       ?SetAlternateLineColor@CTabbedToDoCtrl@@QAEXK@Z 0041e83b f   TabbedToDoCtrl.obj
 0001:0001d860       ?NotifyEndPreferencesUpdate@CTabbedToDoCtrl@@UAEXXZ 0041e860 f   TabbedToDoCtrl.obj
 0001:0001da66       ?BeginExtensionProgress@CTabbedToDoCtrl@@IAEXPBUVIEWDATA@@I@Z 0041ea66 f   TabbedToDoCtrl.obj
 0001:0001dad9       ?EndExtensionProgress@CTabbedToDoCtrl@@IAEXXZ 0041ead9 f   TabbedToDoCtrl.obj
 0001:0001dafc       ?BeginTimeTracking@CTabbedToDoCtrl@@MAEXKH@Z 0041eafc f   TabbedToDoCtrl.obj
 0001:0001db21       ?EndTimeTracking@CTabbedToDoCtrl@@MAEXHH@Z 0041eb21 f   TabbedToDoCtrl.obj
 0001:0001db46       ?GetControlDescription@CTabbedToDoCtrl@@UBE?AVCString@@PBVCWnd@@@Z 0041eb46 f   TabbedToDoCtrl.obj
 0001:0001dc23       ?DeleteSelectedTask@CTabbedToDoCtrl@@MAEHHH@Z 0041ec23 f   TabbedToDoCtrl.obj
 0001:0001dcb7       ?GetNextTaskID@CTabbedToDoCtrl@@IBEKKW4TTC_NEXTTASK@1@H@Z 0041ecb7 f   TabbedToDoCtrl.obj
 0001:0001de8b       ?MapGetNextToCommand@CTabbedToDoCtrl@@KA?AW4IUI_APPCOMMAND@@W4TTC_NEXTTASK@1@@Z 0041ee8b f   TabbedToDoCtrl.obj
 0001:0001deb1       ?CreateNewTask@CTabbedToDoCtrl@@QAEHABVCString@@W4TDC_INSERTWHERE@@HK@Z 0041eeb1 f   TabbedToDoCtrl.obj
 0001:0001df5d       ?CreateNewTask@CTabbedToDoCtrl@@MAEPAVTODOITEM@@PAU_TREEITEM@@@Z 0041ef5d f   TabbedToDoCtrl.obj
 0001:0001e017       ?CanCreateNewTask@CTabbedToDoCtrl@@QBEHW4TDC_INSERTWHERE@@@Z 0041f017 f   TabbedToDoCtrl.obj
 0001:0001e06e       ?RebuildList@CTabbedToDoCtrl@@MAEXPBX@Z 0041f06e f   TabbedToDoCtrl.obj
 0001:0001e231       ?AddItemToList@CTabbedToDoCtrl@@IAEHK@Z 0041f231 f   TabbedToDoCtrl.obj
 0001:0001e27f       ?AddTreeItemToList@CTabbedToDoCtrl@@MAEXPAU_TREEITEM@@PBX@Z 0041f27f f   TabbedToDoCtrl.obj
 0001:0001e2e5       ?SetExtensionsNeedUpdate@CTabbedToDoCtrl@@IAEXHW4FTC_VIEW@@@Z 0041f2e5 f   TabbedToDoCtrl.obj
 0001:0001e327       ?SetModified@CTabbedToDoCtrl@@MAEXHW4TDC_ATTRIBUTE@@K@Z 0041f327 f   TabbedToDoCtrl.obj
 0001:0001e402       ?ModCausesColorChange@CTabbedToDoCtrl@@IBEHW4TDC_ATTRIBUTE@@@Z 0041f402 f   TabbedToDoCtrl.obj
 0001:0001e4b3       ?ModCausesColorChange@CTabbedToDoCtrl@@IBEHABVCTDCAttributeMap@@@Z 0041f4b3 f   TabbedToDoCtrl.obj
 0001:0001e4f4       ?GetExtensionViewAttributes@CTabbedToDoCtrl@@KAHPAVIUIExtensionWindow@@AAVCTDCAttributeMap@@@Z 0041f4f4 f   TabbedToDoCtrl.obj
 0001:0001e553       ?GetAllExtensionViewsWantedAttributes@CTabbedToDoCtrl@@IBEHAAVCTDCAttributeMap@@@Z 0041f553 f   TabbedToDoCtrl.obj
 0001:0001e5d9       ?UpdateExtensionViews@CTabbedToDoCtrl@@IAEXW4TDC_ATTRIBUTE@@K@Z 0041f5d9 f   TabbedToDoCtrl.obj
 0001:0001e7d2       ?UpdateExtensionViewsSelection@CTabbedToDoCtrl@@IAEXW4TDC_ATTRIBUTE@@@Z 0041f7d2 f   TabbedToDoCtrl.obj
 0001:0001e994       ?IsCalculatedAttribute@CTabbedToDoCtrl@@IBEHW4TDC_ATTRIBUTE@@@Z 0041f994 f   TabbedToDoCtrl.obj
 0001:0001eb42       ?SupportsCalculation@TDCCUSTOMATTRIBUTEDEFINITION@@QBEHXZ 0041fb42 f i TabbedToDoCtrl.obj
 0001:0001eb71       ?SupportsFeature@TDCCUSTOMATTRIBUTEDEFINITION@@QBEHK@Z 0041fb71 f i TabbedToDoCtrl.obj
 0001:0001ebd4       ?AddGlobalsToTaskFile@CTabbedToDoCtrl@@IBEXAAVCTaskFile@@ABVCTDCAttributeMap@@@Z 0041fbd4 f   TabbedToDoCtrl.obj
 0001:0001ec62       ?GetGlobals@CTabbedToDoCtrl@@IBEHW4TDC_ATTRIBUTE@@AAUTDCAUTOLISTDATA@@@Z 0041fc62 f   TabbedToDoCtrl.obj
 0001:0001ed02       ?ExtensionViewWantsChange@CTabbedToDoCtrl@@IBEHHW4TDC_ATTRIBUTE@@@Z 0041fd02 f   TabbedToDoCtrl.obj
 0001:0001ed7e       ?AnyExtensionViewWantsChange@CTabbedToDoCtrl@@IBEHW4TDC_ATTRIBUTE@@@Z 0041fd7e f   TabbedToDoCtrl.obj
 0001:0001edb6       ?AnyExtensionViewWantsChange@CTabbedToDoCtrl@@IBEHABVCTDCAttributeMap@@@Z 0041fdb6 f   TabbedToDoCtrl.obj
 0001:0001edf7       ?ResortSelectedTaskParents@CTabbedToDoCtrl@@MAEXXZ 0041fdf7 f   TabbedToDoCtrl.obj
 0001:0001ee2f       ?ModNeedsResort@CTabbedToDoCtrl@@MBEHW4TDC_ATTRIBUTE@@@Z 0041fe2f f   TabbedToDoCtrl.obj
 0001:0001eec1       ?GetSort@CTabbedToDoCtrl@@IBEABUTDSORT@@XZ 0041fec1 f   TabbedToDoCtrl.obj
 0001:0001ef3f       ?GetSortBy@CTabbedToDoCtrl@@UBE?AW4TDC_COLUMN@@XZ 0041ff3f f   TabbedToDoCtrl.obj
 0001:0001ef47       ?GetSortBy@CTabbedToDoCtrl@@UBEXAAUTDSORTCOLUMNS@@@Z 0041ff47 f   TabbedToDoCtrl.obj
 0001:0001ef61       ?SelectTask@CTabbedToDoCtrl@@UAEHKH@Z 0041ff61 f   TabbedToDoCtrl.obj
 0001:0001f01b       ?OnEditCancel@CTabbedToDoCtrl@@IAEJIJ@Z 0042001b f   TabbedToDoCtrl.obj
 0001:0001f0be       ?CacheListSelection@CTabbedToDoCtrl@@IBEXAAUTDCSELECTIONCACHE@@H@Z 004200be f   TabbedToDoCtrl.obj
 0001:0001f0d4       ?RestoreListSelection@CTabbedToDoCtrl@@IAEXABUTDCSELECTIONCACHE@@@Z 004200d4 f   TabbedToDoCtrl.obj
 0001:0001f0e6       ?SetTreeFont@CTabbedToDoCtrl@@QAEHPAUHFONT__@@@Z 004200e6 f   TabbedToDoCtrl.obj
 0001:0001f132       ?AddView@CTabbedToDoCtrl@@IAEHPAVIUIExtension@@@Z 00420132 f   TabbedToDoCtrl.obj
 0001:0001f1db       ?RemoveView@CTabbedToDoCtrl@@IAEHPAVIUIExtension@@@Z 004201db f   TabbedToDoCtrl.obj
 0001:0001f2b7       ?OnTabCtrlRClick@CTabbedToDoCtrl@@IAEXPAUtagNMHDR@@PAJ@Z 004202b7 f   TabbedToDoCtrl.obj
 0001:0001f41f       ??_ECMenu@@UAEPAXI@Z       0042041f f i TabbedToDoCtrl.obj
 0001:0001f41f       ??_GCMenu@@UAEPAXI@Z       0042041f f i TabbedToDoCtrl.obj
 0001:0001f43b       ??1CMenu@@UAE@XZ           0042043b f i TabbedToDoCtrl.obj
 0001:0001f46e       ?LoadMenuW@CMenu@@QAEHI@Z  0042046e f i TabbedToDoCtrl.obj
 0001:0001f492       ?OnColumnEditClick@CTabbedToDoCtrl@@IAEJIJ@Z 00420492 f   TabbedToDoCtrl.obj
 0001:0001f4b8       ?OnListSelChanged@CTabbedToDoCtrl@@IAEXPAUtagNMHDR@@PAJ@Z 004204b8 f   TabbedToDoCtrl.obj
 0001:0001f4c7       ?OnListClick@CTabbedToDoCtrl@@IAEXPAUtagNMHDR@@PAJ@Z 004204c7 f   TabbedToDoCtrl.obj
 0001:0001f51a       ?HitTest@CTabbedToDoCtrl@@UBE?AW4TDC_HITTEST@@ABVCPoint@@@Z 0042051a f   TabbedToDoCtrl.obj
 0001:0001f595       ?ColumnHitTest@CTabbedToDoCtrl@@UBE?AW4TDC_COLUMN@@ABVCPoint@@@Z 00420595 f   TabbedToDoCtrl.obj
 0001:0001f5a1       ?Resort@CTabbedToDoCtrl@@UAEXH@Z 004205a1 f   TabbedToDoCtrl.obj
 0001:0001f609       ?IsSortingBy@CTabbedToDoCtrl@@UBEHW4TDC_COLUMN@@@Z 00420609 f   TabbedToDoCtrl.obj
 0001:0001f648       ?IsSorting@CTabbedToDoCtrl@@UBEHXZ 00420648 f   TabbedToDoCtrl.obj
 0001:0001f66c       ?IsMultiSorting@CTabbedToDoCtrl@@UBEHXZ 0042066c f   TabbedToDoCtrl.obj
 0001:0001f675       ?MultiSort@CTabbedToDoCtrl@@UAEXABUTDSORTCOLUMNS@@@Z 00420675 f   TabbedToDoCtrl.obj
 0001:0001f6b8       ?CanMultiSort@CTabbedToDoCtrl@@UBEHXZ 004206b8 f   TabbedToDoCtrl.obj
 0001:0001f6d4       ?Sort@CTabbedToDoCtrl@@UAEXW4TDC_COLUMN@@H@Z 004206d4 f   TabbedToDoCtrl.obj
 0001:0001f8a8       ?CanSortBy@CTabbedToDoCtrl@@UBEHW4TDC_COLUMN@@@Z 004208a8 f   TabbedToDoCtrl.obj
 0001:0001f91f       ?MoveSelectedTask@CTabbedToDoCtrl@@UAEHW4TDC_MOVETASK@@@Z 0042091f f   TabbedToDoCtrl.obj
 0001:0001f93a       ?CanMoveSelectedTask@CTabbedToDoCtrl@@UBEHW4TDC_MOVETASK@@@Z 0042093a f   TabbedToDoCtrl.obj
 0001:0001f959       ?GotoNextTask@CTabbedToDoCtrl@@UAEHW4TDC_GOTO@@@Z 00420959 f   TabbedToDoCtrl.obj
 0001:0001f9d7       ?MapGotoToGetNext@CTabbedToDoCtrl@@KA?AW4TTC_NEXTTASK@1@W4TDC_GOTO@@H@Z 004209d7 f   TabbedToDoCtrl.obj
 0001:0001fa00       ?CanGotoNextTask@CTabbedToDoCtrl@@UBEHW4TDC_GOTO@@@Z 00420a00 f   TabbedToDoCtrl.obj
 0001:0001fa7c       ?GotoNextTopLevelTask@CTabbedToDoCtrl@@UAEHW4TDC_GOTO@@@Z 00420a7c f   TabbedToDoCtrl.obj
 0001:0001fafa       ?CanGotoNextTopLevelTask@CTabbedToDoCtrl@@UBEHW4TDC_GOTO@@@Z 00420afa f   TabbedToDoCtrl.obj
 0001:0001fb76       ?ExpandTasks@CTabbedToDoCtrl@@UAEXW4TDC_EXPANDCOLLAPSE@@H@Z 00420b76 f   TabbedToDoCtrl.obj
 0001:0001fbe3       ?CanExpandTasks@CTabbedToDoCtrl@@UBEHW4TDC_EXPANDCOLLAPSE@@H@Z 00420be3 f   TabbedToDoCtrl.obj
 0001:0001fc54       ?ExtensionDoAppCommand@CTabbedToDoCtrl@@IAEXW4FTC_VIEW@@W4IUI_APPCOMMAND@@K@Z 00420c54 f   TabbedToDoCtrl.obj
 0001:0001fc73       ?ExtensionCanDoAppCommand@CTabbedToDoCtrl@@IBEHW4FTC_VIEW@@W4IUI_APPCOMMAND@@K@Z 00420c73 f   TabbedToDoCtrl.obj
 0001:0001fc99       ?SetFocusToTasks@CTabbedToDoCtrl@@UAEXXZ 00420c99 f   TabbedToDoCtrl.obj
 0001:0001fd1f       ?TasksHaveFocus@CTabbedToDoCtrl@@UBEHXZ 00420d1f f   TabbedToDoCtrl.obj
 0001:0001fd70       ?FindTasks@CTabbedToDoCtrl@@QBEHABUSEARCHPARAMS@@AAV?$CArray@USEARCHRESULT@@AAU1@@@@Z 00420d70 f   TabbedToDoCtrl.obj
 0001:0001fe5c       ?SelectTask@CTabbedToDoCtrl@@QAEHVCString@@W4TDC_SELECTTASK@@@Z 00420e5c f   TabbedToDoCtrl.obj
 0001:0001ff5a       ?FindListTask@CTabbedToDoCtrl@@IAEHABVCString@@HH@Z 00420f5a f   TabbedToDoCtrl.obj
 0001:0002009e       ??0SEARCHPARAM@@QAE@W4TDC_ATTRIBUTE@@W4FIND_OPERATOR@@VCString@@HW4FIND_ATTRIBTYPE@@@Z 0042109e f i TabbedToDoCtrl.obj
 0001:0002012a       ?SetValue@SEARCHPARAM@@QAEXABVCString@@@Z 0042112a f i TabbedToDoCtrl.obj
 0001:00020184       ?SelectTasks@CTabbedToDoCtrl@@QAEHABVCDWordArray@@@Z 00421184 f   TabbedToDoCtrl.obj
 0001:00020195       ?SelectTasks@CTabbedToDoCtrl@@MAEHABVCDWordArray@@H@Z 00421195 f   TabbedToDoCtrl.obj
 0001:000201ff       ?ResyncListSelection@CTabbedToDoCtrl@@IAEXXZ 004211ff f   TabbedToDoCtrl.obj
 0001:00020354       ?ResyncExtensionSelection@CTabbedToDoCtrl@@IAEXW4FTC_VIEW@@@Z 00421354 f   TabbedToDoCtrl.obj
 0001:00020415       ?SelectTasksInHistory@CTabbedToDoCtrl@@QAEXH@Z 00421415 f   TabbedToDoCtrl.obj
 0001:00020469       ?InvalidateItem@CTabbedToDoCtrl@@MAEXPAU_TREEITEM@@H@Z 00421469 f   TabbedToDoCtrl.obj
 0001:000204b9       ?UpdateTreeSelection@CTabbedToDoCtrl@@IAEXXZ 004214b9 f   TabbedToDoCtrl.obj
 0001:000205b0       ?HasItem@CTreeSelectionHelper@@QBEHPAU_TREEITEM@@@Z 004215b0 f i TabbedToDoCtrl.obj
 0001:000205d2       ?GetTreeItem@CTabbedToDoCtrl@@IBEPAU_TREEITEM@@H@Z 004215d2 f   TabbedToDoCtrl.obj
 0001:00020615       ?GetListItem@CTabbedToDoCtrl@@IBEHPAU_TREEITEM@@@Z 00421615 f   TabbedToDoCtrl.obj
 0001:00020640       ?OnDropObject@CTabbedToDoCtrl@@IAEJIJ@Z 00421640 f   TabbedToDoCtrl.obj
 0001:000206d1       ?GetLabelEditRect@CTabbedToDoCtrl@@MAEHAAVCRect@@@Z 004216d1 f   TabbedToDoCtrl.obj
 0001:00020753       ?UpdateSelectedTaskPath@CTabbedToDoCtrl@@MAEXXZ 00421753 f   TabbedToDoCtrl.obj
 0001:00020776       ?SaveTasksState@CTabbedToDoCtrl@@MBEXAAVCPreferences@@H@Z 00421776 f   TabbedToDoCtrl.obj
 0001:000207f2       ?LoadTasksState@CTabbedToDoCtrl@@MAEPAU_TREEITEM@@ABVCPreferences@@H@Z 004217f2 f   TabbedToDoCtrl.obj
 0001:00020897       ?IsViewSet@CTabbedToDoCtrl@@IBEHXZ 00421897 f   TabbedToDoCtrl.obj
 0001:000208ad       ?InListView@CTabbedToDoCtrl@@IBEHXZ 004218ad f   TabbedToDoCtrl.obj
 0001:000208bf       ?InTreeView@CTabbedToDoCtrl@@IBEHXZ 004218bf f   TabbedToDoCtrl.obj
 0001:000208e5       ?IsExtensionView@CTabbedToDoCtrl@@KAHW4FTC_VIEW@@@Z 004218e5 f   TabbedToDoCtrl.obj
 0001:00020900       ?HasAnyExtensionViews@CTabbedToDoCtrl@@IBEHXZ 00421900 f   TabbedToDoCtrl.obj
 0001:0002092c       ?IsExtensionView@CTabbedToDoCtrl@@IBEHPAUHWND__@@@Z 0042192c f   TabbedToDoCtrl.obj
 0001:00020961       ?ShowListViewTab@CTabbedToDoCtrl@@QAEXH@Z 00421961 f   TabbedToDoCtrl.obj
 0001:00020975       ?IsListViewTabShowing@CTabbedToDoCtrl@@QBEHXZ 00421975 f   TabbedToDoCtrl.obj
 0001:00020983       ?SetVisibleExtensionViews@CTabbedToDoCtrl@@QAEXABVCStringArray@@@Z 00421983 f   TabbedToDoCtrl.obj
 0001:00020a14       ?GetVisibleExtensionViews@CTabbedToDoCtrl@@QBEHAAVCStringArray@@@Z 00421a14 f   TabbedToDoCtrl.obj
 0001:00020aa9       ?CanResizeAttributeColumnsToFit@CTabbedToDoCtrl@@QBEHXZ 00421aa9 f   TabbedToDoCtrl.obj
 0001:00020af4       ?ResizeAttributeColumnsToFit@CTabbedToDoCtrl@@QAEXXZ 00421af4 f   TabbedToDoCtrl.obj
 0001:00020b42       ?OnContextMenu@CTabbedToDoCtrl@@IAEXPAVCWnd@@VCPoint@@@Z 00421b42 f   TabbedToDoCtrl.obj
 0001:00020bc2       ?OnRecreateRecurringTask@CTabbedToDoCtrl@@IAEJIJ@Z 00421bc2 f   TabbedToDoCtrl.obj
 0001:00020c39       ??1?$CArray@W4IUI_ATTRIBUTE@@W41@@@UAE@XZ 00421c39 f i TabbedToDoCtrl.obj
 0001:00020c75       ?MatchAllT@Misc@@YAHABVCDWordArray@@0H@Z 00421c75 f i TabbedToDoCtrl.obj
 0001:00020cf6       ?Add@?$CArray@USEARCHPARAM@@U1@@@QAEHUSEARCHPARAM@@@Z 00421cf6 f i TabbedToDoCtrl.obj
 0001:00020d52       ?Add@?$CArray@W4TDC_ATTRIBUTE@@W41@@@QAEHW4TDC_ATTRIBUTE@@@Z 00421d52 f i TabbedToDoCtrl.obj
 0001:00020d52       ?Add@?$CArray@W4IUI_ATTRIBUTE@@W41@@@QAEHW4IUI_ATTRIBUTE@@@Z 00421d52 f i TabbedToDoCtrl.obj
 0001:00020d52       ?Add@?$CArray@PAVIUIExtensionWindow@@PAV1@@@QAEHPAVIUIExtensionWindow@@@Z 00421d52 f i TabbedToDoCtrl.obj
 0001:00020d52       ?Add@?$CArray@W4TDC_COLUMN@@W41@@@QAEHW4TDC_COLUMN@@@Z 00421d52 f i TabbedToDoCtrl.obj
 0001:00020d52       ?Add@?$CArray@HH@@QAEHH@Z  00421d52 f i TabbedToDoCtrl.obj
 0001:00020d52       ?Add@?$CArray@PAUHWND__@@PAU1@@@QAEHPAUHWND__@@@Z 00421d52 f i TabbedToDoCtrl.obj
 0001:00020d75       ??1?$CArray@PAVIUIExtensionWindow@@PAV1@@@UAE@XZ 00421d75 f i TabbedToDoCtrl.obj
 0001:00020db1       ??_E?$CArray@W4IUI_ATTRIBUTE@@W41@@@UAEPAXI@Z 00421db1 f i TabbedToDoCtrl.obj
 0001:00020db1       ??_G?$CArray@W4IUI_ATTRIBUTE@@W41@@@UAEPAXI@Z 00421db1 f i TabbedToDoCtrl.obj
 0001:00020dcd       ??_E?$CArray@PAVIUIExtensionWindow@@PAV1@@@UAEPAXI@Z 00421dcd f i TabbedToDoCtrl.obj
 0001:00020dcd       ??_G?$CArray@PAVIUIExtensionWindow@@PAV1@@@UAEPAXI@Z 00421dcd f i TabbedToDoCtrl.obj
 0001:00020de9       ?SetAtGrow@?$CArray@USEARCHPARAM@@U1@@@QAEXHUSEARCHPARAM@@@Z 00421de9 f i TabbedToDoCtrl.obj
 0001:00020e4b       ?SetAtGrow@?$CArray@USEARCHRESULT@@AAU1@@@QAEXHAAUSEARCHRESULT@@@Z 00421e4b f i TabbedToDoCtrl.obj
 0001:00020e88       ??4SEARCHPARAM@@QAEAAU0@ABU0@@Z 00421e88 f i TabbedToDoCtrl.obj
 0001:00020f5b       ?Reset@CTaskClipboard@@SAXXZ 00421f5b f   TaskClipboard.obj
 0001:00020f6b       ?IsEmpty@CTaskClipboard@@SAHXZ 00421f6b f   TaskClipboard.obj
 0001:00020f7d       ?SetTasks@CTaskClipboard@@SAHABVCTaskFile@@ABVCString@@1@Z 00421f7d f   TaskClipboard.obj
 0001:00021083       ?ClipIDMatches@CTaskClipboard@@SAHABVCString@@@Z 00422083 f   TaskClipboard.obj
 0001:000210c0       ?GetTasks@CTaskClipboard@@SAHAAVCTaskFile@@ABVCString@@@Z 004220c0 f   TaskClipboard.obj
 0001:0002119a       ?RemoveTaskReferences@CTaskClipboard@@KAXAAVCTaskFile@@PAXH@Z 0042219a f   TaskClipboard.obj
 0001:00021202       ?GetClipID@CTaskClipboard@@KA?AVCString@@XZ 00422202 f   TaskClipboard.obj
 0001:00021255       ?GetTaskClipFmt@CTaskClipboard@@KAIXZ 00422255 f   TaskClipboard.obj
 0001:0002127c       ?GetIDClipFmt@CTaskClipboard@@KAIXZ 0042227c f   TaskClipboard.obj
 0001:000212a3       ?GetMainWnd@CTaskClipboard@@KAPAUHWND__@@XZ 004222a3 f   TaskClipboard.obj
 0001:00022a98       ??0CTaskFile@@QAE@PBG@Z    00423a98 f   TaskFile.obj
 0001:00022b4b       ?SetFilePath@CFile@@UAEXPBG@Z 00423b4b f i TaskFile.obj
 0001:00022b5a       ?IsCheckedOut@CTaskFile@@UBE_NXZ 00423b5a f i TaskFile.obj
 0001:00022b5d       ??_GCTaskFile@@UAEPAXI@Z   00423b5d f i TaskFile.obj
 0001:00022b5d       ??_ECTaskFile@@UAEPAXI@Z   00423b5d f i TaskFile.obj
 0001:00022b7d       ??0ITaskList13@@QAE@XZ     00423b7d f i TaskFile.obj
 0001:00022b8f       ??0ITaskList11@@QAE@XZ     00423b8f f i TaskFile.obj
 0001:00022ba1       ??0ITaskList9@@QAE@XZ      00423ba1 f i TaskFile.obj
 0001:00022bb3       ??0ITaskList7@@QAE@XZ      00423bb3 f i TaskFile.obj
 0001:00022bbc       ??0CTaskFile@@QAE@ABV0@PBG@Z 00423bbc f   TaskFile.obj
 0001:00022c7d       ??0CTaskFile@@QAE@PBVITaskList@@PBG@Z 00423c7d f   TaskFile.obj
 0001:00022d3e       ??1CTaskFile@@UAE@XZ       00423d3e f   TaskFile.obj
 0001:00022db1       ?QueryInterface@CTaskFile@@UAGJABU_GUID@@PAPAX@Z 00423db1 f   TaskFile.obj
 0001:00022ef4       ?Decrypt@CTaskFile@@UAEHPBG@Z 00423ef4 f   TaskFile.obj
 0001:00022f63       ?Load@CTaskFile@@QAEHPBGPAVIXmlParse@@H@Z 00423f63 f   TaskFile.obj
 0001:00022ffd       ?LoadContent@CTaskFile@@QAEHABVCString@@@Z 00423ffd f   TaskFile.obj
 0001:00023027       ?LoadHeader@CTaskFile@@UAEHPBGPAUTASKFILE_HEADER@@@Z 00424027 f   TaskFile.obj
 0001:00023063       ?Continue@CTFHeaderParse@@UBEHPBG0@Z 00424063 f i TaskFile.obj
 0001:00023094       ?SetHeader@CTaskFile@@QAEXABUTASKFILE_HEADER@@@Z 00424094 f   TaskFile.obj
 0001:00023134       ?GetHeader@CTaskFile@@QBEXAAUTASKFILE_HEADER@@@Z 00424134 f   TaskFile.obj
 0001:00023205       ?LoadEx@CTaskFile@@UAEHPAVIXmlParse@@@Z 00424205 f   TaskFile.obj
 0001:00023272       ?CleanUp@CTaskFile@@IAEXPAX@Z 00424272 f   TaskFile.obj
 0001:000232b0       ?UpgradeArrays@CTaskFile@@IAEXPAX@Z 004242b0 f   TaskFile.obj
 0001:0002350e       ?SaveEx@CTaskFile@@UAEHXZ  0042450e f   TaskFile.obj
 0001:00023559       ?CopyFrom@CTaskFile@@QAEHABV1@@Z 00424559 f   TaskFile.obj
 0001:00023591       ?CopyFrom@CTaskFile@@QAEHPBVITaskList@@@Z 00424591 f   TaskFile.obj
 0001:00023634       ?CopyTasksTo@CTaskFile@@QAEHPAVITaskList@@@Z 00424634 f   TaskFile.obj
 0001:00023681       ?Reset@CTaskFile@@UAEXXZ   00424681 f   TaskFile.obj
 0001:000236b1       ?CopyTaskFrom@CTaskFile@@QAEHPBVITaskList@@PAX1HPAV?$CMap@KKKK@@@Z 004246b1 f   TaskFile.obj
 0001:000236d2       ?CopyTaskTo@CTaskFile@@QAEHPAXPAVITaskList@@0HPAV?$CMap@KKKK@@@Z 004246d2 f   TaskFile.obj
 0001:000236f3       ?CopyTask@CTaskFile@@KAHPBVITaskList@@PAXPAV2@1HPAV?$CMap@KKKK@@H@Z 004246f3 f   TaskFile.obj
 0001:0002417d       ?Merge@CTaskFile@@QAEHABV1@HH@Z 0042517d f   TaskFile.obj
 0001:000241fb       ?GetNextUniqueID@CTaskFile@@QBEKXZ 004251fb f   TaskFile.obj
 0001:00024202       ?BuildHandleMap@CTaskFile@@IBEXXZ 00425202 f   TaskFile.obj
 0001:00024225       ?ClearHandleMap@CTaskFile@@IBEXXZ 00425225 f   TaskFile.obj
 0001:00024230       ?AddTaskToMap@CTaskFile@@IBEXPBVCXmlItem@@HH@Z 00425230 f   TaskFile.obj
 0001:00024297       ?RemoveTaskFromMap@CTaskFile@@IBEXPBVCXmlItem@@@Z 00425297 f   TaskFile.obj
 0001:000242dc       ?TaskFromHandle@CTaskFile@@IBEPAVCXmlItem@@PAX@Z 004252dc f   TaskFile.obj
 0001:000242e3       ?IsArchive@CTaskFile@@UBE_NXZ 004252e3 f   TaskFile.obj
 0001:000242f7       ?IsCheckedOutTo@CTaskFile@@QBEHABVCString@@@Z 004252f7 f   TaskFile.obj
 0001:00024313       ?IsSourceControlled@CTaskFile@@UBE_NXZ 00425313 f   TaskFile.obj
 0001:00024327       ?GetProjectName@CTaskFile@@UBEPBGXZ 00425327 f   TaskFile.obj
 0001:00024351       ?SetMetaData@CTaskFile@@QAEHABVCMapStringToString@@@Z 00425351 f   TaskFile.obj
 0001:00024368       ?GetMetaData@CTaskFile@@QBEHAAVCMapStringToString@@@Z 00425368 f   TaskFile.obj
 0001:0002437f       ?SetAttributeVisibility@CTaskFile@@QAEHABUTDCCOLEDITFILTERVISIBILITY@@@Z 0042537f f   TaskFile.obj
 0001:0002448e       ?GetAttributeVisibility@CTaskFile@@QBEHAAUTDCCOLEDITFILTERVISIBILITY@@@Z 0042548e f   TaskFile.obj
 0001:000245fe       ?Clear@TDCCOLEDITFILTERVISIBILITY@@QAEXXZ 004255fe f i TaskFile.obj
 0001:0002461f       ?SetVisibleEditFields@TDCCOLEDITFILTERVISIBILITY@@QAEHABVCTDCAttributeMap@@@Z 0042561f f i TaskFile.obj
 0001:00024682       ?SetVisibleFilterFields@TDCCOLEDITFILTERVISIBILITY@@QAEHABVCTDCAttributeMap@@@Z 00425682 f i TaskFile.obj
 0001:000246f0       ?SetCustomAttributeDefs@CTaskFile@@QAEHABVCTDCCustomAttribDefinitionArray@@@Z 004256f0 f   TaskFile.obj
 0001:0002480e       ?EncodeListData@TDCCUSTOMATTRIBUTEDEFINITION@@QBE?AVCString@@XZ 0042580e f i TaskFile.obj
 0001:000248ce       ?GetCustomAttributeDefs@CTaskFile@@SAHPBVITaskList@@AAVCTDCCustomAttribDefinitionArray@@@Z 004258ce f   TaskFile.obj
 0001:00024a85       ?DecodeListData@TDCCUSTOMATTRIBUTEDEFINITION@@QAEHABVCString@@@Z 00425a85 f i TaskFile.obj
 0001:00024b40       ?ValidateListType@TDCCUSTOMATTRIBUTEDEFINITION@@CAKKK@Z 00425b40 f i TaskFile.obj
 0001:00024b88       ?RebuildIDs@CTDCCustomAttribDefinitionArray@@IAEXXZ 00425b88 f i TaskFile.obj
 0001:00024bb1       ?HasCustomAttribute@CTaskFile@@QBEHABVCString@@@Z 00425bb1 f   TaskFile.obj
 0001:00024bc3       ?GetCustomAttributeDef@CTaskFile@@IAEPAVCXmlItem@@ABVCString@@@Z 00425bc3 f   TaskFile.obj
 0001:00024c0f       ?GetCustomAttributeDef@CTaskFile@@IBEPBVCXmlItem@@ABVCString@@@Z 00425c0f f   TaskFile.obj
 0001:00024c1b       ?GetCustomAttributeDefs@CTaskFile@@QBEHAAVCTDCCustomAttribDefinitionArray@@@Z 00425c1b f   TaskFile.obj
 0001:00024d8c       ?GetCustomAttribDefs@CTaskFile@@IBEPBVCXmlItem@@H@Z 00425d8c f   TaskFile.obj
 0001:00024db8       ?IsCustomDateAttribute@CTaskFile@@IBEHABVCString@@@Z 00425db8 f   TaskFile.obj
 0001:00024e17       ?AddCustomAttribute@CTaskFile@@UAE_NPBG00_N@Z 00425e17 f   TaskFile.obj
 0001:00024e37       ?AddCustomAttributeDef@CTaskFile@@IAEPAVCXmlItem@@PBG00H@Z 00425e37 f   TaskFile.obj
 0001:00024f87       ?GetCustomAttributeCount@CTaskFile@@UBEHXZ 00425f87 f   TaskFile.obj
 0001:00024fa9       ?GetCustomAttributeLabel@CTaskFile@@UBEPBGH@Z 00425fa9 f   TaskFile.obj
 0001:00024fbe       ?GetCustomAttributeID@CTaskFile@@UBEPBGH@Z 00425fbe f   TaskFile.obj
 0001:00024fd3       ?GetCustomAttributeType@CTaskFile@@UBEKH@Z 00425fd3 f   TaskFile.obj
 0001:00024ff0       ?GetCustomAttributeListData@CTaskFile@@UBEPBGH@Z 00425ff0 f   TaskFile.obj
 0001:00025005       ?IsCustomAttributeEnabled@CTaskFile@@UBE_NH@Z 00426005 f   TaskFile.obj
 0001:00025028       ?GetCustomAttributeValue@CTaskFile@@UBEPBGHPBG@Z 00426028 f   TaskFile.obj
 0001:0002508c       ?GetMetaData@CTaskFile@@UBEPBGPBG@Z 0042608c f   TaskFile.obj
 0001:000250f7       ?GetReportTitle@CTaskFile@@UBEPBGXZ 004260f7 f   TaskFile.obj
 0001:00025121       ?GetHtmlCharSet@CTaskFile@@UBEPBGXZ 00426121 f   TaskFile.obj
 0001:0002514b       ?GetAttribute@CTaskFile@@UBEPBGPBG@Z 0042614b f   TaskFile.obj
 0001:000251a4       ?GetAttributeCount@CTaskFile@@UBEHPBG@Z 004261a4 f   TaskFile.obj
 0001:000251eb       ?GetAttribute@CTaskFile@@UBEPBGPBGH@Z 004261eb f   TaskFile.obj
 0001:00025247       ?GetReportDate@CTaskFile@@UBEPBGXZ 00426247 f   TaskFile.obj
 0001:00025271       ?GetCheckOutTo@CTaskFile@@UBEPBGXZ 00426271 f   TaskFile.obj
 0001:0002529b       ?GetFileFormat@CTaskFile@@UBEKXZ 0042629b f   TaskFile.obj
 0001:000252ae       ?GetFileVersion@CTaskFile@@UBEKXZ 004262ae f   TaskFile.obj
 0001:000252c1       ?SetEarliestDueDate@CTaskFile@@QAEHABVCOleDateTime@@@Z 004262c1 f   TaskFile.obj
 0001:000252e4       ?GetEarliestDueDate@CTaskFile@@QBEHAAVCOleDateTime@@@Z 004262e4 f   TaskFile.obj
 0001:00025310       ?GetCommentsType@CTaskFile@@QBE?AVCString@@XZ 00426310 f   TaskFile.obj
 0001:00025334       ?SetProjectName@CTaskFile@@UAE_NPBG@Z 00426334 f   TaskFile.obj
 0001:00025387       ?SetMetaData@CTaskFile@@UAE_NPBG0@Z 00426387 f   TaskFile.obj
 0001:00025419       ?SetFileVersion@CTaskFile@@UAE_NK@Z 00426419 f   TaskFile.obj
 0001:00025435       ?SetCheckedOutTo@CTaskFile@@QAEHABVCString@@@Z 00426435 f   TaskFile.obj
 0001:00025451       ?ClearMetaData@CTaskFile@@UAE_NPBG@Z 00426451 f   TaskFile.obj
 0001:000254b1       ?SetArchive@CTaskFile@@QAEHH@Z 004264b1 f   TaskFile.obj
 0001:000254e9       ?GetCharSet@CTaskFile@@QBE?AVCString@@XZ 004264e9 f   TaskFile.obj
 0001:0002550d       ?SetCharSet@CTaskFile@@QAEHPBG@Z 0042650d f   TaskFile.obj
 0001:00025583       ?SetFileName@CTaskFile@@QAEHPBG@Z 00426583 f   TaskFile.obj
 0001:000255f9       ?SetLastModified@CTaskFile@@QAEHABVCOleDateTime@@@Z 004265f9 f   TaskFile.obj
 0001:00025680       ?GetLastModifiedOle@CTaskFile@@QBE?AVCOleDateTime@@XZ 00426680 f   TaskFile.obj
 0001:0002569f       ?SetAutoListData@CTaskFile@@QAEHABUTDCAUTOLISTDATA@@@Z 0042669f f   TaskFile.obj
 0001:00025726       ?GetAutoListData@CTaskFile@@QBEHAAUTDCAUTOLISTDATA@@@Z 00426726 f   TaskFile.obj
 0001:0002579c       ?SetFileFormat@CTaskFile@@QAEHK@Z 0042679c f   TaskFile.obj
 0001:000257b8       ?SetNextUniqueID@CTaskFile@@QAEHK@Z 004267b8 f   TaskFile.obj
 0001:00025807       ?SetReportAttributes@CTaskFile@@QAEHPBGABVCOleDateTime@@@Z 00426807 f   TaskFile.obj
 0001:00025943       ?SetTaskAttributes@CTaskFile@@QAEHPAXPBVTODOITEM@@@Z 00426943 f   TaskFile.obj
 0001:00025c7b       ?GetTaskAttributes@CTaskFile@@QBEHPAXPAVTODOITEM@@@Z 00426c7b f   TaskFile.obj
 0001:00025f9e       ?GetTaskParentID@CTaskFile@@UBEKPAX@Z 00426f9e f   TaskFile.obj
 0001:00025fcd       ?FindTask@CTaskFile@@UBEPAXK@Z 00426fcd f   TaskFile.obj
 0001:00025ff9       ?DeleteTask@CTaskFile@@UAE_NPAX@Z 00426ff9 f   TaskFile.obj
 0001:00026036       ?SetTaskCustomComments@CTaskFile@@QAEHPAXABVCBinaryData@@ABVCString@@@Z 00427036 f   TaskFile.obj
 0001:000260f3       ?SetTaskHtmlComments@CTaskFile@@QAEHPAXABVCString@@H@Z 004270f3 f   TaskFile.obj
 0001:0002612b       ?GetTaskCustomComments@CTaskFile@@QBEHPAXAAVCBinaryData@@AAVCString@@@Z 0042712b f   TaskFile.obj
 0001:00026225       ?SetTaskCategories@CTaskFile@@QAEHPAXABVCStringArray@@@Z 00427225 f   TaskFile.obj
 0001:0002623a       ?SetTaskTags@CTaskFile@@QAEHPAXABVCStringArray@@@Z 0042723a f   TaskFile.obj
 0001:0002624f       ?SetTaskFileReferences@CTaskFile@@QAEHPAXABVCStringArray@@@Z 0042724f f   TaskFile.obj
 0001:00026264       ?SetTaskDependencies@CTaskFile@@QAEHPAXABVCStringArray@@@Z 00427264 f   TaskFile.obj
 0001:00026279       ?SetTaskMetaData@CTaskFile@@QAEHPAXABVCMapStringToString@@@Z 00427279 f   TaskFile.obj
 0001:00026295       ?GetTaskMetaData@CTaskFile@@QBEHPAXAAVCMapStringToString@@@Z 00427295 f   TaskFile.obj
 0001:000262b1       ?GetTaskCustomAttributeData@CTaskFile@@QBEHPAXAAVCMapStringToString@@@Z 004272b1 f   TaskFile.obj
 0001:00026396       ?SetTaskCustomAttributeData@CTaskFile@@QAEHPAXABVCMapStringToString@@@Z 00427396 f   TaskFile.obj
 0001:0002650b       ?SetTaskAllocatedTo@CTaskFile@@QAEHPAXABVCStringArray@@@Z 0042750b f   TaskFile.obj
 0001:00026520       ?AddTaskDependency@CTaskFile@@UAE_NPAXPBG@Z 00427520 f   TaskFile.obj
 0001:00026570       ?AddTaskDependency@CTaskFile@@UAE_NPAXK@Z 00427570 f   TaskFile.obj
 0001:000265cf       ?AddTaskAllocatedTo@CTaskFile@@UAE_NPAXPBG@Z 004275cf f   TaskFile.obj
 0001:0002661f       ?AddTaskFileReference@CTaskFile@@UAE_NPAXPBG@Z 0042761f f   TaskFile.obj
 0001:0002666f       ?AddTaskCategory@CTaskFile@@UAE_NPAXPBG@Z 0042766f f   TaskFile.obj
 0001:000266bf       ?AddTaskTag@CTaskFile@@UAE_NPAXPBG@Z 004276bf f   TaskFile.obj
 0001:0002670f       ?GetTaskCategories@CTaskFile@@QBEHPAXAAVCStringArray@@@Z 0042770f f   TaskFile.obj
 0001:00026724       ?GetTaskTags@CTaskFile@@QBEHPAXAAVCStringArray@@@Z 00427724 f   TaskFile.obj
 0001:00026739       ?GetTaskFileReferences@CTaskFile@@QBEHPAXAAVCStringArray@@@Z 00427739 f   TaskFile.obj
 0001:0002674e       ?GetTaskDependencies@CTaskFile@@QBEHPAXAAVCStringArray@@@Z 0042774e f   TaskFile.obj
 0001:00026763       ?GetTaskAllocatedTo@CTaskFile@@QBEHPAXAAVCStringArray@@@Z 00427763 f   TaskFile.obj
 0001:00026778       ?NewItem@CTaskFile@@MAEPAVCXmlItem@@ABVCString@@@Z 00427778 f   TaskFile.obj
 0001:000267b6       ?NewTask@CTaskFile@@UAEPAXPBGPAX@Z 004277b6 f   TaskFile.obj
 0001:000267cb       ?NewTask@CTaskFile@@UAEPAXPBGPAXK@Z 004277cb f   TaskFile.obj
 0001:00026879       ?NewTask@CTaskFile@@QAEPAXPBGPAXKK@Z 00427879 f   TaskFile.obj
 0001:000268bb       ?GetTaskCount@CTaskFile@@UBEHXZ 004278bb f   TaskFile.obj
 0001:000268f3       ?GetFirstTask@CTaskFile@@UBEPAXPAX@Z 004278f3 f   TaskFile.obj
 0001:00026942       ?GetNextTask@CTaskFile@@UBEPAXPAX@Z 00427942 f   TaskFile.obj
 0001:00026959       ?GetTaskTitle@CTaskFile@@UBEPBGPAX@Z 00427959 f   TaskFile.obj
 0001:0002697f       ?GetTaskIcon@CTaskFile@@UBEPBGPAX@Z 0042797f f   TaskFile.obj
 0001:000269a5       ?GetTaskSubtaskCompletion@CTaskFile@@UBEPBGPAX@Z 004279a5 f   TaskFile.obj
 0001:000269cb       ?GetTaskComments@CTaskFile@@UBEPBGPAX@Z 004279cb f   TaskFile.obj
 0001:000269f1       ?GetTaskAllocatedTo@CTaskFile@@UBEPBGPAX@Z 004279f1 f   TaskFile.obj
 0001:00026a17       ?GetTaskMetaData@CTaskFile@@UBEPBGPAXPBG@Z 00427a17 f   TaskFile.obj
 0001:00026a84       ?GetTaskCustomAttribute@CTaskFile@@IBEPBVCXmlItem@@PAXPBG@Z 00427a84 f   TaskFile.obj
 0001:00026aeb       ?GetTaskCustomAttributeData@CTaskFile@@UBEPBGPAXPBG@Z 00427aeb f   TaskFile.obj
 0001:00026b19       ?GetTaskCustomDateString@CTaskFile@@UBEPBGPAXPBG@Z 00427b19 f   TaskFile.obj
 0001:00026b47       ?GetTaskAllocatedBy@CTaskFile@@UBEPBGPAX@Z 00427b47 f   TaskFile.obj
 0001:00026b6d       ?GetTaskCategory@CTaskFile@@UBEPBGPAX@Z 00427b6d f   TaskFile.obj
 0001:00026b93       ?GetTaskCategoryCount@CTaskFile@@UBEHPAX@Z 00427b93 f   TaskFile.obj
 0001:00026ba4       ?GetTaskCategory@CTaskFile@@UBEPBGPAXH@Z 00427ba4 f   TaskFile.obj
 0001:00026bcd       ?GetTaskTagCount@CTaskFile@@UBEHPAX@Z 00427bcd f   TaskFile.obj
 0001:00026bde       ?GetTaskTag@CTaskFile@@UBEPBGPAXH@Z 00427bde f   TaskFile.obj
 0001:00026c07       ?GetTaskDependencyCount@CTaskFile@@UBEHPAX@Z 00427c07 f   TaskFile.obj
 0001:00026c18       ?GetTaskDependency@CTaskFile@@UBEPBGPAXH@Z 00427c18 f   TaskFile.obj
 0001:00026c41       ?GetTaskAllocatedToCount@CTaskFile@@UBEHPAX@Z 00427c41 f   TaskFile.obj
 0001:00026c52       ?GetTaskAllocatedTo@CTaskFile@@UBEPBGPAXH@Z 00427c52 f   TaskFile.obj
 0001:00026c7b       ?GetTaskFileReferenceCount@CTaskFile@@UBEHPAX@Z 00427c7b f   TaskFile.obj
 0001:00026c8c       ?GetTaskFileReference@CTaskFile@@UBEPBGPAXH@Z 00427c8c f   TaskFile.obj
 0001:00026cb5       ?IsTaskGoodAsDone@CTaskFile@@UBE_NPAX@Z 00427cb5 f   TaskFile.obj
 0001:00026ce0       ?IsTaskParent@CTaskFile@@UBE_NPAX@Z 00427ce0 f   TaskFile.obj
 0001:00026d0e       ?GetTaskDependency@CTaskFile@@UBEPBGPAX@Z 00427d0e f   TaskFile.obj
 0001:00026d34       ?GetTaskStatus@CTaskFile@@UBEPBGPAX@Z 00427d34 f   TaskFile.obj
 0001:00026d5a       ?GetTaskFileReferencePath@CTaskFile@@UBEPBGPAX@Z 00427d5a f   TaskFile.obj
 0001:00026d80       ?GetTaskCreatedBy@CTaskFile@@UBEPBGPAX@Z 00427d80 f   TaskFile.obj
 0001:00026da6       ?GetTaskID@CTaskFile@@UBEKPAX@Z 00427da6 f   TaskFile.obj
 0001:00026db7       ?IsTaskFlagged@CTaskFile@@UBE_NPAX@Z 00427db7 f   TaskFile.obj
 0001:00026dd0       ?GetTaskColor@CTaskFile@@UBEKPAX@Z 00427dd0 f   TaskFile.obj
 0001:00026de1       ?GetTaskWebColor@CTaskFile@@UBEPBGPAX@Z 00427de1 f   TaskFile.obj
 0001:00026e2f       ?GetTaskPriorityWebColor@CTaskFile@@UBEPBGPAX@Z 00427e2f f   TaskFile.obj
 0001:00026eb1       ?GetTaskPriorityColor@CTaskFile@@UBEKPAX@Z 00427eb1 f   TaskFile.obj
 0001:00026ee9       ?GetTaskPriority@CTaskFile@@UBEHPAXH@Z 00427ee9 f   TaskFile.obj
 0001:00026f24       ?GetTaskPercentDone@CTaskFile@@UBEEPAXH@Z 00427f24 f   TaskFile.obj
 0001:00026f5f       ?GetTaskCost@CTaskFile@@UBENPAXH@Z 00427f5f f   TaskFile.obj
 0001:00026f9a       ?GetTaskRecurrence@CTaskFile@@QBEHPAXAAUTDCRECURRENCE@@@Z 00427f9a f   TaskFile.obj
 0001:00027008       ?GetTaskRecurrence@CTaskFile@@IBE_NPAXAAHAAK21111@Z 00428008 f   TaskFile.obj
 0001:00027190       ?GetTaskRecurrence@CTaskFile@@UBE_NPAXAAHAAK211@Z 00428190 f   TaskFile.obj
 0001:000271b6       ?GetTaskRecurrence@CTaskFile@@UBE_NPAXAAHAAK2111@Z 004281b6 f   TaskFile.obj
 0001:000271db       ?GetTaskVersion@CTaskFile@@UBEPBGPAX@Z 004281db f   TaskFile.obj
 0001:00027201       ?GetTaskTimeUnits@CTaskFile@@IBE?AW4TDC_UNITS@@PAXABVCString@@@Z 00428201 f   TaskFile.obj
 0001:00027232       ?GetTaskTimeEstimate@CTaskFile@@UBENPAXAAW4TDC_UNITS@@H@Z 00428232 f   TaskFile.obj
 0001:00027293       ?GetTaskTimeSpent@CTaskFile@@UBENPAXAAW4TDC_UNITS@@H@Z 00428293 f   TaskFile.obj
 0001:000272f4       ?GetTaskLastModified@CTaskFile@@UBEJPAX@Z 004282f4 f   TaskFile.obj
 0001:00027307       ?GetTaskCreationDate@CTaskFile@@UBEJPAX@Z 00428307 f   TaskFile.obj
 0001:0002731a       ?GetTaskDoneDate@CTaskFile@@UBEJPAX@Z 0042831a f   TaskFile.obj
 0001:0002732d       ?GetTaskDueDate@CTaskFile@@UBEJPAX@Z 0042832d f   TaskFile.obj
 0001:0002733e       ?GetTaskDueDate@CTaskFile@@UBEJPAXH@Z 0042833e f   TaskFile.obj
 0001:0002737d       ?GetTaskDueDateString@CTaskFile@@UBEPBGPAXH@Z 0042837d f   TaskFile.obj
 0001:000273dc       ?GetTaskStartDate@CTaskFile@@UBEJPAXH@Z 004283dc f   TaskFile.obj
 0001:0002741b       ?GetTaskStartDateString@CTaskFile@@UBEPBGPAXH@Z 0042841b f   TaskFile.obj
 0001:0002747a       ?GetTaskStartDate@CTaskFile@@UBEJPAX@Z 0042847a f   TaskFile.obj
 0001:0002748d       ?GetTaskCreationDate64@CTaskFile@@UBE_NPAXAA_J@Z 0042848d f   TaskFile.obj
 0001:000274b7       ?GetTaskStartDate64@CTaskFile@@UBE_NPAXHAA_J@Z 004284b7 f   TaskFile.obj
 0001:00027522       ?GetTaskDueDate64@CTaskFile@@UBE_NPAXHAA_J@Z 00428522 f   TaskFile.obj
 0001:0002758d       ?GetTaskDoneDate64@CTaskFile@@UBE_NPAXAA_J@Z 0042858d f   TaskFile.obj
 0001:000275b7       ?GetTaskLastModified64@CTaskFile@@UBE_NPAXAA_J@Z 004285b7 f   TaskFile.obj
 0001:000275e1       ?GetTaskLastModifiedOle@CTaskFile@@QBE?AVCOleDateTime@@PAX@Z 004285e1 f   TaskFile.obj
 0001:000275fc       ?GetTaskDoneDateOle@CTaskFile@@QBE?AVCOleDateTime@@PAX@Z 004285fc f   TaskFile.obj
 0001:00027617       ?GetTaskDueDateOle@CTaskFile@@QBE?AVCOleDateTime@@PAX@Z 00428617 f   TaskFile.obj
 0001:00027632       ?GetTaskStartDateOle@CTaskFile@@QBE?AVCOleDateTime@@PAX@Z 00428632 f   TaskFile.obj
 0001:0002764d       ?GetTaskCreationDateOle@CTaskFile@@QBE?AVCOleDateTime@@PAX@Z 0042864d f   TaskFile.obj
 0001:00027668       ?GetTaskDoneDateString@CTaskFile@@UBEPBGPAX@Z 00428668 f   TaskFile.obj
 0001:0002768e       ?GetTaskCreationDateString@CTaskFile@@UBEPBGPAX@Z 0042868e f   TaskFile.obj
 0001:000276b4       ?GetTaskDueDateString@CTaskFile@@UBEPBGPAX@Z 004286b4 f   TaskFile.obj
 0001:000276c5       ?GetTaskStartDateString@CTaskFile@@UBEPBGPAX@Z 004286c5 f   TaskFile.obj
 0001:000276eb       ?GetTaskPosition@CTaskFile@@UBEKPAX@Z 004286eb f   TaskFile.obj
 0001:000276fc       ?GetTaskPositionString@CTaskFile@@UBEPBGPAX@Z 004286fc f   TaskFile.obj
 0001:00027722       ?IsTaskDone@CTaskFile@@UBE_NPAX@Z 00428722 f   TaskFile.obj
 0001:00027756       ?IsTaskDue@CTaskFile@@UBE_NPAX@Z 00428756 f   TaskFile.obj
 0001:000277a7       ?TaskHasAttribute@CTaskFile@@UBE_NPAXPBG@Z 004287a7 f   TaskFile.obj
 0001:000277b9       ?TaskHasAttribute@CTaskFile@@IBE_NPAXPBGH@Z 004287b9 f   TaskFile.obj
 0001:00027915       ?GetTaskAttribute@CTaskFile@@UBEPBGPAXPBG@Z 00428915 f   TaskFile.obj
 0001:00027a1b       ?GetTaskParent@CTaskFile@@UBEPAXPAX@Z 00428a1b f   TaskFile.obj
 0001:00027a32       ?GetTaskTextColor@CTaskFile@@UBEKPAX@Z 00428a32 f   TaskFile.obj
 0001:00027a7f       ?GetTaskBkgndColor@CTaskFile@@UBEKPAX@Z 00428a7f f   TaskFile.obj
 0001:00027a85       ?GetTaskRisk@CTaskFile@@UBEHPAXH@Z 00428a85 f   TaskFile.obj
 0001:00027ac0       ?GetTaskExternalID@CTaskFile@@UBEPBGPAX@Z 00428ac0 f   TaskFile.obj
 0001:00027ae6       ?SetTaskTitle@CTaskFile@@UAE_NPAXPBG@Z 00428ae6 f   TaskFile.obj
 0001:00027b38       ?SetTaskComments@CTaskFile@@UAE_NPAXPBG@Z 00428b38 f   TaskFile.obj
 0001:00027b8a       ?SetTaskAllocatedTo@CTaskFile@@UAE_NPAXPBG@Z 00428b8a f   TaskFile.obj
 0001:00027bdc       ?SetTaskMetaData@CTaskFile@@UAE_NPAXPBG1@Z 00428bdc f   TaskFile.obj
 0001:00027c63       ?ClearTaskMetaData@CTaskFile@@UAE_NPAXPBG@Z 00428c63 f   TaskFile.obj
 0001:00027cc2       ?SetTaskCustomAttributeData@CTaskFile@@UAE_NPAXPBG1@Z 00428cc2 f   TaskFile.obj
 0001:00027f28       ?ClearTaskCustomAttributeData@CTaskFile@@UAE_NPAXPBG@Z 00428f28 f   TaskFile.obj
 0001:00027f9b       ?SetTaskDependency@CTaskFile@@UAE_NPAXPBG@Z 00428f9b f   TaskFile.obj
 0001:00027fed       ?SetTaskAllocatedBy@CTaskFile@@UAE_NPAXPBG@Z 00428fed f   TaskFile.obj
 0001:0002803f       ?SetTaskCategory@CTaskFile@@UAE_NPAXPBG@Z 0042903f f   TaskFile.obj
 0001:00028091       ?SetTaskStatus@CTaskFile@@UAE_NPAXPBG@Z 00429091 f   TaskFile.obj
 0001:000280e3       ?SetTaskFlag@CTaskFile@@UAE_NPAX_N@Z 004290e3 f   TaskFile.obj
 0001:000280fd       ?SetTaskFileReferencePath@CTaskFile@@UAE_NPAXPBG@Z 004290fd f   TaskFile.obj
 0001:0002814f       ?SetTaskCreatedBy@CTaskFile@@UAE_NPAXPBG@Z 0042914f f   TaskFile.obj
 0001:000281a1       ?SetTaskID@CTaskFile@@QAEHPAXKH@Z 004291a1 f   TaskFile.obj
 0001:000281f7       ?SetTaskReferenceID@CTaskFile@@QAEHPAXKH@Z 004291f7 f   TaskFile.obj
 0001:00028233       ?GetTaskReferenceID@CTaskFile@@QBEKPAX@Z 00429233 f   TaskFile.obj
 0001:00028244       ?HideAttribute@CTaskFile@@QAEHPAXPBGH@Z 00429244 f   TaskFile.obj
 0001:00028357       ?SetTaskColor@CTaskFile@@UAE_NPAXK@Z 00429357 f   TaskFile.obj
 0001:000283f9       ?SetTaskPriority@CTaskFile@@UAE_NPAXH@Z 004293f9 f   TaskFile.obj
 0001:0002842c       ?SetTaskPercentDone@CTaskFile@@UAE_NPAXE@Z 0042942c f   TaskFile.obj
 0001:00028441       ?SetTaskCost@CTaskFile@@UAE_NPAXN@Z 00429441 f   TaskFile.obj
 0001:0002845b       ?SetTaskTimeEstimate@CTaskFile@@UAE_NPAXNW4TDC_UNITS@@@Z 0042945b f   TaskFile.obj
 0001:0002847e       ?SetTaskTimeSpent@CTaskFile@@UAE_NPAXNW4TDC_UNITS@@@Z 0042947e f   TaskFile.obj
 0001:000284a1       ?SetTaskLastModified@CTaskFile@@UAE_NPAXJ@Z 004294a1 f   TaskFile.obj
 0001:000284b6       ?SetTaskDoneDate@CTaskFile@@UAE_NPAXJ@Z 004294b6 f   TaskFile.obj
 0001:000284cb       ?SetTaskDueDate@CTaskFile@@UAE_NPAXJ@Z 004294cb f   TaskFile.obj
 0001:000284e0       ?SetTaskStartDate@CTaskFile@@UAE_NPAXJ@Z 004294e0 f   TaskFile.obj
 0001:000284f5       ?SetTaskCreationDate@CTaskFile@@UAE_NPAXJ@Z 004294f5 f   TaskFile.obj
 0001:0002850a       ?SetTaskCreationDate64@CTaskFile@@UAE_NPAX_J@Z 0042950a f   TaskFile.obj
 0001:00028544       ?SetTaskLastModified64@CTaskFile@@UAE_NPAX_J@Z 00429544 f   TaskFile.obj
 0001:0002857e       ?SetTaskDoneDate64@CTaskFile@@UAE_NPAX_J@Z 0042957e f   TaskFile.obj
 0001:000285b8       ?SetTaskDueDate64@CTaskFile@@UAE_NPAX_J@Z 004295b8 f   TaskFile.obj
 0001:000285f2       ?SetTaskStartDate64@CTaskFile@@UAE_NPAX_J@Z 004295f2 f   TaskFile.obj
 0001:0002862c       ?SetTaskLastModified@CTaskFile@@QAEHPAXABVCOleDateTime@@@Z 0042962c f   TaskFile.obj
 0001:0002864b       ?SetTaskCreationDate@CTaskFile@@QAEHPAXABVCOleDateTime@@@Z 0042964b f   TaskFile.obj
 0001:0002866a       ?SetTaskDoneDate@CTaskFile@@QAEHPAXABVCOleDateTime@@@Z 0042966a f   TaskFile.obj
 0001:00028689       ?SetTaskDueDate@CTaskFile@@QAEHPAXABVCOleDateTime@@@Z 00429689 f   TaskFile.obj
 0001:000286a8       ?SetTaskStartDate@CTaskFile@@QAEHPAXABVCOleDateTime@@@Z 004296a8 f   TaskFile.obj
 0001:000286c7       ?SetTaskRecurrence@CTaskFile@@QAEHPAXABUTDCRECURRENCE@@@Z 004296c7 f   TaskFile.obj
 0001:0002876c       ?SetTaskRecurrence@CTaskFile@@IAE_NPAXHKKHHHH@Z 0042976c f   TaskFile.obj
 0001:00028831       ?SetTaskRecurrence@CTaskFile@@UAE_NPAXHKKHH@Z 00429831 f   TaskFile.obj
 0001:0002885a       ?SetTaskRecurrence@CTaskFile@@UAE_NPAXHKKHHH@Z 0042985a f   TaskFile.obj
 0001:0002887e       ?SetTaskAttribute@CTaskFile@@UAE_NPAXPBG1@Z 0042987e f   TaskFile.obj
 0001:000288eb       ?SetTaskVersion@CTaskFile@@UAE_NPAXPBG@Z 004298eb f   TaskFile.obj
 0001:0002893d       ?SetTaskTextColor@CTaskFile@@QAEHPAXK@Z 0042993d f   TaskFile.obj
 0001:000289df       ?SetTaskIcon@CTaskFile@@UAE_NPAXPBG@Z 004299df f   TaskFile.obj
 0001:00028a31       ?SetTaskSubtaskCompletion@CTaskFile@@QAEHPAXPBG@Z 00429a31 f   TaskFile.obj
 0001:00028a82       ?SetTaskGoodAsDone@CTaskFile@@QAEHPAXH@Z 00429a82 f   TaskFile.obj
 0001:00028ab7       ?SetTaskPriorityColor@CTaskFile@@QAEHPAXK@Z 00429ab7 f   TaskFile.obj
 0001:00028b55       ?SetTaskCalcTimeEstimate@CTaskFile@@QAEHPAXNW4TDC_UNITS@@@Z 00429b55 f   TaskFile.obj
 0001:00028b7b       ?SetTaskCalcTimeSpent@CTaskFile@@QAEHPAXNW4TDC_UNITS@@@Z 00429b7b f   TaskFile.obj
 0001:00028ba1       ?SetTaskCalcDueDate@CTaskFile@@QAEHPAXABVCOleDateTime@@@Z 00429ba1 f   TaskFile.obj
 0001:00028bc0       ?SetTaskCalcStartDate@CTaskFile@@QAEHPAXABVCOleDateTime@@@Z 00429bc0 f   TaskFile.obj
 0001:00028bdf       ?SetTaskCalcCompletion@CTaskFile@@QAEHPAXH@Z 00429bdf f   TaskFile.obj
 0001:00028bf7       ?SetTaskHighestPriority@CTaskFile@@QAEHPAXH@Z 00429bf7 f   TaskFile.obj
 0001:00028c2d       ?SetTaskHighestRisk@CTaskFile@@QAEHPAXH@Z 00429c2d f   TaskFile.obj
 0001:00028c63       ?SetTaskCalcCost@CTaskFile@@QAEHPAXN@Z 00429c63 f   TaskFile.obj
 0001:00028c80       ?SetTaskPosition@CTaskFile@@UAE_NPAXPBG@Z 00429c80 f   TaskFile.obj
 0001:00028cd2       ?SetTaskPosition@CTaskFile@@UAE_NPAXK@Z 00429cd2 f   TaskFile.obj
 0001:00028ce7       ?SetTaskRisk@CTaskFile@@UAE_NPAXH@Z 00429ce7 f   TaskFile.obj
 0001:00028d1c       ?SetTaskExternalID@CTaskFile@@UAE_NPAXPBG@Z 00429d1c f   TaskFile.obj
 0001:00028d6e       ?SetTaskIsParent@CTaskFile@@QAE_NPAX@Z 00429d6e f   TaskFile.obj
 0001:00028d81       ?GetTaskDate@CTaskFile@@IBEJPAXABVCString@@H@Z 00429d81 f   TaskFile.obj
 0001:00028db3       ?GetTaskDateOle@CTaskFile@@IBE?AVCOleDateTime@@PAXABVCString@@H@Z 00429db3 f   TaskFile.obj
 0001:00028e33       ?GetTaskUChar@CTaskFile@@IBEEPAXABVCString@@@Z 00429e33 f   TaskFile.obj
 0001:00028e4e       ?GetTaskULong@CTaskFile@@IBEKPAXABVCString@@@Z 00429e4e f   TaskFile.obj
 0001:00028e4e       ?GetTaskInt@CTaskFile@@IBEHPAXABVCString@@@Z 00429e4e f   TaskFile.obj
 0001:00028e6e       ?GetTaskString@CTaskFile@@IBE?AVCString@@PAXABV2@@Z 00429e6e f   TaskFile.obj
 0001:00028ea8       ?GetTaskDouble@CTaskFile@@IBENPAXABVCString@@@Z 00429ea8 f   TaskFile.obj
 0001:00028ed0       ?GetTaskAttribute@CTaskFile@@IBE?AVCString@@PAXABV2@1@Z 00429ed0 f   TaskFile.obj
 0001:00028f08       ?DeleteTaskAttribute@CTaskFile@@IAE_NPAXABVCString@@1@Z 00429f08 f   TaskFile.obj
 0001:00028f31       ?SetTaskAttribute@CTaskFile@@IAE_NPAXABVCString@@11@Z 00429f31 f   TaskFile.obj
 0001:00028f87       ?SetTaskDate@CTaskFile@@IAE_NPAXABVCString@@ABVCOleDateTime@@1H@Z 00429f87 f   TaskFile.obj
 0001:00029028       ?SetTaskDate@CTaskFile@@IAE_NPAXABVCString@@J@Z 0042a028 f   TaskFile.obj
 0001:0002909d       ?SetTaskUChar@CTaskFile@@IAE_NPAXABVCString@@E@Z 0042a09d f   TaskFile.obj
 0001:000290b3       ?SetTaskInt@CTaskFile@@IAE_NPAXABVCString@@H@Z 0042a0b3 f   TaskFile.obj
 0001:000290b3       ?SetTaskULong@CTaskFile@@IAE_NPAXABVCString@@K@Z 0042a0b3 f   TaskFile.obj
 0001:000290de       ?SetTaskString@CTaskFile@@IAE_NPAXABVCString@@1W4XI_TYPE@@@Z 0042a0de f   TaskFile.obj
 0001:0002910b       ?SetTaskDouble@CTaskFile@@IAE_NPAXABVCString@@N@Z 0042a10b f   TaskFile.obj
 0001:0002913b       ?SetTaskTime@CTaskFile@@IAE_NPAXABVCString@@N1W4TDC_UNITS@@@Z 0042a13b f   TaskFile.obj
 0001:00029204       ?SetMetaData@CTaskFile@@KAHPAVCXmlItem@@ABVCMapStringToString@@@Z 0042a204 f   TaskFile.obj
 0001:000292bd       ?GetMetaData@CTaskFile@@KAHPBVCXmlItem@@AAVCMapStringToString@@@Z 0042a2bd f   TaskFile.obj
 0001:0002934a       ?GetTaskArrayItem@CTaskFile@@IBE?AVCString@@PAXABV2@H@Z 0042a34a f   TaskFile.obj
 0001:000293a9       ?LegacyDeleteTaskArray@CTaskFile@@IAE_NPAXABVCString@@1@Z 0042a3a9 f   TaskFile.obj
 0001:0002944d       ?AddTaskArrayItem@CTaskFile@@IAE_NPAXABVCString@@1@Z 0042a44d f   TaskFile.obj
 0001:0002949f       ?GetTaskArray@CTaskFile@@IBEHPAXABVCString@@AAVCStringArray@@@Z 0042a49f f   TaskFile.obj
 0001:000294fa       ?LegacyGetTaskArray@CTaskFile@@IBEHPAXABVCString@@1AAVCStringArray@@@Z 0042a4fa f   TaskFile.obj
 0001:000295cb       ?GetTaskArraySize@CTaskFile@@IBEHPAXABVCString@@@Z 0042a5cb f   TaskFile.obj
 0001:00029617       ?DeleteTaskArray@CTaskFile@@IAE_NPAXABVCString@@@Z 0042a617 f   TaskFile.obj
 0001:00029641       ?SetTaskArray@CTaskFile@@IAEHPAXABVCString@@ABVCStringArray@@@Z 0042a641 f   TaskFile.obj
 0001:000296bc       ??ACStringArray@@QBE?AVCString@@H@Z 0042a6bc f i TaskFile.obj
 0001:000296d6       ?GetArray@CTaskFile@@IBEHABVCString@@AAVCStringArray@@@Z 0042a6d6 f   TaskFile.obj
 0001:0002971e       ?LegacyDeleteArray@CTaskFile@@IAE_NABVCString@@@Z 0042a71e f   TaskFile.obj
 0001:00029738       ?LegacyGetArray@CTaskFile@@IBEHABVCString@@AAVCStringArray@@@Z 0042a738 f   TaskFile.obj
 0001:000297dc       ?SetArray@CTaskFile@@IAEHABVCString@@ABVCStringArray@@@Z 0042a7dc f   TaskFile.obj
 0001:0002984b       ??1?$CMap@PAXPAXPAVCXmlItem@@AAPAV1@@@UAE@XZ 0042a84b f i TaskFile.obj
 0001:0002987e       ?Add@?$CArray@UTDCCUSTOMATTRIBUTEDEFINITION@@AAU1@@@QAEHAAUTDCCUSTOMATTRIBUTEDEFINITION@@@Z 0042a87e f i TaskFile.obj
 0001:000298a8       ??4TDCCUSTOMATTRIBUTEDEFINITION@@QAEAAU0@ABU0@@Z 0042a8a8 f i TaskFile.obj
 0001:00029930       ??_E?$CMap@PAXPAXPAVCXmlItem@@AAPAV1@@@UAEPAXI@Z 0042a930 f i TaskFile.obj
 0001:00029930       ??_G?$CMap@PAXPAXPAVCXmlItem@@AAPAV1@@@UAEPAXI@Z 0042a930 f i TaskFile.obj
 0001:0002b9d1       ??0CTaskListCsvExporter@@QAE@XZ 0042c9d1 f   TaskListCsvExporter.obj
 0001:0002ba40       ?GetSpaceForNotes@CTaskListExporterBase@@MBE?AVCString@@XZ 0042ca40 f i TaskListCsvExporter.obj
 0001:0002ba5c       ?FormatTitle@CTaskListExporterBase@@MBE?AVCString@@PBVITaskList14@@@Z 0042ca5c f i TaskListCsvExporter.obj
 0001:0002ba78       ?GetMenuText@CTaskListCsvExporter@@UBEPBGXZ 0042ca78 f i TaskListCsvExporter.obj
 0001:0002ba78       ?GetMenuText@CTaskListCsvImporter@@UBEPBGXZ 0042ca78 f i TaskListCsvExporter.obj
 0001:0002ba7e       ?GetFileFilter@CTaskListCsvExporter@@UBEPBGXZ 0042ca7e f i TaskListCsvExporter.obj
 0001:0002ba7e       ?GetFileFilter@CTaskListCsvImporter@@UBEPBGXZ 0042ca7e f i TaskListCsvExporter.obj
 0001:0002ba84       ?GetFileExtension@CTaskListCsvExporter@@UBEPBGXZ 0042ca84 f i TaskListCsvExporter.obj
 0001:0002ba84       ?GetFileExtension@CTaskListCsvImporter@@UBEPBGXZ 0042ca84 f i TaskListCsvExporter.obj
 0001:0002ba8a       ?GetIcon@CTaskListTdlImporter@@UBEPAUHICON__@@XZ 0042ca8a f i TaskListCsvExporter.obj
 0001:0002ba8a       ?HasIcon@COwnerdrawComboBoxBase@@MBEHXZ 0042ca8a f i TaskListCsvExporter.obj
 0001:0002ba8a       ?GetIcon@CTaskListCsvExporter@@UBEPAUHICON__@@XZ 0042ca8a f i TaskListCsvExporter.obj
 0001:0002ba8a       ?GetIcon@CTaskListCsvImporter@@UBEPAUHICON__@@XZ 0042ca8a f i TaskListCsvExporter.obj
 0001:0002ba8a       ?GetIcon@CTaskListTdlExporter@@UBEPAUHICON__@@XZ 0042ca8a f i TaskListCsvExporter.obj
 0001:0002ba8a       ?GetIcon@CTaskListTxtExporter@@UBEPAUHICON__@@XZ 0042ca8a f i TaskListCsvExporter.obj
 0001:0002ba8a       ?GetIcon@CTaskListHtmlExporter@@UBEPAUHICON__@@XZ 0042ca8a f i TaskListCsvExporter.obj
 0001:0002ba8a       ?GetNewItemData@CAutoComboBox@@MBEKXZ 0042ca8a f i TaskListCsvExporter.obj
 0001:0002ba8d       ??_ECTaskListCsvExporter@@UAEPAXI@Z 0042ca8d f i TaskListCsvExporter.obj
 0001:0002ba8d       ??_GCTaskListCsvExporter@@UAEPAXI@Z 0042ca8d f i TaskListCsvExporter.obj
 0001:0002baad       ??_ECTDCCsvColumnMapping@@UAEPAXI@Z 0042caad f i TaskListCsvExporter.obj
 0001:0002baad       ??_GCTDCCsvColumnMapping@@UAEPAXI@Z 0042caad f i TaskListCsvExporter.obj
 0001:0002bac9       ??1CTDCCsvColumnMapping@@UAE@XZ 0042cac9 f i TaskListCsvExporter.obj
 0001:0002bace       ??1CTaskListCsvExporter@@UAE@XZ 0042cace f   TaskListCsvExporter.obj
 0001:0002bb32       ?ExportOutput@CTaskListCsvExporter@@MBE_NPBGABVCString@@@Z 0042cb32 f   TaskListCsvExporter.obj
 0001:0002bb6a       ?ExportTask@CTaskListCsvExporter@@MBE?AVCString@@PBVITaskList14@@PAXH@Z 0042cb6a f   TaskListCsvExporter.obj
 0001:0002bbce       ?InitConsts@CTaskListCsvExporter@@MAE_NPBVITaskList14@@PBGHPAVIPreferences@@1@Z 0042cbce f   TaskListCsvExporter.obj
 0001:0002bd25       ??1CTDLCsvImportExportDlg@@UAE@XZ 0042cd25 f i TaskListCsvExporter.obj
 0001:0002bdc9       ?CheckAddIDField@CTaskListCsvExporter@@IAEXW4TDC_ATTRIBUTE@@@Z 0042cdc9 f   TaskListCsvExporter.obj
 0001:0002be69       ?FormatHeader@CTaskListCsvExporter@@MBE?AVCString@@PBVITaskList14@@@Z 0042ce69 f   TaskListCsvExporter.obj
 0001:0002bec7       ?FormatHeaderItem@CTaskListCsvExporter@@MBE?AVCString@@W4TDC_ATTRIBUTE@@ABV2@@Z 0042cec7 f   TaskListCsvExporter.obj
 0001:0002bfc6       ??1CSVCOLUMNMAPPING@@QAE@XZ 0042cfc6 f i TaskListCsvExporter.obj
 0001:0002bfce       ?FormatAttribute@CTaskListCsvExporter@@MBE?AVCString@@W4TDC_ATTRIBUTE@@ABV2@1@Z 0042cfce f   TaskListCsvExporter.obj
 0001:0002c0db       ?FormatAttribute@CTaskListCsvExporter@@MBE?AVCString@@PBVITaskList14@@PAXHW4TDC_ATTRIBUTE@@ABV2@@Z 0042d0db f   TaskListCsvExporter.obj
 0001:0002c2bf       ??A?$CArray@UCSVCOLUMNMAPPING@@AAU1@@@QBE?AUCSVCOLUMNMAPPING@@H@Z 0042d2bf f i TaskListCsvExporter.obj
 0001:0002c2d9       ??1?$CArray@UCSVCOLUMNMAPPING@@AAU1@@@UAE@XZ 0042d2d9 f i TaskListCsvExporter.obj
 0001:0002c320       ?Serialize@?$CArray@UCSVCOLUMNMAPPING@@AAU1@@@UAEXAAVCArchive@@@Z 0042d320 f i TaskListCsvExporter.obj
 0001:0002c35f       ??_G?$CArray@UCSVCOLUMNMAPPING@@AAU1@@@UAEPAXI@Z 0042d35f f i TaskListCsvExporter.obj
 0001:0002c35f       ??_E?$CArray@UCSVCOLUMNMAPPING@@AAU1@@@UAEPAXI@Z 0042d35f f i TaskListCsvExporter.obj
 0001:0002c37b       ?SetSize@?$CArray@UCSVCOLUMNMAPPING@@AAU1@@@QAEXHH@Z 0042d37b f i TaskListCsvExporter.obj
 0001:0002c4a2       ?GetAt@?$CArray@UCSVCOLUMNMAPPING@@AAU1@@@QBE?AUCSVCOLUMNMAPPING@@H@Z 0042d4a2 f i TaskListCsvExporter.obj
 0001:0002c4d9       ?DestructElements@@YGXPAUCSVCOLUMNMAPPING@@H@Z 0042d4d9 f i TaskListCsvExporter.obj
 0001:0002c4fd       ?ConstructElements@@YGXPAUCSVCOLUMNMAPPING@@H@Z 0042d4fd f i TaskListCsvExporter.obj
 0001:0002e5dd       ??0CTaskListCsvImporter@@QAE@XZ 0042f5dd f   TaskListCsvImporter.obj
 0001:0002e60d       ?Release@CTaskListCsvImporter@@UAEXXZ 0042f60d f i TaskListCsvImporter.obj
 0001:0002e60d       ?Release@CTaskListTdlImporter@@UAEXXZ 0042f60d f i TaskListCsvImporter.obj
 0001:0002e619       ??_ECTaskListCsvImporter@@UAEPAXI@Z 0042f619 f i TaskListCsvImporter.obj
 0001:0002e619       ??_GCTaskListCsvImporter@@UAEPAXI@Z 0042f619 f i TaskListCsvImporter.obj
 0001:0002e635       ??1CTaskListCsvImporter@@UAE@XZ 0042f635 f   TaskListCsvImporter.obj
 0001:0002e671       ?InitConsts@CTaskListCsvImporter@@IAE_NPBGHPAVIPreferences@@0@Z 0042f671 f   TaskListCsvImporter.obj
 0001:0002e775       ?Import@CTaskListCsvImporter@@UAE?AW4IIMPORT_RESULT@@PBGPAVITaskList@@HPAVIPreferences@@0@Z 0042f775 f   TaskListCsvImporter.obj
 0001:0002e871       ?GetLine@CTaskListCsvImporter@@KA?AVCString@@ABVCStringArray@@AAH@Z 0042f871 f   TaskListCsvImporter.obj
 0001:0002e99d       ?GetTaskAndParentIDs@CTaskListCsvImporter@@IBEXABVCStringArray@@AAK1@Z 0042f99d f   TaskListCsvImporter.obj
 0001:0002ea15       ?GetTaskTitle@CTaskListCsvImporter@@IBE?AVCString@@ABVCStringArray@@@Z 0042fa15 f   TaskListCsvImporter.obj
 0001:0002ea80       ?ImportTask@CTaskListCsvImporter@@IBEHPAVITaskList14@@ABVCString@@@Z 0042fa80 f   TaskListCsvImporter.obj
 0001:0002ec97       ?String2Date@CTaskListCsvImporter@@KAHABVCString@@AA_JH@Z 0042fc97 f   TaskListCsvImporter.obj
 0001:0002ecac       ?GetCustomAttribIDAndLabel@CTaskListCsvImporter@@KAHABUCSVCOLUMNMAPPING@@AAVCString@@1@Z 0042fcac f   TaskListCsvImporter.obj
 0001:0002ed9f       ?AddCustomAttributeDefinitions@CTaskListCsvImporter@@IBEXPAVITaskList14@@@Z 0042fd9f f   TaskListCsvImporter.obj
 0001:0002ee59       ?AddCustomAttributesToTask@CTaskListCsvImporter@@IBEXPAVITaskList14@@PAXABVCStringArray@@@Z 0042fe59 f   TaskListCsvImporter.obj
 0001:0002efc2       ?AddAttributeToTask@CTaskListCsvImporter@@IBEXPAVITaskList14@@PAXW4TDC_ATTRIBUTE@@ABVCStringArray@@@Z 0042ffc2 f   TaskListCsvImporter.obj
 0001:0002fdd9       ??0TLDT_DATA@@QAE@PAVCOleDataObject@@VCPoint@@@Z 00430dd9 f   TaskListDropTarget.obj
 0001:0002fe01       ?GetFileCount@TLDT_DATA@@QBEHXZ 00430e01 f   TaskListDropTarget.obj
 0001:0002fe0f       ?GetFile@TLDT_DATA@@QBE?AVCString@@H@Z 00430e0f f   TaskListDropTarget.obj
 0001:0002fe45       ??0CTaskListDropTarget@@QAE@XZ 00430e45 f   TaskListDropTarget.obj
 0001:0002fe69       ??_ECTaskListDropTarget@@UAEPAXI@Z 00430e69 f i TaskListDropTarget.obj
 0001:0002fe69       ??_GCTaskListDropTarget@@UAEPAXI@Z 00430e69 f i TaskListDropTarget.obj
 0001:0002fe85       ??1CTaskListDropTarget@@UAE@XZ 00430e85 f   TaskListDropTarget.obj
 0001:0002fec9       ?Register@CTaskListDropTarget@@QAEHPAVCWnd@@0@Z 00430ec9 f   TaskListDropTarget.obj
 0001:0002fedc       ?OnDragEnter@CTaskListDropTarget@@MAEKPAVCWnd@@PAVCOleDataObject@@KVCPoint@@@Z 00430edc f   TaskListDropTarget.obj
 0001:0002ff93       ?OnDragLeave@CTaskListDropTarget@@MAEXPAVCWnd@@@Z 00430f93 f   TaskListDropTarget.obj
 0001:00030048       ?DoHitTest@CTaskListDropTarget@@IAE?AW4TLDT_HITTEST@1@PAVCWnd@@VCPoint@@AAPAU_TREEITEM@@AAH3@Z 00431048 f   TaskListDropTarget.obj
 0001:000301e8       ?OnDragOver@CTaskListDropTarget@@MAEKPAVCWnd@@PAVCOleDataObject@@KVCPoint@@@Z 004311e8 f   TaskListDropTarget.obj
 0001:00030425       ?GetDropFilePaths@CTaskListDropTarget@@IAEHPAVCOleDataObject@@AAVCStringArray@@AAH@Z 00431425 f   TaskListDropTarget.obj
 0001:000304e1       ?OnDrop@CTaskListDropTarget@@MAEHPAVCWnd@@PAVCOleDataObject@@KVCPoint@@@Z 004314e1 f   TaskListDropTarget.obj
 0001:000306b1       ?InitializeOutlook@CTaskListDropTarget@@IAEHXZ 004316b1 f   TaskListDropTarget.obj
 0001:00031ea2       ??0CTaskListExporterBase@@IAE@XZ 00432ea2 f   TaskListExporterBase.obj
 0001:00031ef8       ?FormatHeaderItem@CTaskListExporterBase@@MBE?AVCString@@W4TDC_ATTRIBUTE@@ABV2@@Z 00432ef8 f i TaskListExporterBase.obj
 0001:00031f14       ??_ECTaskListExporterBase@@UAEPAXI@Z 00432f14 f i TaskListExporterBase.obj
 0001:00031f14       ??_GCTaskListExporterBase@@UAEPAXI@Z 00432f14 f i TaskListExporterBase.obj
 0001:00031f30       ??1CTaskListExporterBase@@UAE@XZ 00432f30 f   TaskListExporterBase.obj
 0001:00031f7b       ?ExportOutput@CTaskListExporterBase@@MBE_NPBGABVCString@@@Z 00432f7b f   TaskListExporterBase.obj
 0001:00031fa5       ?InitConsts@CTaskListExporterBase@@MAE_NPBVITaskList14@@PBGHPAVIPreferences@@1@Z 00432fa5 f   TaskListExporterBase.obj
 0001:00032005       ?Export@CTaskListExporterBase@@QAE_NPBVIMultiTaskList@@PBGHPAVIPreferences@@1@Z 00433005 f   TaskListExporterBase.obj
 0001:00032168       ?Export@CTaskListExporterBase@@QAE_NPBVITaskList@@PBGHPAVIPreferences@@1@Z 00433168 f   TaskListExporterBase.obj
 0001:0003223d       ?FormatHeader@CTaskListExporterBase@@MBE?AVCString@@PBVITaskList14@@@Z 0043323d f   TaskListExporterBase.obj
 0001:000323d5       ?ExportTaskAndSubtasks@CTaskListExporterBase@@ABE?AVCString@@PBVITaskList14@@PAXH@Z 004333d5 f   TaskListExporterBase.obj
 0001:0003246b       ?ExportSubtasks@CTaskListExporterBase@@MBE?AVCString@@PBVITaskList14@@PAXH@Z 0043346b f   TaskListExporterBase.obj
 0001:0003251f       ?ExportTask@CTaskListExporterBase@@MBE?AVCString@@PBVITaskList14@@PAXH@Z 0043351f f   TaskListExporterBase.obj
 0001:00032648       ?FormatAttribute@CTaskListExporterBase@@MBE?AVCString@@PBVITaskList14@@PAXHW4TDC_ATTRIBUTE@@ABV2@@Z 00433648 f   TaskListExporterBase.obj
 0001:00032e4a       ?FormatTime@CTaskListExporterBase@@ABE?AVCString@@NW4TDC_UNITS@@@Z 00433e4a f   TaskListExporterBase.obj
 0001:00032e90       ?FormatAttribute@CTaskListExporterBase@@ABE?AVCString@@PBVITaskList14@@PAXW4TDC_ATTRIBUTE@@ABV2@PBG4@Z 00433e90 f   TaskListExporterBase.obj
 0001:0003306a       ?FormatCategoryList@CTaskListExporterBase@@ABE?AVCString@@PBVITaskList14@@PAXABV2@@Z 0043406a f   TaskListExporterBase.obj
 0001:0003311c       ?FormatAllocToList@CTaskListExporterBase@@ABE?AVCString@@PBVITaskList14@@PAXABV2@@Z 0043411c f   TaskListExporterBase.obj
 0001:000331ce       ?FormatTagList@CTaskListExporterBase@@ABE?AVCString@@PBVITaskList14@@PAXABV2@@Z 004341ce f   TaskListExporterBase.obj
 0001:00033280       ?FormatDependencyList@CTaskListExporterBase@@ABE?AVCString@@PBVITaskList14@@PAXABV2@@Z 00434280 f   TaskListExporterBase.obj
 0001:00033332       ?FormatFileReferenceList@CTaskListExporterBase@@ABE?AVCString@@PBVITaskList14@@PAXABV2@@Z 00434332 f   TaskListExporterBase.obj
 0001:000333e4       ?FormatCustomAttributes@CTaskListExporterBase@@ABE?AVCString@@PBVITaskList14@@PAX@Z 004343e4 f   TaskListExporterBase.obj
 0001:000335bb       ?BuildAttribList@CTaskListExporterBase@@AAEXPBVITaskList14@@PAX@Z 004345bb f   TaskListExporterBase.obj
 0001:00033839       ?CheckAddAttribtoList@CTaskListExporterBase@@AAEXPBVITaskList14@@PAXW4TDC_ATTRIBUTE@@PBG@Z 00434839 f   TaskListExporterBase.obj
 0001:000338d0       ?WantAttribute@CTaskListExporterBase@@MBEHW4TDC_ATTRIBUTE@@@Z 004348d0 f   TaskListExporterBase.obj
 0001:000338e6       ?FindAttribute@CTaskListExporterBase@@IBEHW4TDC_ATTRIBUTE@@@Z 004348e6 f   TaskListExporterBase.obj
 0001:0003390e       ?GetAttribLabel@CTaskListExporterBase@@KA?AVCString@@W4TDC_ATTRIBUTE@@@Z 0043490e f   TaskListExporterBase.obj
 0001:0003511e       ??0CTaskListHtmlExporter@@QAE@XZ 0043611e f   TaskListHtmlExporter.obj
 0001:0003519f       ?GetMenuText@CTaskListHtmlExporter@@UBEPBGXZ 0043619f f i TaskListHtmlExporter.obj
 0001:000351a5       ?GetFileFilter@CTaskListHtmlExporter@@UBEPBGXZ 004361a5 f i TaskListHtmlExporter.obj
 0001:000351ab       ?GetFileExtension@CTaskListHtmlExporter@@UBEPBGXZ 004361ab f i TaskListHtmlExporter.obj
 0001:000351b1       ?GetSpaceForNotes@CTaskListHtmlExporter@@MBE?AVCString@@XZ 004361b1 f i TaskListHtmlExporter.obj
 0001:000351cc       ??_GCTaskListHtmlExporter@@UAEPAXI@Z 004361cc f i TaskListHtmlExporter.obj
 0001:000351cc       ??_ECTaskListHtmlExporter@@UAEPAXI@Z 004361cc f i TaskListHtmlExporter.obj
 0001:000351ec       ??1CTaskListHtmlExporter@@UAE@XZ 004361ec f   TaskListHtmlExporter.obj
 0001:00035250       ?ExportOutput@CTaskListHtmlExporter@@MBE_NPBGABVCString@@@Z 00436250 f   TaskListHtmlExporter.obj
 0001:00035319       ?InitConsts@CTaskListHtmlExporter@@MAE_NPBVITaskList14@@PBGHPAVIPreferences@@1@Z 00436319 f   TaskListHtmlExporter.obj
 0001:0003548d       ?Export@CTaskListCsvExporter@@UAE_NPBVITaskList@@PBGHPAVIPreferences@@1@Z 0043648d f   TaskListHtmlExporter.obj
 0001:0003548d       ?Export@CTaskListTxtExporter@@UAE_NPBVITaskList@@PBGHPAVIPreferences@@1@Z 0043648d f   TaskListHtmlExporter.obj
 0001:0003548d       ?Export@CTaskListHtmlExporter@@UAE_NPBVITaskList@@PBGHPAVIPreferences@@1@Z 0043648d f   TaskListHtmlExporter.obj
 0001:000354ab       ?Export@CTaskListTxtExporter@@UAE_NPBVIMultiTaskList@@PBGHPAVIPreferences@@1@Z 004364ab f   TaskListHtmlExporter.obj
 0001:000354ab       ?Export@CTaskListHtmlExporter@@UAE_NPBVIMultiTaskList@@PBGHPAVIPreferences@@1@Z 004364ab f   TaskListHtmlExporter.obj
 0001:000354ab       ?Export@CTaskListCsvExporter@@UAE_NPBVIMultiTaskList@@PBGHPAVIPreferences@@1@Z 004364ab f   TaskListHtmlExporter.obj
 0001:000354c9       ?FormatTitle@CTaskListHtmlExporter@@MBE?AVCString@@PBVITaskList14@@@Z 004364c9 f   TaskListHtmlExporter.obj
 0001:000355f6       ?FormatHeader@CTaskListHtmlExporter@@MBE?AVCString@@PBVITaskList14@@@Z 004365f6 f   TaskListHtmlExporter.obj
 0001:000356a2       ?FormatHeaderItem@CTaskListHtmlExporter@@MBE?AVCString@@W4TDC_ATTRIBUTE@@ABV2@@Z 004366a2 f   TaskListHtmlExporter.obj
 0001:0003570d       ?ExportTask@CTaskListHtmlExporter@@MBE?AVCString@@PBVITaskList14@@PAXH@Z 0043670d f   TaskListHtmlExporter.obj
 0001:0003589d       ?ExportSubtasks@CTaskListHtmlExporter@@MBE?AVCString@@PBVITaskList14@@PAXH@Z 0043689d f   TaskListHtmlExporter.obj
 0001:00035935       ?FormatAttribute@CTaskListHtmlExporter@@MBE?AVCString@@W4TDC_ATTRIBUTE@@ABV2@1@Z 00436935 f   TaskListHtmlExporter.obj
 0001:0003595a       ?FormatAttribute@CTaskListHtmlExporter@@IBE?AVCString@@W4TDC_ATTRIBUTE@@ABV2@1H@Z 0043695a f   TaskListHtmlExporter.obj
 0001:00035b5f       ?FormatAttribute@CTaskListHtmlExporter@@MBE?AVCString@@PBVITaskList14@@PAXHW4TDC_ATTRIBUTE@@ABV2@@Z 00436b5f f   TaskListHtmlExporter.obj
 0001:0003780b       ??0CTaskListTdlExporter@@QAE@XZ 0043880b f   TaskListTdlExporter.obj
 0001:00037814       ?Release@CTaskListTdlExporter@@UAEXXZ 00438814 f i TaskListTdlExporter.obj
 0001:00037820       ??_ECTaskListTdlExporter@@UAEPAXI@Z 00438820 f i TaskListTdlExporter.obj
 0001:00037820       ??_GCTaskListTdlExporter@@UAEPAXI@Z 00438820 f i TaskListTdlExporter.obj
 0001:0003783c       ??1CTaskListTdlExporter@@UAE@XZ 0043883c f   TaskListTdlExporter.obj
 0001:00037843       ?Export@CTaskListTdlExporter@@UAE_NPBVIMultiTaskList@@PBGHPAVIPreferences@@1@Z 00438843 f   TaskListTdlExporter.obj
 0001:00037b79       ?Export@CTaskListTdlExporter@@UAE_NPBVITaskList@@PBGHPAVIPreferences@@1@Z 00438b79 f   TaskListTdlExporter.obj
 0001:00037bf3       ?CreateReverseFileLinks@CTaskListTdlExporter@@KAXAAVCTaskFile@@PAXABV?$CMap@KKKK@@ABVCString@@H@Z 00438bf3 f   TaskListTdlExporter.obj
 0001:00037cb5       ?FixupInternalDependencies@CTaskListTdlExporter@@KAXAAVCTaskFile@@PAXABV?$CMap@KKKK@@H@Z 00438cb5 f   TaskListTdlExporter.obj
 0001:00037db5       ?BuildReverseIDMap@CTaskListTdlExporter@@KAXABV?$CMap@KKKK@@AAV2@@Z 00438db5 f   TaskListTdlExporter.obj
 0001:00037e01       ?Append@?$CArray@UTDCCUSTOMATTRIBUTEDEFINITION@@AAU1@@@QAEHABV1@@Z 00438e01 f i TaskListTdlExporter.obj
 0001:00037e4f       ?GetNextAssoc@?$CMap@IIKAAK@@QBEXAAPAU__POSITION@@AAIAAK@Z 00438e4f f i TaskListTdlExporter.obj
 0001:00037e4f       ?GetNextAssoc@?$CMap@KKKK@@QBEXAAPAU__POSITION@@AAK1@Z 00438e4f f i TaskListTdlExporter.obj
 0001:00037e4f       ?GetNextAssoc@?$CMap@KKKAAK@@QBEXAAPAU__POSITION@@AAK1@Z 00438e4f f i TaskListTdlExporter.obj
 0001:00037e4f       ?GetNextAssoc@?$CMap@KKPAVTODOITEM@@AAPAV1@@@QBEXAAPAU__POSITION@@AAKAAPAVTODOITEM@@@Z 00438e4f f i TaskListTdlExporter.obj
 0001:00037eb6       ??1?$CMap@KKKK@@UAE@XZ     00438eb6 f i TaskListTdlExporter.obj
 0001:00037ee9       ??_G?$CMap@KKKK@@UAEPAXI@Z 00438ee9 f i TaskListTdlExporter.obj
 0001:00037ee9       ??_E?$CMap@KKKK@@UAEPAXI@Z 00438ee9 f i TaskListTdlExporter.obj
 0001:00038e10       ??0CTaskListTdlImporter@@QAE@XZ 00439e10 f   TaskListTdlImporter.obj
 0001:00038e19       ?GetMenuText@CTaskListTdlExporter@@UBEPBGXZ 00439e19 f i TaskListTdlImporter.obj
 0001:00038e19       ?GetMenuText@CTaskListTdlImporter@@UBEPBGXZ 00439e19 f i TaskListTdlImporter.obj
 0001:00038e1f       ?GetFileFilter@CTaskListTdlImporter@@UBEPBGXZ 00439e1f f i TaskListTdlImporter.obj
 0001:00038e1f       ?GetFileFilter@CTaskListTdlExporter@@UBEPBGXZ 00439e1f f i TaskListTdlImporter.obj
 0001:00038e25       ?GetFileExtension@CTaskListTdlExporter@@UBEPBGXZ 00439e25 f i TaskListTdlImporter.obj
 0001:00038e25       ?GetFileExtension@CTaskListTdlImporter@@UBEPBGXZ 00439e25 f i TaskListTdlImporter.obj
 0001:00038e2b       ??_GCTaskListTdlImporter@@UAEPAXI@Z 00439e2b f i TaskListTdlImporter.obj
 0001:00038e2b       ??_ECTaskListTdlImporter@@UAEPAXI@Z 00439e2b f i TaskListTdlImporter.obj
 0001:00038e47       ??1CTaskListTdlImporter@@UAE@XZ 00439e47 f   TaskListTdlImporter.obj
 0001:00038e4e       ?Import@CTaskListTdlImporter@@UAE?AW4IIMPORT_RESULT@@PBGPAVITaskList@@HPAVIPreferences@@0@Z 00439e4e f   TaskListTdlImporter.obj
 0001:00038f6c       ??1CTDLTasklistImportDlg@@UAE@XZ 00439f6c f i TaskListTdlImporter.obj
 0001:00038fce       ??1CTDLTasklistImportCtrl@@UAE@XZ 00439fce f i TaskListTdlImporter.obj
 0001:0003a77a       ??0CTaskListTxtExporter@@QAE@XZ 0043b77a f   TaskListTxtExporter.obj
 0001:0003a7d0       ?Release@CTaskListCsvExporter@@UAEXXZ 0043b7d0 f i TaskListTxtExporter.obj
 0001:0003a7d0       ?Release@CTaskListTxtExporter@@UAEXXZ 0043b7d0 f i TaskListTxtExporter.obj
 0001:0003a7d0       ?Release@CTaskListHtmlExporter@@UAEXXZ 0043b7d0 f i TaskListTxtExporter.obj
 0001:0003a7df       ?GetMenuText@CTaskListTxtExporter@@UBEPBGXZ 0043b7df f i TaskListTxtExporter.obj
 0001:0003a7e5       ?GetFileFilter@CTaskListTxtExporter@@UBEPBGXZ 0043b7e5 f i TaskListTxtExporter.obj
 0001:0003a7eb       ?GetFileExtension@CTaskListTxtExporter@@UBEPBGXZ 0043b7eb f i TaskListTxtExporter.obj
 0001:0003a7f1       ?GetSpaceForNotes@CTaskListTxtExporter@@MBE?AVCString@@XZ 0043b7f1 f i TaskListTxtExporter.obj
 0001:0003a80c       ??_ECTaskListTxtExporter@@UAEPAXI@Z 0043b80c f i TaskListTxtExporter.obj
 0001:0003a80c       ??_GCTaskListTxtExporter@@UAEPAXI@Z 0043b80c f i TaskListTxtExporter.obj
 0001:0003a82c       ??1CTaskListTxtExporter@@UAE@XZ 0043b82c f   TaskListTxtExporter.obj
 0001:0003a884       ?InitConsts@CTaskListTxtExporter@@MAE_NPBVITaskList14@@PBGHPAVIPreferences@@1@Z 0043b884 f   TaskListTxtExporter.obj
 0001:0003a976       ?FormatAttribute@CTaskListTxtExporter@@MBE?AVCString@@W4TDC_ATTRIBUTE@@ABV2@1@Z 0043b976 f   TaskListTxtExporter.obj
 0001:0003aa05       ?FormatAttribute@CTaskListTxtExporter@@MBE?AVCString@@PBVITaskList14@@PAXHW4TDC_ATTRIBUTE@@ABV2@@Z 0043ba05 f   TaskListTxtExporter.obj
 0001:0003ab66       ?ExportTask@CTaskListTxtExporter@@MBE?AVCString@@PBVITaskList14@@PAXH@Z 0043bb66 f   TaskListTxtExporter.obj
 0001:0003ac15       ??0CTaskSelectionDlg@@QAE@PBGW4FTC_VIEW@@H@Z 0043bc15 f   TaskSelectionDlg.obj
 0001:0003adf5       ??_GCTaskSelectionDlg@@UAEPAXI@Z 0043bdf5 f i TaskSelectionDlg.obj
 0001:0003adf5       ??_ECTaskSelectionDlg@@UAEPAXI@Z 0043bdf5 f i TaskSelectionDlg.obj
 0001:0003ae11       ??1CTaskSelectionDlg@@UAE@XZ 0043be11 f i TaskSelectionDlg.obj
 0001:0003ae58       ?DoDataExchange@CTaskSelectionDlg@@MAEXPAVCDataExchange@@@Z 0043be58 f   TaskSelectionDlg.obj
 0001:0003aee9       ?GetMessageMap@CTaskSelectionDlg@@MBEPBUAFX_MSGMAP@@XZ 0043bee9 f   TaskSelectionDlg.obj
 0001:0003aeef       ?Create@CTaskSelectionDlg@@QAEHIPAVCWnd@@I@Z 0043beef f   TaskSelectionDlg.obj
 0001:0003af88       ?OnDestroy@CTaskSelectionDlg@@IAEXXZ 0043bf88 f   TaskSelectionDlg.obj
 0001:0003b12d       ?OnChangetasksOption@CTaskSelectionDlg@@IAEXXZ 0043c12d f   TaskSelectionDlg.obj
 0001:0003b1c4       ?OnIncludeDone@CTaskSelectionDlg@@IAEXXZ 0043c1c4 f   TaskSelectionDlg.obj
 0001:0003b218       ?OnIncludeNotDone@CTaskSelectionDlg@@IAEXXZ 0043c218 f   TaskSelectionDlg.obj
 0001:0003b268       ?OnInitDialog@CTaskSelectionDlg@@MAEHXZ 0043c268 f   TaskSelectionDlg.obj
 0001:0003b34a       ?SetWantWhatTasks@CTaskSelectionDlg@@QAEXW4TSD_TASKS@@@Z 0043c34a f   TaskSelectionDlg.obj
 0001:0003b3ee       ?OnChangeAttribOption@CTaskSelectionDlg@@IAEXXZ 0043c3ee f   TaskSelectionDlg.obj
 0001:0003b434       ?GetUserAttributes@CTaskSelectionDlg@@QBEHAAVCTDCAttributeMap@@@Z 0043c434 f   TaskSelectionDlg.obj
 0001:0003b45a       ?GetCsvFileFormat@@YA?AW4SFE_FORMAT@@XZ 0043c45a f   TaskTimeLog.obj
 0001:0003b47c       ??0TASKTIMELOGITEM@@QAE@XZ 0043c47c f   TaskTimeLog.obj
 0001:0003b4e5       ?IsValidToLog@TASKTIMELOGITEM@@QBEHXZ 0043c4e5 f   TaskTimeLog.obj
 0001:0003b50c       ?IsValidToAnalyse@TASKTIMELOGITEM@@QBEHXZ 0043c50c f   TaskTimeLog.obj
 0001:0003b555       ?Reset@TASKTIMELOGITEM@@QAEXXZ 0043c555 f   TaskTimeLog.obj
 0001:0003b59d       ?FormatRow@TASKTIMELOGITEM@@QBE?AVCString@@HABV2@@Z 0043c59d f   TaskTimeLog.obj
 0001:0003b86d       ?ParseRow@TASKTIMELOGITEM@@QAEHABVCString@@0@Z 0043c86d f   TaskTimeLog.obj
 0001:0003ba6a       ?GetRowVersion@TASKTIMELOGITEM@@SAHH@Z 0043ca6a f   TaskTimeLog.obj
 0001:0003ba97       ?GetRowFormat@TASKTIMELOGITEM@@SA?AVCString@@HABV2@@Z 0043ca97 f   TaskTimeLog.obj
 0001:0003bb1e       ??0CTDCTaskTimeLog@@IAE@XZ 0043cb1e f   TaskTimeLog.obj
 0001:0003bb66       ??_ECTDCTaskTimeLog@@UAEPAXI@Z 0043cb66 f i TaskTimeLog.obj
 0001:0003bb66       ??_GCTDCTaskTimeLog@@UAEPAXI@Z 0043cb66 f i TaskTimeLog.obj
 0001:0003bb82       ??0CTDCTaskTimeLog@@QAE@PBGW4SFE_FORMAT@@@Z 0043cb82 f   TaskTimeLog.obj
 0001:0003bbd1       ??1CTDCTaskTimeLog@@UAE@XZ 0043cbd1 f   TaskTimeLog.obj
 0001:0003bc0d       ?LogTime@CTDCTaskTimeLog@@QAEHKPBG0NABVCOleDateTime@@ABVCString@@HH@Z 0043cc0d f   TaskTimeLog.obj
 0001:0003bcdf       ??1TASKTIMELOGITEM@@QAE@XZ 0043ccdf f i TaskTimeLog.obj
 0001:0003bd30       ?LogTime@CTDCTaskTimeLog@@QAEHABUTASKTIMELOGITEM@@H@Z 0043cd30 f   TaskTimeLog.obj
 0001:0003be45       ?GetLogPath@CTDCTaskTimeLog@@QBE?AVCString@@XZ 0043ce45 f   TaskTimeLog.obj
 0001:0003be5f       ?GetLogPath@CTDCTaskTimeLog@@QBE?AVCString@@KH@Z 0043ce5f f   TaskTimeLog.obj
 0001:0003bf50       ??1CStdioFileEx@@UAE@XZ    0043cf50 f i TaskTimeLog.obj
 0001:0003bf55       ?GetLatestColumnHeader@CTDCTaskTimeLog@@IBE?AVCString@@XZ 0043cf55 f   TaskTimeLog.obj
 0001:0003c16e       ?ReadLogItems@CTDCTaskTimeLog@@SAHABVCString@@AAV?$CArray@UTASKTIMELOGITEM@@AAU1@@@HAAV2@@Z 0043d16e f   TaskTimeLog.obj
 0001:0003c29f       ?Initialise@CTDCTaskTimeLog@@IAEXABVCString@@@Z 0043d29f f   TaskTimeLog.obj
 0001:0003c3c0       ??0CMapIDToTimeAndPeriod@CTDCTaskTimeLogAnalysis@@QAE@N@Z 0043d3c0 f   TaskTimeLog.obj
 0001:0003c40a       ??_GCMapIDToTimeAndPeriod@CTDCTaskTimeLogAnalysis@@UAEPAXI@Z 0043d40a f i TaskTimeLog.obj
 0001:0003c40a       ??_ECMapIDToTimeAndPeriod@CTDCTaskTimeLogAnalysis@@UAEPAXI@Z 0043d40a f i TaskTimeLog.obj
 0001:0003c426       ??1CMapIDToTimeAndPeriod@CTDCTaskTimeLogAnalysis@@UAE@XZ 0043d426 f i TaskTimeLog.obj
 0001:0003c459       ??1CMapIDToTimeAndPeriodArray@CTDCTaskTimeLogAnalysis@@UAE@XZ 0043d459 f   TaskTimeLog.obj
 0001:0003c4b6       ??_ECMapIDToTimeAndPeriodArray@CTDCTaskTimeLogAnalysis@@UAEPAXI@Z 0043d4b6 f i TaskTimeLog.obj
 0001:0003c4b6       ??_GCMapIDToTimeAndPeriodArray@CTDCTaskTimeLogAnalysis@@UAEPAXI@Z 0043d4b6 f i TaskTimeLog.obj
 0001:0003c4d2       ?Find@CMapIDToTimeAndPeriodArray@CTDCTaskTimeLogAnalysis@@QBEHN@Z 0043d4d2 f   TaskTimeLog.obj
 0001:0003c526       ?Get@CMapIDToTimeAndPeriodArray@CTDCTaskTimeLogAnalysis@@QAEPAVCMapIDToTimeAndPeriod@2@N@Z 0043d526 f   TaskTimeLog.obj
 0001:0003c54a       ?Sort@CMapIDToTimeAndPeriodArray@CTDCTaskTimeLogAnalysis@@QAEXXZ 0043d54a f   TaskTimeLog.obj
 0001:0003c567       ?SortProc@CMapIDToTimeAndPeriodArray@CTDCTaskTimeLogAnalysis@@KAHPBX0@Z 0043d567 f   TaskTimeLog.obj
 0001:0003c59b       ??0CTDCTaskTimeLogAnalysis@@QAE@ABVCString@@H@Z 0043d59b f   TaskTimeLog.obj
 0001:0003c63d       ??1CTDCTaskTimeLogAnalysis@@QAE@XZ 0043d63d f   TaskTimeLog.obj
 0001:0003c6a1       ?AnalyseTaskLog@CTDCTaskTimeLogAnalysis@@QAEHABVCOleDateTime@@0W4TDCTTL_BREAKDOWN@@W4TDCTTL_FORMAT@@PBG@Z 0043d6a1 f   TaskTimeLog.obj
 0001:0003c7d4       ?BuildLogItemArray@CTDCTaskTimeLogAnalysis@@IAEHXZ 0043d7d4 f   TaskTimeLog.obj
 0001:0003c988       ?GetLogItem@CTDCTaskTimeLogAnalysis@@IBEABUTASKTIMELOGITEM@@H@Z 0043d988 f   TaskTimeLog.obj
 0001:0003c995       ?GetReferenceLogItem@CTDCTaskTimeLogAnalysis@@IBEABUTASKTIMELOGITEM@@K@Z 0043d995 f   TaskTimeLog.obj
 0001:0003c9be       ?AnalyseByTask@CTDCTaskTimeLogAnalysis@@IBEHABVCOleDateTime@@0AAV?$CMap@KKNAAN@@@Z 0043d9be f   TaskTimeLog.obj
 0001:0003ca26       ?FormatCsvRow@CTDCTaskTimeLogAnalysis@@IBE?AVCString@@KABV2@N00@Z 0043da26 f   TaskTimeLog.obj
 0001:0003cae2       ?OutputAnalysis@CTDCTaskTimeLogAnalysis@@IBEHABV?$CMap@KKNAAN@@W4TDCTTL_FORMAT@@PBG@Z 0043dae2 f   TaskTimeLog.obj
 0001:0003ce63       ?AnalyseByDate@CTDCTaskTimeLogAnalysis@@IBEHABVCOleDateTime@@0AAVCMapIDToTimeAndPeriodArray@1@@Z 0043de63 f   TaskTimeLog.obj
 0001:0003cf1d       ?BreakdownDateAnalysis@CTDCTaskTimeLogAnalysis@@IBEHAAVCMapIDToTimeAndPeriodArray@1@W4TDCTTL_BREAKDOWN@@@Z 0043df1d f   TaskTimeLog.obj
 0001:0003cff0       ?BuildCsvHeader@CTDCTaskTimeLogAnalysis@@IBE?AVCString@@H@Z 0043dff0 f   TaskTimeLog.obj
 0001:0003d1bc       ?OutputAnalysis@CTDCTaskTimeLogAnalysis@@IBEHABVCMapIDToTimeAndPeriodArray@1@W4TDCTTL_BREAKDOWN@@W4TDCTTL_FORMAT@@PBG@Z 0043e1bc f   TaskTimeLog.obj
 0001:0003d653       ?FormatPeriod@CTDCTaskTimeLogAnalysis@@KA?AVCString@@NW4TDCTTL_BREAKDOWN@@@Z 0043e653 f   TaskTimeLog.obj
 0001:0003d80b       ?Merge@CTDCTaskTimeLogAnalysis@@KAXABV?$CMap@KKNAAN@@AAV2@@Z 0043e80b f   TaskTimeLog.obj
 0001:0003d87e       ?GetMinMaxDates@CTDCTaskTimeLogAnalysis@@KAHABVCMapIDToTimeAndPeriodArray@1@AAN1@Z 0043e87e f   TaskTimeLog.obj
 0001:0003d8fc       ?IsSamePeriod@CTDCTaskTimeLogAnalysis@@KAHABVCOleDateTime@@0W4TDCTTL_BREAKDOWN@@@Z 0043e8fc f   TaskTimeLog.obj
 0001:0003d978       ?AppendLogItemToMap@CTDCTaskTimeLogAnalysis@@KAXABUTASKTIMELOGITEM@@AAV?$CMap@KKNAAN@@@Z 0043e978 f   TaskTimeLog.obj
 0001:0003d9b0       ?BuildSortedIDList@CTDCTaskTimeLogAnalysis@@KAHABV?$CMap@KKNAAN@@AAVCDWordArray@@@Z 0043e9b0 f   TaskTimeLog.obj
 0001:0003da2e       ?Lookup@?$CMap@KKNAAN@@QBEHKAAN@Z 0043ea2e f i TaskTimeLog.obj
 0001:0003da70       ??A?$CMap@KKNAAN@@QAEAANK@Z 0043ea70 f i TaskTimeLog.obj
 0001:0003dadd       ?GetNextAssoc@?$CMap@KKNAAN@@QBEXAAPAU__POSITION@@AAKAAN@Z 0043eadd f i TaskTimeLog.obj
 0001:0003db44       ??1?$CMap@KKNAAN@@UAE@XZ   0043eb44 f i TaskTimeLog.obj
 0001:0003db77       ?Serialize@?$CMap@KKNAAN@@UAEXAAVCArchive@@@Z 0043eb77 f i TaskTimeLog.obj
 0001:0003dc17       ?SetSize@?$CArray@UTASKTIMELOGITEM@@AAU1@@@QAEXHH@Z 0043ec17 f i TaskTimeLog.obj
 0001:0003dd37       ?Append@?$CArray@UTASKTIMELOGITEM@@AAU1@@@QAEHABV1@@Z 0043ed37 f i TaskTimeLog.obj
 0001:0003dd85       ?Copy@?$CArray@UTASKTIMELOGITEM@@AAU1@@@QAEXABV1@@Z 0043ed85 f i TaskTimeLog.obj
 0001:0003ddc4       ??1?$CArray@UTASKTIMELOGITEM@@AAU1@@@UAE@XZ 0043edc4 f i TaskTimeLog.obj
 0001:0003de0b       ?Serialize@?$CArray@UTASKTIMELOGITEM@@AAU1@@@UAEXAAVCArchive@@@Z 0043ee0b f i TaskTimeLog.obj
 0001:0003de4a       ??1?$CMap@KKHAAH@@UAE@XZ   0043ee4a f i TaskTimeLog.obj
 0001:0003de7d       ??1?$CArray@PAVCMapIDToTimeAndPeriod@CTDCTaskTimeLogAnalysis@@AAPAV12@@@UAE@XZ 0043ee7d f i TaskTimeLog.obj
 0001:0003deb9       ??_G?$CMap@KKNAAN@@UAEPAXI@Z 0043eeb9 f i TaskTimeLog.obj
 0001:0003deb9       ??_E?$CMap@KKNAAN@@UAEPAXI@Z 0043eeb9 f i TaskTimeLog.obj
 0001:0003ded5       ??_G?$CArray@UTASKTIMELOGITEM@@AAU1@@@UAEPAXI@Z 0043eed5 f i TaskTimeLog.obj
 0001:0003ded5       ??_E?$CArray@UTASKTIMELOGITEM@@AAU1@@@UAEPAXI@Z 0043eed5 f i TaskTimeLog.obj
 0001:0003def1       ??_G?$CMap@KKHAAH@@UAEPAXI@Z 0043eef1 f i TaskTimeLog.obj
 0001:0003def1       ??_E?$CMap@KKHAAH@@UAEPAXI@Z 0043eef1 f i TaskTimeLog.obj
 0001:0003df0d       ??_G?$CArray@PAVCMapIDToTimeAndPeriod@CTDCTaskTimeLogAnalysis@@AAPAV12@@@UAEPAXI@Z 0043ef0d f i TaskTimeLog.obj
 0001:0003df0d       ??_E?$CArray@PAVCMapIDToTimeAndPeriod@CTDCTaskTimeLogAnalysis@@AAPAV12@@@UAEPAXI@Z 0043ef0d f i TaskTimeLog.obj
 0001:0003df29       ?NewAssoc@?$CMap@KKNAAN@@IAEPAUCAssoc@1@XZ 0043ef29 f i TaskTimeLog.obj
 0001:0003df8f       ?DestructElements@@YGXPAUTASKTIMELOGITEM@@H@Z 0043ef8f f i TaskTimeLog.obj
 0001:0003dfb3       ?ConstructElements@@YGXPAUTASKTIMELOGITEM@@H@Z 0043efb3 f i TaskTimeLog.obj
 0001:0003e00d       ??4TASKTIMELOGITEM@@QAEAAU0@ABU0@@Z 0043f00d f i TaskTimeLog.obj
 0001:0003e074       ?Anonymize@CTDCAnonymizeTasklist@@SAHPBG@Z 0043f074 f   TDCAnonymizeTasklist.obj
 0001:0003e176       ?Anonymize@CTDCAnonymizeTasklist@@KAXAAVCTaskFile@@PAXAAV?$CMapStringToContainer@VCMapStringToString@@@@@Z 0043f176 f   TDCAnonymizeTasklist.obj
 0001:0003e4cb       ?Anonymize@CTDCAnonymizeTasklist@@KAXAAVCStringArray@@AAVCMapStringToString@@@Z 0043f4cb f   TDCAnonymizeTasklist.obj
 0001:0003e4f2       ?Anonymize@CTDCAnonymizeTasklist@@KAXAAVCString@@AAVCMapStringToString@@@Z 0043f4f2 f   TDCAnonymizeTasklist.obj
 0001:0003e587       ??1?$CMapStringToContainer@VCMapStringToString@@@@UAE@XZ 0043f587 f i TDCAnonymizeTasklist.obj
 0001:0003e5ce       ?GetAddMapping@?$CMapStringToContainer@VCMapStringToString@@@@QAEPAVCMapStringToString@@ABVCString@@@Z 0043f5ce f i TDCAnonymizeTasklist.obj
 0001:0003e639       ??_G?$CMapStringToContainer@VCMapStringToString@@@@UAEPAXI@Z 0043f639 f i TDCAnonymizeTasklist.obj
 0001:0003e639       ??_E?$CMapStringToContainer@VCMapStringToString@@@@UAEPAXI@Z 0043f639 f i TDCAnonymizeTasklist.obj
 0001:0003e655       ?RemoveAll@?$CMapStringToContainer@VCMapStringToString@@@@QAEXXZ 0043f655 f i TDCAnonymizeTasklist.obj
 0001:0003e6ca       ??1?$CMap@VCString@@PBGPAVCMapStringToString@@AAPAV2@@@UAE@XZ 0043f6ca f i TDCAnonymizeTasklist.obj
 0001:0003e6fd       ?Serialize@?$CMap@VCString@@PBGPAVCMapStringToString@@AAPAV2@@@UAEXAAVCArchive@@@Z 0043f6fd f i TDCAnonymizeTasklist.obj
 0001:0003e7d4       ??_E?$CMap@VCString@@PBGPAVCMapStringToString@@AAPAV2@@@UAEPAXI@Z 0043f7d4 f i TDCAnonymizeTasklist.obj
 0001:0003e7d4       ??_G?$CMap@VCString@@PBGPAVCMapStringToString@@AAPAV2@@@UAEPAXI@Z 0043f7d4 f i TDCAnonymizeTasklist.obj
 0001:0003e7f0       ?GetAssocAt@?$CMap@VCString@@PBGKAAK@@IBEPAUCAssoc@1@PBGAAI@Z 0043f7f0 f i TDCAnonymizeTasklist.obj
 0001:0003e7f0       ?GetAssocAt@?$CMap@VCString@@PBGPAVCMapStringToString@@AAPAV2@@@IBEPAUCAssoc@1@PBGAAI@Z 0043f7f0 f i TDCAnonymizeTasklist.obj
 0001:0003e7f0       ?GetAssocAt@?$CMap@VCString@@PBGHH@@IBEPAUCAssoc@1@PBGAAI@Z 0043f7f0 f i TDCAnonymizeTasklist.obj
 0001:0003e7f0       ?GetAssocAt@?$CMap@VCString@@PBGW4CLA_TYPE@@AAW42@@@IBEPAUCAssoc@1@PBGAAI@Z 0043f7f0 f i TDCAnonymizeTasklist.obj
 0001:0003e836       ?NewAssoc@?$CMap@VCString@@PBGHH@@IAEPAUCAssoc@1@XZ 0043f836 f i TDCAnonymizeTasklist.obj
 0001:0003e836       ?NewAssoc@?$CMap@VCString@@PBGKAAK@@IAEPAUCAssoc@1@XZ 0043f836 f i TDCAnonymizeTasklist.obj
 0001:0003e836       ?NewAssoc@?$CMap@VCString@@PBGW4CLA_TYPE@@AAW42@@@IAEPAUCAssoc@1@XZ 0043f836 f i TDCAnonymizeTasklist.obj
 0001:0003e836       ?NewAssoc@?$CMap@VCString@@PBGPAVCMapStringToString@@AAPAV2@@@IAEPAUCAssoc@1@XZ 0043f836 f i TDCAnonymizeTasklist.obj
 0001:0003eb04       ?CreateCustomAttribute@CTDCCustomAttributeHelper@@KAPAVCWnd@@ABUTDCCUSTOMATTRIBUTEDEFINITION@@ABVCTDCImageList@@PAV2@IHH@Z 0043fb04 f   TDCCustomAttributeHelper.obj
 0001:0003eec9       ?GetUniqueListData@TDCCUSTOMATTRIBUTEDEFINITION@@QBEHAAVCStringArray@@@Z 0043fec9 f i TDCCustomAttributeHelper.obj
 0001:0003eef3       ?AttributeWantsBuddy@CTDCCustomAttributeHelper@@KAHABUTDCCUSTOMATTRIBUTEDEFINITION@@@Z 0043fef3 f   TDCCustomAttributeHelper.obj
 0001:0003ef10       ?GetControlLabel@CTDCCustomAttributeHelper@@KA?AVCString@@ABUTDCCUSTOMATTRIBUTEDEFINITION@@H@Z 0043ff10 f   TDCCustomAttributeHelper.obj
 0001:0003efa8       ?CreateCustomAttributeLabel@CTDCCustomAttributeHelper@@KAPAVCWnd@@ABUTDCCUSTOMATTRIBUTEDEFINITION@@PAV2@IHH@Z 0043ffa8 f   TDCCustomAttributeHelper.obj
 0001:0003f086       ?GetControl@CTDCCustomAttributeHelper@@SAHIABVCTDCCustomControlArray@@AAUCUSTOMATTRIBCTRLITEM@@@Z 00440086 f   TDCCustomAttributeHelper.obj
 0001:0003f0ed       ?GetControl@CTDCCustomAttributeHelper@@SAHABVCString@@ABVCTDCCustomControlArray@@AAUCUSTOMATTRIBCTRLITEM@@@Z 004400ed f   TDCCustomAttributeHelper.obj
 0001:0003f15d       ?CleanupCustomAttributeUI@CTDCCustomAttributeHelper@@SAXAAVCTDCCustomControlArray@@PAVCWnd@@@Z 0044015d f   TDCCustomAttributeHelper.obj
 0001:0003f229       ?RebuildCustomAttributeUI@CTDCCustomAttributeHelper@@SAHABVCTDCCustomAttribDefinitionArray@@AAVCTDCCustomControlArray@@ABVCTDCImageList@@PAVCWnd@@I@Z 00440229 f   TDCCustomAttributeHelper.obj
 0001:0003f43e       ??0CUSTOMATTRIBCTRLITEM@@QAE@XZ 0044043e f i TDCCustomAttributeHelper.obj
 0001:0003f45e       ??1CUSTOMATTRIBCTRLITEM@@QAE@XZ 0044045e f i TDCCustomAttributeHelper.obj
 0001:0003f466       ?GetAttributeID@CTDCCustomAttributeHelper@@SA?AW4TDC_ATTRIBUTE@@W4TDC_COLUMN@@ABVCTDCCustomAttribDefinitionArray@@@Z 00440466 f   TDCCustomAttributeHelper.obj
 0001:0003f4a5       ?GetAttributeID@CTDCCustomAttributeHelper@@SA?AW4TDC_ATTRIBUTE@@ABVCString@@ABVCTDCCustomAttribDefinitionArray@@@Z 004404a5 f   TDCCustomAttributeHelper.obj
 0001:0003f4f0       ?GetAttributeTypeID@CTDCCustomAttributeHelper@@SA?AVCString@@W4TDC_ATTRIBUTE@@ABVCTDCCustomAttribDefinitionArray@@@Z 004404f0 f   TDCCustomAttributeHelper.obj
 0001:0003f563       ?GetAttributeDef@CTDCCustomAttributeHelper@@SAHW4TDC_ATTRIBUTE@@ABVCTDCCustomAttribDefinitionArray@@AAUTDCCUSTOMATTRIBUTEDEFINITION@@@Z 00440563 f   TDCCustomAttributeHelper.obj
 0001:0003f5ab       ?GetAttributeDef@CTDCCustomAttributeHelper@@SAHABVCString@@ABVCTDCCustomAttribDefinitionArray@@AAUTDCCUSTOMATTRIBUTEDEFINITION@@@Z 004405ab f   TDCCustomAttributeHelper.obj
 0001:0003f5dd       ?GetAttributeDef@CTDCCustomAttributeHelper@@SAHABUCUSTOMATTRIBCTRLITEM@@ABVCTDCCustomAttribDefinitionArray@@AAUTDCCUSTOMATTRIBUTEDEFINITION@@@Z 004405dd f   TDCCustomAttributeHelper.obj
 0001:0003f5f6       ?GetAttributeDef@CTDCCustomAttributeHelper@@SAHW4TDC_COLUMN@@ABVCTDCCustomAttribDefinitionArray@@AAUTDCCUSTOMATTRIBUTEDEFINITION@@@Z 004405f6 f   TDCCustomAttributeHelper.obj
 0001:0003f63e       ?IsColumnSortable@CTDCCustomAttributeHelper@@SAHW4TDC_COLUMN@@ABVCTDCCustomAttribDefinitionArray@@@Z 0044063e f   TDCCustomAttributeHelper.obj
 0001:0003f690       ?IsCustomAttribute@CTDCCustomAttributeHelper@@SAHW4TDC_ATTRIBUTE@@@Z 00440690 f   TDCCustomAttributeHelper.obj
 0001:0003f6a5       ?IsCustomColumn@CTDCCustomAttributeHelper@@SAHW4TDC_COLUMN@@@Z 004406a5 f   TDCCustomAttributeHelper.obj
 0001:0003f6ba       ?IsCustomControl@CTDCCustomAttributeHelper@@SAHI@Z 004406ba f   TDCCustomAttributeHelper.obj
 0001:0003f6d5       ?FindAttribute@CTDCCustomAttributeHelper@@SAHABVCString@@ABVCTDCCustomAttribDefinitionArray@@H@Z 004406d5 f   TDCCustomAttributeHelper.obj
 0001:0003f72a       ?SaveAutoListDataToDefs@CTDCCustomAttributeHelper@@SAXPBVCWnd@@ABVCTDCCustomControlArray@@ABVCTDCCustomAttribDefinitionArray@@@Z 0044072a f   TDCCustomAttributeHelper.obj
 0001:0003f7c5       ?GetControlFromAttributeDef@CTDCCustomAttributeHelper@@SAPAVCWnd@@PBV2@ABUTDCCUSTOMATTRIBUTEDEFINITION@@ABVCTDCCustomControlArray@@@Z 004407c5 f   TDCCustomAttributeHelper.obj
 0001:0003f824       ?UpdateCustomAttributeControls@CTDCCustomAttributeHelper@@SAXPBVCWnd@@AAVCTDCCustomControlArray@@ABVCTDCCustomAttribDefinitionArray@@ABVCMapStringToString@@@Z 00440824 f   TDCCustomAttributeHelper.obj
 0001:0003f8aa       ?ClearCustomAttributeControls@CTDCCustomAttributeHelper@@SAXPBVCWnd@@AAVCTDCCustomControlArray@@ABVCTDCCustomAttribDefinitionArray@@@Z 004408aa f   TDCCustomAttributeHelper.obj
 0001:0003f920       ?GetControlData@CTDCCustomAttributeHelper@@SAHPBVCWnd@@ABVCTDCCustomControlArray@@ABVCTDCCustomAttribDefinitionArray@@AAVCMapStringToString@@@Z 00440920 f   TDCCustomAttributeHelper.obj
 0001:0003f9ab       ?GetControlData@CTDCCustomAttributeHelper@@SA?AVCString@@PBVCWnd@@ABUCUSTOMATTRIBCTRLITEM@@ABVCTDCCustomAttribDefinitionArray@@@Z 004409ab f   TDCCustomAttributeHelper.obj
 0001:0003fc0d       ?AsString@TDCCADATA@@QBE?AVCString@@XZ 00440c0d f i TDCCustomAttributeHelper.obj
 0001:0003fc25       ?FormatData@CTDCCustomAttributeHelper@@SA?AVCString@@ABV2@0ABVCTDCCustomAttribDefinitionArray@@@Z 00440c25 f   TDCCustomAttributeHelper.obj
 0001:0003fd57       ?UpdateCustomAttributeControl@CTDCCustomAttributeHelper@@SAXPBVCWnd@@ABUCUSTOMATTRIBCTRLITEM@@ABVCTDCCustomAttribDefinitionArray@@ABVCString@@@Z 00440d57 f   TDCCustomAttributeHelper.obj
 0001:0003ff6e       ?GetControlAttributeTypes@CTDCCustomAttributeHelper@@SAHABUCUSTOMATTRIBCTRLITEM@@ABVCTDCCustomAttribDefinitionArray@@AAK2@Z 00440f6e f   TDCCustomAttributeHelper.obj
 0001:0003ffc5       ?GetAttributeFindType@CTDCCustomAttributeHelper@@SA?AW4FIND_ATTRIBTYPE@@ABVCString@@HABVCTDCCustomAttribDefinitionArray@@@Z 00440fc5 f   TDCCustomAttributeHelper.obj
 0001:0003ffff       ?GetAttributeFindType@CTDCCustomAttributeHelper@@SA?AW4FIND_ATTRIBTYPE@@W4TDC_ATTRIBUTE@@HABVCTDCCustomAttribDefinitionArray@@@Z 00440fff f   TDCCustomAttributeHelper.obj
 0001:00040127       ?AppendUniqueAttributes@CTDCCustomAttributeHelper@@SAHABVCTDCCustomAttribDefinitionArray@@AAV2@@Z 00441127 f   TDCCustomAttributeHelper.obj
 0001:000401b1       ?CalcLongestListItem@CTDCCustomAttributeHelper@@SAHABUTDCCUSTOMATTRIBUTEDEFINITION@@PAVCDC@@@Z 004411b1 f   TDCCustomAttributeHelper.obj
 0001:000402cb       ?DecodeImageTag@TDCCUSTOMATTRIBUTEDEFINITION@@SAHABVCString@@AAV2@1@Z 004412cb f i TDCCustomAttributeHelper.obj
 0001:0004033a       ?Copy@?$CArray@UTDCCUSTOMATTRIBUTEDEFINITION@@AAU1@@@QAEXABV1@@Z 0044133a f i TDCCustomAttributeHelper.obj
 0001:00040379       ??A?$CArray@UTDCCUSTOMATTRIBUTEDEFINITION@@AAU1@@@QBE?AUTDCCUSTOMATTRIBUTEDEFINITION@@H@Z 00441379 f i TDCCustomAttributeHelper.obj
 0001:00040393       ?SetSize@?$CArray@UCUSTOMATTRIBCTRLITEM@@AAU1@@@QAEXHH@Z 00441393 f i TDCCustomAttributeHelper.obj
 0001:000404ba       ?SetAtGrow@?$CArray@UCUSTOMATTRIBCTRLITEM@@AAU1@@@QAEXHAAUCUSTOMATTRIBCTRLITEM@@@Z 004414ba f i TDCCustomAttributeHelper.obj
 0001:00040509       ?DestructElements@@YGXPAUCUSTOMATTRIBCTRLITEM@@H@Z 00441509 f i TDCCustomAttributeHelper.obj
 0001:0004052d       ?GetAt@?$CArray@UTDCCUSTOMATTRIBUTEDEFINITION@@AAU1@@@QBE?AUTDCCUSTOMATTRIBUTEDEFINITION@@H@Z 0044152d f i TDCCustomAttributeHelper.obj
 0001:0004054e       ??0TDCCUSTOMATTRIBUTEDEFINITION@@QAE@ABU0@@Z 0044154e f i TDCCustomAttributeHelper.obj
 0001:000405b3       ?ConstructElements@@YGXPAUCUSTOMATTRIBCTRLITEM@@H@Z 004415b3 f i TDCCustomAttributeHelper.obj
 0001:0004060e       ??0CTDCAttributeMap@@QAE@XZ 0044160e f   TDCEnumContainers.obj
 0001:00040633       ??_ECTDCAttributeMap@@UAEPAXI@Z 00441633 f i TDCEnumContainers.obj
 0001:00040633       ??_GCTDCAttributeMap@@UAEPAXI@Z 00441633 f i TDCEnumContainers.obj
 0001:0004064f       ??1CTDCAttributeMap@@UAE@XZ 0044164f f   TDCEnumContainers.obj
 0001:00040682       ?AddAttribute@CTDCAttributeMap@@QAEHW4TDC_ATTRIBUTE@@@Z 00441682 f   TDCEnumContainers.obj
 0001:000406ac       ?RemoveAttribute@CTDCAttributeMap@@QAEXW4TDC_ATTRIBUTE@@@Z 004416ac f   TDCEnumContainers.obj
 0001:000406b8       ?GetNextColumn@CTDCColumnIDMap@@QBE?AW4TDC_COLUMN@@AAPAU__POSITION@@@Z 004416b8 f   TDCEnumContainers.obj
 0001:000406b8       ?GetNextAttribute@CTDCAttributeMap@@QBE?AW4TDC_ATTRIBUTE@@AAPAU__POSITION@@@Z 004416b8 f   TDCEnumContainers.obj
 0001:000406d3       ?MatchAllAttributes@CTDCAttributeMap@@QBEHABV1@@Z 004416d3 f   TDCEnumContainers.obj
 0001:000406df       ?CopyAttributes@CTDCAttributeMap@@QAEXABV1@@Z 004416df f   TDCEnumContainers.obj
 0001:000406f6       ?AppendAttributes@CTDCAttributeMap@@QAEXABV1@@Z 004416f6 f   TDCEnumContainers.obj
 0001:00040702       ?SaveAttributes@CTDCAttributeMap@@QBEXAAVCPreferences@@PBG1@Z 00441702 f   TDCEnumContainers.obj
 0001:00040716       ?LoadAttributes@CTDCAttributeMap@@QAEXABVCPreferences@@PBG1@Z 00441716 f   TDCEnumContainers.obj
 0001:0004072c       ??0CTDCAttributeArray@@QAE@XZ 0044172c f   TDCEnumContainers.obj
 0001:00040743       ??_ECTDCAttributeArray@@UAEPAXI@Z 00441743 f i TDCEnumContainers.obj
 0001:00040743       ??_GCTDCAttributeArray@@UAEPAXI@Z 00441743 f i TDCEnumContainers.obj
 0001:0004075f       ??1CTDCAttributeArray@@UAE@XZ 0044175f f   TDCEnumContainers.obj
 0001:0004076a       ??0CTDCColumnIDMap@@QAE@XZ 0044176a f   TDCEnumContainers.obj
 0001:0004078f       ??_ECTDCColumnIDMap@@UAEPAXI@Z 0044178f f i TDCEnumContainers.obj
 0001:0004078f       ??_GCTDCColumnIDMap@@UAEPAXI@Z 0044178f f i TDCEnumContainers.obj
 0001:000407ab       ??1CTDCColumnIDMap@@UAE@XZ 004417ab f   TDCEnumContainers.obj
 0001:000407de       ?HasAttribute@CTDCAttributeMap@@QBEHW4TDC_ATTRIBUTE@@@Z 004417de f   TDCEnumContainers.obj
 0001:000407de       ?HasColumn@CTDCColumnIDMap@@QBEHW4TDC_COLUMN@@@Z 004417de f   TDCEnumContainers.obj
 0001:000407f1       ?AddColumn@CTDCColumnIDMap@@QAEXW4TDC_COLUMN@@@Z 004417f1 f   TDCEnumContainers.obj
 0001:00040800       ?RemoveColumn@CTDCColumnIDMap@@QAEXW4TDC_COLUMN@@@Z 00441800 f   TDCEnumContainers.obj
 0001:0004080c       ?MatchAllColumns@CTDCColumnIDMap@@QBEHABV1@@Z 0044180c f   TDCEnumContainers.obj
 0001:00040818       ?CopyColumns@CTDCColumnIDMap@@QAEXABV1@@Z 00441818 f   TDCEnumContainers.obj
 0001:0004082f       ?SaveColumns@CTDCColumnIDMap@@QBEXAAVCPreferences@@PBG1@Z 0044182f f   TDCEnumContainers.obj
 0001:00040843       ?LoadColumns@CTDCColumnIDMap@@QAEXABVCPreferences@@PBG1@Z 00441843 f   TDCEnumContainers.obj
 0001:0004085c       ??0CTDCColumnIDArray@@QAE@XZ 0044185c f   TDCEnumContainers.obj
 0001:00040873       ??_GCTDCColumnIDArray@@UAEPAXI@Z 00441873 f i TDCEnumContainers.obj
 0001:00040873       ??_ECTDCColumnIDArray@@UAEPAXI@Z 00441873 f i TDCEnumContainers.obj
 0001:0004088f       ??1CTDCColumnIDArray@@UAE@XZ 0044188f f   TDCEnumContainers.obj
 0001:0004089a       ?Append@?$CTDCBaseEnumMap@W4TDC_COLUMN@@@@IAEXABV1@@Z 0044189a f i TDCEnumContainers.obj
 0001:0004089a       ?Append@?$CTDCBaseEnumMap@W4TDC_ATTRIBUTE@@@@IAEXABV1@@Z 0044189a f i TDCEnumContainers.obj
 0001:000408e0       ?Save@?$CTDCBaseEnumMap@W4TDC_ATTRIBUTE@@@@IBEXAAVCPreferences@@PBG1@Z 004418e0 f i TDCEnumContainers.obj
 0001:0004098b       ?Load@?$CTDCBaseEnumMap@W4TDC_ATTRIBUTE@@@@IAEXABVCPreferences@@PBG1W4TDC_ATTRIBUTE@@@Z 0044198b f i TDCEnumContainers.obj
 0001:00040a23       ?MatchAll@?$CTDCBaseEnumMap@W4TDC_ATTRIBUTE@@@@IBEHABV1@@Z 00441a23 f i TDCEnumContainers.obj
 0001:00040a23       ?MatchAll@?$CTDCBaseEnumMap@W4TDC_COLUMN@@@@IBEHABV1@@Z 00441a23 f i TDCEnumContainers.obj
 0001:00040a7b       ?Save@?$CTDCBaseEnumMap@W4TDC_COLUMN@@@@IBEXAAVCPreferences@@PBG1@Z 00441a7b f i TDCEnumContainers.obj
 0001:00040b26       ?Load@?$CTDCBaseEnumMap@W4TDC_COLUMN@@@@IAEXABVCPreferences@@PBG1W4TDC_COLUMN@@@Z 00441b26 f i TDCEnumContainers.obj
 0001:00040bbe       ?Lookup@?$CMap@W4TDC_COLUMN@@W41@DAAD@@QBEHW4TDC_COLUMN@@AAD@Z 00441bbe f i TDCEnumContainers.obj
 0001:00040bbe       ?Lookup@?$CMap@W4TDC_ATTRIBUTE@@W41@DAAD@@QBEHW4TDC_ATTRIBUTE@@AAD@Z 00441bbe f i TDCEnumContainers.obj
 0001:00040c00       ??1?$CMap@W4TDC_ATTRIBUTE@@W41@DAAD@@UAE@XZ 00441c00 f i TDCEnumContainers.obj
 0001:00040c33       ?Serialize@?$CMap@W4TDC_ATTRIBUTE@@W41@DAAD@@UAEXAAVCArchive@@@Z 00441c33 f i TDCEnumContainers.obj
 0001:00040c33       ?Serialize@?$CMap@W4TDC_COLUMN@@W41@DAAD@@UAEXAAVCArchive@@@Z 00441c33 f i TDCEnumContainers.obj
 0001:00040d04       ?Copy@?$CArray@W4TDC_ATTRIBUTE@@W41@@@QAEXABV1@@Z 00441d04 f i TDCEnumContainers.obj
 0001:00040d39       ??1?$CArray@W4TDC_ATTRIBUTE@@W41@@@UAE@XZ 00441d39 f i TDCEnumContainers.obj
 0001:00040d75       ??A?$CMap@W4TDC_COLUMN@@W41@DAAD@@QAEAADW4TDC_COLUMN@@@Z 00441d75 f i TDCEnumContainers.obj
 0001:00040d75       ??A?$CMap@W4TDC_ATTRIBUTE@@W41@DAAD@@QAEAADW4TDC_ATTRIBUTE@@@Z 00441d75 f i TDCEnumContainers.obj
 0001:00040de2       ?GetNextAssoc@?$CMap@W4TDC_ATTRIBUTE@@W41@DAAD@@QBEXAAPAU__POSITION@@AAW4TDC_ATTRIBUTE@@AAD@Z 00441de2 f i TDCEnumContainers.obj
 0001:00040de2       ?GetNextAssoc@?$CMap@W4TDC_COLUMN@@W41@DAAD@@QBEXAAPAU__POSITION@@AAW4TDC_COLUMN@@AAD@Z 00441de2 f i TDCEnumContainers.obj
 0001:00040e49       ??1?$CMap@W4TDC_COLUMN@@W41@DAAD@@UAE@XZ 00441e49 f i TDCEnumContainers.obj
 0001:00040e7c       ??1?$CArray@W4TDC_COLUMN@@W41@@@UAE@XZ 00441e7c f i TDCEnumContainers.obj
 0001:00040eb8       ?Serialize@?$CArray@W4TDC_COLUMN@@W41@@@UAEXAAVCArchive@@@Z 00441eb8 f i TDCEnumContainers.obj
 0001:00040eb8       ?Serialize@?$CArray@PAVCMapIDToTimeAndPeriod@CTDCTaskTimeLogAnalysis@@AAPAV12@@@UAEXAAVCArchive@@@Z 00441eb8 f i TDCEnumContainers.obj
 0001:00040eb8       ?Serialize@?$CArray@PAVIUIExtensionWindow@@PAV1@@@UAEXAAVCArchive@@@Z 00441eb8 f i TDCEnumContainers.obj
 0001:00040eb8       ?Serialize@?$CArray@PAUHWND__@@PAU1@@@UAEXAAVCArchive@@@Z 00441eb8 f i TDCEnumContainers.obj
 0001:00040eb8       ?Serialize@?$CArray@HH@@UAEXAAVCArchive@@@Z 00441eb8 f i TDCEnumContainers.obj
 0001:00040eb8       ?Serialize@?$CArray@PAUTRACKTASKLIST@@AAPAU1@@@UAEXAAVCArchive@@@Z 00441eb8 f i TDCEnumContainers.obj
 0001:00040eb8       ?Serialize@?$CArray@PAVCTaskFile@@AAPAV1@@@UAEXAAVCArchive@@@Z 00441eb8 f i TDCEnumContainers.obj
 0001:00040eb8       ?Serialize@?$CArray@W4IUI_ATTRIBUTE@@W41@@@UAEXAAVCArchive@@@Z 00441eb8 f i TDCEnumContainers.obj
 0001:00040eb8       ?Serialize@?$CArray@PAVTODOSTRUCTURE@@AAPAV1@@@UAEXAAVCArchive@@@Z 00441eb8 f i TDCEnumContainers.obj
 0001:00040eb8       ?Serialize@?$CArray@W4TDC_ATTRIBUTE@@W41@@@UAEXAAVCArchive@@@Z 00441eb8 f i TDCEnumContainers.obj
 0001:00040ef7       ??_G?$CMap@W4TDC_ATTRIBUTE@@W41@DAAD@@UAEPAXI@Z 00441ef7 f i TDCEnumContainers.obj
 0001:00040ef7       ??_E?$CMap@W4TDC_ATTRIBUTE@@W41@DAAD@@UAEPAXI@Z 00441ef7 f i TDCEnumContainers.obj
 0001:00040f13       ??_E?$CArray@W4TDC_ATTRIBUTE@@W41@@@UAEPAXI@Z 00441f13 f i TDCEnumContainers.obj
 0001:00040f13       ??_G?$CArray@W4TDC_ATTRIBUTE@@W41@@@UAEPAXI@Z 00441f13 f i TDCEnumContainers.obj
 0001:00040f2f       ??_E?$CMap@W4TDC_COLUMN@@W41@DAAD@@UAEPAXI@Z 00441f2f f i TDCEnumContainers.obj
 0001:00040f2f       ??_G?$CMap@W4TDC_COLUMN@@W41@DAAD@@UAEPAXI@Z 00441f2f f i TDCEnumContainers.obj
 0001:00040f4b       ??_E?$CArray@W4TDC_COLUMN@@W41@@@UAEPAXI@Z 00441f4b f i TDCEnumContainers.obj
 0001:00040f4b       ??_G?$CArray@W4TDC_COLUMN@@W41@@@UAEPAXI@Z 00441f4b f i TDCEnumContainers.obj
 0001:00040f67       ?NewAssoc@?$CMap@W4TDC_COLUMN@@W41@DAAD@@IAEPAUCAssoc@1@XZ 00441f67 f i TDCEnumContainers.obj
 0001:00040f67       ?NewAssoc@?$CMap@W4TDC_ATTRIBUTE@@W41@DAAD@@IAEPAUCAssoc@1@XZ 00441f67 f i TDCEnumContainers.obj
 0001:00040fcf       ?FreeAssoc@?$CMap@W4TDC_COLUMN@@W41@DAAD@@IAEXPAUCAssoc@1@@Z 00441fcf f i TDCEnumContainers.obj
 0001:00040fcf       ?FreeAssoc@?$CMap@PAXPAXPAVCXmlItem@@AAPAV1@@@IAEXPAUCAssoc@1@@Z 00441fcf f i TDCEnumContainers.obj
 0001:00040fcf       ?FreeAssoc@?$CMap@KKPAVTODOITEM@@AAPAV1@@@IAEXPAUCAssoc@1@@Z 00441fcf f i TDCEnumContainers.obj
 0001:00040fcf       ?FreeAssoc@?$CMap@KKPAU_TREEITEM@@AAPAU1@@@IAEXPAUCAssoc@1@@Z 00441fcf f i TDCEnumContainers.obj
 0001:00040fcf       ?FreeAssoc@?$CMap@PAVCFilteredToDoCtrl@@PAV1@PAVCBrowserDlg@@PAV2@@@IAEXPAUCAssoc@1@@Z 00441fcf f i TDCEnumContainers.obj
 0001:00040fcf       ?FreeAssoc@?$CMap@KKPAVTODOSTRUCTURE@@AAPAV1@@@IAEXPAUCAssoc@1@@Z 00441fcf f i TDCEnumContainers.obj
 0001:00040fcf       ?FreeAssoc@?$CMap@W4TDC_ATTRIBUTE@@W41@DAAD@@IAEXPAUCAssoc@1@@Z 00441fcf f i TDCEnumContainers.obj
 0001:00040fcf       ?FreeAssoc@?$CMap@IIKAAK@@IAEXPAUCAssoc@1@@Z 00441fcf f i TDCEnumContainers.obj
 0001:00041040       ??0CTDCFilter@@QAE@XZ      00442040 f   TDCFilter.obj
 0001:0004109e       ??_GCTDCFilter@@UAEPAXI@Z  0044209e f i TDCFilter.obj
 0001:0004109e       ??_ECTDCFilter@@UAEPAXI@Z  0044209e f i TDCFilter.obj
 0001:000410ba       ??1CTDCFilter@@UAE@XZ      004420ba f   TDCFilter.obj
 0001:000410f9       ??1FTDCCUSTOMFILTER@@QAE@XZ 004420f9 f i TDCFilter.obj
 0001:0004113d       ??4FTDCFILTER@@QAEAAU0@ABU0@@Z 0044213d f i TDCFilter.obj
 0001:00041218       ??4FTDCCUSTOMFILTER@@QAEAAU0@ABU0@@Z 00442218 f i TDCFilter.obj
 0001:0004123f       ??4SEARCHPARAMS@@QAEAAU0@ABU0@@Z 0044223f f i TDCFilter.obj
 0001:00041278       ?FilterMatches@CTDCFilter@@QBEHABUFTDCFILTER@@PBGKK@Z 00442278 f   TDCFilter.obj
 0001:000412ea       ?GetFilter@CTDCFilter@@QBE?AW4FILTER_SHOW@@AAUFTDCFILTER@@@Z 004422ea f   TDCFilter.obj
 0001:00041319       ?Reset@FTDCFILTER@@QAEXXZ  00442319 f i TDCFilter.obj
 0001:0004135f       ?GetFilter@CTDCFilter@@QBE?AW4FILTER_SHOW@@XZ 0044235f f   TDCFilter.obj
 0001:00041377       ?HasAnyFilter@CTDCFilter@@QBEHK@Z 00442377 f   TDCFilter.obj
 0001:000413ab       ?IsSet@FTDCFILTER@@QBEHK@Z 004423ab f i TDCFilter.obj
 0001:00041407       ?SetFilter@CTDCFilter@@QAEHABUFTDCFILTER@@@Z 00442407 f   TDCFilter.obj
 0001:00041440       ?Clear@SEARCHPARAMS@@QAEXXZ 00442440 f i TDCFilter.obj
 0001:0004146c       ?SetCustomFilter@CTDCFilter@@QAEHABUFTDCCUSTOMFILTER@@@Z 0044246c f   TDCFilter.obj
 0001:000414ab       ?GetCustomFilterName@CTDCFilter@@QBE?AVCString@@XZ 004424ab f   TDCFilter.obj
 0001:000414e1       ?HasCustomFilter@CTDCFilter@@QBEHXZ 004424e1 f   TDCFilter.obj
 0001:000414ee       ?HasCustomFilterAttribute@CTDCFilter@@QBEHW4TDC_ATTRIBUTE@@@Z 004424ee f   TDCFilter.obj
 0001:0004150d       ?GetFilterFlags@CTDCFilter@@QBEKXZ 0044250d f   TDCFilter.obj
 0001:00041532       ?HasFilterFlag@CTDCFilter@@QBEHK@Z 00442532 f   TDCFilter.obj
 0001:00041547       ?ClearFilter@CTDCFilter@@QAEHXZ 00442547 f   TDCFilter.obj
 0001:00041591       ?ToggleFilter@CTDCFilter@@QAEHXZ 00442591 f   TDCFilter.obj
 0001:000415db       ?CanToggleFilter@CTDCFilter@@QBEHXZ 004425db f   TDCFilter.obj
 0001:000415f3       ?BuildFilterQuery@CTDCFilter@@QBEHAAUSEARCHPARAMS@@ABVCTDCCustomAttribDefinitionArray@@@Z 004425f3 f   TDCFilter.obj
 0001:00041683       ?BuildFilterQuery@CTDCFilter@@KAXABUFTDCFILTER@@AAUSEARCHPARAMS@@@Z 00442683 f   TDCFilter.obj
 0001:000418e1       ??0SEARCHPARAM@@QAE@W4TDC_ATTRIBUTE@@W4FIND_OPERATOR@@NH@Z 004428e1 f i TDCFilter.obj
 0001:00041961       ?AddNonDateFilterQueryRules@CTDCFilter@@KAXABUFTDCFILTER@@AAUSEARCHPARAMS@@@Z 00442961 f   TDCFilter.obj
 0001:00041fca       ??0SEARCHPARAM@@QAE@W4TDC_ATTRIBUTE@@W4FIND_OPERATOR@@HH@Z 00442fca f i TDCFilter.obj
 0001:0004204a       ?InitFilterDate@CTDCFilter@@KAHW4FILTER_DATE@@ABVCOleDateTime@@HAAV3@@Z 0044304a f   TDCFilter.obj
 0001:00042109       ?SaveFilter@CTDCFilter@@QBEXAAVCPreferences@@ABVCString@@@Z 00443109 f   TDCFilter.obj
 0001:00042168       ?LoadFilter@CTDCFilter@@QAEXABVCPreferences@@ABVCString@@ABVCTDCCustomAttribDefinitionArray@@@Z 00443168 f   TDCFilter.obj
 0001:000421b7       ?LoadCustomFilter@CTDCFilter@@IAEXABVCPreferences@@ABVCString@@ABVCTDCCustomAttribDefinitionArray@@@Z 004431b7 f   TDCFilter.obj
 0001:000423ad       ??8SEARCHPARAM@@QBEHABU0@@Z 004433ad f i TDCFilter.obj
 0001:0004247f       ?SaveCustomFilter@CTDCFilter@@IBEXAAVCPreferences@@ABVCString@@@Z 0044347f f   TDCFilter.obj
 0001:0004266d       ?LoadUserFilter@CTDCFilter@@IAEXABVCPreferences@@ABVCString@@@Z 0044366d f   TDCFilter.obj
 0001:00042932       ?LoadFlags@CTDCFilter@@KAKABVCPreferences@@ABVCString@@@Z 00443932 f   TDCFilter.obj
 0001:00042a0f       ?SaveFlags@CTDCFilter@@KAXKAAVCPreferences@@ABVCString@@@Z 00443a0f f   TDCFilter.obj
 0001:00042afb       ?SaveUserFilter@CTDCFilter@@IBEXAAVCPreferences@@ABVCString@@@Z 00443afb f   TDCFilter.obj
 0001:00042d26       ?ModNeedsRefilter@CTDCFilter@@QBEHW4TDC_ATTRIBUTE@@ABVCTDCCustomAttribDefinitionArray@@@Z 00443d26 f   TDCFilter.obj
 0001:00042f31       ?Copy@?$CArray@USEARCHPARAM@@U1@@@QAEXABV1@@Z 00443f31 f i TDCFilter.obj
 0001:00042f70       ?MatchAllT@Misc@@YAHABVCTDCCustomAttribDefinitionArray@@0H@Z 00443f70 f i TDCFilter.obj
 0001:0004308b       ??8TDCCUSTOMATTRIBUTEDEFINITION@@QBEHABU0@@Z 0044408b f i TDCFilter.obj
 0001:0004311b       ??BCOleDateTime@@QBENXZ    0044411b f i TDCFilter.obj
 0001:0004311e       ??0CTDCImageList@@QAE@XZ   0044411e f   TDCImageList.obj
 0001:0004316a       ??_GCTDCImageList@@UAEPAXI@Z 0044416a f i TDCImageList.obj
 0001:0004316a       ??_ECTDCImageList@@UAEPAXI@Z 0044416a f i TDCImageList.obj
 0001:00043186       ??1CTDCImageList@@UAE@XZ   00444186 f   TDCImageList.obj
 0001:000431f5       ?LoadImages@CTDCImageList@@QAEHABVCString@@KH@Z 004441f5 f   TDCImageList.obj
 0001:000433b7       ?GetImageIndex@CTDCImageList@@QBEHABVCString@@@Z 004443b7 f   TDCImageList.obj
 0001:000433de       ?GetImageName@CTDCImageList@@QBE?AVCString@@H@Z 004443de f   TDCImageList.obj
 0001:0004343d       ?Draw@CTDCImageList@@QBEHPAVCDC@@ABVCString@@UtagPOINT@@I@Z 0044443d f   TDCImageList.obj
 0001:00043464       ?Draw@CTDCImageList@@QBEHPAVCDC@@HUtagPOINT@@I@Z 00444464 f   TDCImageList.obj
 0001:0004348b       ?AddImage@CTDCImageList@@KAHABVCString@@AAVCBitmap@@KPAV1@@Z 0044448b f   TDCImageList.obj
 0001:0004358d       ?LoadImagesFromFolder@CTDCImageList@@KAKABVCString@@KPAV1@@Z 0044458d f   TDCImageList.obj
 0001:00043699       ?LoadImageW@CTDCImageList@@KAHABVCString@@KPAV1@@Z 00444699 f   TDCImageList.obj
 0001:00043710       ??1?$CMap@VCString@@PBGHH@@UAE@XZ 00444710 f i TDCImageList.obj
 0001:00043743       ?Serialize@?$CMap@VCString@@PBGHH@@UAEXAAVCArchive@@@Z 00444743 f i TDCImageList.obj
 0001:0004381e       ?Lookup@?$CMap@W4OUTLOOK_FIELDTYPE@@W41@VCString@@AAV2@@@QBEHW4OUTLOOK_FIELDTYPE@@AAVCString@@@Z 0044481e f i TDCImageList.obj
 0001:0004381e       ?Lookup@?$CMap@HHVCString@@AAV1@@@QBEHHAAVCString@@@Z 0044481e f i TDCImageList.obj
 0001:00043864       ??A?$CMap@HHVCString@@AAV1@@@QAEAAVCString@@H@Z 00444864 f i TDCImageList.obj
 0001:00043864       ??A?$CMap@W4OUTLOOK_FIELDTYPE@@W41@VCString@@AAV2@@@QAEAAVCString@@W4OUTLOOK_FIELDTYPE@@@Z 00444864 f i TDCImageList.obj
 0001:000438d1       ?Serialize@?$CMap@HHVCString@@AAV1@@@UAEXAAVCArchive@@@Z 004448d1 f i TDCImageList.obj
 0001:000439ae       ??_G?$CMap@VCString@@PBGHH@@UAEPAXI@Z 004449ae f i TDCImageList.obj
 0001:000439ae       ??_E?$CMap@VCString@@PBGHH@@UAEPAXI@Z 004449ae f i TDCImageList.obj
 0001:000439ca       ??_G?$CMap@HHVCString@@AAV1@@@UAEPAXI@Z 004449ca f i TDCImageList.obj
 0001:000439ca       ??_E?$CMap@HHVCString@@AAV1@@@UAEPAXI@Z 004449ca f i TDCImageList.obj
 0001:000439e6       ??1?$CMap@HHVCString@@AAV1@@@UAE@XZ 004449e6 f i TDCImageList.obj
 0001:00043a19       ?RemoveAll@?$CMap@VCString@@PBGW4CLA_TYPE@@AAW42@@@QAEXXZ 00444a19 f i TDCImageList.obj
 0001:00043a19       ?RemoveAll@?$CMap@VCString@@PBGPAVCMapStringToString@@AAPAV2@@@QAEXXZ 00444a19 f i TDCImageList.obj
 0001:00043a19       ?RemoveAll@?$CMap@VCString@@PBGKAAK@@QAEXXZ 00444a19 f i TDCImageList.obj
 0001:00043a19       ?RemoveAll@?$CMap@VCString@@PBGHH@@QAEXXZ 00444a19 f i TDCImageList.obj
 0001:00043a6e       ?InitHashTable@?$CMap@KKPAVCXmlItem@@AAPAV1@@@QAEXIH@Z 00444a6e f i TDCImageList.obj
 0001:00043a6e       ?InitHashTable@?$CMap@PAVCFilteredToDoCtrl@@PAV1@PAVCBrowserDlg@@PAV2@@@QAEXIH@Z 00444a6e f i TDCImageList.obj
 0001:00043a6e       ?InitHashTable@?$CMap@KKPAU_TREEITEM@@AAPAU1@@@QAEXIH@Z 00444a6e f i TDCImageList.obj
 0001:00043a6e       ?InitHashTable@?$CMap@KKKK@@QAEXIH@Z 00444a6e f i TDCImageList.obj
 0001:00043a6e       ?InitHashTable@?$CMap@HHVCString@@AAV1@@@QAEXIH@Z 00444a6e f i TDCImageList.obj
 0001:00043a6e       ?InitHashTable@?$CMap@VCString@@PBGPAVCMapStringToString@@AAPAV2@@@QAEXIH@Z 00444a6e f i TDCImageList.obj
 0001:00043a6e       ?InitHashTable@?$CMap@KKPAVTODOITEM@@AAPAV1@@@QAEXIH@Z 00444a6e f i TDCImageList.obj
 0001:00043a6e       ?InitHashTable@?$CMap@W4TDC_COLUMN@@W41@PBUTDCCOLUMN@@AAPBU2@@@QAEXIH@Z 00444a6e f i TDCImageList.obj
 0001:00043a6e       ?InitHashTable@?$CMap@PAU_TREEITEM@@PAU1@IAAI@@QAEXIH@Z 00444a6e f i TDCImageList.obj
 0001:00043a6e       ?InitHashTable@?$CMap@VCString@@PBGHH@@QAEXIH@Z 00444a6e f i TDCImageList.obj
 0001:00043a6e       ?InitHashTable@?$CMap@VCString@@PBGKAAK@@QAEXIH@Z 00444a6e f i TDCImageList.obj
 0001:00043a6e       ?InitHashTable@?$CMap@KKHH@@QAEXIH@Z 00444a6e f i TDCImageList.obj
 0001:00043a6e       ?InitHashTable@?$CMap@KKKAAK@@QAEXIH@Z 00444a6e f i TDCImageList.obj
 0001:00043a6e       ?InitHashTable@?$CMap@W4OUTLOOK_FIELDTYPE@@W41@VCString@@AAV2@@@QAEXIH@Z 00444a6e f i TDCImageList.obj
 0001:00043a6e       ?InitHashTable@?$CMap@VCString@@PBGW4CLA_TYPE@@AAW42@@@QAEXIH@Z 00444a6e f i TDCImageList.obj
 0001:00043a6e       ?InitHashTable@?$CMap@KKNAAN@@QAEXIH@Z 00444a6e f i TDCImageList.obj
 0001:00043a6e       ?InitHashTable@?$CMap@W4TDC_STYLE@@W41@HAAH@@QAEXIH@Z 00444a6e f i TDCImageList.obj
 0001:00043a6e       ?InitHashTable@?$CMap@KKUTDCREMINDER@@AAU1@@@QAEXIH@Z 00444a6e f i TDCImageList.obj
 0001:00043a6e       ?InitHashTable@?$CMap@W4TDC_ATTRIBUTE@@W41@DAAD@@QAEXIH@Z 00444a6e f i TDCImageList.obj
 0001:00043a6e       ?InitHashTable@?$CMap@KKPAVTODOSTRUCTURE@@AAPAV1@@@QAEXIH@Z 00444a6e f i TDCImageList.obj
 0001:00043a6e       ?InitHashTable@?$CMap@PAXPAXPAVCXmlItem@@AAPAV1@@@QAEXIH@Z 00444a6e f i TDCImageList.obj
 0001:00043a6e       ?InitHashTable@?$CMap@W4TDC_COLUMN@@W41@DAAD@@QAEXIH@Z 00444a6e f i TDCImageList.obj
 0001:00043a6e       ?InitHashTable@?$CMap@IIKAAK@@QAEXIH@Z 00444a6e f i TDCImageList.obj
 0001:00043a6e       ?InitHashTable@?$CMap@PAVCPreferencesPageBase@@PAV1@PAU_TREEITEM@@AAPAU2@@@QAEXIH@Z 00444a6e f i TDCImageList.obj
 0001:00043a6e       ?InitHashTable@?$CMap@KKHAAH@@QAEXIH@Z 00444a6e f i TDCImageList.obj
 0001:00043ab3       ?RemoveAll@?$CMap@HHVCString@@AAV1@@@QAEXXZ 00444ab3 f i TDCImageList.obj
 0001:00043ab3       ?RemoveAll@?$CMap@W4OUTLOOK_FIELDTYPE@@W41@VCString@@AAV2@@@QAEXXZ 00444ab3 f i TDCImageList.obj
 0001:00043b08       ?NewAssoc@?$CMap@W4OUTLOOK_FIELDTYPE@@W41@VCString@@AAV2@@@IAEPAUCAssoc@1@XZ 00444b08 f i TDCImageList.obj
 0001:00043b08       ?NewAssoc@?$CMap@HHVCString@@AAV1@@@IAEPAUCAssoc@1@XZ 00444b08 f i TDCImageList.obj
 0001:00043b6e       ??_ECGdiObject@@UAEPAXI@Z  00444b6e f i TDCImageList.obj
 0001:00043b6e       ??_GCGdiObject@@UAEPAXI@Z  00444b6e f i TDCImageList.obj
 0001:00043b8a       ??1CGdiObject@@UAE@XZ      00444b8a f i TDCImageList.obj
 0001:00043bbd       ??_ECBitmap@@UAEPAXI@Z     00444bbd f i TDCImageList.obj
 0001:00043bbd       ??_GCBitmap@@UAEPAXI@Z     00444bbd f i TDCImageList.obj
 0001:00043bd9       ??1CBitmap@@UAE@XZ         00444bd9 f i TDCImageList.obj
 0001:00043c0c       ?LoadBitmapW@CBitmap@@QAEHI@Z 00444c0c f i TDCImageList.obj
 0001:00045340       ??0CTDCMergeTasklist@@QAE@W4TDL_MERGEBY@@W4TDL_MERGEHOW@@@Z 00446340 f   TDCMergeToDoList.obj
 0001:00045382       ??_GCTDCMergeTasklist@@UAEPAXI@Z 00446382 f i TDCMergeToDoList.obj
 0001:00045382       ??_ECTDCMergeTasklist@@UAEPAXI@Z 00446382 f i TDCMergeToDoList.obj
 0001:0004539e       ??1CTDCMergeTasklist@@UAE@XZ 0044639e f   TDCMergeToDoList.obj
 0001:000453da       ?Merge@CTDCMergeTasklist@@QAEHPBVCXmlItem@@PAV2@@Z 004463da f   TDCMergeToDoList.obj
 0001:0004540e       ?MergeTasks@CTDCMergeTasklist@@IAEHPBVCXmlItem@@PAV2@@Z 0044640e f   TDCMergeToDoList.obj
 0001:00045462       ?MergeTasksByID@CTDCMergeTasklist@@IAEHPBVCXmlItem@@PAV2@@Z 00446462 f   TDCMergeToDoList.obj
 0001:00045516       ?MergeTaskByID@CTDCMergeTasklist@@IAEHPBVCXmlItem@@PAV2@@Z 00446516 f   TDCMergeToDoList.obj
 0001:000455a7       ?MergeTasksByTitle@CTDCMergeTasklist@@IAEHPBVCXmlItem@@PAV2@@Z 004465a7 f   TDCMergeToDoList.obj
 0001:000456ba       ?MergeAttributes@CTDCMergeTasklist@@IAEHPBVCXmlItem@@PAV2@@Z 004466ba f   TDCMergeToDoList.obj
 0001:00045826       ?FindDestTask@CTDCMergeTasklist@@IAEPAVCXmlItem@@K@Z 00446826 f   TDCMergeToDoList.obj
 0001:0004584e       ?BuildDestLookupMap@CTDCMergeTasklist@@IAEXXZ 0044684e f   TDCMergeToDoList.obj
 0001:00045888       ?AddDestTaskToLookupMap@CTDCMergeTasklist@@IAEXPAVCXmlItem@@H@Z 00446888 f   TDCMergeToDoList.obj
 0001:000458f5       ??_G?$CMap@KKPAVCXmlItem@@AAPAV1@@@UAEPAXI@Z 004468f5 f i TDCMergeToDoList.obj
 0001:000458f5       ??_E?$CMap@KKPAVCXmlItem@@AAPAV1@@@UAEPAXI@Z 004468f5 f i TDCMergeToDoList.obj
 0001:00045911       ??1?$CMap@KKPAVCXmlItem@@AAPAV1@@@UAE@XZ 00446911 f i TDCMergeToDoList.obj
 0001:00045944       ??0TDCRECURRENCE@@QAE@XZ   00446944 f   TdcRecurrence.obj
 0001:00045962       ??9TDCRECURRENCE@@QBEHABU0@@Z 00446962 f   TdcRecurrence.obj
 0001:00045975       ?Matches@TDCRECURRENCE@@QBEHABU1@H@Z 00446975 f   TdcRecurrence.obj
 0001:000459c3       ?CanRecur@TDCRECURRENCE@@QBEHXZ 004469c3 f   TdcRecurrence.obj
 0001:000459e1       ?ClearOccurrenceCount@TDCRECURRENCE@@QAEXXZ 004469e1 f   TdcRecurrence.obj
 0001:000459ea       ?IsRecurring@TDCRECURRENCE@@QBEHXZ 004469ea f   TdcRecurrence.obj
 0001:000459f3       ?SetOccurrenceCount@TDCRECURRENCE@@QAEHHH@Z 004469f3 f   TdcRecurrence.obj
 0001:00045a22       ?GetNextOccurence@TDCRECURRENCE@@QAEHABVCOleDateTime@@AAV2@@Z 00446a22 f   TdcRecurrence.obj
 0001:00045ded       ?FitDayToScheme@TDCRECURRENCE@@QBEHAAVCOleDateTime@@@Z 00446ded f   TdcRecurrence.obj
 0001:00046015       ?GetRegularityText@TDCRECURRENCE@@QBE?AVCString@@H@Z 00447015 f   TdcRecurrence.obj
 0001:00046035       ?GetRegularityText@TDCRECURRENCE@@SA?AVCString@@W4TDI_REGULARITY@@H@Z 00447035 f   TdcRecurrence.obj
 0001:000461a4       ?SetRegularity@TDCRECURRENCE@@QAEHW4TDI_REGULARITY@@KK@Z 004471a4 f   TdcRecurrence.obj
 0001:000461d9       ?IsValidRegularity@TDCRECURRENCE@@KAHW4TDI_REGULARITY@@KK@Z 004471d9 f   TdcRecurrence.obj
 0001:000462ae       ?GetRegularity@TDCRECURRENCE@@QBE?AW4TDI_REGULARITY@@AAK0@Z 004472ae f   TdcRecurrence.obj
 0001:000462c6       ?GetRegularity@TDCRECURRENCE@@QBE?AW4TDI_REGULARITY@@XZ 004472c6 f   TdcRecurrence.obj
 0001:000462ca       ?ValidateDay@TDCRECURRENCE@@IBEHAAU_SYSTEMTIME@@@Z 004472ca f   TdcRecurrence.obj
 0001:00047229       ??0TDCREMINDER@@QAE@XZ     00448229 f   tdcreminder.obj
 0001:00047286       ?GetTaskTitle@TDCREMINDER@@QBE?AVCString@@XZ 00448286 f   tdcreminder.obj
 0001:000472b7       ?GetTaskTitle@CToDoCtrl@@QBE?AVCString@@K@Z 004482b7 f i tdcreminder.obj
 0001:000472d7       ?GetTaskComments@TDCREMINDER@@QBE?AVCString@@XZ 004482d7 f   tdcreminder.obj
 0001:00047389       ?GetTaskComments@CToDoCtrl@@QBE?AVCString@@K@Z 00448389 f i tdcreminder.obj
 0001:000473a9       ?FormatWhenString@TDCREMINDER@@QBE?AVCString@@XZ 004483a9 f   tdcreminder.obj
 0001:000475c7       ?IsTaskRecurring@TDCREMINDER@@QBEHXZ 004485c7 f   tdcreminder.obj
 0001:000475d2       ?IsTaskDone@TDCREMINDER@@QBEHXZ 004485d2 f   tdcreminder.obj
 0001:000475e6       ?TaskExists@TDCREMINDER@@QBEHXZ 004485e6 f   tdcreminder.obj
 0001:000475f8       ?Save@TDCREMINDER@@QBEXPAVIPreferences@@PBG@Z 004485f8 f   tdcreminder.obj
 0001:000476b5       ?Load@TDCREMINDER@@QAEXPBVIPreferences@@PBG@Z 004486b5 f   tdcreminder.obj
 0001:000477f8       ?LoadRule@CTDCSearchParamHelper@@SAHABVCPreferences@@ABVCString@@ABVCTDCCustomAttribDefinitionArray@@AAUSEARCHPARAM@@@Z 004487f8 f   TDCSearchParamHelper.obj
 0001:00047987       ?Set@SEARCHPARAM@@QAEHW4TDC_ATTRIBUTE@@W4FIND_OPERATOR@@VCString@@HW4FIND_ATTRIBTYPE@@@Z 00448987 f i TDCSearchParamHelper.obj
 0001:000479e6       ?Set@SEARCHPARAM@@QAEHW4TDC_ATTRIBUTE@@ABVCString@@W4FIND_ATTRIBTYPE@@W4FIND_OPERATOR@@V3@H@Z 004489e6 f i TDCSearchParamHelper.obj
 0001:00047a48       ?SetCustomAttribute@SEARCHPARAM@@QAEHW4TDC_ATTRIBUTE@@ABVCString@@W4FIND_ATTRIBTYPE@@@Z 00448a48 f i TDCSearchParamHelper.obj
 0001:00047aa6       ?SetOperator@SEARCHPARAM@@QAEHW4FIND_OPERATOR@@@Z 00448aa6 f i TDCSearchParamHelper.obj
 0001:00047acf       ?SaveRule@CTDCSearchParamHelper@@SAHAAVCPreferences@@ABVCString@@ABUSEARCHPARAM@@@Z 00448acf f   TDCSearchParamHelper.obj
 0001:00047c41       ?GetCustomAttributeID@SEARCHPARAM@@QBE?AVCString@@XZ 00448c41 f i TDCSearchParamHelper.obj
 0001:00047c5c       ?ValueAsString@SEARCHPARAM@@QBE?AVCString@@XZ 00448c5c f i TDCSearchParamHelper.obj
 0001:00047d4a       ?DecodeAttribute@CTDCSearchParamHelper@@KAHABVCString@@KABVCTDCCustomAttribDefinitionArray@@AAW4TDC_ATTRIBUTE@@AAV2@AAW4FIND_ATTRIBTYPE@@@Z 00448d4a f   TDCSearchParamHelper.obj
 0001:00047f54       ??0TDCSTARTUPATTRIB@@QAE@XZ 00448f54 f   TDCStartupOptions.obj
 0001:00047f62       ??4TDCSTARTUPATTRIB@@QAEAAV0@ABV0@@Z 00448f62 f   TDCStartupOptions.obj
 0001:00047fa9       ??8TDCSTARTUPATTRIB@@QBEHABV0@@Z 00448fa9 f   TDCStartupOptions.obj
 0001:00047fe5       ??8TDCSTARTUPATTRIB@@QBEHABVCString@@@Z 00448fe5 f   TDCStartupOptions.obj
 0001:0004800b       ?IsEmpty@TDCSTARTUPATTRIB@@QBEHXZ 0044900b f   TDCStartupOptions.obj
 0001:00048026       ?SetValue@TDCSTARTUPATTRIB@@QAEXABVCString@@@Z 00449026 f   TDCStartupOptions.obj
 0001:0004806e       ?GetValue@TDCSTARTUPATTRIB@@QBEHAAVCString@@@Z 0044906e f   TDCStartupOptions.obj
 0001:0004808b       ?GetValue@TDCSTARTUPATTRIB@@QBEHAAH0@Z 0044908b f   TDCStartupOptions.obj
 0001:000480fc       ?GetValue@TDCSTARTUPATTRIB@@QBEHAANAAH@Z 004490fc f   TDCStartupOptions.obj
 0001:0004818a       ?GetValue@TDCSTARTUPATTRIB@@QBE?AVCString@@XZ 0044918a f   TDCStartupOptions.obj
 0001:000481f9       ?GetValues@TDCSTARTUPATTRIB@@QBEHAAVCStringArray@@AAH@Z 004491f9 f   TDCStartupOptions.obj
 0001:000482a1       ?ClearValue@TDCSTARTUPATTRIB@@QAEXXZ 004492a1 f   TDCStartupOptions.obj
 0001:000482b9       ?IsOffset@TDCSTARTUPATTRIB@@SAHPBG@Z 004492b9 f   TDCStartupOptions.obj
 0001:000482d7       ?GetTime@TDCSTARTUPATTRIB@@QBEHAANAAW4TDC_UNITS@@AAH@Z 004492d7 f   TDCStartupOptions.obj
 0001:00048350       ?GetDate@TDCSTARTUPATTRIB@@QBEHAANAAW4TDC_UNITS@@AAH@Z 00449350 f   TDCStartupOptions.obj
 0001:00048421       ??0CTDCStartupOptions@@QAE@XZ 00449421 f   TDCStartupOptions.obj
 0001:00048542       ??0CTDCStartupOptions@@QAE@ABVCEnCommandLineInfo@@@Z 00449542 f   TDCStartupOptions.obj
 0001:00048c8e       ?GetSaveIntermediateAll@CTDCStartupOptions@@QBEHXZ 00449c8e f   TDCStartupOptions.obj
 0001:00048cab       ??4CTDCStartupOptions@@QAEAAV0@ABV0@@Z 00449cab f   TDCStartupOptions.obj
 0001:00048ec2       ??8CTDCStartupOptions@@QBEHABV0@@Z 00449ec2 f   TDCStartupOptions.obj
 0001:000491be       ?IsEmpty@CTDCStartupOptions@@QBEHH@Z 0044a1be f   TDCStartupOptions.obj
 0001:000491fb       ?HasFlag@CTDCStartupOptions@@QBEHK@Z 0044a1fb f   TDCStartupOptions.obj
 0001:00049211       ?ModifyFlags@CTDCStartupOptions@@QAEHKK@Z 0044a211 f   TDCStartupOptions.obj
 0001:0004922b       ?GetFilePaths@CTDCStartupOptions@@QBEHAAVCStringArray@@@Z 0044a22b f   TDCStartupOptions.obj
 0001:00049276       ?ExtractAttribute@CTDCStartupOptions@@KAHABVCEnCommandLineInfo@@PBGPAGH@Z 0044a276 f   TDCStartupOptions.obj
 0001:0004935f       ?ExtractAttribute@CTDCStartupOptions@@KAHABVCEnCommandLineInfo@@PBGAAVTDCSTARTUPATTRIB@@@Z 0044a35f f   TDCStartupOptions.obj
 0001:000493ce       ?ParseDate@CTDCStartupOptions@@KAXABVCEnCommandLineInfo@@PBGAAVTDCSTARTUPATTRIB@@@Z 0044a3ce f   TDCStartupOptions.obj
 0001:0004948f       ?ParseTime@CTDCStartupOptions@@KAXABVCEnCommandLineInfo@@PBGAAVTDCSTARTUPATTRIB@@@Z 0044a48f f   TDCStartupOptions.obj
 0001:00049539       ?Reset@CTDCStartupOptions@@QAEXXZ 0044a539 f   TDCStartupOptions.obj
 0001:00049680       ?GetCreationDate@CTDCStartupOptions@@QBEHAAVCOleDateTime@@@Z 0044a680 f   TDCStartupOptions.obj
 0001:000496cf       ?GetPriority@CTDCStartupOptions@@QBEHAAH0@Z 0044a6cf f   TDCStartupOptions.obj
 0001:0004972a       ?GetRisk@CTDCStartupOptions@@QBEHAAH0@Z 0044a72a f   TDCStartupOptions.obj
 0001:00049785       ?GetCustomAttribute@CTDCStartupOptions@@QBEHAAVCString@@0@Z 0044a785 f   TDCStartupOptions.obj
 0001:00049899       ??0CTDCToolsCmdlineParser@@QAE@PBG@Z 0044a899 f   TDCToolsCmdlineParser.obj
 0001:00049a5a       ??_GCTDCToolsCmdlineParser@@UAEPAXI@Z 0044aa5a f i TDCToolsCmdlineParser.obj
 0001:00049a5a       ??_ECTDCToolsCmdlineParser@@UAEPAXI@Z 0044aa5a f i TDCToolsCmdlineParser.obj
 0001:00049a76       ??1CTDCToolsCmdlineParser@@UAE@XZ 0044aa76 f   TDCToolsCmdlineParser.obj
 0001:00049ac1       ?GetPlaceHolder@CTDCToolsCmdlineParser@@SA?AVCString@@W4CLA_TYPE@@@Z 0044aac1 f   TDCToolsCmdlineParser.obj
 0001:00049beb       ?SetCmdLine@CTDCToolsCmdlineParser@@QAEXPBG@Z 0044abeb f   TDCToolsCmdlineParser.obj
 0001:00049c76       ?GetArguments@CTDCToolsCmdlineParser@@QBEHAAV?$CArray@UCMDLINEARG@@AAU1@@@@Z 0044ac76 f   TDCToolsCmdlineParser.obj
 0001:00049c8d       ?GetUserArguments@CTDCToolsCmdlineParser@@QBEHAAV?$CArray@UCMDLINEARG@@AAU1@@@@Z 0044ac8d f   TDCToolsCmdlineParser.obj
 0001:00049d14       ??1CMDLINEARG@@QAE@XZ      0044ad14 f i TDCToolsCmdlineParser.obj
 0001:00049d65       ?GetCustomAttributeArguments@CTDCToolsCmdlineParser@@QBEHAAV?$CArray@UCMDLINEARG@@AAU1@@@@Z 0044ad65 f   TDCToolsCmdlineParser.obj
 0001:00049def       ?ReplaceArgument@CTDCToolsCmdlineParser@@QAEHW4CLA_TYPE@@PBG@Z 0044adef f   TDCToolsCmdlineParser.obj
 0001:00049e39       ?ReplaceArgument@CTDCToolsCmdlineParser@@QAEHPBG0@Z 0044ae39 f   TDCToolsCmdlineParser.obj
 0001:00049ee0       ?IsUserInputRequired@CTDCToolsCmdlineParser@@QBEHXZ 0044aee0 f   TDCToolsCmdlineParser.obj
 0001:00049f29       ?HasTasklistArgument@CTDCToolsCmdlineParser@@QBEHXZ 0044af29 f   TDCToolsCmdlineParser.obj
 0001:00049f71       ?IsUserInputType@CTDCToolsCmdlineParser@@IBEHW4CLA_TYPE@@@Z 0044af71 f   TDCToolsCmdlineParser.obj
 0001:00049f89       ?ReplaceArgument@CTDCToolsCmdlineParser@@IAEHHPBG@Z 0044af89 f   TDCToolsCmdlineParser.obj
 0001:0004a072       ?ParseCmdLine@CTDCToolsCmdlineParser@@IAEXXZ 0044b072 f   TDCToolsCmdlineParser.obj
 0001:0004a325       ??0CMDLINEARG@@QAE@XZ      0044b325 f i TDCToolsCmdlineParser.obj
 0001:0004a371       ?GetType@CTDCToolsCmdlineParser@@IBE?AW4CLA_TYPE@@PBG@Z 0044b371 f   TDCToolsCmdlineParser.obj
 0001:0004a3d6       ?PrepareToolPath@CTDCToolsCmdlineParser@@SAHAAVCString@@@Z 0044b3d6 f   TDCToolsCmdlineParser.obj
 0001:0004a41c       ?Add@?$CArray@UCMDLINEARG@@AAU1@@@QAEHAAUCMDLINEARG@@@Z 0044b41c f i TDCToolsCmdlineParser.obj
 0001:0004a447       ?Copy@?$CArray@UCMDLINEARG@@AAU1@@@QAEXABV1@@Z 0044b447 f i TDCToolsCmdlineParser.obj
 0001:0004a486       ??A?$CArray@UCMDLINEARG@@AAU1@@@QBE?AUCMDLINEARG@@H@Z 0044b486 f i TDCToolsCmdlineParser.obj
 0001:0004a4a0       ?InsertAt@?$CArray@UCMDLINEARG@@AAU1@@@QAEXHAAUCMDLINEARG@@H@Z 0044b4a0 f i TDCToolsCmdlineParser.obj
 0001:0004a54a       ?RemoveAt@?$CArray@UCMDLINEARG@@AAU1@@@QAEXHH@Z 0044b54a f i TDCToolsCmdlineParser.obj
 0001:0004a5a7       ??1?$CArray@UCMDLINEARG@@AAU1@@@UAE@XZ 0044b5a7 f i TDCToolsCmdlineParser.obj
 0001:0004a5ee       ?Serialize@?$CArray@UCMDLINEARG@@AAU1@@@UAEXAAVCArchive@@@Z 0044b5ee f i TDCToolsCmdlineParser.obj
 0001:0004a62d       ??0?$CMap@VCString@@PBGW4CLA_TYPE@@AAW42@@@QAE@H@Z 0044b62d f i TDCToolsCmdlineParser.obj
 0001:0004a654       ??A?$CMap@VCString@@PBGKAAK@@QAEAAKPBG@Z 0044b654 f i TDCToolsCmdlineParser.obj
 0001:0004a654       ??A?$CMap@VCString@@PBGPAVCMapStringToString@@AAPAV2@@@QAEAAPAVCMapStringToString@@PBG@Z 0044b654 f i TDCToolsCmdlineParser.obj
 0001:0004a654       ??A?$CMap@VCString@@PBGW4CLA_TYPE@@AAW42@@@QAEAAW4CLA_TYPE@@PBG@Z 0044b654 f i TDCToolsCmdlineParser.obj
 0001:0004a654       ??A?$CMap@VCString@@PBGHH@@QAEAAHPBG@Z 0044b654 f i TDCToolsCmdlineParser.obj
 0001:0004a6b6       ??1?$CMap@VCString@@PBGW4CLA_TYPE@@AAW42@@@UAE@XZ 0044b6b6 f i TDCToolsCmdlineParser.obj
 0001:0004a6e9       ?Serialize@?$CMap@VCString@@PBGW4CLA_TYPE@@AAW42@@@UAEXAAVCArchive@@@Z 0044b6e9 f i TDCToolsCmdlineParser.obj
 0001:0004a7c0       ??_G?$CArray@UCMDLINEARG@@AAU1@@@UAEPAXI@Z 0044b7c0 f i TDCToolsCmdlineParser.obj
 0001:0004a7c0       ??_E?$CArray@UCMDLINEARG@@AAU1@@@UAEPAXI@Z 0044b7c0 f i TDCToolsCmdlineParser.obj
 0001:0004a7dc       ??4CMDLINEARG@@QAEAAU0@ABU0@@Z 0044b7dc f i TDCToolsCmdlineParser.obj
 0001:0004a81f       ??_G?$CMap@VCString@@PBGW4CLA_TYPE@@AAW42@@@UAEPAXI@Z 0044b81f f i TDCToolsCmdlineParser.obj
 0001:0004a81f       ??_E?$CMap@VCString@@PBGW4CLA_TYPE@@AAW42@@@UAEPAXI@Z 0044b81f f i TDCToolsCmdlineParser.obj
 0001:0004a83b       ?SetSize@?$CArray@UCMDLINEARG@@AAU1@@@QAEXHH@Z 0044b83b f i TDCToolsCmdlineParser.obj
 0001:0004a962       ?GetAt@?$CArray@UCMDLINEARG@@AAU1@@@QBE?AUCMDLINEARG@@H@Z 0044b962 f i TDCToolsCmdlineParser.obj
 0001:0004a986       ?DestructElements@@YGXPAUCMDLINEARG@@H@Z 0044b986 f i TDCToolsCmdlineParser.obj
 0001:0004a9aa       ?ConstructElements@@YGXPAUCMDLINEARG@@H@Z 0044b9aa f i TDCToolsCmdlineParser.obj
 0001:0004aa05       ??0CMDLINEARG@@QAE@ABU0@@Z 0044ba05 f i TDCToolsCmdlineParser.obj
 0001:0004aa6c       ??0CTDCToolsHelper@@QAE@HIH@Z 0044ba6c f   TDCToolsHelper.obj
 0001:0004aa8c       ??_ECTDCToolsHelper@@UAEPAXI@Z 0044ba8c f i TDCToolsHelper.obj
 0001:0004aa8c       ??_GCTDCToolsHelper@@UAEPAXI@Z 0044ba8c f i TDCToolsHelper.obj
 0001:0004aaa8       ??1CTDCToolsHelper@@UAE@XZ 0044baa8 f   TDCToolsHelper.obj
 0001:0004aaaf       ?RunTool@CTDCToolsHelper@@QAEHABUUSERTOOL@@ABUUSERTOOLARGS@@PAVCWnd@@@Z 0044baaf f   TDCToolsHelper.obj
 0001:0004aac5       ?TestTool@CTDCToolsHelper@@QAEHABUUSERTOOL@@ABUUSERTOOLARGS@@PAVCWnd@@@Z 0044bac5 f   TDCToolsHelper.obj
 0001:0004aadb       ?RunTestTool@CTDCToolsHelper@@IAEHABUUSERTOOL@@ABUUSERTOOLARGS@@PAVCWnd@@H@Z 0044badb f   TDCToolsHelper.obj
 0001:0004acf8       ?CheckToDoListVersionCompatibility@CTDCToolsHelper@@IBEHABVCString@@PAVCWnd@@@Z 0044bcf8 f   TDCToolsHelper.obj
 0001:0004ae4a       ?GetToolPath@CTDCToolsHelper@@KA?AVCString@@ABUUSERTOOL@@@Z 0044be4a f   TDCToolsHelper.obj
 0001:0004aee3       ?GetToolPaths@CTDCToolsHelper@@KAHABUUSERTOOL@@AAVCString@@1@Z 0044bee3 f   TDCToolsHelper.obj
 0001:0004af8d       ?GetToolIcon@CTDCToolsHelper@@KAPAUHICON__@@AAVCSysImageList@@ABUUSERTOOL@@@Z 0044bf8d f   TDCToolsHelper.obj
 0001:0004b048       ?UpdateMenu@CTDCToolsHelper@@QAEXPAVCCmdUI@@ABV?$CArray@UUSERTOOL@@AAU1@@@AAVCMenuIconMgr@@@Z 0044c048 f   TDCToolsHelper.obj
 0001:0004b247       ?PrepareCmdline@CTDCToolsHelper@@IAEHABUUSERTOOL@@ABUUSERTOOLARGS@@AAVCString@@@Z 0044c247 f   TDCToolsHelper.obj
 0001:0004b6b6       ?GetCmdLine@CTDCToolsCmdlineParser@@QBE?AVCString@@XZ 0044c6b6 f i TDCToolsHelper.obj
 0001:0004b6d1       ?RemoveToolsFromToolbar@CTDCToolsHelper@@QAEXAAVCToolBar@@I@Z 0044c6d1 f   TDCToolsHelper.obj
 0001:0004b77f       ?AppendToolsToToolbar@CTDCToolsHelper@@QAEXABV?$CArray@UUSERTOOL@@AAU1@@@AAVCToolBar@@I@Z 0044c77f f   TDCToolsHelper.obj
 0001:0004b917       ?GetFileFilter@CTDCToolsHelper@@IAEPBGXZ 0044c917 f   TDCToolsHelper.obj
 0001:0004b99a       ?GetDefaultFileExt@CTDCToolsHelper@@IAEPBGXZ 0044c99a f   TDCToolsHelper.obj
 0001:0004b9ab       ?RemoveAt@?$CArray@UUSERTOOL@@AAU1@@@QAEXHH@Z 0044c9ab f i TDCToolsHelper.obj
 0001:0004ba08       ?GetImageList@CToolBarCtrl@@QBEPAVCImageList@@XZ 0044ca08 f i TDCToolsHelper.obj
 0001:0004ba79       ?PrepareViewVisibilityMenu@CTDCUIExtensionHelper@@SAXPAVCMenu@@ABVCUIExtensionMgr@@ABVCStringArray@@@Z 0044ca79 f   TDCUIExtensionHelper.obj
 0001:0004bb78       ?ProcessViewVisibilityMenuCmd@CTDCUIExtensionHelper@@SAHIABVCUIExtensionMgr@@AAVCStringArray@@@Z 0044cb78 f   TDCUIExtensionHelper.obj
 0001:0004bbf7       ??0CTDCWebUpdateScript@@QAE@XZ 0044cbf7 f   TDCWebUpdateScript.obj
 0001:0004bc0e       ??_ECTDCWebUpdateScript@@UAEPAXI@Z 0044cc0e f i TDCWebUpdateScript.obj
 0001:0004bc0e       ??_GCTDCWebUpdateScript@@UAEPAXI@Z 0044cc0e f i TDCWebUpdateScript.obj
 0001:0004bc2a       ??1CTDCWebUpdateScript@@UAE@XZ 0044cc2a f   TDCWebUpdateScript.obj
 0001:0004bc38       ?GetScriptUrl@CTDCWebUpdateScript@@IBEPBGH@Z 0044cc38 f   TDCWebUpdateScript.obj
 0001:0004bc4c       ?CheckForPreReleaseUpdates@CTDCWebUpdateScript@@QAEHXZ 0044cc4c f   TDCWebUpdateScript.obj
 0001:0004bc54       ?CheckForUpdates@CTDCWebUpdateScript@@QAEHXZ 0044cc54 f   TDCWebUpdateScript.obj
 0001:0004bc5c       ?CheckForUpdates@CTDCWebUpdateScript@@IAEHH@Z 0044cc5c f   TDCWebUpdateScript.obj
 0001:0004bd6b       ?LoadScript@CTDCWebUpdateScript@@IAEHABVCString@@@Z 0044cd6b f   TDCWebUpdateScript.obj
 0001:0004bf35       ??0_com_error@@QAE@JPAUIErrorInfo@@_N@Z 0044cf35 f i TDCWebUpdateScript.obj
 0001:0004bf67       ??_E_com_error@@UAEPAXI@Z  0044cf67 f i TDCWebUpdateScript.obj
 0001:0004bf67       ??_G_com_error@@UAEPAXI@Z  0044cf67 f i TDCWebUpdateScript.obj
 0001:0004bf83       ??1_com_error@@UAE@XZ      0044cf83 f i TDCWebUpdateScript.obj
 0001:0004bfa9       ?ErrorMessage@_com_error@@QBEPBGXZ 0044cfa9 f i TDCWebUpdateScript.obj
 0001:0004c05b       ?GetScriptDetails@CTDCWebUpdateScript@@QBEHAAVCString@@0AAVCStringArray@@@Z 0044d05b f   TDCWebUpdateScript.obj
 0001:0004c094       ?IsPreRelease@CTDCWebUpdateScript@@SAHABVCString@@@Z 0044d094 f   TDCWebUpdateScript.obj
 0001:0004c0f7       ?GetScriptVersion@CTDCWebUpdateScript@@IBEHXZ 0044d0f7 f   TDCWebUpdateScript.obj
 0001:0004c153       ?GetScriptExeVersion@CTDCWebUpdateScript@@IBEHAAVCString@@@Z 0044d153 f   TDCWebUpdateScript.obj
 0001:0004c168       ?GetScriptDisplayVersion@CTDCWebUpdateScript@@IBEHAAVCString@@@Z 0044d168 f   TDCWebUpdateScript.obj
 0001:0004c19d       ?GetUpdateDescription@CTDCWebUpdateScript@@IBEHAAVCStringArray@@@Z 0044d19d f   TDCWebUpdateScript.obj
 0001:0004c20c       ??0CTDLAboutDlg@@QAE@ABVCString@@PAVCWnd@@@Z 0044d20c f   TDLAboutDlg.obj
 0001:0004c3c7       ??_ECTDLAboutDlg@@UAEPAXI@Z 0044d3c7 f i TDLAboutDlg.obj
 0001:0004c3c7       ??_GCTDLAboutDlg@@UAEPAXI@Z 0044d3c7 f i TDLAboutDlg.obj
 0001:0004c3e3       ??1CTDLAboutDlg@@UAE@XZ    0044d3e3 f i TDLAboutDlg.obj
 0001:0004c4a2       ?DoDataExchange@CTDLAboutDlg@@MAEXPAVCDataExchange@@@Z 0044d4a2 f   TDLAboutDlg.obj
 0001:0004c528       ?GetMessageMap@CTDLAboutDlg@@MBEPBUAFX_MSGMAP@@XZ 0044d528 f   TDLAboutDlg.obj
 0001:0004c52e       ?OnInitDialog@CTDLAboutDlg@@MAEHXZ 0044d52e f   TDLAboutDlg.obj
 0001:0004c801       ?OnCommand@CTDLAboutDlg@@MAEHIJ@Z 0044d801 f   TDLAboutDlg.obj
 0001:0004c918       ??0CTDLAddLoggedTimeDlg@@QAE@KPBGNPAVCWnd@@@Z 0044d918 f   TDLAddLoggedTimeDlg.obj
 0001:0004ca6d       ??_GCTDLAddLoggedTimeDlg@@UAEPAXI@Z 0044da6d f i TDLAddLoggedTimeDlg.obj
 0001:0004ca6d       ??_ECTDLAddLoggedTimeDlg@@UAEPAXI@Z 0044da6d f i TDLAddLoggedTimeDlg.obj
 0001:0004ca89       ??1CTDLAddLoggedTimeDlg@@UAE@XZ 0044da89 f i TDLAddLoggedTimeDlg.obj
 0001:0004cb1e       ?DoDataExchange@CTDLAddLoggedTimeDlg@@MAEXPAVCDataExchange@@@Z 0044db1e f   TDLAddLoggedTimeDlg.obj
 0001:0004cc74       ?GetMessageMap@CTDLAddLoggedTimeDlg@@MBEPBUAFX_MSGMAP@@XZ 0044dc74 f   TDLAddLoggedTimeDlg.obj
 0001:0004cc7a       ?DoModal@CTDLAddLoggedTimeDlg@@QAEHH@Z 0044dc7a f   TDLAddLoggedTimeDlg.obj
 0001:0004ccb7       ?GetLoggedHours@CTDLAddLoggedTimeDlg@@QBENXZ 0044dcb7 f   TDLAddLoggedTimeDlg.obj
 0001:0004ccec       ?GetWhen@CTDLAddLoggedTimeDlg@@QBE?AVCOleDateTime@@XZ 0044dcec f   TDLAddLoggedTimeDlg.obj
 0001:0004cd07       ?OnOK@CTDLAddLoggedTimeDlg@@MAEXXZ 0044dd07 f   TDLAddLoggedTimeDlg.obj
 0001:0004cd98       ?OnInitDialog@CTDLAddLoggedTimeDlg@@MAEHXZ 0044dd98 f   TDLAddLoggedTimeDlg.obj
 0001:0004ce49       ?OnApply@CTDLAddLoggedTimeDlg@@IAEXXZ 0044de49 f   TDLAddLoggedTimeDlg.obj
 0001:0004ce9b       ?OnChange@CTDLAddLoggedTimeDlg@@IAEXXZ 0044de9b f   TDLAddLoggedTimeDlg.obj
 0001:0004ceaf       ?OnNotifyChange@CTDLAddLoggedTimeDlg@@IAEXPAUtagNMHDR@@PAJ@Z 0044deaf f   TDLAddLoggedTimeDlg.obj
 0001:0004d7af       ??0CTDLAnalyseLoggedTimeDlg@@QAE@ABVCString@@PAVCWnd@@@Z 0044e7af f   TDLAnalyseLoggedTimeDlg.obj
 0001:0004d97f       ??_GCTDLAnalyseLoggedTimeDlg@@UAEPAXI@Z 0044e97f f i TDLAnalyseLoggedTimeDlg.obj
 0001:0004d97f       ??_ECTDLAnalyseLoggedTimeDlg@@UAEPAXI@Z 0044e97f f i TDLAnalyseLoggedTimeDlg.obj
 0001:0004d99b       ??1CTDLAnalyseLoggedTimeDlg@@UAE@XZ 0044e99b f i TDLAnalyseLoggedTimeDlg.obj
 0001:0004da03       ?DoDataExchange@CTDLAnalyseLoggedTimeDlg@@MAEXPAVCDataExchange@@@Z 0044ea03 f   TDLAnalyseLoggedTimeDlg.obj
 0001:0004dab7       ?GetMessageMap@CTDLAnalyseLoggedTimeDlg@@MBEPBUAFX_MSGMAP@@XZ 0044eab7 f   TDLAnalyseLoggedTimeDlg.obj
 0001:0004dabd       ?OnInitDialog@CTDLAnalyseLoggedTimeDlg@@MAEHXZ 0044eabd f   TDLAnalyseLoggedTimeDlg.obj
 0001:0004dbb2       ?OnOK@CTDLAnalyseLoggedTimeDlg@@MAEXXZ 0044ebb2 f   TDLAnalyseLoggedTimeDlg.obj
 0001:0004dc92       ?OnChangePeriod@CTDLAnalyseLoggedTimeDlg@@IAEXXZ 0044ec92 f   TDLAnalyseLoggedTimeDlg.obj
 0001:0004dd89       ?OnSelchangeOutputFormat@CTDLAnalyseLoggedTimeDlg@@IAEXXZ 0044ed89 f   TDLAnalyseLoggedTimeDlg.obj
 0001:0004de69       ?GetDateRange@CTDLAnalyseLoggedTimeDlg@@QBEHAAVCOleDateTime@@0@Z 0044ee69 f   TDLAnalyseLoggedTimeDlg.obj
 0001:0004df66       ??0CTDLAttributeListBox@@QAE@XZ 0044ef66 f   TDLAttribListBox.obj
 0001:0004e59b       ??0ATTRIBVIS@CTDLAttributeListBox@@QAE@IW4TDC_ATTRIBUTE@@H@Z 0044f59b f i TDLAttribListBox.obj
 0001:0004e5de       ??_ECTDLAttributeListBox@@UAEPAXI@Z 0044f5de f i TDLAttribListBox.obj
 0001:0004e5de       ??_GCTDLAttributeListBox@@UAEPAXI@Z 0044f5de f i TDLAttribListBox.obj
 0001:0004e5fa       ??1ATTRIBVIS@CTDLAttributeListBox@@QAE@XZ 0044f5fa f i TDLAttribListBox.obj
 0001:0004e5ff       ??1CTDLAttributeListBox@@UAE@XZ 0044f5ff f   TDLAttribListBox.obj
 0001:0004e63a       ?GetMessageMap@CTDLAttributeListBox@@MBEPBUAFX_MSGMAP@@XZ 0044f63a f   TDLAttribListBox.obj
 0001:0004e640       ?PreSubclassWindow@CTDLAttributeListBox@@MAEXXZ 0044f640 f   TDLAttribListBox.obj
 0001:0004e65c       ?FindAttribute@CTDLAttributeListBox@@IBEHW4TDC_ATTRIBUTE@@@Z 0044f65c f   TDLAttribListBox.obj
 0001:0004e6ae       ?OnReflectCheckChange@CTDLAttributeListBox@@IAEHXZ 0044f6ae f   TDLAttribListBox.obj
 0001:0004e6fc       ?OnInitListBox@CTDLAttributeListBox@@IAEJIJ@Z 0044f6fc f   TDLAttribListBox.obj
 0001:0004e770       ?SetVisibleAttributes@CTDLAttributeListBox@@QAEXABVCTDCAttributeMap@@@Z 0044f770 f   TDLAttribListBox.obj
 0001:0004e7c9       ?GetVisibleAttributes@CTDLAttributeListBox@@QBEHAAVCTDCAttributeMap@@@Z 0044f7c9 f   TDLAttribListBox.obj
 0001:0004e851       ?Add@?$CArray@UATTRIBVIS@CTDLAttributeListBox@@AAU12@@@QAEHAAUATTRIBVIS@CTDLAttributeListBox@@@Z 0044f851 f i TDLAttribListBox.obj
 0001:0004e865       ??1?$CArray@UATTRIBVIS@CTDLAttributeListBox@@AAU12@@@UAE@XZ 0044f865 f i TDLAttribListBox.obj
 0001:0004e8ac       ?Serialize@?$CArray@UATTRIBVIS@CTDLAttributeListBox@@AAU12@@@UAEXAAVCArchive@@@Z 0044f8ac f i TDLAttribListBox.obj
 0001:0004e8eb       ??_E?$CArray@UATTRIBVIS@CTDLAttributeListBox@@AAU12@@@UAEPAXI@Z 0044f8eb f i TDLAttribListBox.obj
 0001:0004e8eb       ??_G?$CArray@UATTRIBVIS@CTDLAttributeListBox@@AAU12@@@UAEPAXI@Z 0044f8eb f i TDLAttribListBox.obj
 0001:0004e907       ?SetSize@?$CArray@UATTRIBVIS@CTDLAttributeListBox@@AAU12@@@QAEXHH@Z 0044f907 f i TDLAttribListBox.obj
 0001:0004ea2e       ?SetAtGrow@?$CArray@UATTRIBVIS@CTDLAttributeListBox@@AAU12@@@QAEXHAAUATTRIBVIS@CTDLAttributeListBox@@@Z 0044fa2e f i TDLAttribListBox.obj
 0001:0004ea6c       ?DestructElements@@YGXPAUATTRIBVIS@CTDLAttributeListBox@@H@Z 0044fa6c f i TDLAttribListBox.obj
 0001:0004ea90       ?ConstructElements@@YGXPAUATTRIBVIS@CTDLAttributeListBox@@H@Z 0044fa90 f i TDLAttribListBox.obj
 0001:0004eb77       ??0CTDLCmdlineOptionsDlg@@QAE@PAVCWnd@@@Z 0044fb77 f   TDLCmdlineOptionsDlg.obj
 0001:0004ebd4       ??_ECTDLCmdlineOptionsDlg@@UAEPAXI@Z 0044fbd4 f i TDLCmdlineOptionsDlg.obj
 0001:0004ebd4       ??_GCTDLCmdlineOptionsDlg@@UAEPAXI@Z 0044fbd4 f i TDLCmdlineOptionsDlg.obj
 0001:0004ebf0       ??1CTDLCmdlineOptionsDlg@@UAE@XZ 0044fbf0 f i TDLCmdlineOptionsDlg.obj
 0001:0004ec49       ?DoDataExchange@CTDLCmdlineOptionsDlg@@MAEXPAVCDataExchange@@@Z 0044fc49 f   TDLCmdlineOptionsDlg.obj
 0001:0004ec6e       ?GetMessageMap@CTDLCmdlineOptionsDlg@@MBEPBUAFX_MSGMAP@@XZ 0044fc6e f   TDLCmdlineOptionsDlg.obj
 0001:0004ec74       ?OnInitDialog@CTDLCmdlineOptionsDlg@@MAEHXZ 0044fc74 f   TDLCmdlineOptionsDlg.obj
 0001:0004ee3e       ?OnCopyshortcuts@CTDLCmdlineOptionsDlg@@IAEXXZ 0044fe3e f   TDLCmdlineOptionsDlg.obj
 0001:0004eefa       ?GetOptions@CTDLCmdlineOptionsDlg@@KA?AVCString@@XZ 0044fefa f   TDLCmdlineOptionsDlg.obj
 0001:0004f044       ??0CTDLColumnAttribVisibilityListCtrl@@QAE@XZ 00450044 f   TDLColumnAttribVisibilityListCtrl.obj
 0001:0004f07e       ?GetItemFont@CEnListCtrl@@MAEPAVCFont@@HH@Z 0045007e f i TDLColumnAttribVisibilityListCtrl.obj
 0001:0004f083       ?GetNoItemsText@CEnListCtrl@@MBE?AVCString@@XZ 00450083 f i TDLColumnAttribVisibilityListCtrl.obj
 0001:0004f09f       ?IsEditing@CInputListCtrl@@MBEHXZ 0045009f f i TDLColumnAttribVisibilityListCtrl.obj
 0001:0004f0c6       ?GetNewColumnData@CInputListCtrl@@MBEPAVCColumnData@@XZ 004500c6 f i TDLColumnAttribVisibilityListCtrl.obj
 0001:0004f0f8       ??0CColumnData2@@QAE@XZ    004500f8 f i TDLColumnAttribVisibilityListCtrl.obj
 0001:0004f118       ?PrepareControl@CInputListCtrl@@MAEXAAVCWnd@@HH@Z 00450118 f i TDLColumnAttribVisibilityListCtrl.obj
 0001:0004f11b       ?PostDrawContent@CInputListCtrl@@MAEXPAVCDC@@HHABVCRect@@@Z 0045011b f i TDLColumnAttribVisibilityListCtrl.obj
 0001:0004f11e       ??_GCTDLColumnAttribVisibilityListCtrl@@UAEPAXI@Z 0045011e f i TDLColumnAttribVisibilityListCtrl.obj
 0001:0004f11e       ??_ECTDLColumnAttribVisibilityListCtrl@@UAEPAXI@Z 0045011e f i TDLColumnAttribVisibilityListCtrl.obj
 0001:0004f13a       ??1CTDLColumnAttribVisibilityListCtrl@@UAE@XZ 0045013a f   TDLColumnAttribVisibilityListCtrl.obj
 0001:0004f178       ?GetMessageMap@CTDLColumnAttribVisibilityListCtrl@@MBEPBUAFX_MSGMAP@@XZ 00450178 f   TDLColumnAttribVisibilityListCtrl.obj
 0001:0004f17e       ?SetVisibility@CTDLColumnAttribVisibilityListCtrl@@QAEXABUTDCCOLEDITFILTERVISIBILITY@@@Z 0045017e f   TDLColumnAttribVisibilityListCtrl.obj
 0001:0004f1a5       ??4TDCCOLEDITFILTERVISIBILITY@@QAEAAU0@ABU0@@Z 004501a5 f i TDLColumnAttribVisibilityListCtrl.obj
 0001:0004f1d8       ?GetVisibility@CTDLColumnAttribVisibilityListCtrl@@QBEXAAUTDCCOLEDITFILTERVISIBILITY@@@Z 004501d8 f   TDLColumnAttribVisibilityListCtrl.obj
 0001:0004f1eb       ?BuildListCtrl@CTDLColumnAttribVisibilityListCtrl@@IAEXXZ 004501eb f   TDLColumnAttribVisibilityListCtrl.obj
 0001:0004f351       ?InitState@CTDLColumnAttribVisibilityListCtrl@@MAEXXZ 00450351 f   TDLColumnAttribVisibilityListCtrl.obj
 0001:0004f366       ?PreSubclassWindow@CTDLColumnAttribVisibilityListCtrl@@MAEXXZ 00450366 f   TDLColumnAttribVisibilityListCtrl.obj
 0001:0004f377       ?OnCreate@CTDLColumnAttribVisibilityListCtrl@@IAEHPAUtagCREATESTRUCTW@@@Z 00450377 f   TDLColumnAttribVisibilityListCtrl.obj
 0001:0004f399       ?UpdateVisibility@CTDLColumnAttribVisibilityListCtrl@@IAEXXZ 00450399 f   TDLColumnAttribVisibilityListCtrl.obj
 0001:0004f4ea       ?GetItemColumn@CTDLColumnAttribVisibilityListCtrl@@IBE?AW4TDC_COLUMN@@H@Z 004504ea f   TDLColumnAttribVisibilityListCtrl.obj
 0001:0004f4f6       ?GetItemAttrib@CTDLColumnAttribVisibilityListCtrl@@IBE?AW4TDC_ATTRIBUTE@@H@Z 004504f6 f   TDLColumnAttribVisibilityListCtrl.obj
 0001:0004f668       ?CanEditCell@CTDLColumnAttribVisibilityListCtrl@@MBEHHH@Z 00450668 f   TDLColumnAttribVisibilityListCtrl.obj
 0001:0004f6d6       ?EditCell@CTDLColumnAttribVisibilityListCtrl@@MAEXHH@Z 004506d6 f   TDLColumnAttribVisibilityListCtrl.obj
 0001:0004f784       ?SetFilterFieldVisible@TDCCOLEDITFILTERVISIBILITY@@QAEHW4TDC_ATTRIBUTE@@H@Z 00450784 f i TDLColumnAttribVisibilityListCtrl.obj
 0001:0004f7eb       ?GetItemBackColor@CTDLColumnAttribVisibilityListCtrl@@MBEKHHHHH@Z 004507eb f   TDLColumnAttribVisibilityListCtrl.obj
 0001:0004f849       ?IsTimeCellEnabled@CTDLColumnAttribVisibilityListCtrl@@IBEHHH@Z 00450849 f   TDLColumnAttribVisibilityListCtrl.obj
 0001:0004f8aa       ?SetAllVisible@CTDLColumnAttribVisibilityListCtrl@@QAEXH@Z 004508aa f   TDLColumnAttribVisibilityListCtrl.obj
 0001:0004f8df       ?SetAllColumnsVisible@TDCCOLEDITFILTERVISIBILITY@@QAEXH@Z 004508df f i TDLColumnAttribVisibilityListCtrl.obj
 0001:0004f919       ?SetAllEditsAndFiltersVisible@TDCCOLEDITFILTERVISIBILITY@@QAEHH@Z 00450919 f i TDLColumnAttribVisibilityListCtrl.obj
 0001:0004f958       ?GetAllEditFields@TDCCOLEDITFILTERVISIBILITY@@KAHAAVCTDCAttributeMap@@@Z 00450958 f i TDLColumnAttribVisibilityListCtrl.obj
 0001:0004f986       ?GetAllFilterFields@TDCCOLEDITFILTERVISIBILITY@@KAHAAVCTDCAttributeMap@@@Z 00450986 f i TDLColumnAttribVisibilityListCtrl.obj
 0001:0004f9cc       ?SetShowEditsAndFilters@CTDLColumnAttribVisibilityListCtrl@@QAEXW4TDL_SHOWATTRIB@@@Z 004509cc f   TDLColumnAttribVisibilityListCtrl.obj
 0001:0004f9ec       ??0CTDLColumnListBox@@QAE@XZ 004509ec f   TDLColumnListBox.obj
 0001:00050189       ??0COLUMNVIS@CTDLColumnListBox@@QAE@IW4TDC_COLUMN@@H@Z 00451189 f i TDLColumnListBox.obj
 0001:000501ca       ??_GCTDLColumnListBox@@UAEPAXI@Z 004511ca f i TDLColumnListBox.obj
 0001:000501ca       ??_ECTDLColumnListBox@@UAEPAXI@Z 004511ca f i TDLColumnListBox.obj
 0001:000501e6       ??1CTDLColumnListBox@@UAE@XZ 004511e6 f   TDLColumnListBox.obj
 0001:00050221       ?GetMessageMap@CTDLColumnListBox@@MBEPBUAFX_MSGMAP@@XZ 00451221 f   TDLColumnListBox.obj
 0001:00050227       ?PreSubclassWindow@CTDLColumnListBox@@MAEXXZ 00451227 f   TDLColumnListBox.obj
 0001:0005022c       ?FindColumn@CTDLColumnListBox@@IBEHW4TDC_COLUMN@@@Z 0045122c f   TDLColumnListBox.obj
 0001:00050274       ?OnReflectCheckChange@CTDLColumnListBox@@IAEHXZ 00451274 f   TDLColumnListBox.obj
 0001:000502c2       ?CtlColor@CTDLColumnListBox@@IAEPAUHBRUSH__@@PAVCDC@@I@Z 004512c2 f   TDLColumnListBox.obj
 0001:00050347       ?GetVisibleColumns@CTDLColumnListBox@@QBEHAAVCTDCColumnIDArray@@@Z 00451347 f   TDLColumnListBox.obj
 0001:000503bb       ?Add@?$CArray@UCOLUMNVIS@CTDLColumnListBox@@AAU12@@@QAEHAAUCOLUMNVIS@CTDLColumnListBox@@@Z 004513bb f i TDLColumnListBox.obj
 0001:000503cf       ??1?$CArray@UCOLUMNVIS@CTDLColumnListBox@@AAU12@@@UAE@XZ 004513cf f i TDLColumnListBox.obj
 0001:00050416       ?Serialize@?$CArray@UCOLUMNVIS@CTDLColumnListBox@@AAU12@@@UAEXAAVCArchive@@@Z 00451416 f i TDLColumnListBox.obj
 0001:00050455       ??_G?$CArray@UCOLUMNVIS@CTDLColumnListBox@@AAU12@@@UAEPAXI@Z 00451455 f i TDLColumnListBox.obj
 0001:00050455       ??_E?$CArray@UCOLUMNVIS@CTDLColumnListBox@@AAU12@@@UAEPAXI@Z 00451455 f i TDLColumnListBox.obj
 0001:00050471       ?SetSize@?$CArray@UCOLUMNVIS@CTDLColumnListBox@@AAU12@@@QAEXHH@Z 00451471 f i TDLColumnListBox.obj
 0001:00050598       ?GetAt@?$CArray@UATTRIBVIS@CTDLAttributeListBox@@AAU12@@@QBE?AUATTRIBVIS@CTDLAttributeListBox@@H@Z 00451598 f i TDLColumnListBox.obj
 0001:00050598       ?GetAt@?$CArray@UCOLUMNVIS@CTDLColumnListBox@@AAU12@@@QBE?AUCOLUMNVIS@CTDLColumnListBox@@H@Z 00451598 f i TDLColumnListBox.obj
 0001:00050598       ?GetAt@?$CArray@UATTRIBPREF@CPreferencesTaskDefPage@@AAU12@@@QBE?AUATTRIBPREF@CPreferencesTaskDefPage@@H@Z 00451598 f i TDLColumnListBox.obj
 0001:000505cd       ?SetAtGrow@?$CArray@UCOLUMNVIS@CTDLColumnListBox@@AAU12@@@QAEXHAAUCOLUMNVIS@CTDLColumnListBox@@@Z 004515cd f i TDLColumnListBox.obj
 0001:0005060b       ?ConstructElements@@YGXPAUCOLUMNVIS@CTDLColumnListBox@@H@Z 0045160b f i TDLColumnListBox.obj
 0001:000506f5       ??0CTDLColumnSelectionDlg@@QAE@ABUTDCCOLEDITFILTERVISIBILITY@@0PAVCWnd@@@Z 004516f5 f   TDLColumnSelectionDlg.obj
 0001:000507b8       ??0TDCCOLEDITFILTERVISIBILITY@@QAE@ABU0@@Z 004517b8 f i TDLColumnSelectionDlg.obj
 0001:00050805       ??_GCTDLColumnSelectionDlg@@UAEPAXI@Z 00451805 f i TDLColumnSelectionDlg.obj
 0001:00050805       ??_ECTDLColumnSelectionDlg@@UAEPAXI@Z 00451805 f i TDLColumnSelectionDlg.obj
 0001:00050821       ??1CTDLColumnSelectionDlg@@UAE@XZ 00451821 f i TDLColumnSelectionDlg.obj
 0001:00050889       ?DoDataExchange@CTDLColumnSelectionDlg@@MAEXPAVCDataExchange@@@Z 00451889 f   TDLColumnSelectionDlg.obj
 0001:000508e4       ?GetMessageMap@CTDLColumnSelectionDlg@@MBEPBUAFX_MSGMAP@@XZ 004518e4 f   TDLColumnSelectionDlg.obj
 0001:000508ea       ?GetColumnEditFilterVisibility@CTDLColumnSelectionDlg@@QBEXAAUTDCCOLEDITFILTERVISIBILITY@@@Z 004518ea f   TDLColumnSelectionDlg.obj
 0001:00050915       ?OnOK@CTDLColumnSelectionDlg@@MAEXXZ 00451915 f   TDLColumnSelectionDlg.obj
 0001:0005098f       ?OnInitDialog@CTDLColumnSelectionDlg@@MAEHXZ 0045198f f   TDLColumnSelectionDlg.obj
 0001:000509ae       ?OnSelectallcols@CTDLColumnSelectionDlg@@IAEXXZ 004519ae f   TDLColumnSelectionDlg.obj
 0001:000509bc       ?OnClearallcols@CTDLColumnSelectionDlg@@IAEXXZ 004519bc f   TDLColumnSelectionDlg.obj
 0001:000509ca       ?OnDefaultcols@CTDLColumnSelectionDlg@@IAEXXZ 004519ca f   TDLColumnSelectionDlg.obj
 0001:000509f4       ?OnChangeAttribShow@CTDLColumnSelectionDlg@@IAEXXZ 004519f4 f   TDLColumnSelectionDlg.obj
 0001:00050a7f       ??0CTDLContentMgr@@QAE@XZ  00451a7f f   TDLContentMgr.obj
 0001:00050a91       ??_GCTDLContentMgr@@UAEPAXI@Z 00451a91 f i TDLContentMgr.obj
 0001:00050a91       ??_ECTDLContentMgr@@UAEPAXI@Z 00451a91 f i TDLContentMgr.obj
 0001:00050aad       ??1CTDLContentMgr@@UAE@XZ  00451aad f   TDLContentMgr.obj
 0001:00050ab8       ?Initialize@CTDLContentMgr@@MBEXXZ 00451ab8 f   TDLContentMgr.obj
 0001:00050b0d       ??0CTDCDefaultContent@@QAE@XZ 00451b0d f i TDLContentMgr.obj
 0001:00050b3b       ?GetTypeID@CTDCDefaultContent@@UBEPBGXZ 00451b3b f i TDLContentMgr.obj
 0001:00050b41       ?GetTypeDescription@CTDCDefaultContent@@UBEPBGXZ 00451b41 f i TDLContentMgr.obj
 0001:00050b47       ?GetTypeIcon@CTDCDefaultContent@@UBEPAUHICON__@@XZ 00451b47 f i TDLContentMgr.obj
 0001:00050b4b       ?CreateCtrl@CTDCDefaultContent@@UAEPAVIContentControl@@GKJJJJPAUHWND__@@@Z 00451b4b f i TDLContentMgr.obj
 0001:00050bf0       ?SetLocalizer@CTDCDefaultContent@@UAEXPAVITransText@@@Z 00451bf0 f i TDLContentMgr.obj
 0001:00050bfd       ?Release@CTDCDefaultContent@@UAEXXZ 00451bfd f i TDLContentMgr.obj
 0001:00050c09       ?ConvertToHtml@CTDCDefaultContent@@UAEHPBEHPBGAAPAG1@Z 00451c09 f i TDLContentMgr.obj
 0001:00050c0e       ?SavePreferences@CTDCDefaultContent@@UBEXPAVIPreferences@@PBG@Z 00451c0e f i TDLContentMgr.obj
 0001:00050c29       ?LoadPreferences@CTDCDefaultContent@@UAEXPBVIPreferences@@PBG@Z 00451c29 f i TDLContentMgr.obj
 0001:00050c44       ??_GCTDCDefaultContent@@UAEPAXI@Z 00451c44 f i TDLContentMgr.obj
 0001:00050c44       ??_ECTDCDefaultContent@@UAEPAXI@Z 00451c44 f i TDLContentMgr.obj
 0001:00050c6f       ?InsertAt@?$CArray@PAVIExportTasklist@@PAV1@@@QAEXHPAVIExportTasklist@@H@Z 00451c6f f i TDLContentMgr.obj
 0001:00050c6f       ?InsertAt@?$CArray@PAVIImportTasklist@@PAV1@@@QAEXHPAVIImportTasklist@@H@Z 00451c6f f i TDLContentMgr.obj
 0001:00050c6f       ?InsertAt@?$CArray@W4TDC_ATTRIBUTE@@W41@@@QAEXHW4TDC_ATTRIBUTE@@H@Z 00451c6f f i TDLContentMgr.obj
 0001:00050c6f       ?InsertAt@?$CArray@PAVIContent@@PAV1@@@QAEXHPAVIContent@@H@Z 00451c6f f i TDLContentMgr.obj
 0001:00050d02       ??0CTDLContentTypeComboBox@@QAE@PBVCContentMgr@@@Z 00451d02 f   TDLContentTypeCombobox.obj
 0001:00050d54       ?GetDrawEllipsis@COwnerdrawComboBoxBase@@MBEIXZ 00451d54 f i TDLContentTypeCombobox.obj
 0001:00050d5a       ??_ECTDLContentTypeComboBox@@UAEPAXI@Z 00451d5a f i TDLContentTypeCombobox.obj
 0001:00050d5a       ??_GCTDLContentTypeComboBox@@UAEPAXI@Z 00451d5a f i TDLContentTypeCombobox.obj
 0001:00050d76       ??1CTDLContentTypeComboBox@@UAE@XZ 00451d76 f   TDLContentTypeCombobox.obj
 0001:00050db1       ?GetMessageMap@CTDLContentTypeComboBox@@MBEPBUAFX_MSGMAP@@XZ 00451db1 f   TDLContentTypeCombobox.obj
 0001:00050db7       ?OnCreate@CTDLContentTypeComboBox@@IAEHPAUtagCREATESTRUCTW@@@Z 00451db7 f   TDLContentTypeCombobox.obj
 0001:00050de0       ?FillCombo@CTDLContentTypeComboBox@@IAEXXZ 00451de0 f   TDLContentTypeCombobox.obj
 0001:00050eb2       ?PreSubclassWindow@CTDLContentTypeComboBox@@MAEXXZ 00451eb2 f   TDLContentTypeCombobox.obj
 0001:00050ec9       ?GetSelectedFormat@CTDLContentTypeComboBox@@QBEHAAVCONTENTFORMAT@@@Z 00451ec9 f   TDLContentTypeCombobox.obj
 0001:00050f1c       ?SetSelectedFormat@CTDLContentTypeComboBox@@QAEHPBG@Z 00451f1c f   TDLContentTypeCombobox.obj
 0001:00050f46       ?GetCount@CTDLContentTypeComboBox@@QBEHXZ 00451f46 f   TDLContentTypeCombobox.obj
 0001:00050f67       ?SetCurSel@CTDLContentTypeComboBox@@QAEXH@Z 00451f67 f   TDLContentTypeCombobox.obj
 0001:00050f90       ?GetCurSel@CTDLContentTypeComboBox@@QBEHXZ 00451f90 f   TDLContentTypeCombobox.obj
 0001:00050fb0       ?DrawItemText@CTDLContentTypeComboBox@@MAEXAAVCDC@@ABVCRect@@HIKABVCString@@H@Z 00451fb0 f   TDLContentTypeCombobox.obj
 0001:00051013       ?AddItemImage@CTDLContentTypeComboBox@@IAEHPAUHICON__@@H@Z 00452013 f   TDLContentTypeCombobox.obj
 0001:000510ea       ??0CSVCOLUMNMAPPING@@QAE@XZ 004520ea f   TDLCsvAttributeSetupListCtrl.obj
 0001:000510fc       ??0CSVCOLUMNMAPPING@@QAE@ABVCString@@W4TDC_ATTRIBUTE@@K@Z 004520fc f   TDLCsvAttributeSetupListCtrl.obj
 0001:0005115f       ?Find@CTDCCsvColumnMapping@@QBEHABVCString@@@Z 0045215f f   TDLCsvAttributeSetupListCtrl.obj
 0001:000511a1       ?Find@CTDCCsvColumnMapping@@QBEHW4TDC_ATTRIBUTE@@@Z 004521a1 f   TDLCsvAttributeSetupListCtrl.obj
 0001:000511cc       ?FindMappedAttribute@CTDCCsvColumnMapping@@QBEHW4TDC_ATTRIBUTE@@@Z 004521cc f   TDLCsvAttributeSetupListCtrl.obj
 0001:00051200       ?IsAttributeMapped@CTDCCsvColumnMapping@@QBEHW4TDC_ATTRIBUTE@@@Z 00452200 f   TDLCsvAttributeSetupListCtrl.obj
 0001:00051216       ??0CTDLCsvAttributeSetupListCtrl@@QAE@HH@Z 00452216 f   TDLCsvAttributeSetupListCtrl.obj
 0001:00051289       ??_GCTDLCsvAttributeSetupListCtrl@@UAEPAXI@Z 00452289 f i TDLCsvAttributeSetupListCtrl.obj
 0001:00051289       ??_ECTDLCsvAttributeSetupListCtrl@@UAEPAXI@Z 00452289 f i TDLCsvAttributeSetupListCtrl.obj
 0001:000512a5       ??1CTDLCsvAttributeSetupListCtrl@@UAE@XZ 004522a5 f   TDLCsvAttributeSetupListCtrl.obj
 0001:000512f5       ?_GetBaseMessageMap@CTDLImportOutlookObjectSetupListCtrl@@KGPBUAFX_MSGMAP@@XZ 004522f5 f   TDLCsvAttributeSetupListCtrl.obj
 0001:000512f5       ?GetMessageMap@CTDLCsvAttributeSetupListCtrl@@MBEPBUAFX_MSGMAP@@XZ 004522f5 f   TDLCsvAttributeSetupListCtrl.obj
 0001:000512fb       ?SetColumnMapping@CTDLCsvAttributeSetupListCtrl@@QAEXABVCTDCCsvColumnMapping@@@Z 004522fb f   TDLCsvAttributeSetupListCtrl.obj
 0001:00051322       ?GetColumnMapping@CTDLCsvAttributeSetupListCtrl@@QBEHAAVCTDCCsvColumnMapping@@@Z 00452322 f   TDLCsvAttributeSetupListCtrl.obj
 0001:0005133c       ?PreSubclassWindow@CTDLCsvAttributeSetupListCtrl@@MAEXXZ 0045233c f   TDLCsvAttributeSetupListCtrl.obj
 0001:00051592       ?InitState@CTDLCsvAttributeSetupListCtrl@@MAEXXZ 00452592 f   TDLCsvAttributeSetupListCtrl.obj
 0001:000515b2       ?BuildListCtrl@CTDLCsvAttributeSetupListCtrl@@IAEXXZ 004525b2 f   TDLCsvAttributeSetupListCtrl.obj
 0001:0005176b       ?GetAttributeName@CTDLCsvAttributeSetupListCtrl@@KA?AVCString@@W4TDC_ATTRIBUTE@@@Z 0045276b f   TDLCsvAttributeSetupListCtrl.obj
 0001:000517d4       ?FindRow@CTDLCsvAttributeSetupListCtrl@@IBEHW4TDC_ATTRIBUTE@@H@Z 004527d4 f   TDLCsvAttributeSetupListCtrl.obj
 0001:00051824       ?FindRow@CTDLCsvAttributeSetupListCtrl@@IBEHABVCString@@H@Z 00452824 f   TDLCsvAttributeSetupListCtrl.obj
 0001:000518eb       ?EditCell@CTDLCsvAttributeSetupListCtrl@@MAEXHH@Z 004528eb f   TDLCsvAttributeSetupListCtrl.obj
 0001:0005193c       ?IsEditing@CTDLCsvAttributeSetupListCtrl@@MBEHXZ 0045293c f   TDLCsvAttributeSetupListCtrl.obj
 0001:0005195f       ?CanEditSelectedCell@CTDLCsvAttributeSetupListCtrl@@MBEHXZ 0045295f f   TDLCsvAttributeSetupListCtrl.obj
 0001:00051964       ?PrepareEdit@CTDLCsvAttributeSetupListCtrl@@IAEXHH@Z 00452964 f   TDLCsvAttributeSetupListCtrl.obj
 0001:000519cb       ?CanDeleteSelectedCell@CTDLCsvAttributeSetupListCtrl@@MBEHXZ 004529cb f   TDLCsvAttributeSetupListCtrl.obj
 0001:00051a00       ?DeleteSelectedCell@CTDLCsvAttributeSetupListCtrl@@MAEHXZ 00452a00 f   TDLCsvAttributeSetupListCtrl.obj
 0001:00051a77       ?OnAttribEditCancel@CTDLCsvAttributeSetupListCtrl@@IAEXXZ 00452a77 f   TDLCsvAttributeSetupListCtrl.obj
 0001:00051a77       ?OnOperatorEditCancel@CTDLFindTaskExpressionListCtrl@@IAEXXZ 00452a77 f   TDLCsvAttributeSetupListCtrl.obj
 0001:00051a84       ?OnAttribEditOK@CTDLCsvAttributeSetupListCtrl@@IAEXXZ 00452a84 f   TDLCsvAttributeSetupListCtrl.obj
 0001:00051bd8       ?OnNameEditOK@CTDLCsvAttributeSetupListCtrl@@IAEXPAUtagNMHDR@@PAJ@Z 00452bd8 f   TDLCsvAttributeSetupListCtrl.obj
 0001:00051cce       ?Copy@?$CArray@UCSVCOLUMNMAPPING@@AAU1@@@QAEXABV1@@Z 00452cce f i TDLCsvAttributeSetupListCtrl.obj
 0001:00051cf3       ?CopyElements@@YGXPAUCSVCOLUMNMAPPING@@PBU1@H@Z 00452cf3 f i TDLCsvAttributeSetupListCtrl.obj
 0001:000526a9       ??0CTDLCsvImportExportDlg@@QAE@ABVCString@@PAVIPreferences@@PBGPAVCWnd@@@Z 004536a9 f   TDLCsvImportExportDlg.obj
 0001:00052778       ??_ECTDLCsvImportExportDlg@@UAEPAXI@Z 00453778 f i TDLCsvImportExportDlg.obj
 0001:00052778       ??_GCTDLCsvImportExportDlg@@UAEPAXI@Z 00453778 f i TDLCsvImportExportDlg.obj
 0001:00052794       ??0CTDLCsvImportExportDlg@@QAE@ABVCString@@ABVCTDCAttributeArray@@PAVIPreferences@@PBGPAVCWnd@@@Z 00453794 f   TDLCsvImportExportDlg.obj
 0001:00052860       ?DoInit@CTDLCsvImportExportDlg@@IAEHABVCString@@PAVIPreferences@@PBGPBVCTDCAttributeArray@@@Z 00453860 f   TDLCsvImportExportDlg.obj
 0001:00052951       ?DoDataExchange@CTDLCsvImportExportDlg@@MAEXPAVCDataExchange@@@Z 00453951 f   TDLCsvImportExportDlg.obj
 0001:000529bd       ?GetMessageMap@CTDLCsvImportExportDlg@@MBEPBUAFX_MSGMAP@@XZ 004539bd f   TDLCsvImportExportDlg.obj
 0001:000529c3       ?OnInitDialog@CTDLCsvImportExportDlg@@MAEHXZ 004539c3 f   TDLCsvImportExportDlg.obj
 0001:00052a6c       ?GetColumnMapping@CTDLCsvImportExportDlg@@QBEHAAVCTDCCsvColumnMapping@@@Z 00453a6c f   TDLCsvImportExportDlg.obj
 0001:00052a7e       ?GetDelimiter@CTDLCsvImportExportDlg@@QBE?AVCString@@XZ 00453a7e f   TDLCsvImportExportDlg.obj
 0001:00052af0       ?OnChangeCsvdelimiter@CTDLCsvImportExportDlg@@IAEXXZ 00453af0 f   TDLCsvImportExportDlg.obj
 0001:00052b99       ?BuildDefaultMasterColumnMapping@CTDLCsvImportExportDlg@@IAEXXZ 00453b99 f   TDLCsvImportExportDlg.obj
 0001:00052c25       ?BuildImportColumnMapping@CTDLCsvImportExportDlg@@IBEHAAVCTDCCsvColumnMapping@@@Z 00453c25 f   TDLCsvImportExportDlg.obj
 0001:00052d90       ?IsExportingForExcel@CTDLCsvImportExportDlg@@QBEHXZ 00453d90 f   TDLCsvImportExportDlg.obj
 0001:00052dce       ?BuildExportColumnMapping@CTDLCsvImportExportDlg@@IBEHAAVCTDCCsvColumnMapping@@@Z 00453dce f   TDLCsvImportExportDlg.obj
 0001:00052e58       ?OnOK@CTDLCsvImportExportDlg@@MAEXXZ 00453e58 f   TDLCsvImportExportDlg.obj
 0001:00052e70       ?LoadMasterColumnMapping@CTDLCsvImportExportDlg@@IAEHXZ 00453e70 f   TDLCsvImportExportDlg.obj
 0001:0005303d       ?UpdateMasterColumnMappingFromList@CTDLCsvImportExportDlg@@IAEXXZ 0045403d f   TDLCsvImportExportDlg.obj
 0001:000530ae       ?SaveMasterColumnMapping@CTDLCsvImportExportDlg@@IBEXXZ 004540ae f   TDLCsvImportExportDlg.obj
 0001:00053264       ?GetMasterColumnName@CTDLCsvImportExportDlg@@IBE?AVCString@@W4TDC_ATTRIBUTE@@@Z 00454264 f   TDLCsvImportExportDlg.obj
 0001:0005330a       ?GetMasterColumnAttribute@CTDLCsvImportExportDlg@@IBE?AW4TDC_ATTRIBUTE@@PBG@Z 0045430a f   TDLCsvImportExportDlg.obj
 0001:00053356       ?SetMasterColumnName@CTDLCsvImportExportDlg@@IAEXW4TDC_ATTRIBUTE@@PBG@Z 00454356 f   TDLCsvImportExportDlg.obj
 0001:000533eb       ?FindMasterColumn@CTDLCsvImportExportDlg@@IBEHW4TDC_ATTRIBUTE@@@Z 004543eb f   TDLCsvImportExportDlg.obj
 0001:0005343d       ?FindMasterColumn@CTDLCsvImportExportDlg@@IBEHPBG@Z 0045443d f   TDLCsvImportExportDlg.obj
 0001:00053497       ?OnExportTaskids@CTDLCsvImportExportDlg@@IAEXXZ 00454497 f   TDLCsvImportExportDlg.obj
 0001:0005365b       ??0?$CArray@UCSVCOLUMNMAPPING@@AAU1@@@QAE@XZ 0045465b f i TDLCsvImportExportDlg.obj
 0001:00053672       ?RemoveAt@?$CArray@UCSVCOLUMNMAPPING@@AAU1@@@QAEXHH@Z 00454672 f i TDLCsvImportExportDlg.obj
 0001:000536cf       ?SetAtGrow@?$CArray@UCSVCOLUMNMAPPING@@AAU1@@@QAEXHAAUCSVCOLUMNMAPPING@@@Z 004546cf f i TDLCsvImportExportDlg.obj
 0001:00053793       ??0CTDLCustomAttribFeatureComboBox@@QAE@XZ 00454793 f   TDLCustomAttribFeatureComboBox.obj
 0001:000537b5       ?IsValid@CSubclassWnd@@UBEHXZ 004547b5 f i TDLCustomAttribFeatureComboBox.obj
 0001:000537ba       ?IsHooked@CSubclassWnd@@MBEHXZ 004547ba f i TDLCustomAttribFeatureComboBox.obj
 0001:000537c3       ?IsValidHook@CSubclassWnd@@MBEHXZ 004547c3 f i TDLCustomAttribFeatureComboBox.obj
 0001:000537cd       ?Redraw@CSubclassWnd@@MBEXXZ 004547cd f i TDLCustomAttribFeatureComboBox.obj
 0001:000537db       ?GetTopSubclasser@CSubclasser@@MAEPAV1@XZ 004547db f i TDLCustomAttribFeatureComboBox.obj
 0001:000537de       ?AddString@CAutoComboBox@@UAEHPBG@Z 004547de f i TDLCustomAttribFeatureComboBox.obj
 0001:00053827       ?InsertString@CAutoComboBox@@UAEHHPBG@Z 00454827 f i TDLCustomAttribFeatureComboBox.obj
 0001:00053873       ?AddStrings@CAutoComboBox@@UAEHABVCStringArray@@@Z 00454873 f i TDLCustomAttribFeatureComboBox.obj
 0001:00053882       ?DeleteString@CAutoComboBox@@UAEHI@Z 00454882 f i TDLCustomAttribFeatureComboBox.obj
 0001:00053899       ??_GCTDLCustomAttribFeatureComboBox@@UAEPAXI@Z 00454899 f i TDLCustomAttribFeatureComboBox.obj
 0001:00053899       ??_ECTDLCustomAttribFeatureComboBox@@UAEPAXI@Z 00454899 f i TDLCustomAttribFeatureComboBox.obj
 0001:000538b5       ??1CTDLCustomAttribFeatureComboBox@@UAE@XZ 004548b5 f   TDLCustomAttribFeatureComboBox.obj
 0001:000538ce       ?_GetBaseMessageMap@CTDLCustomAttribFeatureComboBox@@KGPBUAFX_MSGMAP@@XZ 004548ce f   TDLCustomAttribFeatureComboBox.obj
 0001:000538d4       ?GetMessageMap@CTDLCustomAttribFeatureComboBox@@MBEPBUAFX_MSGMAP@@XZ 004548d4 f   TDLCustomAttribFeatureComboBox.obj
 0001:000538da       ?SetAttributeDefintion@CTDLCustomAttribFeatureComboBox@@QAEHABUTDCCUSTOMATTRIBUTEDEFINITION@@@Z 004548da f   TDLCustomAttribFeatureComboBox.obj
 0001:00053915       ?BuildCombo@CTDLCustomAttribFeatureComboBox@@IAEXABUTDCCUSTOMATTRIBUTEDEFINITION@@@Z 00454915 f   TDLCustomAttribFeatureComboBox.obj
 0001:000539b9       ?GetSelectedFeatures@CTDLCustomAttribFeatureComboBox@@QBEKXZ 004549b9 f   TDLCustomAttribFeatureComboBox.obj
 0001:00053a00       ?FormatFeatureList@CTDLCustomAttribFeatureComboBox@@SA?AVCString@@K@Z 00454a00 f   TDLCustomAttribFeatureComboBox.obj
 0001:00053ab3       ?OnCheckChange@CTDLCustomAttribFeatureComboBox@@MAEXH@Z 00454ab3 f   TDLCustomAttribFeatureComboBox.obj
 0001:00053b32       ??_ECTDLCustomAttribFeatureComboBox@@WEM@AEPAXI@Z 00454b32 f i TDLCustomAttribFeatureComboBox.obj
 0001:00054a45       ??0CTDLCustomAttributeDlg@@QAE@ABVCToDoCtrl@@ABVCUIThemeFile@@PAVCWnd@@@Z 00455a45 f   TDLCustomAttributeDlg.obj
 0001:00054c9d       ?GetFilePath@CToDoCtrl@@QBE?AVCString@@XZ 00455c9d f i TDLCustomAttributeDlg.obj
 0001:00054cbb       ??_ECTDLCustomAttributeDlg@@UAEPAXI@Z 00455cbb f i TDLCustomAttributeDlg.obj
 0001:00054cbb       ??_GCTDLCustomAttributeDlg@@UAEPAXI@Z 00455cbb f i TDLCustomAttributeDlg.obj
 0001:00054cd7       ??1CTDLCustomAttributeDlg@@UAE@XZ 00455cd7 f i TDLCustomAttributeDlg.obj
 0001:00054e2f       ?DoDataExchange@CTDLCustomAttributeDlg@@MAEXPAVCDataExchange@@@Z 00455e2f f   TDLCustomAttributeDlg.obj
 0001:00054ffe       ?GetMessageMap@CTDLCustomAttributeDlg@@MBEPBUAFX_MSGMAP@@XZ 00455ffe f   TDLCustomAttributeDlg.obj
 0001:00055004       ?OnInitDialog@CTDLCustomAttributeDlg@@MAEHXZ 00456004 f   TDLCustomAttributeDlg.obj
 0001:000552cd       ?InitializeToolbar@CTDLCustomAttributeDlg@@IAEHXZ 004562cd f   TDLCustomAttributeDlg.obj
 0001:0005541a       ?AddAttributeToListCtrl@CTDLCustomAttributeDlg@@IAEHABUTDCCUSTOMATTRIBUTEDEFINITION@@HH@Z 0045641a f   TDLCustomAttributeDlg.obj
 0001:00055566       ?FormatFeatureList@CTDLCustomAttributeDlg@@KA?AVCString@@K@Z 00456566 f   TDLCustomAttributeDlg.obj
 0001:00055580       ?GetAttributes@CTDLCustomAttributeDlg@@QBEHAAVCTDCCustomAttribDefinitionArray@@@Z 00456580 f   TDLCustomAttributeDlg.obj
 0001:0005559a       ?OnOK@CTDLCustomAttributeDlg@@MAEXXZ 0045659a f   TDLCustomAttributeDlg.obj
 0001:00055640       ?GetTypeStrings@CTDLCustomAttributeDlg@@KAXABUTDCCUSTOMATTRIBUTEDEFINITION@@AAVCString@@1@Z 00456640 f   TDLCustomAttributeDlg.obj
 0001:000556fc       ?BuildDataTypeCombo@CTDLCustomAttributeDlg@@IAEXXZ 004566fc f   TDLCustomAttributeDlg.obj
 0001:0005575c       ?BuildListTypeCombo@CTDLCustomAttributeDlg@@IAEXK@Z 0045675c f   TDLCustomAttributeDlg.obj
 0001:00055809       ?OnItemchangedAttriblist@CTDLCustomAttributeDlg@@IAEXPAUtagNMHDR@@PAJ@Z 00456809 f   TDLCustomAttributeDlg.obj
 0001:00055949       ?EnableControls@CTDLCustomAttributeDlg@@IAEXXZ 00456949 f   TDLCustomAttributeDlg.obj
 0001:00055aac       ?GetCurSel@CTDLCustomAttributeDlg@@IAEHXZ 00456aac f   TDLCustomAttributeDlg.obj
 0001:00055adc       ?OnSelchangeDatatype@CTDLCustomAttributeDlg@@IAEXXZ 00456adc f   TDLCustomAttributeDlg.obj
 0001:00055be8       ?UpdateListDataMask@CTDLCustomAttributeDlg@@IAEXXZ 00456be8 f   TDLCustomAttributeDlg.obj
 0001:00055c2a       ?OnSelchangeAlignment@CTDLCustomAttributeDlg@@IAEXXZ 00456c2a f   TDLCustomAttributeDlg.obj
 0001:00055ca6       ?OnSelchangeListtype@CTDLCustomAttributeDlg@@IAEXXZ 00456ca6 f   TDLCustomAttributeDlg.obj
 0001:00055d96       ?OnChangeColumntitle@CTDLCustomAttributeDlg@@IAEXXZ 00456d96 f   TDLCustomAttributeDlg.obj
 0001:00055dd8       ?OnChangeDefaultlistdata@CTDLCustomAttributeDlg@@IAEXXZ 00456dd8 f   TDLCustomAttributeDlg.obj
 0001:00055e0c       ?MakeID@CTDLCustomAttributeDlg@@KA?AVCString@@ABV2@@Z 00456e0c f   TDLCustomAttributeDlg.obj
 0001:00055eaa       ?MakeUniqueID@CTDLCustomAttributeDlg@@IBEXAAVCString@@H@Z 00456eaa f   TDLCustomAttributeDlg.obj
 0001:00055f2b       ?UniqueIDExists@CTDLCustomAttributeDlg@@IBEHABVCString@@H@Z 00456f2b f   TDLCustomAttributeDlg.obj
 0001:00055f4f       ?OnBeginlabeleditAttributelist@CTDLCustomAttributeDlg@@IAEXPAUtagNMHDR@@PAJ@Z 00456f4f f   TDLCustomAttributeDlg.obj
 0001:00055f57       ?OnEndlabeleditAttributelist@CTDLCustomAttributeDlg@@IAEXPAUtagNMHDR@@PAJ@Z 00456f57 f   TDLCustomAttributeDlg.obj
 0001:0005608a       ?OnChangeUniqueid@CTDLCustomAttributeDlg@@IAEXXZ 0045708a f   TDLCustomAttributeDlg.obj
 0001:000560b4       ?OnImport@CTDLCustomAttributeDlg@@IAEXXZ 004570b4 f   TDLCustomAttributeDlg.obj
 0001:000562eb       ?OnClickAttributelist@CTDLCustomAttributeDlg@@IAEXPAUtagNMHDR@@PAJ@Z 004572eb f   TDLCustomAttributeDlg.obj
 0001:00056373       ?PreTranslateMessage@CTDLCustomAttributeDlg@@UAEHPAUtagMSG@@@Z 00457373 f   TDLCustomAttributeDlg.obj
 0001:000564a6       ?OnEEClick@CTDLCustomAttributeDlg@@IAEJIJ@Z 004574a6 f   TDLCustomAttributeDlg.obj
 0001:00056537       ?OnInsertsymbol@CTDLCustomAttributeDlg@@IAEXXZ 00457537 f   TDLCustomAttributeDlg.obj
 0001:000565c2       ?BuildSymbolPopupMenu@CTDLCustomAttributeDlg@@IBEHAAVCMenu@@@Z 004575c2 f   TDLCustomAttributeDlg.obj
 0001:00056648       ?OnNewAttribute@CTDLCustomAttributeDlg@@IAEXXZ 00457648 f   TDLCustomAttributeDlg.obj
 0001:0005671d       ?OnUpdateNewAttribute@CTDLCustomAttributeDlg@@IAEXPAVCCmdUI@@@Z 0045771d f   TDLCustomAttributeDlg.obj
 0001:0005674a       ?OnDeleteAttribute@CTDLCustomAttributeDlg@@IAEXXZ 0045774a f   TDLCustomAttributeDlg.obj
 0001:000567c0       ?OnUpdateEditAttribute@CTDLCustomAttributeDlg@@IAEXPAVCCmdUI@@@Z 004577c0 f   TDLCustomAttributeDlg.obj
 0001:000567c0       ?OnUpdateDeleteAttribute@CTDLCustomAttributeDlg@@IAEXPAVCCmdUI@@@Z 004577c0 f   TDLCustomAttributeDlg.obj
 0001:000567db       ?OnMoveAttributeDown@CTDLCustomAttributeDlg@@IAEXXZ 004577db f   TDLCustomAttributeDlg.obj
 0001:000567e3       ?OnUpdateMoveAttributeDown@CTDLCustomAttributeDlg@@IAEXPAVCCmdUI@@@Z 004577e3 f   TDLCustomAttributeDlg.obj
 0001:00056830       ?GetEditControl@CListCtrl@@QBEPAVCEdit@@XZ 00457830 f i TDLCustomAttributeDlg.obj
 0001:00056849       ?OnMoveAttributeUp@CTDLCustomAttributeDlg@@IAEXXZ 00457849 f   TDLCustomAttributeDlg.obj
 0001:00056851       ?OnUpdateMoveAttributeUp@CTDLCustomAttributeDlg@@IAEXPAVCCmdUI@@@Z 00457851 f   TDLCustomAttributeDlg.obj
 0001:00056880       ?OnEditAttribute@CTDLCustomAttributeDlg@@IAEXXZ 00457880 f   TDLCustomAttributeDlg.obj
 0001:000568a8       ?MoveAttribute@CTDLCustomAttributeDlg@@IAEXH@Z 004578a8 f   TDLCustomAttributeDlg.obj
 0001:000569be       ?OnBrowseimages@CTDLCustomAttributeDlg@@IAEXXZ 004579be f   TDLCustomAttributeDlg.obj
 0001:00056bd8       ?EncodeImageTag@TDCCUSTOMATTRIBUTEDEFINITION@@SA?AVCString@@ABV2@0@Z 00457bd8 f i TDLCustomAttributeDlg.obj
 0001:00056c3d       ?OnChangeFeatures@CTDLCustomAttributeDlg@@IAEXXZ 00457c3d f   TDLCustomAttributeDlg.obj
 0001:00056cb8       ?InsertAt@?$CArray@UTDCCUSTOMATTRIBUTEDEFINITION@@AAU1@@@QAEXHAAUTDCCUSTOMATTRIBUTEDEFINITION@@H@Z 00457cb8 f i TDLCustomAttributeDlg.obj
 0001:00056d50       ?RemoveAt@?$CArray@UTDCCUSTOMATTRIBUTEDEFINITION@@AAU1@@@QAEXHH@Z 00457d50 f i TDLCustomAttributeDlg.obj
 0001:00056da6       ?SetAtGrow@?$CArray@UTDCCUSTOMATTRIBUTEDEFINITION@@AAU1@@@QAEXHAAUTDCCUSTOMATTRIBUTEDEFINITION@@@Z 00457da6 f i TDLCustomAttributeDlg.obj
 0001:00056dd4       ??0CTDLDialog@@QAE@IPAVCWnd@@@Z 00457dd4 f   TDLDialog.obj
 0001:00056e18       ??_ECTDLDialog@@UAEPAXI@Z  00457e18 f i TDLDialog.obj
 0001:00056e18       ??_GCTDLDialog@@UAEPAXI@Z  00457e18 f i TDLDialog.obj
 0001:00056e34       ?OnInitDialog@CTDLDialog@@MAEHXZ 00457e34 f   TDLDialog.obj
 0001:00056e68       ?OnSize@CTDLDialog@@IAEXIHH@Z 00457e68 f   TDLDialog.obj
 0001:00057783       ??0CTDLExportDlg@@QAE@ABVCImportExportMgr@@HW4FTC_VIEW@@HPBG2PAVCWnd@@@Z 00458783 f   TDLExportDlg.obj
 0001:00057b3a       ??_ECTDLExportDlg@@UAEPAXI@Z 00458b3a f i TDLExportDlg.obj
 0001:00057b3a       ??_GCTDLExportDlg@@UAEPAXI@Z 00458b3a f i TDLExportDlg.obj
 0001:00057b56       ??1CTDLExportDlg@@UAE@XZ   00458b56 f i TDLExportDlg.obj
 0001:00057c27       ?DoDataExchange@CTDLExportDlg@@MAEXPAVCDataExchange@@@Z 00458c27 f   TDLExportDlg.obj
 0001:00057ce7       ?GetMessageMap@CTDLExportDlg@@MBEPBUAFX_MSGMAP@@XZ 00458ce7 f   TDLExportDlg.obj
 0001:00057ced       ?OnInitDialog@CTDLExportDlg@@MAEHXZ 00458ced f   TDLExportDlg.obj
 0001:00057deb       ?OnSelchangeTasklistoptions@CTDLExportDlg@@IAEXXZ 00458deb f   TDLExportDlg.obj
 0001:00057ef1       ?OnSelchangeFormatoptions@CTDLExportDlg@@IAEXXZ 00458ef1 f   TDLExportDlg.obj
 0001:00057fff       ?ReplaceExtension@CTDLExportDlg@@IAEXAAVCString@@H@Z 00458fff f   TDLExportDlg.obj
 0001:000580cc       ?OnOK@CTDLExportDlg@@MAEXXZ 004590cc f   TDLExportDlg.obj
 0001:000583f4       ?GetExportAllTasklists@CTDLExportDlg@@QAEHXZ 004593f4 f   TDLExportDlg.obj
 0001:0005840b       ?OnExportonefile@CTDLExportDlg@@IAEXXZ 0045940b f   TDLExportDlg.obj
 0001:000584ec       ?EnableOK@CTDLExportDlg@@IAEXXZ 004594ec f   TDLExportDlg.obj
 0001:0005851e       ?OnChangeExportpath@CTDLExportDlg@@IAEXXZ 0045951e f   TDLExportDlg.obj
 0001:00058564       ?GetExportPath@CTDLExportDlg@@QAE?AVCString@@XZ 00459564 f   TDLExportDlg.obj
 0001:000594b5       ??0CTDLFilterBar@@QAE@PAVCWnd@@@Z 0045a4b5 f   TDLFilterBar.obj
 0001:00059794       ??_GCBrush@@UAEPAXI@Z      0045a794 f i TDLFilterBar.obj
 0001:00059794       ??_ECBrush@@UAEPAXI@Z      0045a794 f i TDLFilterBar.obj
 0001:000597b0       ??1CBrush@@UAE@XZ          0045a7b0 f i TDLFilterBar.obj
 0001:000597e3       ?DoModal@CRuntimeDlg@@UAEHXZ 0045a7e3 f i TDLFilterBar.obj
 0001:000597e3       ?GetNewItemData@CColorComboBox@@MBEKXZ 0045a7e3 f i TDLFilterBar.obj
 0001:000597e3       ?DoModal@CTDLFilterBar@@MAEHXZ 0045a7e3 f i TDLFilterBar.obj
 0001:000597e3       ?DoModal@CTDLFindTasksDlg@@MAEHXZ 0045a7e3 f i TDLFilterBar.obj
 0001:000597e3       ?GetMaxDropWidth@COwnerdrawComboBoxBase@@MBEHXZ 0045a7e3 f i TDLFilterBar.obj
 0001:000597e7       ??_ECTDLFilterBar@@UAEPAXI@Z 0045a7e7 f i TDLFilterBar.obj
 0001:000597e7       ??_GCTDLFilterBar@@UAEPAXI@Z 0045a7e7 f i TDLFilterBar.obj
 0001:00059803       ??1CTDLFilterBar@@UAE@XZ   0045a803 f   TDLFilterBar.obj
 0001:000599d9       ?DoDataExchange@CTDLFilterBar@@MAEXPAVCDataExchange@@@Z 0045a9d9 f   TDLFilterBar.obj
 0001:00059ede       ?GetMessageMap@CTDLFilterBar@@MBEPBUAFX_MSGMAP@@XZ 0045aede f   TDLFilterBar.obj
 0001:00059ee4       ?Create@CTDLFilterBar@@QAEHPAVCWnd@@IH@Z 0045aee4 f   TDLFilterBar.obj
 0001:00059f3e       ?OnSelchangeFilter@CTDLFilterBar@@IAEXXZ 0045af3e f   TDLFilterBar.obj
 0001:00059f82       ?OnCloseUpOptions@CTDLFilterBar@@IAEXXZ 0045af82 f   TDLFilterBar.obj
 0001:0005a007       ?OnSelchangeFilter@CTDLFilterBar@@IAEXPAUtagNMHDR@@PAJ@Z 0045b007 f   TDLFilterBar.obj
 0001:0005a099       ?OnEEBtnClick@CTDLFilterBar@@IAEJIJ@Z 0045b099 f   TDLFilterBar.obj
 0001:0005a0dd       ?PreTranslateMessage@CTDLFilterBar@@MAEHPAUtagMSG@@@Z 0045b0dd f   TDLFilterBar.obj
 0001:0005a114       ?GetFilter@CTDLFilterBar@@QBE?AW4FILTER_SHOW@@AAUFTDCFILTER@@AAVCString@@AAK@Z 0045b114 f   TDLFilterBar.obj
 0001:0005a193       ?GetFilter@CTDLFilterBar@@QBE?AW4FILTER_SHOW@@AAVCString@@@Z 0045b193 f   TDLFilterBar.obj
 0001:0005a1a2       ?AddCustomFilters@CTDLFilterBar@@QAEXABVCStringArray@@@Z 0045b1a2 f   TDLFilterBar.obj
 0001:0005a1b3       ?GetCustomFilters@CTDLFilterBar@@QBEHAAVCStringArray@@@Z 0045b1b3 f   TDLFilterBar.obj
 0001:0005a1c2       ?ShowDefaultFilters@CTDLFilterBar@@QAEXH@Z 0045b1c2 f   TDLFilterBar.obj
 0001:0005a1d1       ?RefreshFilterControls@CTDLFilterBar@@QAEXABVCFilteredToDoCtrl@@@Z 0045b1d1 f   TDLFilterBar.obj
 0001:0005a3fb       ?SetPriorityColors@CTDLFilterBar@@QAEXABVCDWordArray@@@Z 0045b3fb f   TDLFilterBar.obj
 0001:0005a48c       ?OnSize@CTDLFilterBar@@IAEXIHH@Z 0045b48c f   TDLFilterBar.obj
 0001:0005a4b5       ?CalcHeight@CTDLFilterBar@@QAEHH@Z 0045b4b5 f   TDLFilterBar.obj
 0001:0005a4c3       ?SetVisibleFilters@CTDLFilterBar@@QAEXABVCTDCAttributeMap@@@Z 0045b4c3 f   TDLFilterBar.obj
 0001:0005a4d1       ?SetVisibleFilters@CTDLFilterBar@@IAEXABVCTDCAttributeMap@@H@Z 0045b4d1 f   TDLFilterBar.obj
 0001:0005a50c       ?WantShowFilter@CTDLFilterBar@@IAEHW4TDC_ATTRIBUTE@@@Z 0045b50c f   TDLFilterBar.obj
 0001:0005a52a       ?EnableMultiSelection@CTDLFilterBar@@QAEXH@Z 0045b52a f   TDLFilterBar.obj
 0001:0005a57f       ?ReposControls@CTDLFilterBar@@IAEHHH@Z 0045b57f f   TDLFilterBar.obj
 0001:0005a870       ?OnInitDialog@CTDLFilterBar@@MAEHXZ 0045b870 f   TDLFilterBar.obj
 0001:0005a94f       ?OnToolTipNotify@CTDLFilterBar@@IAEHIPAUtagNMHDR@@PAJ@Z 0045b94f f   TDLFilterBar.obj
 0001:0005ab4d       ?SetUITheme@CTDLFilterBar@@QAEXABVCUIThemeFile@@@Z 0045bb4d f   TDLFilterBar.obj
 0001:0005ab8c       ?RefreshUIBkgndBrush@CTDLFilterBar@@IAEXXZ 0045bb8c f   TDLFilterBar.obj
 0001:0005ac01       ?CalcUIBkgndColor@CTDLFilterBar@@QBEKXZ 0045bc01 f   TDLFilterBar.obj
 0001:0005ac76       ?OnEraseBkgnd@CTDLFilterBar@@IAEHPAVCDC@@@Z 0045bc76 f   TDLFilterBar.obj
 0001:0005ad0d       ?OnCtlColor@CTDLFilterBar@@IAEPAUHBRUSH__@@PAVCDC@@PAVCWnd@@I@Z 0045bd0d f   TDLFilterBar.obj
 0001:0005ad93       ?GetMonthCalCtrl@CDateTimeCtrl@@QBEPAVCMonthCalCtrl@@XZ 0045bd93 f i TDLFilterBar.obj
 0001:0005adac       ??1?$CMap@VCString@@PBGKAAK@@UAE@XZ 0045bdac f i TDLFilterBar.obj
 0001:0005addf       ?Serialize@?$CMap@VCString@@PBGKAAK@@UAEXAAVCArchive@@@Z 0045bddf f i TDLFilterBar.obj
 0001:0005aeb6       ??_E?$CMap@VCString@@PBGKAAK@@UAEPAXI@Z 0045beb6 f i TDLFilterBar.obj
 0001:0005aeb6       ??_G?$CMap@VCString@@PBGKAAK@@UAEPAXI@Z 0045beb6 f i TDLFilterBar.obj
 0001:0005af2a       ??0CTDLFilterComboBox@@QAE@XZ 0045bf2a f   TDLFilterComboBox.obj
 0001:0005af6a       ??_ECTDLFilterComboBox@@UAEPAXI@Z 0045bf6a f i TDLFilterComboBox.obj
 0001:0005af6a       ??_GCTDLFilterComboBox@@UAEPAXI@Z 0045bf6a f i TDLFilterComboBox.obj
 0001:0005af86       ??1CTDLFilterComboBox@@UAE@XZ 0045bf86 f   TDLFilterComboBox.obj
 0001:0005afc1       ?GetMessageMap@CTDLFilterComboBox@@MBEPBUAFX_MSGMAP@@XZ 0045bfc1 f   TDLFilterComboBox.obj
 0001:0005afc7       ?PreSubclassWindow@CTDLFilterComboBox@@MAEXXZ 0045bfc7 f   TDLFilterComboBox.obj
 0001:0005afd8       ?OnCreate@CTDLFilterComboBox@@IAEHPAUtagCREATESTRUCTW@@@Z 0045bfd8 f   TDLFilterComboBox.obj
 0001:0005affa       ?AddDefaultFilterItem@CTDLFilterComboBox@@IAEHH@Z 0045bffa f   TDLFilterComboBox.obj
 0001:0005b0a7       ?FillCombo@CTDLFilterComboBox@@IAEXXZ 0045c0a7 f   TDLFilterComboBox.obj
 0001:0005b14f       ?RefillCombo@CTDLFilterComboBox@@IAEXPBG@Z 0045c14f f   TDLFilterComboBox.obj
 0001:0005b1e7       ?GetSelectedFilter@CTDLFilterComboBox@@QBE?AW4FILTER_SHOW@@AAVCString@@@Z 0045c1e7 f   TDLFilterComboBox.obj
 0001:0005b261       ?SelectFilter@CTDLFilterComboBox@@QAEHW4FILTER_SHOW@@@Z 0045c261 f   TDLFilterComboBox.obj
 0001:0005b261       ?SelectFilter@CTDLFilterDateComboBox@@QAEHW4FILTER_DATE@@@Z 0045c261 f   TDLFilterComboBox.obj
 0001:0005b270       ?SelectFilter@CTDLFilterComboBox@@QAEHABVCString@@@Z 0045c270 f   TDLFilterComboBox.obj
 0001:0005b3a8       ?AddCustomFilters@CTDLFilterComboBox@@QAEXABVCStringArray@@PBG@Z 0045c3a8 f   TDLFilterComboBox.obj
 0001:0005b3d0       ?GetCustomFilters@CTDLFilterComboBox@@QBEHAAVCStringArray@@@Z 0045c3d0 f   TDLFilterComboBox.obj
 0001:0005b3e7       ?ShowDefaultFilters@CTDLFilterComboBox@@QAEXH@Z 0045c3e7 f   TDLFilterComboBox.obj
 0001:0005b407       ?RestoreSelection@CTDLFilterComboBox@@IAEXW4FILTER_SHOW@@PBG@Z 0045c407 f   TDLFilterComboBox.obj
 0001:0005b4b7       ?FormatCustomFilterDisplayString@CTDLFilterComboBox@@KA?AVCString@@HABV2@H@Z 0045c4b7 f   TDLFilterComboBox.obj
 0001:0005b5ab       ?ExtractCustomFilterName@CTDLFilterComboBox@@KA?AVCString@@ABV2@@Z 0045c5ab f   TDLFilterComboBox.obj
 0001:0005b687       ?DrawItemText@CTDLFilterComboBox@@MAEXAAVCDC@@ABVCRect@@HIKABVCString@@H@Z 0045c687 f   TDLFilterComboBox.obj
 0001:0005b79f       ??0CTDLFilterDateComboBox@@QAE@H@Z 0045c79f f   TDLFilterDateComboBox.obj
 0001:0005b7c0       ??_ECTDLFilterDateComboBox@@UAEPAXI@Z 0045c7c0 f i TDLFilterDateComboBox.obj
 0001:0005b7c0       ??_GCTDLFilterDateComboBox@@UAEPAXI@Z 0045c7c0 f i TDLFilterDateComboBox.obj
 0001:0005b7dc       ??1CTDLFilterDateComboBox@@UAE@XZ 0045c7dc f   TDLFilterDateComboBox.obj
 0001:0005b7e7       ?_GetBaseMessageMap@CTDLFilterDateComboBox@@KGPBUAFX_MSGMAP@@XZ 0045c7e7 f   TDLFilterDateComboBox.obj
 0001:0005b7e7       ?_GetBaseMessageMap@CTDLFilterComboBox@@KGPBUAFX_MSGMAP@@XZ 0045c7e7 f   TDLFilterDateComboBox.obj
 0001:0005b7ed       ?GetMessageMap@CTDLFilterDateComboBox@@MBEPBUAFX_MSGMAP@@XZ 0045c7ed f   TDLFilterDateComboBox.obj
 0001:0005b7f3       ?PreSubclassWindow@CTDLFilterDateComboBox@@MAEXXZ 0045c7f3 f   TDLFilterDateComboBox.obj
 0001:0005b804       ?OnCreate@CTDLFilterDateComboBox@@IAEHPAUtagCREATESTRUCTW@@@Z 0045c804 f   TDLFilterDateComboBox.obj
 0001:0005b826       ?SetNextNDays@CTDLFilterDateComboBox@@QAEXH@Z 0045c826 f   TDLFilterDateComboBox.obj
 0001:0005b89a       ?OnReflectSelChange@CTDLFilterDateComboBox@@IAEHXZ 0045c89a f   TDLFilterDateComboBox.obj
 0001:0005b89e       ?FillCombo@CTDLFilterDateComboBox@@IAEXXZ 0045c89e f   TDLFilterDateComboBox.obj
 0001:0005b9d4       ?GetSelectedFilter@CTDLFilterDateComboBox@@QBE?AW4FILTER_DATE@@XZ 0045c9d4 f   TDLFilterDateComboBox.obj
 0001:0005c910       ??0CTDLFilterDlg@@QAE@HPAVCWnd@@@Z 0045d910 f   TDLFilterDlg.obj
 0001:0005cae9       ??_GCTDLFilterDlg@@UAEPAXI@Z 0045dae9 f i TDLFilterDlg.obj
 0001:0005cae9       ??_ECTDLFilterDlg@@UAEPAXI@Z 0045dae9 f i TDLFilterDlg.obj
 0001:0005cb05       ??1CTDLFilterDlg@@UAE@XZ   0045db05 f i TDLFilterDlg.obj
 0001:0005cc8a       ?DoDataExchange@CTDLFilterDlg@@MAEXPAVCDataExchange@@@Z 0045dc8a f   TDLFilterDlg.obj
 0001:0005d117       ?GetMessageMap@CTDLFilterDlg@@MBEPBUAFX_MSGMAP@@XZ 0045e117 f   TDLFilterDlg.obj
 0001:0005d11d       ?DoModal@CTDLFilterDlg@@QAEHABVCStringArray@@ABVCFilteredToDoCtrl@@ABVCDWordArray@@@Z 0045e11d f   TDLFilterDlg.obj
 0001:0005d1f5       ?GetFilter@CTDLFilterDlg@@QBE?AW4FILTER_SHOW@@AAUFTDCFILTER@@AAVCString@@AAK@Z 0045e1f5 f   TDLFilterDlg.obj
 0001:0005d22e       ?OnInitDialog@CTDLFilterDlg@@MAEHXZ 0045e22e f   TDLFilterDlg.obj
 0001:0005d430       ?EnableDisableControls@CTDLFilterDlg@@IAEXXZ 0045e430 f   TDLFilterDlg.obj
 0001:0005d60d       ?OnClearfilter@CTDLFilterDlg@@IAEXXZ 0045e60d f   TDLFilterDlg.obj
 0001:0005d631       ?OnSelchangeFiltercombo@CTDLFilterDlg@@IAEXXZ 0045e631 f   TDLFilterDlg.obj
 0001:0005d65e       ?OnSelchangeDatecombo@CTDLFilterDlg@@IAEXXZ 0045e65e f   TDLFilterDlg.obj
 0001:0005d671       ?OnSelchangeStartNextNDays@CTDLFilterDlg@@IAEXXZ 0045e671 f   TDLFilterDlg.obj
 0001:0005d68e       ?OnSelchangeDueNextNDays@CTDLFilterDlg@@IAEXXZ 0045e68e f   TDLFilterDlg.obj
 0001:0005d6ab       ?OnToolTipNotify@CTDLFilterDlg@@IAEHIPAUtagNMHDR@@PAJ@Z 0045e6ab f   TDLFilterDlg.obj
 0001:0005d923       ??0CTDLFilterOptionComboBox@@QAE@XZ 0045e923 f   TDLFilterOptionComboBox.obj
 0001:0005d953       ??_GCTDLFilterOptionComboBox@@UAEPAXI@Z 0045e953 f i TDLFilterOptionComboBox.obj
 0001:0005d953       ??_ECTDLFilterOptionComboBox@@UAEPAXI@Z 0045e953 f i TDLFilterOptionComboBox.obj
 0001:0005d96f       ??1CTDLFilterOptionComboBox@@UAE@XZ 0045e96f f   TDLFilterOptionComboBox.obj
 0001:0005d988       ?_GetBaseMessageMap@CTDLFilterOptionComboBox@@KGPBUAFX_MSGMAP@@XZ 0045e988 f   TDLFilterOptionComboBox.obj
 0001:0005d988       ?_GetBaseMessageMap@CTDLIconComboBox@@KGPBUAFX_MSGMAP@@XZ 0045e988 f   TDLFilterOptionComboBox.obj
 0001:0005d98e       ?GetMessageMap@CTDLFilterOptionComboBox@@MBEPBUAFX_MSGMAP@@XZ 0045e98e f   TDLFilterOptionComboBox.obj
 0001:0005d994       ?Initialize@CTDLFilterOptionComboBox@@QAEXKK@Z 0045e994 f   TDLFilterOptionComboBox.obj
 0001:0005da6c       ?Initialize@CTDLFilterOptionComboBox@@QAEXABUFTDCFILTER@@W4FTC_VIEW@@H@Z 0045ea6c f   TDLFilterOptionComboBox.obj
 0001:0005dbe1       ?OnCheckChange@CTDLFilterOptionComboBox@@MAEXH@Z 0045ebe1 f   TDLFilterOptionComboBox.obj
 0001:0005dc3b       ?SetSelectedOptions@CTDLFilterOptionComboBox@@QAEXK@Z 0045ec3b f   TDLFilterOptionComboBox.obj
 0001:0005dca9       ?GetSelectedOptions@CTDLFilterOptionComboBox@@QBEKXZ 0045eca9 f   TDLFilterOptionComboBox.obj
 0001:0005dcb0       ??_ECTDLFilterOptionComboBox@@WEM@AEPAXI@Z 0045ecb0 f i TDLFilterOptionComboBox.obj
 0001:0005dd10       ??0CTDLFindResultsListCtrl@@QAE@XZ 0045ed10 f   tdlfindresultslistctrl.obj
 0001:0005dd58       ?GetNewColumnData@CEnListCtrl@@MBEPAVCColumnData@@XZ 0045ed58 f i tdlfindresultslistctrl.obj
 0001:0005dd7d       ??_ECTDLFindResultsListCtrl@@UAEPAXI@Z 0045ed7d f i tdlfindresultslistctrl.obj
 0001:0005dd7d       ??_GCTDLFindResultsListCtrl@@UAEPAXI@Z 0045ed7d f i tdlfindresultslistctrl.obj
 0001:0005dd99       ??1CTDLFindResultsListCtrl@@UAE@XZ 0045ed99 f   tdlfindresultslistctrl.obj
 0001:0005ddd7       ?_GetBaseMessageMap@CTDLFindResultsListCtrl@@KGPBUAFX_MSGMAP@@XZ 0045edd7 f   tdlfindresultslistctrl.obj
 0001:0005dddd       ?GetMessageMap@CTDLFindResultsListCtrl@@MBEPBUAFX_MSGMAP@@XZ 0045eddd f   tdlfindresultslistctrl.obj
 0001:0005dde3       ?PreSubclassWindow@CTDLFindResultsListCtrl@@MAEXXZ 0045ede3 f   tdlfindresultslistctrl.obj
 0001:0005df05       ?GetColumnWidths@CTDLFindResultsListCtrl@@QBEHAAV?$CArray@HH@@@Z 0045ef05 f   tdlfindresultslistctrl.obj
 0001:0005df20       ?SetColumnWidths@CTDLFindResultsListCtrl@@QAEHABV?$CArray@HH@@@Z 0045ef20 f   tdlfindresultslistctrl.obj
 0001:0005df3b       ?GetResultCount@CTDLFindResultsListCtrl@@QBEHXZ 0045ef3b f   tdlfindresultslistctrl.obj
 0001:0005df43       ?GetResultCount@CTDLFindResultsListCtrl@@QBEHPBVCFilteredToDoCtrl@@@Z 0045ef43 f   tdlfindresultslistctrl.obj
 0001:0005df8c       ?GetResults@CTDLFindResultsListCtrl@@QBEHPBVCFilteredToDoCtrl@@AAV?$CArray@UFTDRESULT@@AAU1@@@@Z 0045ef8c f   tdlfindresultslistctrl.obj
 0001:0005e01b       ?GetResultIDs@CTDLFindResultsListCtrl@@QBEHPBVCFilteredToDoCtrl@@AAVCDWordArray@@@Z 0045f01b f   tdlfindresultslistctrl.obj
 0001:0005e092       ?DeleteResults@CTDLFindResultsListCtrl@@QAEXPBVCFilteredToDoCtrl@@@Z 0045f092 f   tdlfindresultslistctrl.obj
 0001:0005e0ec       ?DeleteAllResults@CTDLFindResultsListCtrl@@QAEXXZ 0045f0ec f   tdlfindresultslistctrl.obj
 0001:0005e130       ?IsResultHot@CTDLFindResultsListCtrl@@IBEHABUtagRECT@@@Z 0045f130 f   tdlfindresultslistctrl.obj
 0001:0005e167       ?OnCustomDraw@CTDLFindResultsListCtrl@@IAEXPAUtagNMHDR@@PAJ@Z 0045f167 f   tdlfindresultslistctrl.obj
 0001:0005e38a       ?GetResultTextColor@CTDLFindResultsListCtrl@@IBEKPBUFTDRESULT@@HH@Z 0045f38a f   tdlfindresultslistctrl.obj
 0001:0005e3ef       ?GetResultFont@CTDLFindResultsListCtrl@@IAEPAVCFont@@PBUFTDRESULT@@H@Z 0045f3ef f   tdlfindresultslistctrl.obj
 0001:0005e454       ?RefreshUserPreferences@CTDLFindResultsListCtrl@@QAEXXZ 0045f454 f   tdlfindresultslistctrl.obj
 0001:0005e548       ?AddResult@CTDLFindResultsListCtrl@@QAEHABUSEARCHRESULT@@PBG1PBVCFilteredToDoCtrl@@@Z 0045f548 f   tdlfindresultslistctrl.obj
 0001:0005e622       ?AddHeaderRow@CTDLFindResultsListCtrl@@QAEHPBG@Z 0045f622 f   tdlfindresultslistctrl.obj
 0001:0005e687       ?OsIsXP@CTDLFindResultsListCtrl@@KAHXZ 0045f687 f   tdlfindresultslistctrl.obj
 0001:0005e6e0       ?SetSize@?$CArray@UFTDRESULT@@AAU1@@@QAEXHH@Z 0045f6e0 f i tdlfindresultslistctrl.obj
 0001:0005e7e9       ??1?$CArray@UFTDRESULT@@AAU1@@@UAE@XZ 0045f7e9 f i tdlfindresultslistctrl.obj
 0001:0005e825       ?Serialize@?$CArray@UFTDRESULT@@AAU1@@@UAEXAAVCArchive@@@Z 0045f825 f i tdlfindresultslistctrl.obj
 0001:0005e864       ??_E?$CArray@UFTDRESULT@@AAU1@@@UAEPAXI@Z 0045f864 f i tdlfindresultslistctrl.obj
 0001:0005e864       ??_G?$CArray@UFTDRESULT@@AAU1@@@UAEPAXI@Z 0045f864 f i tdlfindresultslistctrl.obj
 0001:0005e880       ?ConstructElements@@YGXPAUFTDRESULT@@H@Z 0045f880 f i tdlfindresultslistctrl.obj
 0001:0005e8c0       ?SerializeElements@@YGXAAVCArchive@@PAUFTDRESULT@@H@Z 0045f8c0 f i tdlfindresultslistctrl.obj
 0001:0005e8c0       ?SerializeElements@@YGXAAVCArchive@@PAUCOLUMNVIS@CTDLColumnListBox@@H@Z 0045f8c0 f i tdlfindresultslistctrl.obj
 0001:0005e8c0       ?SerializeElements@@YGXAAVCArchive@@PAUATTRIBPREF@CPreferencesTaskDefPage@@H@Z 0045f8c0 f i tdlfindresultslistctrl.obj
 0001:0005e8c0       ?SerializeElements@@YGXAAVCArchive@@PAUCTRLITEM@@H@Z 0045f8c0 f i tdlfindresultslistctrl.obj
 0001:0005e8c0       ?SerializeElements@@YGXAAVCArchive@@PAUCSVCOLUMNMAPPING@@H@Z 0045f8c0 f i tdlfindresultslistctrl.obj
 0001:0005e8c0       ?SerializeElements@@YGXAAVCArchive@@PAUATTRIBVIS@CTDLAttributeListBox@@H@Z 0045f8c0 f i tdlfindresultslistctrl.obj
 0001:0005e94b       ??0CTDLFindTaskAttributeComboBox@@QAE@XZ 0045f94b f   tdlfindtaskattributecombobox.obj
 0001:0005e972       ??_ECTDLFindTaskAttributeComboBox@@UAEPAXI@Z 0045f972 f i tdlfindtaskattributecombobox.obj
 0001:0005e972       ??_GCTDLFindTaskAttributeComboBox@@UAEPAXI@Z 0045f972 f i tdlfindtaskattributecombobox.obj
 0001:0005e98e       ??1CTDLFindTaskAttributeComboBox@@UAE@XZ 0045f98e f   tdlfindtaskattributecombobox.obj
 0001:0005e9c9       ?_GetBaseMessageMap@CTDLFindTaskAttributeComboBox@@KGPBUAFX_MSGMAP@@XZ 0045f9c9 f   tdlfindtaskattributecombobox.obj
 0001:0005e9c9       ?_GetBaseMessageMap@CTDLReminderPeriodComboBox@@KGPBUAFX_MSGMAP@@XZ 0045f9c9 f   tdlfindtaskattributecombobox.obj
 0001:0005e9c9       ?_GetBaseMessageMap@CTDLQuickFindComboBox@@KGPBUAFX_MSGMAP@@XZ 0045f9c9 f   tdlfindtaskattributecombobox.obj
 0001:0005e9c9       ?_GetBaseMessageMap@CTDLLanguageComboBox@@KGPBUAFX_MSGMAP@@XZ 0045f9c9 f   tdlfindtaskattributecombobox.obj
 0001:0005e9c9       ?_GetBaseMessageMap@CTDLTaskCtrlBase@@KGPBUAFX_MSGMAP@@XZ 0045f9c9 f   tdlfindtaskattributecombobox.obj
 0001:0005e9cf       ?GetMessageMap@CTDLFindTaskAttributeComboBox@@MBEPBUAFX_MSGMAP@@XZ 0045f9cf f   tdlfindtaskattributecombobox.obj
 0001:0005e9d5       ?SetCustomAttributes@CTDLFindTaskAttributeComboBox@@QAEXABVCTDCCustomAttribDefinitionArray@@@Z 0045f9d5 f   tdlfindtaskattributecombobox.obj
 0001:0005e9f9       ?SelectAttribute@CTDLFindTaskAttributeComboBox@@QAEHABUSEARCHPARAM@@@Z 0045f9f9 f   tdlfindtaskattributecombobox.obj
 0001:0005ea1b       ?GetSelectedAttribute@CTDLFindTaskAttributeComboBox@@QBEHAAUSEARCHPARAM@@@Z 0045fa1b f   tdlfindtaskattributecombobox.obj
 0001:0005eb69       ?GetSelectedAttributeText@CTDLFindTaskAttributeComboBox@@QBE?AVCString@@XZ 0045fb69 f   tdlfindtaskattributecombobox.obj
 0001:0005ebe3       ?BuildCombo@CTDLFindTaskAttributeComboBox@@IAEXXZ 0045fbe3 f   tdlfindtaskattributecombobox.obj
 0001:0005edb0       ?GetAttributeName@CTDLFindTaskAttributeComboBox@@QBE?AVCString@@ABUSEARCHPARAM@@@Z 0045fdb0 f   tdlfindtaskattributecombobox.obj
 0001:0005ef74       ?EncodeItemData@CTDLFindTaskAttributeComboBox@@IBEKW4TDC_ATTRIBUTE@@H@Z 0045ff74 f   tdlfindtaskattributecombobox.obj
 0001:0005ef97       ?AttributeIsDate@CTDLFindTaskAttributeComboBox@@IBEHW4TDC_ATTRIBUTE@@@Z 0045ff97 f   tdlfindtaskattributecombobox.obj
 0001:0005f029       ?DecodeItemData@CTDLFindTaskAttributeComboBox@@IBEXKAAW4TDC_ATTRIBUTE@@AAH@Z 00460029 f   tdlfindtaskattributecombobox.obj
 0001:0005f147       ??0CTDLFindTaskExpressionListCtrl@@QAE@XZ 00460147 f   TDLFindTaskExpressionListCtrl.obj
 0001:0005f246       ??_ECTDLFindTaskExpressionListCtrl@@UAEPAXI@Z 00460246 f i TDLFindTaskExpressionListCtrl.obj
 0001:0005f246       ??_GCTDLFindTaskExpressionListCtrl@@UAEPAXI@Z 00460246 f i TDLFindTaskExpressionListCtrl.obj
 0001:0005f262       ??1CTDLFindTaskExpressionListCtrl@@UAE@XZ 00460262 f   TDLFindTaskExpressionListCtrl.obj
 0001:0005f339       ?_GetBaseMessageMap@CTDLFindTaskExpressionListCtrl@@KGPBUAFX_MSGMAP@@XZ 00460339 f   TDLFindTaskExpressionListCtrl.obj
 0001:0005f339       ?_GetBaseMessageMap@CTDLColumnAttribVisibilityListCtrl@@KGPBUAFX_MSGMAP@@XZ 00460339 f   TDLFindTaskExpressionListCtrl.obj
 0001:0005f339       ?_GetBaseMessageMap@CTDLCsvAttributeSetupListCtrl@@KGPBUAFX_MSGMAP@@XZ 00460339 f   TDLFindTaskExpressionListCtrl.obj
 0001:0005f33f       ?GetMessageMap@CTDLFindTaskExpressionListCtrl@@MBEPBUAFX_MSGMAP@@XZ 0046033f f   TDLFindTaskExpressionListCtrl.obj
 0001:0005f345       ?PreSubclassWindow@CTDLFindTaskExpressionListCtrl@@MAEXXZ 00460345 f   TDLFindTaskExpressionListCtrl.obj
 0001:0005f5a7       ?SetCustomAttributes@CTDLFindTaskExpressionListCtrl@@QAEXABVCTDCCustomAttribDefinitionArray@@@Z 004605a7 f   TDLFindTaskExpressionListCtrl.obj
 0001:0005f5cd       ?SetAttributeListData@CTDLFindTaskExpressionListCtrl@@QAEXABUTDCAUTOLISTDATA@@@Z 004605cd f   TDLFindTaskExpressionListCtrl.obj
 0001:0005f5e2       ?Copy@TDCAUTOLISTDATA@@IAEXABU1@AAU1@H@Z 004605e2 f i TDLFindTaskExpressionListCtrl.obj
 0001:0005f6ad       ?SetSearchParams@CTDLFindTaskExpressionListCtrl@@QAEXABUSEARCHPARAM@@@Z 004606ad f   TDLFindTaskExpressionListCtrl.obj
 0001:0005f6f4       ?ClearSearch@CTDLFindTaskExpressionListCtrl@@QAEXXZ 004606f4 f   TDLFindTaskExpressionListCtrl.obj
 0001:0005f719       ?SetSearchParams@CTDLFindTaskExpressionListCtrl@@QAEXABV?$CArray@USEARCHPARAM@@U1@@@@Z 00460719 f   TDLFindTaskExpressionListCtrl.obj
 0001:0005f740       ?GetSearchParams@CTDLFindTaskExpressionListCtrl@@QBEHAAV?$CArray@USEARCHPARAM@@U1@@@@Z 00460740 f   TDLFindTaskExpressionListCtrl.obj
 0001:0005f75a       ?DeleteSelectedCell@CTDLFindTaskExpressionListCtrl@@MAEHXZ 0046075a f   TDLFindTaskExpressionListCtrl.obj
 0001:0005f7ee       ?GetEditControl@CTDLFindTaskExpressionListCtrl@@IAEPAVCWnd@@HH@Z 004607ee f   TDLFindTaskExpressionListCtrl.obj
 0001:0005f960       ?EditCell@CTDLFindTaskExpressionListCtrl@@MAEXHH@Z 00460960 f   TDLFindTaskExpressionListCtrl.obj
 0001:0005fa08       ?GetCellType@CTDLFindTaskExpressionListCtrl@@MBE?AW4IL_COLUMNTYPE@@HH@Z 00460a08 f   TDLFindTaskExpressionListCtrl.obj
 0001:0005fbcd       ?IsEditing@CTDLFindTaskExpressionListCtrl@@MBEHXZ 00460bcd f   TDLFindTaskExpressionListCtrl.obj
 0001:0005fc46       ?CanEditSelectedCell@CTDLFindTaskExpressionListCtrl@@MBEHXZ 00460c46 f   TDLFindTaskExpressionListCtrl.obj
 0001:0005fcf6       ?PrepareEdit@CTDLFindTaskExpressionListCtrl@@IAEXHH@Z 00460cf6 f   TDLFindTaskExpressionListCtrl.obj
 0001:0005fd4f       ?AddRule@CTDLFindTaskExpressionListCtrl@@QAEHXZ 00460d4f f   TDLFindTaskExpressionListCtrl.obj
 0001:0005fdd2       ?DeleteSelectedRule@CTDLFindTaskExpressionListCtrl@@QAEHXZ 00460dd2 f   TDLFindTaskExpressionListCtrl.obj
 0001:0005fe48       ?MoveSelectedRuleUp@CTDLFindTaskExpressionListCtrl@@QAEXXZ 00460e48 f   TDLFindTaskExpressionListCtrl.obj
 0001:0005ff19       ?InsertRule@CTDLFindTaskExpressionListCtrl@@IAEHHABUSEARCHPARAM@@@Z 00460f19 f   TDLFindTaskExpressionListCtrl.obj
 0001:0005ffd2       ?CanMoveSelectedRuleUp@CTDLFindTaskExpressionListCtrl@@QBEHXZ 00460fd2 f   TDLFindTaskExpressionListCtrl.obj
 0001:0005fff2       ?MoveSelectedRuleDown@CTDLFindTaskExpressionListCtrl@@QAEXXZ 00460ff2 f   TDLFindTaskExpressionListCtrl.obj
 0001:000600c3       ?CanMoveSelectedRuleDown@CTDLFindTaskExpressionListCtrl@@QBEHXZ 004610c3 f   TDLFindTaskExpressionListCtrl.obj
 0001:000600de       ?PrepareControl@CTDLFindTaskExpressionListCtrl@@MAEXAAVCWnd@@HH@Z 004610de f   TDLFindTaskExpressionListCtrl.obj
 0001:00060514       ?ValueAsDouble@SEARCHPARAM@@QBENXZ 00461514 f i TDLFindTaskExpressionListCtrl.obj
 0001:0006055f       ?ValueAsInteger@SEARCHPARAM@@QBEHXZ 0046155f f i TDLFindTaskExpressionListCtrl.obj
 0001:0006059e       ?ValueAsDate@SEARCHPARAM@@QBE?AVCOleDateTime@@XZ 0046159e f i TDLFindTaskExpressionListCtrl.obj
 0001:00060606       ?AddOperatorToCombo@CTDLFindTaskExpressionListCtrl@@IAEXW4FIND_OPERATOR@@@Z 00461606 f   TDLFindTaskExpressionListCtrl.obj
 0001:00060656       ?OnAttribEditCancel@CTDLFindTaskExpressionListCtrl@@IAEXXZ 00461656 f   TDLFindTaskExpressionListCtrl.obj
 0001:00060663       ?OnAttribEditOK@CTDLFindTaskExpressionListCtrl@@IAEXXZ 00461663 f   TDLFindTaskExpressionListCtrl.obj
 0001:00060788       ?OnSelItemChanged@CTDLFindTaskExpressionListCtrl@@IAEHPAUtagNMHDR@@PAJ@Z 00461788 f   TDLFindTaskExpressionListCtrl.obj
 0001:000607dc       ?OnValueEditOK@CTDLFindTaskExpressionListCtrl@@IAEXPAUtagNMHDR@@PAJ@Z 004617dc f   TDLFindTaskExpressionListCtrl.obj
 0001:0006084d       ?OnOperatorEditOK@CTDLFindTaskExpressionListCtrl@@IAEXXZ 0046184d f   TDLFindTaskExpressionListCtrl.obj
 0001:00060933       ?OnAndOrEditCancel@CTDLFindTaskExpressionListCtrl@@IAEXXZ 00461933 f   TDLFindTaskExpressionListCtrl.obj
 0001:00060940       ?OnAndOrEditOK@CTDLFindTaskExpressionListCtrl@@IAEXXZ 00461940 f   TDLFindTaskExpressionListCtrl.obj
 0001:00060a03       ?OnListValuesEditCancel@CTDLFindTaskExpressionListCtrl@@IAEXXZ 00461a03 f   TDLFindTaskExpressionListCtrl.obj
 0001:00060a10       ?OnListValuesEditOK@CTDLFindTaskExpressionListCtrl@@IAEXXZ 00461a10 f   TDLFindTaskExpressionListCtrl.obj
 0001:00060aad       ?OnPriorityEditCancel@CTDLFindTaskExpressionListCtrl@@IAEXXZ 00461aad f   TDLFindTaskExpressionListCtrl.obj
 0001:00060aba       ?OnPriorityEditOK@CTDLFindTaskExpressionListCtrl@@IAEXXZ 00461aba f   TDLFindTaskExpressionListCtrl.obj
 0001:00060b0e       ?OnRiskEditCancel@CTDLFindTaskExpressionListCtrl@@IAEXXZ 00461b0e f   TDLFindTaskExpressionListCtrl.obj
 0001:00060b1b       ?OnRiskEditOK@CTDLFindTaskExpressionListCtrl@@IAEXXZ 00461b1b f   TDLFindTaskExpressionListCtrl.obj
 0001:00060b6f       ?BuildListCtrl@CTDLFindTaskExpressionListCtrl@@IAEXXZ 00461b6f f   TDLFindTaskExpressionListCtrl.obj
 0001:00060ca7       ?RefreshAndOrColumnText@CTDLFindTaskExpressionListCtrl@@IAEXXZ 00461ca7 f   TDLFindTaskExpressionListCtrl.obj
 0001:00060d34       ?UpdateValueColumnText@CTDLFindTaskExpressionListCtrl@@IAEXH@Z 00461d34 f   TDLFindTaskExpressionListCtrl.obj
 0001:00060ec8       ?GetOpName@CTDLFindTaskExpressionListCtrl@@KA?AVCString@@W4FIND_OPERATOR@@@Z 00461ec8 f   TDLFindTaskExpressionListCtrl.obj
 0001:00060f41       ?OnDateChange@CTDLFindTaskExpressionListCtrl@@IAEXPAUtagNMHDR@@PAJ@Z 00461f41 f   TDLFindTaskExpressionListCtrl.obj
 0001:00060f9c       ?OnDateCloseUp@CTDLFindTaskExpressionListCtrl@@IAEXPAUtagNMHDR@@PAJ@Z 00461f9c f   TDLFindTaskExpressionListCtrl.obj
 0001:00060fb2       ?OnKillFocus@CTDLFindTaskExpressionListCtrl@@IAEXPAVCWnd@@@Z 00461fb2 f   TDLFindTaskExpressionListCtrl.obj
 0001:00060fd1       ?HideAllControls@CTDLFindTaskExpressionListCtrl@@IAEXPBVCWnd@@@Z 00461fd1 f   TDLFindTaskExpressionListCtrl.obj
 0001:00061073       ?OnTimeChange@CTDLFindTaskExpressionListCtrl@@IAEXXZ 00462073 f   TDLFindTaskExpressionListCtrl.obj
 0001:000610db       ?OnTimeUnitsChange@CTDLFindTaskExpressionListCtrl@@IAEJIJ@Z 004620db f   TDLFindTaskExpressionListCtrl.obj
 0001:00061117       ?OnSize@CTDLFindTaskExpressionListCtrl@@IAEXIHH@Z 00462117 f   TDLFindTaskExpressionListCtrl.obj
 0001:000611aa       ?OnCancelEdit@CTDLFindTaskExpressionListCtrl@@MAEXXZ 004621aa f   TDLFindTaskExpressionListCtrl.obj
 0001:000611bd       ?InitState@CTDLFindTaskExpressionListCtrl@@MAEXXZ 004621bd f   TDLFindTaskExpressionListCtrl.obj
 0001:0006120e       ?OnChar@CTDLFindTaskExpressionListCtrl@@IAEXIII@Z 0046220e f   TDLFindTaskExpressionListCtrl.obj
 0001:000612a2       ?PreTranslateMessage@CTDLFindTaskExpressionListCtrl@@MAEHPAUtagMSG@@@Z 004622a2 f   TDLFindTaskExpressionListCtrl.obj
 0001:00061320       ?InsertAt@?$CArray@USEARCHPARAM@@U1@@@QAEXHUSEARCHPARAM@@H@Z 00462320 f i TDLFindTaskExpressionListCtrl.obj
 0001:00061410       ?RemoveAt@?$CArray@USEARCHPARAM@@U1@@@QAEXHH@Z 00462410 f i TDLFindTaskExpressionListCtrl.obj
 0001:00061879       ??0CTDLFindTasksDlg@@QAE@PAVCWnd@@@Z 00462879 f   TDLFindTasksDlg.obj
 0001:000619fd       ??_ECTDLFindTasksDlg@@UAEPAXI@Z 004629fd f i TDLFindTasksDlg.obj
 0001:000619fd       ??_GCTDLFindTasksDlg@@UAEPAXI@Z 004629fd f i TDLFindTasksDlg.obj
 0001:00061a19       ??1CTDLFindTasksDlg@@UAE@XZ 00462a19 f   TDLFindTasksDlg.obj
 0001:00061b5b       ?DoDataExchange@CTDLFindTasksDlg@@MAEXPAVCDataExchange@@@Z 00462b5b f   TDLFindTasksDlg.obj
 0001:00061bd1       ?GetMessageMap@CTDLFindTasksDlg@@MBEPBUAFX_MSGMAP@@XZ 00462bd1 f   TDLFindTasksDlg.obj
 0001:00061bd7       ?OnInitDialog@CTDLFindTasksDlg@@MAEHXZ 00462bd7 f   TDLFindTasksDlg.obj
 0001:00061ccd       ?BuildOptionCombo@CTDLFindTasksDlg@@IAEXXZ 00462ccd f   TDLFindTasksDlg.obj
 0001:00061dcf       ?IncludeOptionIsChecked@CTDLFindTasksDlg@@IBEHW4FIND_INCLUDE@1@@Z 00462dcf f   TDLFindTasksDlg.obj
 0001:00061dfe       ?CheckIncludeOption@CTDLFindTasksDlg@@IAEXW4FIND_INCLUDE@1@H@Z 00462dfe f   TDLFindTasksDlg.obj
 0001:00061e23       ?SetUITheme@CTDLFindTasksDlg@@QAEXABVCUIThemeFile@@@Z 00462e23 f   TDLFindTasksDlg.obj
 0001:00061f40       ?InitializeToolbar@CTDLFindTasksDlg@@IAEHXZ 00462f40 f   TDLFindTasksDlg.obj
 0001:0006216b       ?OnAddRule@CTDLFindTasksDlg@@IAEXXZ 0046316b f   TDLFindTasksDlg.obj
 0001:0006218d       ?OnDeleteRule@CTDLFindTasksDlg@@IAEXXZ 0046318d f   TDLFindTasksDlg.obj
 0001:000621a4       ?OnUpdateDeleteRule@CTDLFindTasksDlg@@IAEXPAVCCmdUI@@@Z 004631a4 f   TDLFindTasksDlg.obj
 0001:000621c2       ?Initialize@CTDLFindTasksDlg@@QAEHPAVCWnd@@H@Z 004631c2 f   TDLFindTasksDlg.obj
 0001:00062201       ?LoadSettings@CTDLFindTasksDlg@@IAEXXZ 00463201 f   TDLFindTasksDlg.obj
 0001:000624b8       ?GetMinDockedSize@CTDLFindTasksDlg@@IAE?AVCSize@@W4DM_POS@@@Z 004634b8 f   TDLFindTasksDlg.obj
 0001:00062643       ?Show@CTDLFindTasksDlg@@QAEHH@Z 00463643 f   TDLFindTasksDlg.obj
 0001:00062716       ?SetCustomAttributes@CTDLFindTasksDlg@@QAEXABVCTDCCustomAttribDefinitionArray@@0@Z 00463716 f   TDLFindTasksDlg.obj
 0001:00062759       ?SetAttributeListData@CTDLFindTasksDlg@@QAEXABUTDCAUTOLISTDATA@@0@Z 00463759 f   TDLFindTasksDlg.obj
 0001:000627a2       ?AddResult@CTDLFindTasksDlg@@QAEXABUSEARCHRESULT@@PBG1PBVCFilteredToDoCtrl@@@Z 004637a2 f   TDLFindTasksDlg.obj
 0001:00062891       ?AddHeaderRow@CTDLFindTasksDlg@@QAEXPBG@Z 00463891 f   TDLFindTasksDlg.obj
 0001:000628a3       ?GetSearchAllTasklists@CTDLFindTasksDlg@@QAEHXZ 004638a3 f   TDLFindTasksDlg.obj
 0001:000628c8       ?GetSearchParams@CTDLFindTasksDlg@@QAEHPBGAAUFTDCCUSTOMFILTER@@@Z 004638c8 f   TDLFindTasksDlg.obj
 0001:000628ff       ?GetSearchParams@CTDLFindTasksDlg@@QAEHAAUFTDCCUSTOMFILTER@@@Z 004638ff f   TDLFindTasksDlg.obj
 0001:00062926       ?GetSearchParams@CTDLFindTasksDlg@@QAEHAAUSEARCHPARAMS@@@Z 00463926 f   TDLFindTasksDlg.obj
 0001:000629c9       ?GetSearchParams@CTDLFindTasksDlg@@QAEHPBGAAUSEARCHPARAMS@@@Z 004639c9 f   TDLFindTasksDlg.obj
 0001:00062a38       ?GetResultCount@CTDLFindTasksDlg@@QBEHXZ 00463a38 f   TDLFindTasksDlg.obj
 0001:00062a43       ?GetResultIDs@CTDLFindTasksDlg@@QBEHPBVCFilteredToDoCtrl@@AAVCDWordArray@@@Z 00463a43 f   TDLFindTasksDlg.obj
 0001:00062a59       ?OnFind@CTDLFindTasksDlg@@IAEXXZ 00463a59 f   TDLFindTasksDlg.obj
 0001:00062ab0       ?OnClose@CTDLFindTasksDlg@@IAEXXZ 00463ab0 f   TDLFindTasksDlg.obj
 0001:00062af0       ?OnSize@CTDLFindTasksDlg@@IAEXIHH@Z 00463af0 f   TDLFindTasksDlg.obj
 0001:00062b37       ?ResizeDlg@CTDLFindTasksDlg@@IAEXHH@Z 00463b37 f   TDLFindTasksDlg.obj
 0001:00062dda       ?OnItemActivated@CTDLFindTasksDlg@@IAEXPAUtagNMHDR@@PAJ@Z 00463dda f   TDLFindTasksDlg.obj
 0001:00062e28       ?OnDblClkResults@CTDLFindTasksDlg@@IAEXPAUtagNMHDR@@PAJ@Z 00463e28 f   TDLFindTasksDlg.obj
 0001:00062e69       ?OnDestroy@CTDLFindTasksDlg@@IAEXXZ 00463e69 f   TDLFindTasksDlg.obj
 0001:00062e81       ?SaveSettings@CTDLFindTasksDlg@@IAEXXZ 00463e81 f   TDLFindTasksDlg.obj
 0001:00063053       ?OnGetMinMaxInfo@CTDLFindTasksDlg@@IAEXPAUtagMINMAXINFO@@@Z 00464053 f   TDLFindTasksDlg.obj
 0001:00063098       ?PreTranslateMessage@CTDLFindTasksDlg@@UAEHPAUtagMSG@@@Z 00464098 f   TDLFindTasksDlg.obj
 0001:00063116       ?OnSelectall@CTDLFindTasksDlg@@IAEXXZ 00464116 f   TDLFindTasksDlg.obj
 0001:00063139       ?OnDockright@CTDLFindTasksDlg@@IAEXXZ 00464139 f   TDLFindTasksDlg.obj
 0001:00063186       ?OnUpdateDockright@CTDLFindTasksDlg@@IAEXPAVCCmdUI@@@Z 00464186 f   TDLFindTasksDlg.obj
 0001:000631a3       ?OnDockleft@CTDLFindTasksDlg@@IAEXXZ 004641a3 f   TDLFindTasksDlg.obj
 0001:000631ef       ?OnUpdateDockleft@CTDLFindTasksDlg@@IAEXPAVCCmdUI@@@Z 004641ef f   TDLFindTasksDlg.obj
 0001:0006320b       ?OnUndock@CTDLFindTasksDlg@@IAEXXZ 0046420b f   TDLFindTasksDlg.obj
 0001:00063242       ?OnUpdateUndock@CTDLFindTasksDlg@@IAEXPAVCCmdUI@@@Z 00464242 f   TDLFindTasksDlg.obj
 0001:0006325f       ?OnDockbelow@CTDLFindTasksDlg@@IAEXXZ 0046425f f   TDLFindTasksDlg.obj
 0001:000632ac       ?OnUpdateDockbelow@CTDLFindTasksDlg@@IAEXPAVCCmdUI@@@Z 004642ac f   TDLFindTasksDlg.obj
 0001:000632c9       ?DeleteResults@CTDLFindTasksDlg@@QAEXPBVCFilteredToDoCtrl@@@Z 004642c9 f   TDLFindTasksDlg.obj
 0001:0006330e       ?DeleteAllResults@CTDLFindTasksDlg@@QAEXXZ 0046430e f   TDLFindTasksDlg.obj
 0001:0006335b       ?OnItemchangingResults@CTDLFindTasksDlg@@IAEXPAUtagNMHDR@@PAJ@Z 0046435b f   TDLFindTasksDlg.obj
 0001:00063404       ?GetNextResult@CTDLFindTasksDlg@@IAEHHH@Z 00464404 f   TDLFindTasksDlg.obj
 0001:0006345a       ?SelectItem@CTDLFindTasksDlg@@IAEXH@Z 0046445a f   TDLFindTasksDlg.obj
 0001:0006347d       ?GetSelectedItem@CTDLFindTasksDlg@@IAEHXZ 0046447d f   TDLFindTasksDlg.obj
 0001:00063484       ?OnItemchangedRulelist@CTDLFindTasksDlg@@IAEXPAUtagNMHDR@@PAJ@Z 00464484 f   TDLFindTasksDlg.obj
 0001:000634b0       ?EnableApplyAsFilterButton@CTDLFindTasksDlg@@IAEXXZ 004644b0 f   TDLFindTasksDlg.obj
 0001:00063513       ?GetSavedSearches@CTDLFindTasksDlg@@QAEHAAVCStringArray@@@Z 00464513 f   TDLFindTasksDlg.obj
 0001:00063619       ?OnSaveSearch@CTDLFindTasksDlg@@IAEXXZ 00464619 f   TDLFindTasksDlg.obj
 0001:000636f7       ?LoadSearch@CTDLFindTasksDlg@@IAEHPBG@Z 004646f7 f   TDLFindTasksDlg.obj
 0001:0006378e       ?LoadSearch@CTDLFindTasksDlg@@IBEHPBGAAV?$CArray@USEARCHPARAM@@U1@@@AAH22@Z 0046478e f   TDLFindTasksDlg.obj
 0001:000639a1       ?SaveSearch@CTDLFindTasksDlg@@IAEHPBG@Z 004649a1 f   TDLFindTasksDlg.obj
 0001:00063b38       ?LoadSearches@CTDLFindTasksDlg@@IAEHXZ 00464b38 f   TDLFindTasksDlg.obj
 0001:00063d48       ?SaveSearches@CTDLFindTasksDlg@@IAEHXZ 00464d48 f   TDLFindTasksDlg.obj
 0001:00063e77       ?OnSelchangeSearchlist@CTDLFindTasksDlg@@IAEXXZ 00464e77 f   TDLFindTasksDlg.obj
 0001:00063f02       ?GetCurrentSearch@CTDLFindTasksDlg@@IAE?AVCString@@XZ 00464f02 f   TDLFindTasksDlg.obj
 0001:00063f61       ?OnNewSearch@CTDLFindTasksDlg@@IAEXXZ 00464f61 f   TDLFindTasksDlg.obj
 0001:00063f9e       ?OnDeleteSearch@CTDLFindTasksDlg@@IAEXXZ 00464f9e f   TDLFindTasksDlg.obj
 0001:000640fb       ?OnEditchangeSearchlist@CTDLFindTasksDlg@@IAEXXZ 004650fb f   TDLFindTasksDlg.obj
 0001:00064109       ?OnUpdateDeleteSearch@CTDLFindTasksDlg@@IAEXPAVCCmdUI@@@Z 00465109 f   TDLFindTasksDlg.obj
 0001:0006414f       ?OnUpdateSaveSearch@CTDLFindTasksDlg@@IAEXPAVCCmdUI@@@Z 0046514f f   TDLFindTasksDlg.obj
 0001:0006417e       ?RefreshSearch@CTDLFindTasksDlg@@QAEXXZ 0046517e f   TDLFindTasksDlg.obj
 0001:0006417e       ?OnOK@CTDLFindTasksDlg@@MAEXXZ 0046517e f   TDLFindTasksDlg.obj
 0001:00064183       ?OnMoveRuleUp@CTDLFindTasksDlg@@IAEXXZ 00465183 f   TDLFindTasksDlg.obj
 0001:0006418e       ?OnUpdateMoveRuleUp@CTDLFindTasksDlg@@IAEXPAVCCmdUI@@@Z 0046518e f   TDLFindTasksDlg.obj
 0001:000641ab       ?OnMoveRuleDown@CTDLFindTasksDlg@@IAEXXZ 004651ab f   TDLFindTasksDlg.obj
 0001:000641b6       ?OnUpdateMoveRuleDown@CTDLFindTasksDlg@@IAEXPAVCCmdUI@@@Z 004651b6 f   TDLFindTasksDlg.obj
 0001:000641d3       ?OnCtlColor@CTDLFindTasksDlg@@IAEPAUHBRUSH__@@PAVCDC@@PAVCWnd@@I@Z 004651d3 f   TDLFindTasksDlg.obj
 0001:0006422b       ?OnEraseBkgnd@CTDLFindTasksDlg@@IAEHPAVCDC@@@Z 0046522b f   TDLFindTasksDlg.obj
 0001:00064310       ?OnApplyasfilter@CTDLFindTasksDlg@@IAEXXZ 00465310 f   TDLFindTasksDlg.obj
 0001:0006439d       ?OnSelchangeTasklistoptions@CTDLFindTasksDlg@@IAEXXZ 0046539d f   TDLFindTasksDlg.obj
 0001:000643ec       ?OnSelchangeInclude@CTDLFindTasksDlg@@IAEXXZ 004653ec f   TDLFindTasksDlg.obj
 0001:00064411       ?OnFindHelp@CTDLFindTasksDlg@@IAEXXZ 00465411 f   TDLFindTasksDlg.obj
 0001:0006442b       ??1?$CArray@HH@@UAE@XZ     0046542b f i TDLFindTasksDlg.obj
 0001:00064467       ??_E?$CArray@HH@@UAEPAXI@Z 00465467 f i TDLFindTasksDlg.obj
 0001:00064467       ??_G?$CArray@HH@@UAEPAXI@Z 00465467 f i TDLFindTasksDlg.obj
 0001:00064507       ??0CTDLIconComboBox@@QAE@ABVCTDCImageList@@H@Z 00465507 f   tdliconcombobox.obj
 0001:0006456c       ?FreeHtmlBuffer@CTDCDefaultContent@@UAEXAAPAG@Z 0046556c f i tdliconcombobox.obj
 0001:0006456c       ?OnSetReadOnly@CEnEdit@@MAEXH@Z 0046556c f i tdliconcombobox.obj
 0001:0006456c       ?SetLocalizer@CTaskListCsvImporter@@UAEXPAVITransText@@@Z 0046556c f i tdliconcombobox.obj
 0001:0006456c       ?DoSnoozeReminder@CTDLShowReminderDlg@@MAEXABUTDCREMINDER@@@Z 0046556c f i tdliconcombobox.obj
 0001:0006456c       ?DoDataExchange@CWnd@@MAEXPAVCDataExchange@@@Z 0046556c f i tdliconcombobox.obj
 0001:0006456c       ?SetUITheme@CToDoCommentsCtrl@@UAEXPBUUITHEME@@@Z 0046556c f i tdliconcombobox.obj
 0001:0006456c       ?OnCheckChange@CCheckComboBox@@MAEXH@Z 0046556c f i tdliconcombobox.obj
 0001:0006456c       ?SetLocalizer@CTaskListCsvExporter@@UAEXPAVITransText@@@Z 0046556c f i tdliconcombobox.obj
 0001:0006456c       ?ScPostDetachWindow@CSubclasser@@MAEXPAUHWND__@@@Z 0046556c f i tdliconcombobox.obj
 0001:0006456c       ?Dump@CObject@@UBEXAAVCDumpContext@@@Z 0046556c f i tdliconcombobox.obj
 0001:0006456c       ?Serialize@CObject@@UAEXAAVCArchive@@@Z 0046556c f i tdliconcombobox.obj
 0001:0006456c       ?SetLocalizer@CTaskListTdlExporter@@UAEXPAVITransText@@@Z 0046556c f i tdliconcombobox.obj
 0001:0006456c       ?SetLocalizer@CTaskListTxtExporter@@UAEXPAVITransText@@@Z 0046556c f i tdliconcombobox.obj
 0001:0006456c       ?ScPreDetachWindow@CSubclasser@@MAEXPAUHWND__@@@Z 0046556c f i tdliconcombobox.obj
 0001:0006456c       ?SetLocalizer@CTaskListTdlImporter@@UAEXPAVITransText@@@Z 0046556c f i tdliconcombobox.obj
 0001:0006456c       ?SetLocalizer@CTaskListHtmlExporter@@UAEXPAVITransText@@@Z 0046556c f i tdliconcombobox.obj
 0001:0006456f       ??_GCTDLIconComboBox@@UAEPAXI@Z 0046556f f i tdliconcombobox.obj
 0001:0006456f       ??_ECTDLIconComboBox@@UAEPAXI@Z 0046556f f i tdliconcombobox.obj
 0001:0006458b       ??1CTDLIconComboBox@@UAE@XZ 0046558b f   tdliconcombobox.obj
 0001:000645a4       ?GetMessageMap@CTDLIconComboBox@@MBEPBUAFX_MSGMAP@@XZ 004655a4 f   tdliconcombobox.obj
 0001:000645aa       ?DrawItemText@CTDLIconComboBox@@MAEXAAVCDC@@ABVCRect@@HIKABVCString@@H@Z 004655aa f   tdliconcombobox.obj
 0001:00064719       ?SelectImage@CTDLIconComboBox@@QAEHABVCString@@@Z 00465719 f   tdliconcombobox.obj
 0001:00064786       ?GetSelectedImage@CTDLIconComboBox@@QBE?AVCString@@XZ 00465786 f   tdliconcombobox.obj
 0001:0006485b       ?GetChecked@CTDLIconComboBox@@UBEHAAVCStringArray@@@Z 0046585b f   tdliconcombobox.obj
 0001:00064915       ?SetChecked@CTDLIconComboBox@@UAEXABVCStringArray@@@Z 00465915 f   tdliconcombobox.obj
 0001:000649f1       ??_ECTDLIconComboBox@@WEM@AEPAXI@Z 004659f1 f i tdliconcombobox.obj
 0001:0006536e       ??0CTDLImportDialog@@QAE@ABVCImportExportMgr@@HPAVCWnd@@@Z 0046636e f   TDLImportDialog.obj
 0001:000654d5       ??_ECTDLImportDialog@@UAEPAXI@Z 004664d5 f i TDLImportDialog.obj
 0001:000654d5       ??_GCTDLImportDialog@@UAEPAXI@Z 004664d5 f i TDLImportDialog.obj
 0001:000654f1       ??1CTDLImportDialog@@UAE@XZ 004664f1 f i TDLImportDialog.obj
 0001:00065568       ?DoDataExchange@CTDLImportDialog@@MAEXPAVCDataExchange@@@Z 00466568 f   TDLImportDialog.obj
 0001:00065616       ?GetMessageMap@CTDLImportDialog@@MBEPBUAFX_MSGMAP@@XZ 00466616 f   TDLImportDialog.obj
 0001:0006561c       ?OnChangeImportFrom@CTDLImportDialog@@IAEXXZ 0046661c f   TDLImportDialog.obj
 0001:000656b2       ?OnInitDialog@CTDLImportDialog@@MAEHXZ 004666b2 f   TDLImportDialog.obj
 0001:0006586e       ?CurImporterHasFilter@CTDLImportDialog@@IBEHXZ 0046686e f   TDLImportDialog.obj
 0001:00065880       ?GetCurImporterFilter@CTDLImportDialog@@IBE?AVCString@@XZ 00466880 f   TDLImportDialog.obj
 0001:000658a3       ?OnOK@CTDLImportDialog@@MAEXXZ 004668a3 f   TDLImportDialog.obj
 0001:00065958       ?GetImporterIndex@CTDLImportDialog@@QBEHXZ 00466958 f   TDLImportDialog.obj
 0001:0006595f       ?GetImportTo@CTDLImportDialog@@QBE?AW4TDLID_IMPORTTO@@XZ 0046695f f   TDLImportDialog.obj
 0001:00065966       ?GetImportFromClipboard@CTDLImportDialog@@QBEHXZ 00466966 f   TDLImportDialog.obj
 0001:0006596d       ?GetImportFilePath@CTDLImportDialog@@QBE?AVCString@@XZ 0046696d f   TDLImportDialog.obj
 0001:000659e6       ?GetImportClipboardText@CTDLImportDialog@@QBE?AVCString@@XZ 004669e6 f   TDLImportDialog.obj
 0001:00065a5f       ?OnSelchangeFormatoptions@CTDLImportDialog@@IAEXXZ 00466a5f f   TDLImportDialog.obj
 0001:00065bcd       ?EnableOK@CTDLImportDialog@@IAEXXZ 00466bcd f   TDLImportDialog.obj
 0001:00065c36       ?OnChangeClipboardtext@CTDLImportDialog@@IAEXXZ 00466c36 f   TDLImportDialog.obj
 0001:00065c5a       ?OnChangeFilepath@CTDLImportDialog@@IAEXXZ 00466c5a f   TDLImportDialog.obj
 0001:00065c6d       ?OnRefreshclipboard@CTDLImportDialog@@IAEXXZ 00466c6d f   TDLImportDialog.obj
 0001:00065d0e       ?OnSize@CTDLImportDialog@@IAEXIHH@Z 00466d0e f   TDLImportDialog.obj
 0001:00065ea1       ?OnGetMinMaxInfo@CTDLImportDialog@@IAEXPAUtagMINMAXINFO@@@Z 00466ea1 f   TDLImportDialog.obj
 0001:00065ec3       ??0CTDLImportExportComboBox@@QAE@ABVCImportExportMgr@@HH@Z 00466ec3 f   tdlimportexportcombobox.obj
 0001:00065f12       ?HasIcon@CTDLImportExportComboBox@@MBEHXZ 00466f12 f i tdlimportexportcombobox.obj
 0001:00065f12       ?CanMultiSort@CToDoCtrl@@UBEHXZ 00466f12 f i tdlimportexportcombobox.obj
 0001:00065f12       ?HasIcon@CTDLIconComboBox@@MBEHXZ 00466f12 f i tdlimportexportcombobox.obj
 0001:00065f12       ?WantTaskContextMenu@CToDoCtrl@@UBEHXZ 00466f12 f i tdlimportexportcombobox.obj
 0001:00065f16       ??_GCTDLImportExportComboBox@@UAEPAXI@Z 00466f16 f i tdlimportexportcombobox.obj
 0001:00065f16       ??_ECTDLImportExportComboBox@@UAEPAXI@Z 00466f16 f i tdlimportexportcombobox.obj
 0001:00065f32       ??1CTDLImportExportComboBox@@UAE@XZ 00466f32 f   tdlimportexportcombobox.obj
 0001:00065f6d       ?_GetBaseMessageMap@CTDLContentTypeComboBox@@KGPBUAFX_MSGMAP@@XZ 00466f6d f   tdlimportexportcombobox.obj
 0001:00065f6d       ?_GetBaseMessageMap@CTDLRiskComboBox@@KGPBUAFX_MSGMAP@@XZ 00466f6d f   tdlimportexportcombobox.obj
 0001:00065f6d       ?_GetBaseMessageMap@CTDLImportExportComboBox@@KGPBUAFX_MSGMAP@@XZ 00466f6d f   tdlimportexportcombobox.obj
 0001:00065f73       ?GetMessageMap@CTDLImportExportComboBox@@MBEPBUAFX_MSGMAP@@XZ 00466f73 f   tdlimportexportcombobox.obj
 0001:00065f79       ?PreSubclassWindow@CTDLImportExportComboBox@@MAEXXZ 00466f79 f   tdlimportexportcombobox.obj
 0001:00065f8a       ?OnCreate@CTDLImportExportComboBox@@IAEHPAUtagCREATESTRUCTW@@@Z 00466f8a f   tdlimportexportcombobox.obj
 0001:00065fac       ?DrawItemText@CTDLImportExportComboBox@@MAEXAAVCDC@@ABVCRect@@HIKABVCString@@H@Z 00466fac f   tdlimportexportcombobox.obj
 0001:000660d5       ?BuildCombo@CTDLImportExportComboBox@@IAEXXZ 004670d5 f   tdlimportexportcombobox.obj
 0001:000661e9       ?GetImpExpMenuText@CTDLImportExportComboBox@@IBE?AVCString@@H@Z 004671e9 f   tdlimportexportcombobox.obj
 0001:00066213       ?GetImpExpFileExtension@CTDLImportExportComboBox@@IBE?AVCString@@H@Z 00467213 f   tdlimportexportcombobox.obj
 0001:0006623d       ?GetImpExpIcon@CTDLImportExportComboBox@@IBEPAUHICON__@@H@Z 0046723d f   tdlimportexportcombobox.obj
 0001:00068286       ??0CTDLImportExportMgr@@QAE@XZ 00469286 f   TDLImportExportMgr.obj
 0001:000682c0       ??_ECTDLImportExportMgr@@UAEPAXI@Z 004692c0 f i TDLImportExportMgr.obj
 0001:000682c0       ??_GCTDLImportExportMgr@@UAEPAXI@Z 004692c0 f i TDLImportExportMgr.obj
 0001:000682dc       ??1CTDLImportExportMgr@@UAE@XZ 004692dc f   TDLImportExportMgr.obj
 0001:00068317       ?Initialize@CTDLImportExportMgr@@MBEXXZ 00469317 f   TDLImportExportMgr.obj
 0001:00068466       ?ExportTaskListToHtml@CTDLImportExportMgr@@QBEHPBVITaskList@@PBGH@Z 00469466 f   TDLImportExportMgr.obj
 0001:0006847c       ?ExportTaskListToHtml@CTDLImportExportMgr@@QBE?AVCString@@PBVITaskList@@H@Z 0046947c f   TDLImportExportMgr.obj
 0001:00068582       ?ExportTaskListToText@CTDLImportExportMgr@@QBEHPBVITaskList@@PBGH@Z 00469582 f   TDLImportExportMgr.obj
 0001:00068598       ?ExportTaskListToText@CTDLImportExportMgr@@QBE?AVCString@@PBVITaskList@@H@Z 00469598 f   TDLImportExportMgr.obj
 0001:0006869e       ?ExportTaskList@CTDLImportExportMgr@@QBEHPBVITaskList@@PBGHH@Z 0046969e f   TDLImportExportMgr.obj
 0001:000686ef       ?ExportTaskLists@CTDLImportExportMgr@@QBEHPBVIMultiTaskList@@PBGHH@Z 004696ef f   TDLImportExportMgr.obj
 0001:00068740       ?ImportTaskList@CTDLImportExportMgr@@QBE?AW4IIMPORT_RESULT@@PBGPAVITaskList@@HH@Z 00469740 f   TDLImportExportMgr.obj
 0001:000687ad       ?SetTaskAttributesToDefaults@CTDLImportExportMgr@@IBEXPAVITaskList@@PAXH@Z 004697ad f   TDLImportExportMgr.obj
 0001:00068e0f       ??0OUTLOOK_FIELD@@QAE@W4OUTLOOK_FIELDTYPE@@IW4TDC_ATTRIBUTE@@@Z 00469e0f f i TDLImportOutlookObjectsDlg.obj
 0001:00068e63       ??0CTDLImportOutlookObjectsDlg@@QAE@AAV_MailItem@OutlookAPI@@PAVCWnd@@@Z 00469e63 f   TDLImportOutlookObjectsDlg.obj
 0001:00068f04       ??_ECTDLImportOutlookObjectsDlg@@UAEPAXI@Z 00469f04 f i TDLImportOutlookObjectsDlg.obj
 0001:00068f04       ??_GCTDLImportOutlookObjectsDlg@@UAEPAXI@Z 00469f04 f i TDLImportOutlookObjectsDlg.obj
 0001:00068f20       ??1CMSOutlookItemDataMap@@UAE@XZ 00469f20 f i TDLImportOutlookObjectsDlg.obj
 0001:00068f53       ??1CTDLImportOutlookObjectsDlg@@UAE@XZ 00469f53 f i TDLImportOutlookObjectsDlg.obj
 0001:00068fde       ?DoDataExchange@CTDLImportOutlookObjectsDlg@@MAEXPAVCDataExchange@@@Z 00469fde f   TDLImportOutlookObjectsDlg.obj
 0001:00069027       ?GetMessageMap@CTDLImportOutlookObjectsDlg@@MBEPBUAFX_MSGMAP@@XZ 0046a027 f   TDLImportOutlookObjectsDlg.obj
 0001:0006902d       ?OnInitDialog@CTDLImportOutlookObjectsDlg@@MAEHXZ 0046a02d f   TDLImportOutlookObjectsDlg.obj
 0001:000690e6       ?OnOK@CTDLImportOutlookObjectsDlg@@MAEXXZ 0046a0e6 f   TDLImportOutlookObjectsDlg.obj
 0001:000690fe       ?BuildMasterMapping@CTDLImportOutlookObjectsDlg@@IAEXXZ 0046a0fe f   TDLImportOutlookObjectsDlg.obj
 0001:00069332       ?RemoveUnwantedAttributes@CTDLImportOutlookObjectsDlg@@IBEXAAVCTDCCsvColumnMapping@@@Z 0046a332 f   TDLImportOutlookObjectsDlg.obj
 0001:000693a0       ?SaveMasterMapping@CTDLImportOutlookObjectsDlg@@IBEXXZ 0046a3a0 f   TDLImportOutlookObjectsDlg.obj
 0001:0006953e       ?UpdateMasterMapping@CTDLImportOutlookObjectsDlg@@IAEXXZ 0046a53e f   TDLImportOutlookObjectsDlg.obj
 0001:000695d5       ?GetOutlookFieldName@CTDLImportOutlookObjectsDlg@@SA?AVCString@@W4OUTLOOK_FIELDTYPE@@@Z 0046a5d5 f   TDLImportOutlookObjectsDlg.obj
 0001:0006963e       ?GetColumnMapping@CTDLImportOutlookObjectsDlg@@QAEHAAVCTDCCsvColumnMapping@@@Z 0046a63e f   TDLImportOutlookObjectsDlg.obj
 0001:00069669       ?FormatFieldAndData@CTDLImportOutlookObjectsDlg@@IBE?AVCString@@ABUOUTLOOK_FIELD@@@Z 0046a669 f   TDLImportOutlookObjectsDlg.obj
 0001:0006976c       ?OnHideAttributes@CTDLImportOutlookObjectsDlg@@IAEXXZ 0046a76c f   TDLImportOutlookObjectsDlg.obj
 0001:00069871       ?FindField@CTDLImportOutlookObjectsDlg@@KAHABVCTDCCsvColumnMapping@@W4OUTLOOK_FIELDTYPE@@@Z 0046a871 f   TDLImportOutlookObjectsDlg.obj
 0001:000698b4       ?Serialize@?$CMap@W4OUTLOOK_FIELDTYPE@@W41@VCString@@AAV2@@@UAEXAAVCArchive@@@Z 0046a8b4 f i TDLImportOutlookObjectsDlg.obj
 0001:00069991       ??_E?$CMap@W4OUTLOOK_FIELDTYPE@@W41@VCString@@AAV2@@@UAEPAXI@Z 0046a991 f i TDLImportOutlookObjectsDlg.obj
 0001:00069991       ??_G?$CMap@W4OUTLOOK_FIELDTYPE@@W41@VCString@@AAV2@@@UAEPAXI@Z 0046a991 f i TDLImportOutlookObjectsDlg.obj
 0001:000699ad       ??1?$CMap@W4OUTLOOK_FIELDTYPE@@W41@VCString@@AAV2@@@UAE@XZ 0046a9ad f i TDLImportOutlookObjectsDlg.obj
 0001:00069a0c       ??0CTDLImportOutlookObjectSetupListCtrl@@QAE@XZ 0046aa0c f   TDLImportOutlookObjectSetupListCtrl.obj
 0001:00069a22       ??_ECTDLImportOutlookObjectSetupListCtrl@@UAEPAXI@Z 0046aa22 f i TDLImportOutlookObjectSetupListCtrl.obj
 0001:00069a22       ??_GCTDLImportOutlookObjectSetupListCtrl@@UAEPAXI@Z 0046aa22 f i TDLImportOutlookObjectSetupListCtrl.obj
 0001:00069a3e       ??1CTDLImportOutlookObjectSetupListCtrl@@UAE@XZ 0046aa3e f   TDLImportOutlookObjectSetupListCtrl.obj
 0001:00069a49       ?GetMessageMap@CTDLImportOutlookObjectSetupListCtrl@@MBEPBUAFX_MSGMAP@@XZ 0046aa49 f   TDLImportOutlookObjectSetupListCtrl.obj
 0001:00069a4f       ?OnAttribEditOK@CTDLImportOutlookObjectSetupListCtrl@@IAEXXZ 0046aa4f f   TDLImportOutlookObjectSetupListCtrl.obj
 0001:00069b45       ??0CTDLKeyboardShortcutDisplayDlg@@QAE@ABVCStringArray@@GPAVCWnd@@@Z 0046ab45 f   TDLKeyboardShortcutDisplayDlg.obj
 0001:00069bb6       ??_ECTDLKeyboardShortcutDisplayDlg@@UAEPAXI@Z 0046abb6 f i TDLKeyboardShortcutDisplayDlg.obj
 0001:00069bb6       ??_GCTDLKeyboardShortcutDisplayDlg@@UAEPAXI@Z 0046abb6 f i TDLKeyboardShortcutDisplayDlg.obj
 0001:00069bd2       ??1CTDLKeyboardShortcutDisplayDlg@@UAE@XZ 0046abd2 f i TDLKeyboardShortcutDisplayDlg.obj
 0001:00069c2b       ?DoDataExchange@CTDLKeyboardShortcutDisplayDlg@@MAEXPAVCDataExchange@@@Z 0046ac2b f   TDLKeyboardShortcutDisplayDlg.obj
 0001:00069c50       ?GetMessageMap@CTDLKeyboardShortcutDisplayDlg@@MBEPBUAFX_MSGMAP@@XZ 0046ac50 f   TDLKeyboardShortcutDisplayDlg.obj
 0001:00069c56       ?OnInitDialog@CTDLKeyboardShortcutDisplayDlg@@MAEHXZ 0046ac56 f   TDLKeyboardShortcutDisplayDlg.obj
 0001:00069e18       ?OnCopyshortcuts@CTDLKeyboardShortcutDisplayDlg@@IAEXXZ 0046ae18 f   TDLKeyboardShortcutDisplayDlg.obj
 0001:00069f64       ?GetDefaultLanguage@CTDLLanguageComboBox@@SA?AVCString@@XZ 0046af64 f   TDLLanguageComboBox.obj
 0001:00069f7e       ??0CTDLLanguageComboBox@@QAE@PBG@Z 0046af7e f   TDLLanguageComboBox.obj
 0001:00069fdd       ??_ECTDLLanguageComboBox@@UAEPAXI@Z 0046afdd f i TDLLanguageComboBox.obj
 0001:00069fdd       ??_GCTDLLanguageComboBox@@UAEPAXI@Z 0046afdd f i TDLLanguageComboBox.obj
 0001:00069ff9       ??1CTDLLanguageComboBox@@UAE@XZ 0046aff9 f   TDLLanguageComboBox.obj
 0001:0006a04f       ?GetMessageMap@CTDLLanguageComboBox@@MBEPBUAFX_MSGMAP@@XZ 0046b04f f   TDLLanguageComboBox.obj
 0001:0006a055       ?PreSubclassWindow@CTDLLanguageComboBox@@MAEXXZ 0046b055 f   TDLLanguageComboBox.obj
 0001:0006a070       ?OnCreate@CTDLLanguageComboBox@@IAEHPAUtagCREATESTRUCTW@@@Z 0046b070 f   TDLLanguageComboBox.obj
 0001:0006a098       ?GetTranslationFolder@CTDLLanguageComboBox@@KA?AVCString@@XZ 0046b098 f   TDLLanguageComboBox.obj
 0001:0006a0b4       ?BuildLanguageList@CTDLLanguageComboBox@@IAEXXZ 0046b0b4 f   TDLLanguageComboBox.obj
 0001:0006a200       ?GetLanguageID@CTDLLanguageComboBox@@KAGABVCString@@@Z 0046b200 f   TDLLanguageComboBox.obj
 0001:0006a2b5       ?AddString@CTDLLanguageComboBox@@IAEHPBGPAUHBITMAP__@@G@Z 0046b2b5 f   TDLLanguageComboBox.obj
 0001:0006a3aa       ?SelectLanguageFile@CTDLLanguageComboBox@@QAEXPBG@Z 0046b3aa f   TDLLanguageComboBox.obj
 0001:0006a49e       ?OnDestroy@CTDLLanguageComboBox@@IAEXXZ 0046b49e f   TDLLanguageComboBox.obj
 0001:0006a4dc       ?GetSelectedLanguageFile@CTDLLanguageComboBox@@KA?AVCString@@PBG0H@Z 0046b4dc f   TDLLanguageComboBox.obj
 0001:0006a5a3       ?GetSelectedLanguageFile@CTDLLanguageComboBox@@QBE?AVCString@@H@Z 0046b5a3 f   TDLLanguageComboBox.obj
 0001:0006a653       ?IsDefaultLanguageSelected@CTDLLanguageComboBox@@QBEHXZ 0046b653 f   TDLLanguageComboBox.obj
 0001:0006a688       ?SelectLanguage@CTDLLanguageComboBox@@IAEHPBG@Z 0046b688 f   TDLLanguageComboBox.obj
 0001:0006a73c       ?SelectUserLanguage@CTDLLanguageComboBox@@QAEHXZ 0046b73c f   TDLLanguageComboBox.obj
 0001:0006a792       ?HasLanguages@CTDLLanguageComboBox@@SAHXZ 0046b792 f   TDLLanguageComboBox.obj
 0001:0006a7dc       ??_ECComboBoxEx@@UAEPAXI@Z 0046b7dc f i TDLLanguageComboBox.obj
 0001:0006a7dc       ??_GCComboBoxEx@@UAEPAXI@Z 0046b7dc f i TDLLanguageComboBox.obj
 0001:0006a7f8       ?SetImageList@CComboBoxEx@@QAEPAVCImageList@@PAV2@@Z 0046b7f8 f i TDLLanguageComboBox.obj
 0001:0006a81d       ??0CTDLLanguageDlg@@QAE@PAVCWnd@@@Z 0046b81d f   TDLLanguageDlg.obj
 0001:0006a866       ??_ECTDLLanguageDlg@@UAEPAXI@Z 0046b866 f i TDLLanguageDlg.obj
 0001:0006a866       ??_GCTDLLanguageDlg@@UAEPAXI@Z 0046b866 f i TDLLanguageDlg.obj
 0001:0006a882       ??1CTDLLanguageDlg@@UAE@XZ 0046b882 f i TDLLanguageDlg.obj
 0001:0006a8c9       ?DoDataExchange@CTDLLanguageDlg@@MAEXPAVCDataExchange@@@Z 0046b8c9 f   TDLLanguageDlg.obj
 0001:0006a8ee       ?GetMessageMap@CTDLLanguageDlg@@MBEPBUAFX_MSGMAP@@XZ 0046b8ee f   TDLLanguageDlg.obj
 0001:0006a8f4       ?OnInitDialog@CTDLLanguageDlg@@MAEHXZ 0046b8f4 f   TDLLanguageDlg.obj
 0001:0006a932       ?GetLanguageFile@CTDLLanguageDlg@@QBE?AVCString@@XZ 0046b932 f   TDLLanguageDlg.obj
 0001:0006a9a9       ??0CTDLMultiSortDlg@@QAE@ABUTDSORTCOLUMNS@@ABVCTDCColumnIDMap@@ABVCTDCCustomAttribDefinitionArray@@PAVCWnd@@@Z 0046b9a9 f   TDLMultiSortDlg.obj
 0001:0006aa40       ??_GCTDLMultiSortDlg@@UAEPAXI@Z 0046ba40 f i TDLMultiSortDlg.obj
 0001:0006aa40       ??_ECTDLMultiSortDlg@@UAEPAXI@Z 0046ba40 f i TDLMultiSortDlg.obj
 0001:0006aa5c       ??1CTDLMultiSortDlg@@UAE@XZ 0046ba5c f i TDLMultiSortDlg.obj
 0001:0006aac4       ?DoDataExchange@CTDLMultiSortDlg@@MAEXPAVCDataExchange@@@Z 0046bac4 f   TDLMultiSortDlg.obj
 0001:0006ab43       ?GetMessageMap@CTDLMultiSortDlg@@MBEPBUAFX_MSGMAP@@XZ 0046bb43 f   TDLMultiSortDlg.obj
 0001:0006ab49       ?OnInitDialog@CTDLMultiSortDlg@@MAEHXZ 0046bb49 f   TDLMultiSortDlg.obj
 0001:0006ab64       ?BuildCombos@CTDLMultiSortDlg@@IAEXXZ 0046bb64 f   TDLMultiSortDlg.obj
 0001:0006ada7       ?IsColumnVisible@CTDLMultiSortDlg@@IBEHW4TDC_COLUMN@@@Z 0046bda7 f   TDLMultiSortDlg.obj
 0001:0006add1       ?OnSelchangeSortby1@CTDLMultiSortDlg@@IAEXXZ 0046bdd1 f   TDLMultiSortDlg.obj
 0001:0006ae13       ?OnSelchangeSortby2@CTDLMultiSortDlg@@IAEXXZ 0046be13 f   TDLMultiSortDlg.obj
 0001:0006ae55       ?OnSelchangeSortby3@CTDLMultiSortDlg@@IAEXXZ 0046be55 f   TDLMultiSortDlg.obj
 0001:0006ae97       ?GetSortBy@CTDLMultiSortDlg@@QBEXAAUTDSORTCOLUMNS@@@Z 0046be97 f   TDLMultiSortDlg.obj
 0001:0006aee4       ?EnableControls@CTDLMultiSortDlg@@IAEXXZ 0046bee4 f   TDLMultiSortDlg.obj
 0001:0006af74       ??0CTDLOffsetDatesDlg@@QAE@PAVCWnd@@@Z 0046bf74 f   TDLOffsetDatesDlg.obj
 0001:0006b07b       ??_GCTDLOffsetDatesDlg@@UAEPAXI@Z 0046c07b f i TDLOffsetDatesDlg.obj
 0001:0006b07b       ??_ECTDLOffsetDatesDlg@@UAEPAXI@Z 0046c07b f i TDLOffsetDatesDlg.obj
 0001:0006b097       ??1CTDLOffsetDatesDlg@@UAE@XZ 0046c097 f i TDLOffsetDatesDlg.obj
 0001:0006b0cc       ?DoDataExchange@CTDLOffsetDatesDlg@@MAEXPAVCDataExchange@@@Z 0046c0cc f   TDLOffsetDatesDlg.obj
 0001:0006b16f       ?GetMessageMap@CTDLOffsetDatesDlg@@MBEPBUAFX_MSGMAP@@XZ 0046c16f f   TDLOffsetDatesDlg.obj
 0001:0006b175       ?GetOffsetWhat@CTDLOffsetDatesDlg@@QBEKXZ 0046c175 f   TDLOffsetDatesDlg.obj
 0001:0006b199       ?GetOffsetAmount@CTDLOffsetDatesDlg@@QBEHAAW4TDC_OFFSET@@@Z 0046c199 f   TDLOffsetDatesDlg.obj
 0001:0006b1b9       ?OnOK@CTDLOffsetDatesDlg@@MAEXXZ 0046c1b9 f   TDLOffsetDatesDlg.obj
 0001:0006b299       ??0CTDLPasteFromClipboardDlg@@QAE@ABVCImportExportMgr@@PAVCWnd@@@Z 0046c299 f   TDLPasteFromClipboardDlg.obj
 0001:0006b350       ??_ECTDLPasteFromClipboardDlg@@UAEPAXI@Z 0046c350 f i TDLPasteFromClipboardDlg.obj
 0001:0006b350       ??_GCTDLPasteFromClipboardDlg@@UAEPAXI@Z 0046c350 f i TDLPasteFromClipboardDlg.obj
 0001:0006b36c       ??1CTDLPasteFromClipboardDlg@@UAE@XZ 0046c36c f i TDLPasteFromClipboardDlg.obj
 0001:0006b3c5       ?DoDataExchange@CTDLPasteFromClipboardDlg@@MAEXPAVCDataExchange@@@Z 0046c3c5 f   TDLPasteFromClipboardDlg.obj
 0001:0006b440       ?GetMessageMap@CTDLPasteFromClipboardDlg@@MBEPBUAFX_MSGMAP@@XZ 0046c440 f   TDLPasteFromClipboardDlg.obj
 0001:0006b446       ?OnOK@CTDLPasteFromClipboardDlg@@MAEXXZ 0046c446 f   TDLPasteFromClipboardDlg.obj
 0001:0006b498       ?OnInitDialog@CTDLPasteFromClipboardDlg@@MAEHXZ 0046c498 f   TDLPasteFromClipboardDlg.obj
 0001:0006b4ac       ?OnRefresh@CTDLPasteFromClipboardDlg@@IAEXXZ 0046c4ac f   TDLPasteFromClipboardDlg.obj
 0001:0006b4f9       ?OnDestroy@CTDLPrefMigrationDlg@@IAEXXZ 0046c4f9 f   TDLPrefMigrationDlg.obj
 0001:0006be19       ??0CTDLPrintDialog@@QAE@PBGHW4FTC_VIEW@@PAVCWnd@@@Z 0046ce19 f   TDLPrintDialog.obj
 0001:0006c0ad       ??_GCTDLPrintDialog@@UAEPAXI@Z 0046d0ad f i TDLPrintDialog.obj
 0001:0006c0ad       ??_ECTDLPrintDialog@@UAEPAXI@Z 0046d0ad f i TDLPrintDialog.obj
 0001:0006c0c9       ??1CTDLPrintDialog@@UAE@XZ 0046d0c9 f i TDLPrintDialog.obj
 0001:0006c14f       ?DoDataExchange@CTDLPrintDialog@@MAEXPAVCDataExchange@@@Z 0046d14f f   TDLPrintDialog.obj
 0001:0006c1dc       ?GetMessageMap@CTDLPrintDialog@@MBEPBUAFX_MSGMAP@@XZ 0046d1dc f   TDLPrintDialog.obj
 0001:0006c1e2       ?OnOK@CTDLPrintDialog@@UAEXXZ 0046d1e2 f   TDLPrintDialog.obj
 0001:0006c2e3       ?OnInitDialog@CTDLPrintDialog@@MAEHXZ 0046d2e3 f   TDLPrintDialog.obj
 0001:0006c435       ?OnUsestylesheet@CTDLPrintDialog@@IAEXXZ 0046d435 f   TDLPrintDialog.obj
 0001:0006c517       ?OnChangeStylesheet@CTDLPrintDialog@@IAEXXZ 0046d517 f   TDLPrintDialog.obj
 0001:0006c585       ?GetStylesheet@CTDLPrintDialog@@QBE?AVCString@@XZ 0046d585 f   TDLPrintDialog.obj
 0001:0006c640       ??0CTDLPriorityComboBox@@QAE@XZ 0046d640 f   TDLPriorityComboBox.obj
 0001:0006c68c       ?SelectString@CAutoComboBox@@UAEHHPBG@Z 0046d68c f i TDLPriorityComboBox.obj
 0001:0006c6a5       ??_GCTDLPriorityComboBox@@UAEPAXI@Z 0046d6a5 f i TDLPriorityComboBox.obj
 0001:0006c6a5       ??_ECTDLPriorityComboBox@@UAEPAXI@Z 0046d6a5 f i TDLPriorityComboBox.obj
 0001:0006c6c1       ??1CTDLPriorityComboBox@@UAE@XZ 0046d6c1 f   TDLPriorityComboBox.obj
 0001:0006c70d       ?_GetBaseMessageMap@CTDLPriorityComboBox@@KGPBUAFX_MSGMAP@@XZ 0046d70d f   TDLPriorityComboBox.obj
 0001:0006c713       ?GetMessageMap@CTDLPriorityComboBox@@MBEPBUAFX_MSGMAP@@XZ 0046d713 f   TDLPriorityComboBox.obj
 0001:0006c719       ?OnCreate@CTDLPriorityComboBox@@IAEHPAUtagCREATESTRUCTW@@@Z 0046d719 f   TDLPriorityComboBox.obj
 0001:0006c73b       ?PreSubclassWindow@CTDLPriorityComboBox@@MAEXXZ 0046d73b f   TDLPriorityComboBox.obj
 0001:0006c74c       ?IncrementPriority@CTDLPriorityComboBox@@QAEHH@Z 0046d74c f   TDLPriorityComboBox.obj
 0001:0006c796       ?GetSelectedPriority@CTDLPriorityComboBox@@QBEHXZ 0046d796 f   TDLPriorityComboBox.obj
 0001:0006c7a7       ?SetSelectedPriority@CTDLPriorityComboBox@@QAEXH@Z 0046d7a7 f   TDLPriorityComboBox.obj
 0001:0006c7a7       ?SetSelectedRisk@CTDLRiskComboBox@@QAEXH@Z 0046d7a7 f   TDLPriorityComboBox.obj
 0001:0006c7d7       ?SetColors@CTDLPriorityComboBox@@QAEHABVCDWordArray@@@Z 0046d7d7 f   TDLPriorityComboBox.obj
 0001:0006c80c       ?BuildCombo@CTDLPriorityComboBox@@IAEXXZ 0046d80c f   TDLPriorityComboBox.obj
 0001:0006c934       ??_ECTDLPriorityComboBox@@WEM@AEPAXI@Z 0046d934 f i TDLPriorityComboBox.obj
 0001:0006c968       ?_GetBaseClass@CTDLReminderPeriodComboBox@@KGPAUCRuntimeClass@@XZ 0046d968 f   TDLQuickFindComboBox.obj
 0001:0006c968       ?_GetBaseClass@CTDLQuickFindComboBox@@KGPAUCRuntimeClass@@XZ 0046d968 f   TDLQuickFindComboBox.obj
 0001:0006c96e       ?GetRuntimeClass@CTDLQuickFindComboBox@@UBEPAUCRuntimeClass@@XZ 0046d96e f   TDLQuickFindComboBox.obj
 0001:0006c974       ??0CTDLQuickFindComboBox@@QAE@K@Z 0046d974 f   TDLQuickFindComboBox.obj
 0001:0006c99a       ??_GCTDLQuickFindComboBox@@UAEPAXI@Z 0046d99a f i TDLQuickFindComboBox.obj
 0001:0006c99a       ??_ECTDLQuickFindComboBox@@UAEPAXI@Z 0046d99a f i TDLQuickFindComboBox.obj
 0001:0006c9b6       ??1CTDLQuickFindComboBox@@UAE@XZ 0046d9b6 f   TDLQuickFindComboBox.obj
 0001:0006c9cf       ?GetMessageMap@CTDLQuickFindComboBox@@MBEPBUAFX_MSGMAP@@XZ 0046d9cf f   TDLQuickFindComboBox.obj
 0001:0006c9d5       ??_ECTDLQuickFindComboBox@@WEM@AEPAXI@Z 0046d9d5 f i TDLQuickFindComboBox.obj
 0001:0006caaf       ?SetDefaultButtonTip@CTDLRecurringTaskEdit@@SAXPBG@Z 0046daaf f   TDLRecurringTaskEdit.obj
 0001:0006cac9       ??0CTDLRecurringTaskEdit@@QAE@XZ 0046dac9 f   TDLRecurringTaskEdit.obj
 0001:0006cb8c       ??_GCTDLRecurringTaskEdit@@UAEPAXI@Z 0046db8c f i TDLRecurringTaskEdit.obj
 0001:0006cb8c       ??_ECTDLRecurringTaskEdit@@UAEPAXI@Z 0046db8c f i TDLRecurringTaskEdit.obj
 0001:0006cba8       ??1CTDLRecurringTaskEdit@@UAE@XZ 0046dba8 f   TDLRecurringTaskEdit.obj
 0001:0006cbb3       ?_GetBaseMessageMap@CTDLRecurringTaskEdit@@KGPBUAFX_MSGMAP@@XZ 0046dbb3 f   TDLRecurringTaskEdit.obj
 0001:0006cbb9       ?GetMessageMap@CTDLRecurringTaskEdit@@MBEPBUAFX_MSGMAP@@XZ 0046dbb9 f   TDLRecurringTaskEdit.obj
 0001:0006cbbf       ?PreSubclassWindow@CTDLRecurringTaskEdit@@MAEXXZ 0046dbbf f   TDLRecurringTaskEdit.obj
 0001:0006cc09       ?OnBtnClick@CTDLRecurringTaskEdit@@MAEXI@Z 0046dc09 f   TDLRecurringTaskEdit.obj
 0001:0006cc1a       ?DoEdit@CTDLRecurringTaskEdit@@QAEHH@Z 0046dc1a f   TDLRecurringTaskEdit.obj
 0001:0006cd45       ??1CTDLRecurringTaskOptionDlg@@UAE@XZ 0046dd45 f i TDLRecurringTaskEdit.obj
 0001:0006cde0       ??1CTDLRecurringTaskOnceOptionPage@@UAE@XZ 0046dde0 f i TDLRecurringTaskEdit.obj
 0001:0006cdeb       ??_GCTDLRecurringTaskOnceOptionPage@@UAEPAXI@Z 0046ddeb f i TDLRecurringTaskEdit.obj
 0001:0006cdeb       ??_ECTDLRecurringTaskOnceOptionPage@@UAEPAXI@Z 0046ddeb f i TDLRecurringTaskEdit.obj
 0001:0006ce07       ?OnSetCursor@CTDLRecurringTaskEdit@@IAEHPAVCWnd@@II@Z 0046de07 f   TDLRecurringTaskEdit.obj
 0001:0006ce26       ?CtlColor@CTDLRecurringTaskEdit@@IAEPAUHBRUSH__@@PAVCDC@@I@Z 0046de26 f   TDLRecurringTaskEdit.obj
 0001:0006ce58       ?GetRecurrenceOptions@CTDLRecurringTaskEdit@@QBEXAAUTDCRECURRENCE@@@Z 0046de58 f   TDLRecurringTaskEdit.obj
 0001:0006ce6e       ?SetRecurrenceOptions@CTDLRecurringTaskEdit@@QAEXABUTDCRECURRENCE@@@Z 0046de6e f   TDLRecurringTaskEdit.obj
 0001:0006cece       ?OnSetReadOnly@CTDLRecurringTaskEdit@@IAEJIJ@Z 0046dece f   TDLRecurringTaskEdit.obj
 0001:0006cf3f       ?OnStyleChanging@CTDLRecurringTaskEdit@@IAEXHPAUtagSTYLESTRUCT@@@Z 0046df3f f   TDLRecurringTaskEdit.obj
 0001:0006cf9c       ??0CTDLRecurringTaskOptionDlg@@QAE@ABUTDCRECURRENCE@@ABVCOleDateTime@@PAVCWnd@@@Z 0046df9c f   TDLRecurringTaskEdit.obj
 0001:0006d167       ??_GCTDLRecurringTaskOptionDlg@@UAEPAXI@Z 0046e167 f i TDLRecurringTaskEdit.obj
 0001:0006d167       ??_ECTDLRecurringTaskOptionDlg@@UAEPAXI@Z 0046e167 f i TDLRecurringTaskEdit.obj
 0001:0006d183       ?DoDataExchange@CTDLRecurringTaskOptionDlg@@MAEXPAVCDataExchange@@@Z 0046e183 f   TDLRecurringTaskEdit.obj
 0001:0006d1f3       ?GetMessageMap@CTDLRecurringTaskOptionDlg@@MBEPBUAFX_MSGMAP@@XZ 0046e1f3 f   TDLRecurringTaskEdit.obj
 0001:0006d1f9       ?GetRecurrenceOptions@CTDLRecurringTaskOptionDlg@@QBE?AW4TDI_REGULARITY@@AAUTDCRECURRENCE@@@Z 0046e1f9 f   TDLRecurringTaskEdit.obj
 0001:0006d2a7       ?OnEndAfterNumRecur@CTDLRecurringTaskOptionDlg@@IAEXXZ 0046e2a7 f   TDLRecurringTaskEdit.obj
 0001:0006d2e9       ?OnChangeFrequency@CTDLRecurringTaskOptionDlg@@IAEXXZ 0046e2e9 f   TDLRecurringTaskEdit.obj
 0001:0006d452       ?OnInitDialog@CTDLRecurringTaskOptionDlg@@MAEHXZ 0046e452 f   TDLRecurringTaskEdit.obj
 0001:0006d47c       ?OnOK@CTDLRecurringTaskOptionDlg@@MAEXXZ 0046e47c f   TDLRecurringTaskEdit.obj
 0001:0006d491       ??0CTDLRecurringTaskOnceOptionPage@@QAE@XZ 0046e491 f   TDLRecurringTaskEdit.obj
 0001:0006d4aa       ??0CTDLRecurringTaskDailyOptionPage@@QAE@ABUTDCRECURRENCE@@ABVCOleDateTime@@@Z 0046e4aa f   TDLRecurringTaskEdit.obj
 0001:0006d546       ??_GCTDLRecurringTaskDailyOptionPage@@UAEPAXI@Z 0046e546 f i TDLRecurringTaskEdit.obj
 0001:0006d546       ??_ECTDLRecurringTaskDailyOptionPage@@UAEPAXI@Z 0046e546 f i TDLRecurringTaskEdit.obj
 0001:0006d562       ??1CTDLRecurringTaskDailyOptionPage@@UAE@XZ 0046e562 f   TDLRecurringTaskEdit.obj
 0001:0006d56d       ?DoDataExchange@CTDLRecurringTaskDailyOptionPage@@MAEXPAVCDataExchange@@@Z 0046e56d f   TDLRecurringTaskEdit.obj
 0001:0006d5b3       ?GetMessageMap@CTDLRecurringTaskDailyOptionPage@@MBEPBUAFX_MSGMAP@@XZ 0046e5b3 f   TDLRecurringTaskEdit.obj
 0001:0006d5b9       ?OnInitDialog@CTDLRecurringTaskDailyOptionPage@@MAEHXZ 0046e5b9 f   TDLRecurringTaskEdit.obj
 0001:0006d5d6       ?GetRecurrenceOptions@CTDLRecurringTaskDailyOptionPage@@QBEXAAUTDCRECURRENCE@@@Z 0046e5d6 f   TDLRecurringTaskEdit.obj
 0001:0006d60e       ?OnChangeDailyValues@CTDLRecurringTaskDailyOptionPage@@IAEXXZ 0046e60e f   TDLRecurringTaskEdit.obj
 0001:0006d659       ??0CTDLRecurringTaskWeeklyOptionPage@@QAE@ABUTDCRECURRENCE@@ABVCOleDateTime@@@Z 0046e659 f   TDLRecurringTaskEdit.obj
 0001:0006d72c       ??_ECTDLRecurringTaskWeeklyOptionPage@@UAEPAXI@Z 0046e72c f i TDLRecurringTaskEdit.obj
 0001:0006d72c       ??_GCTDLRecurringTaskWeeklyOptionPage@@UAEPAXI@Z 0046e72c f i TDLRecurringTaskEdit.obj
 0001:0006d748       ??1CTDLRecurringTaskWeeklyOptionPage@@UAE@XZ 0046e748 f   TDLRecurringTaskEdit.obj
 0001:0006d786       ?DoDataExchange@CTDLRecurringTaskWeeklyOptionPage@@MAEXPAVCDataExchange@@@Z 0046e786 f   TDLRecurringTaskEdit.obj
 0001:0006d801       ?GetMessageMap@CTDLRecurringTaskWeeklyOptionPage@@MBEPBUAFX_MSGMAP@@XZ 0046e801 f   TDLRecurringTaskEdit.obj
 0001:0006d807       ?OnInitDialog@CTDLRecurringTaskWeeklyOptionPage@@MAEHXZ 0046e807 f   TDLRecurringTaskEdit.obj
 0001:0006d843       ?GetRecurrenceOptions@CTDLRecurringTaskWeeklyOptionPage@@QBEXAAUTDCRECURRENCE@@@Z 0046e843 f   TDLRecurringTaskEdit.obj
 0001:0006d877       ?OnChangeWeeklyValues@CTDLRecurringTaskWeeklyOptionPage@@IAEXXZ 0046e877 f   TDLRecurringTaskEdit.obj
 0001:0006d8e2       ??0CTDLRecurringTaskMonthlyOptionPage@@QAE@ABUTDCRECURRENCE@@ABVCOleDateTime@@@Z 0046e8e2 f   TDLRecurringTaskEdit.obj
 0001:0006da69       ??_ECTDLRecurringTaskMonthlyOptionPage@@UAEPAXI@Z 0046ea69 f i TDLRecurringTaskEdit.obj
 0001:0006da69       ??_GCTDLRecurringTaskMonthlyOptionPage@@UAEPAXI@Z 0046ea69 f i TDLRecurringTaskEdit.obj
 0001:0006da85       ??1CTDLRecurringTaskMonthlyOptionPage@@UAE@XZ 0046ea85 f   TDLRecurringTaskEdit.obj
 0001:0006dae4       ?DoDataExchange@CTDLRecurringTaskMonthlyOptionPage@@MAEXPAVCDataExchange@@@Z 0046eae4 f   TDLRecurringTaskEdit.obj
 0001:0006db94       ?GetMessageMap@CTDLRecurringTaskMonthlyOptionPage@@MBEPBUAFX_MSGMAP@@XZ 0046eb94 f   TDLRecurringTaskEdit.obj
 0001:0006db9a       ?OnInitDialog@CTDLRecurringTaskMonthlyOptionPage@@MAEHXZ 0046eb9a f   TDLRecurringTaskEdit.obj
 0001:0006dc0c       ?GetRecurrenceOptions@CTDLRecurringTaskMonthlyOptionPage@@QBEXAAUTDCRECURRENCE@@@Z 0046ec0c f   TDLRecurringTaskEdit.obj
 0001:0006dc84       ?OnChangeMonthlyValues@CTDLRecurringTaskMonthlyOptionPage@@IAEXXZ 0046ec84 f   TDLRecurringTaskEdit.obj
 0001:0006dd4f       ?OnChangeSpecificWeek@CTDLRecurringTaskMonthlyOptionPage@@IAEXXZ 0046ed4f f   TDLRecurringTaskEdit.obj
 0001:0006dd75       ?OnChangeWeekday@CTDLRecurringTaskMonthlyOptionPage@@IAEXXZ 0046ed75 f   TDLRecurringTaskEdit.obj
 0001:0006dd9b       ?FixupWeekdayCombo@CTDLRecurringTaskMonthlyOptionPage@@IAEXHH@Z 0046ed9b f   TDLRecurringTaskEdit.obj
 0001:0006de22       ?FixupSpecificWeekCombo@CTDLRecurringTaskMonthlyOptionPage@@IAEXHH@Z 0046ee22 f   TDLRecurringTaskEdit.obj
 0001:0006df1d       ??0CTDLRecurringTaskYearlyOptionPage@@QAE@ABUTDCRECURRENCE@@ABVCOleDateTime@@@Z 0046ef1d f   TDLRecurringTaskEdit.obj
 0001:0006e058       ??_ECTDLRecurringTaskYearlyOptionPage@@UAEPAXI@Z 0046f058 f i TDLRecurringTaskEdit.obj
 0001:0006e058       ??_GCTDLRecurringTaskYearlyOptionPage@@UAEPAXI@Z 0046f058 f i TDLRecurringTaskEdit.obj
 0001:0006e074       ??1CTDLRecurringTaskYearlyOptionPage@@UAE@XZ 0046f074 f   TDLRecurringTaskEdit.obj
 0001:0006e0d3       ?DoDataExchange@CTDLRecurringTaskYearlyOptionPage@@MAEXPAVCDataExchange@@@Z 0046f0d3 f   TDLRecurringTaskEdit.obj
 0001:0006e195       ?GetMessageMap@CTDLRecurringTaskYearlyOptionPage@@MBEPBUAFX_MSGMAP@@XZ 0046f195 f   TDLRecurringTaskEdit.obj
 0001:0006e19b       ?OnInitDialog@CTDLRecurringTaskYearlyOptionPage@@MAEHXZ 0046f19b f   TDLRecurringTaskEdit.obj
 0001:0006e1b8       ?GetRecurrenceOptions@CTDLRecurringTaskYearlyOptionPage@@QBEXAAUTDCRECURRENCE@@@Z 0046f1b8 f   TDLRecurringTaskEdit.obj
 0001:0006e21b       ?OnChangeYearlyValues@CTDLRecurringTaskYearlyOptionPage@@IAEXXZ 0046f21b f   TDLRecurringTaskEdit.obj
 0001:0006e2e6       ?GetRuntimeClass@CTDLReminderPeriodComboBox@@UBEPAUCRuntimeClass@@XZ 0046f2e6 f   TDLReminderPeriodComboBox.obj
 0001:0006e2ec       ??0CTDLReminderPeriodComboBox@@QAE@K@Z 0046f2ec f   TDLReminderPeriodComboBox.obj
 0001:0006e307       ??_GCTDLReminderPeriodComboBox@@UAEPAXI@Z 0046f307 f i TDLReminderPeriodComboBox.obj
 0001:0006e307       ??_ECTDLReminderPeriodComboBox@@UAEPAXI@Z 0046f307 f i TDLReminderPeriodComboBox.obj
 0001:0006e323       ??1CTDLReminderPeriodComboBox@@UAE@XZ 0046f323 f   TDLReminderPeriodComboBox.obj
 0001:0006e32e       ?GetMessageMap@CTDLReminderPeriodComboBox@@MBEPBUAFX_MSGMAP@@XZ 0046f32e f   TDLReminderPeriodComboBox.obj
 0001:0006e334       ?PreSubclassWindow@CTDLReminderPeriodComboBox@@MAEXXZ 0046f334 f   TDLReminderPeriodComboBox.obj
 0001:0006e355       ?OnCreate@CTDLReminderPeriodComboBox@@IAEHPAUtagCREATESTRUCTW@@@Z 0046f355 f   TDLReminderPeriodComboBox.obj
 0001:0006e37b       ?BuildCombo@CTDLReminderPeriodComboBox@@IAEXXZ 0046f37b f   TDLReminderPeriodComboBox.obj
 0001:0006e3cb       ?SetSelectedPeriod@CTDLReminderPeriodComboBox@@QAEHI@Z 0046f3cb f   TDLReminderPeriodComboBox.obj
 0001:0006e3e8       ?GetSelectedPrimaryLanguageID@CTDLLanguageComboBox@@QBEGXZ 0046f3e8 f   TDLReminderPeriodComboBox.obj
 0001:0006e3e8       ?GetSelectedFilter@CTDLFilterComboBox@@QBE?AW4FILTER_SHOW@@XZ 0046f3e8 f   TDLReminderPeriodComboBox.obj
 0001:0006e3e8       ?GetSelectedPeriod@CTDLReminderPeriodComboBox@@QBEIXZ 0046f3e8 f   TDLReminderPeriodComboBox.obj
 0001:0006e3f0       ?ValidateLeadin@CTDLReminderPeriodComboBox@@IAEXAAI@Z 0046f3f0 f   TDLReminderPeriodComboBox.obj
 0001:0006e428       ??0CTDLReuseRecurringTaskDlg@@QAE@PAVCWnd@@@Z 0046f428 f   TDLReuseRecurringTaskDlg.obj
 0001:0006e449       ??_GCTDLReuseRecurringTaskDlg@@UAEPAXI@Z 0046f449 f i TDLReuseRecurringTaskDlg.obj
 0001:0006e449       ??_ECTDLReuseRecurringTaskDlg@@UAEPAXI@Z 0046f449 f i TDLReuseRecurringTaskDlg.obj
 0001:0006e465       ??1CTDLReuseRecurringTaskDlg@@UAE@XZ 0046f465 f i TDLReuseRecurringTaskDlg.obj
 0001:0006e465       ??1CCommonDialog@@UAE@XZ   0046f465 f i TDLReuseRecurringTaskDlg.obj
 0001:0006e46a       ?DoDataExchange@CTDLReuseRecurringTaskDlg@@MAEXPAVCDataExchange@@@Z 0046f46a f   TDLReuseRecurringTaskDlg.obj
 0001:0006e47f       ?GetMessageMap@CTDLReuseRecurringTaskDlg@@MBEPBUAFX_MSGMAP@@XZ 0046f47f f   TDLReuseRecurringTaskDlg.obj
 0001:0006e485       ?DDX_CBPriority@@YGXPAVCDataExchange@@HAAH@Z 0046f485 f   TDLRiskComboBox.obj
 0001:0006e485       ?DDX_CBRisk@@YGXPAVCDataExchange@@HAAH@Z 0046f485 f   TDLRiskComboBox.obj
 0001:0006e4d7       ??0CTDLRiskComboBox@@QAE@XZ 0046f4d7 f   TDLRiskComboBox.obj
 0001:0006e4eb       ??_ECTDLRiskComboBox@@UAEPAXI@Z 0046f4eb f i TDLRiskComboBox.obj
 0001:0006e4eb       ??_GCTDLRiskComboBox@@UAEPAXI@Z 0046f4eb f i TDLRiskComboBox.obj
 0001:0006e507       ??1CTDLRiskComboBox@@UAE@XZ 0046f507 f   TDLRiskComboBox.obj
 0001:0006e512       ?GetMessageMap@CTDLRiskComboBox@@MBEPBUAFX_MSGMAP@@XZ 0046f512 f   TDLRiskComboBox.obj
 0001:0006e518       ?OnCreate@CTDLRiskComboBox@@IAEHPAUtagCREATESTRUCTW@@@Z 0046f518 f   TDLRiskComboBox.obj
 0001:0006e53a       ?PreSubclassWindow@CTDLRiskComboBox@@MAEXXZ 0046f53a f   TDLRiskComboBox.obj
 0001:0006e54b       ?GetSelectedRisk@CTDLRiskComboBox@@QBEHXZ 0046f54b f   TDLRiskComboBox.obj
 0001:0006e569       ?BuildCombo@CTDLRiskComboBox@@IAEXXZ 0046f569 f   TDLRiskComboBox.obj
 0001:0006e68a       ??0CTDLSendTasksDlg@@QAE@HW4FTC_VIEW@@PAVCWnd@@@Z 0046f68a f   TDLSendTasksDlg.obj
 0001:0006e722       ??_ECTDLSendTasksDlg@@UAEPAXI@Z 0046f722 f i TDLSendTasksDlg.obj
 0001:0006e722       ??_GCTDLSendTasksDlg@@UAEPAXI@Z 0046f722 f i TDLSendTasksDlg.obj
 0001:0006e73e       ??1CTDLSendTasksDlg@@UAE@XZ 0046f73e f i TDLSendTasksDlg.obj
 0001:0006e785       ?DoDataExchange@CTDLSendTasksDlg@@MAEXPAVCDataExchange@@@Z 0046f785 f   TDLSendTasksDlg.obj
 0001:0006e7aa       ?GetMessageMap@CTDLSendTasksDlg@@MBEPBUAFX_MSGMAP@@XZ 0046f7aa f   TDLSendTasksDlg.obj
 0001:0006e7b0       ?OnInitDialog@CTDLSendTasksDlg@@MAEHXZ 0046f7b0 f   TDLSendTasksDlg.obj
 0001:0006e7d0       ?OnOK@CTDLSendTasksDlg@@MAEXXZ 0046f7d0 f   TDLSendTasksDlg.obj
 0001:0006f72c       ??0CTDLSetReminderDlg@@QAE@PAVCWnd@@@Z 0047072c f   TDLSetReminderDlg.obj
 0001:0006f8e4       ??_GCTDLSetReminderDlg@@UAEPAXI@Z 004708e4 f i TDLSetReminderDlg.obj
 0001:0006f8e4       ??_ECTDLSetReminderDlg@@UAEPAXI@Z 004708e4 f i TDLSetReminderDlg.obj
 0001:0006f900       ??1CTDLSetReminderDlg@@UAE@XZ 00470900 f i TDLSetReminderDlg.obj
 0001:0006f9a4       ?DoDataExchange@CTDLSetReminderDlg@@MAEXPAVCDataExchange@@@Z 004709a4 f   TDLSetReminderDlg.obj
 0001:0006fac3       ?GetMessageMap@CTDLSetReminderDlg@@MBEPBUAFX_MSGMAP@@XZ 00470ac3 f   TDLSetReminderDlg.obj
 0001:0006fac9       ?DoModal@CTDLSetReminderDlg@@QAEHAAUTDCREMINDER@@H@Z 00470ac9 f   TDLSetReminderDlg.obj
 0001:0006fea2       ?OnInitDialog@CTDLSetReminderDlg@@MAEHXZ 00470ea2 f   TDLSetReminderDlg.obj
 0001:0006ff66       ?OnSelchangeLeadin@CTDLSetReminderDlg@@IAEXXZ 00470f66 f   TDLSetReminderDlg.obj
 0001:0006ff99       ?OnPlaySound@CTDLSetReminderDlg@@IAEJIJ@Z 00470f99 f   TDLSetReminderDlg.obj
 0001:0006ffdc       ?OnChangeRelative@CTDLSetReminderDlg@@IAEXXZ 00470fdc f   TDLSetReminderDlg.obj
 0001:00070f63       ??0CTDLShowReminderDlg@@QAE@PAVCWnd@@@Z 00471f63 f   TDLShowReminderDlg.obj
 0001:00071063       ?DoDismissReminder@CTDLShowReminderDlg@@MAEXABUTDCREMINDER@@H@Z 00472063 f i TDLShowReminderDlg.obj
 0001:00071066       ??_ECTDLShowReminderDlg@@UAEPAXI@Z 00472066 f i TDLShowReminderDlg.obj
 0001:00071066       ??_GCTDLShowReminderDlg@@UAEPAXI@Z 00472066 f i TDLShowReminderDlg.obj
 0001:00071082       ??1CTDLShowReminderDlg@@UAE@XZ 00472082 f i TDLShowReminderDlg.obj
 0001:0007111d       ?DoDataExchange@CTDLShowReminderDlg@@MAEXPAVCDataExchange@@@Z 0047211d f   TDLShowReminderDlg.obj
 0001:000711ac       ?_GetBaseMessageMap@CToDoCtrlReminders@@KGPBUAFX_MSGMAP@@XZ 004721ac f   TDLShowReminderDlg.obj
 0001:000711ac       ?GetMessageMap@CTDLShowReminderDlg@@MBEPBUAFX_MSGMAP@@XZ 004721ac f   TDLShowReminderDlg.obj
 0001:000711b2       ?Create@CTDLShowReminderDlg@@QAEHPAVCWnd@@H@Z 004721b2 f   TDLShowReminderDlg.obj
 0001:000711e2       ?OnInitDialog@CTDLShowReminderDlg@@MAEHXZ 004721e2 f   TDLShowReminderDlg.obj
 0001:000712dc       ?OnDestroy@CTDLShowReminderDlg@@IAEXXZ 004722dc f   TDLShowReminderDlg.obj
 0001:000712ed       ?AddListReminder@CTDLShowReminderDlg@@QAEHABUTDCREMINDER@@@Z 004722ed f   TDLShowReminderDlg.obj
 0001:0007147b       ??4TDCREMINDER@@QAEAAU0@ABU0@@Z 0047247b f i TDLShowReminderDlg.obj
 0001:000714dc       ?RemoveListReminder@CTDLShowReminderDlg@@QAEXABUTDCREMINDER@@@Z 004724dc f   TDLShowReminderDlg.obj
 0001:00071521       ??1TDCREMINDER@@QAE@XZ     00472521 f i TDLShowReminderDlg.obj
 0001:00071557       ?RemoveAllListReminders@CTDLShowReminderDlg@@QAEXXZ 00472557 f   TDLShowReminderDlg.obj
 0001:0007157c       ?FindListReminder@CTDLShowReminderDlg@@IAEHABUTDCREMINDER@@@Z 0047257c f   TDLShowReminderDlg.obj
 0001:00071659       ?OnSnooze@CTDLShowReminderDlg@@IAEXXZ 00472659 f   TDLShowReminderDlg.obj
 0001:00071735       ?GetSelectedReminder@CTDLShowReminderDlg@@IBEHAAUTDCREMINDER@@@Z 00472735 f   TDLShowReminderDlg.obj
 0001:00071789       ?GetSelectedReminders@CTDLShowReminderDlg@@IBEHAAV?$CArray@UTDCREMINDER@@AAU1@@@@Z 00472789 f   TDLShowReminderDlg.obj
 0001:0007180c       ?GetSnoozeDays@CTDLShowReminderDlg@@QBENXZ 0047280c f   TDLShowReminderDlg.obj
 0001:00071829       ?GetSnoozeUntil@CTDLShowReminderDlg@@QBE?AVCOleDateTime@@XZ 00472829 f   TDLShowReminderDlg.obj
 0001:00071844       ?OnDismissAndGototask@CTDLShowReminderDlg@@IAEXXZ 00472844 f   TDLShowReminderDlg.obj
 0001:000718af       ?OnDismiss@CTDLShowReminderDlg@@IAEXXZ 004728af f   TDLShowReminderDlg.obj
 0001:0007194b       ?OnCancel@CTDLShowReminderDlg@@MAEXXZ 0047294b f   TDLShowReminderDlg.obj
 0001:0007194b       ?OnClose@CTDLShowReminderDlg@@IAEXXZ 0047294b f   TDLShowReminderDlg.obj
 0001:0007194b       ?OnCancel@CTDLFindTasksDlg@@MAEXXZ 0047294b f   TDLShowReminderDlg.obj
 0001:00071953       ?OnSnoozeFor@CTDLShowReminderDlg@@IAEXXZ 00472953 f   TDLShowReminderDlg.obj
 0001:00071953       ?OnSnoozeUntil@CTDLShowReminderDlg@@IAEXXZ 00472953 f   TDLShowReminderDlg.obj
 0001:00071958       ?EnableControls@CTDLShowReminderDlg@@IAEXXZ 00472958 f   TDLShowReminderDlg.obj
 0001:000719f9       ?UpdateControls@CTDLShowReminderDlg@@IAEXXZ 004729f9 f   TDLShowReminderDlg.obj
 0001:00071aae       ?OnItemchangedReminders@CTDLShowReminderDlg@@IAEXPAUtagNMHDR@@PAJ@Z 00472aae f   TDLShowReminderDlg.obj
 0001:00071ac6       ?Lookup@?$CMap@KKUTDCREMINDER@@AAU1@@@QBEHKAAUTDCREMINDER@@@Z 00472ac6 f i TDLShowReminderDlg.obj
 0001:00071b0c       ??A?$CMap@KKUTDCREMINDER@@AAU1@@@QAEAAUTDCREMINDER@@K@Z 00472b0c f i TDLShowReminderDlg.obj
 0001:00071b79       ?RemoveKey@?$CMap@KKUTDCREMINDER@@AAU1@@@QAEHK@Z 00472b79 f i TDLShowReminderDlg.obj
 0001:00071bbb       ?RemoveAll@?$CMap@KKUTDCREMINDER@@AAU1@@@QAEXXZ 00472bbb f i TDLShowReminderDlg.obj
 0001:00071c10       ?GetNextAssoc@?$CMap@KKUTDCREMINDER@@AAU1@@@QBEXAAPAU__POSITION@@AAKAAUTDCREMINDER@@@Z 00472c10 f i TDLShowReminderDlg.obj
 0001:00071c7b       ??1?$CMap@KKUTDCREMINDER@@AAU1@@@UAE@XZ 00472c7b f i TDLShowReminderDlg.obj
 0001:00071cae       ?Serialize@?$CMap@KKUTDCREMINDER@@AAU1@@@UAEXAAVCArchive@@@Z 00472cae f i TDLShowReminderDlg.obj
 0001:00071d9c       ?SetSize@?$CArray@UTDCREMINDER@@AAU1@@@QAEXHH@Z 00472d9c f i TDLShowReminderDlg.obj
 0001:00071ebc       ??1?$CArray@UTDCREMINDER@@AAU1@@@UAE@XZ 00472ebc f i TDLShowReminderDlg.obj
 0001:00071f1c       ?Serialize@?$CArray@UTDCREMINDER@@AAU1@@@UAEXAAVCArchive@@@Z 00472f1c f i TDLShowReminderDlg.obj
 0001:00071f5b       ??_G?$CMap@KKUTDCREMINDER@@AAU1@@@UAEPAXI@Z 00472f5b f i TDLShowReminderDlg.obj
 0001:00071f5b       ??_E?$CMap@KKUTDCREMINDER@@AAU1@@@UAEPAXI@Z 00472f5b f i TDLShowReminderDlg.obj
 0001:00071f77       ??_G?$CArray@UTDCREMINDER@@AAU1@@@UAEPAXI@Z 00472f77 f i TDLShowReminderDlg.obj
 0001:00071f77       ??_E?$CArray@UTDCREMINDER@@AAU1@@@UAEPAXI@Z 00472f77 f i TDLShowReminderDlg.obj
 0001:00071f93       ?NewAssoc@?$CMap@KKUTDCREMINDER@@AAU1@@@IAEPAUCAssoc@1@XZ 00472f93 f i TDLShowReminderDlg.obj
 0001:00071ff9       ?FreeAssoc@?$CMap@KKUTDCREMINDER@@AAU1@@@IAEXPAUCAssoc@1@@Z 00472ff9 f i TDLShowReminderDlg.obj
 0001:00072025       ?DestructElements@@YGXPAUTDCREMINDER@@H@Z 00473025 f i TDLShowReminderDlg.obj
 0001:00072049       ?SerializeElements@@YGXAAVCArchive@@PAUTDCREMINDER@@H@Z 00473049 f i TDLShowReminderDlg.obj
 0001:00072049       ?SerializeElements@@YGXAAVCArchive@@PAUTASKTIMELOGITEM@@H@Z 00473049 f i TDLShowReminderDlg.obj
 0001:00072079       ?ConstructElements@@YGXPAUTDCREMINDER@@H@Z 00473079 f i TDLShowReminderDlg.obj
 0001:000720d3       ??_GTDCREMINDER@@QAEPAXI@Z 004730d3 f i TDLShowReminderDlg.obj
 0001:0007245b       ?_GetBaseClass@CTDLTaskCtrlBase@@KGPAUCRuntimeClass@@XZ 0047345b f   TDLTaskCtrlBase.obj
 0001:00072461       ??0CTDLTaskCtrlBase@@IAE@HABVCTDCImageList@@ABVCToDoCtrlData@@ABVCToDoCtrlFind@@ABVCWordArray@@ABVCTDCColumnIDMap@@ABVCTDCCustomAttribDefinitionArray@@@Z 00473461 f   TDLTaskCtrlBase.obj
 0001:000726c0       ??1CTDCColorMap@@UAE@XZ    004736c0 f i TDLTaskCtrlBase.obj
 0001:000726f3       ??_ECTDCColorMap@@UAEPAXI@Z 004736f3 f i TDLTaskCtrlBase.obj
 0001:000726f3       ??_GCTDCColorMap@@UAEPAXI@Z 004736f3 f i TDLTaskCtrlBase.obj
 0001:0007270f       ??_ECTDLTaskCtrlBase@@UAEPAXI@Z 0047370f f i TDLTaskCtrlBase.obj
 0001:0007270f       ??_GCTDLTaskCtrlBase@@UAEPAXI@Z 0047370f f i TDLTaskCtrlBase.obj
 0001:0007272b       ??1CTDLTaskCtrlBase@@UAE@XZ 0047372b f   TDLTaskCtrlBase.obj
 0001:0007289a       ?Create@CTDLTaskCtrlBase@@QAEHPAVCWnd@@ABVCRect@@IH@Z 0047389a f   TDLTaskCtrlBase.obj
 0001:000728cd       ?OnCreate@CTDLTaskCtrlBase@@IAEHPAUtagCREATESTRUCTW@@@Z 004738cd f   TDLTaskCtrlBase.obj
 0001:00072ade       ?GetFont@CWnd@@QBEPAVCFont@@XZ 00473ade f i TDLTaskCtrlBase.obj
 0001:00072af4       ?UpdateSelectedTaskPath@CTDLTaskCtrlBase@@QAEXXZ 00473af4 f   TDLTaskCtrlBase.obj
 0001:00072c28       ?SetTimeTrackTaskID@CTDLTaskCtrlBase@@QAEXK@Z 00473c28 f   TDLTaskCtrlBase.obj
 0001:00072c83       ?SetEditTitleTaskID@CTDLTaskCtrlBase@@QAEXK@Z 00473c83 f   TDLTaskCtrlBase.obj
 0001:00072c96       ?SetNextUniqueTaskID@CTDLTaskCtrlBase@@QAEXK@Z 00473c96 f   TDLTaskCtrlBase.obj
 0001:00072ca9       ?OnDestroy@CTDLTaskCtrlBase@@IAEXXZ 00473ca9 f   TDLTaskCtrlBase.obj
 0001:00072cbd       ?OnSize@CTDLTaskCtrlBase@@IAEXIHH@Z 00473cbd f   TDLTaskCtrlBase.obj
 0001:00072cf8       ?OnSetRedraw@CTDLTaskCtrlBase@@IAEJIJ@Z 00473cf8 f   TDLTaskCtrlBase.obj
 0001:00072d2c       ?OnEraseBkgnd@CTDLTaskCtrlBase@@IAEHPAVCDC@@@Z 00473d2c f   TDLTaskCtrlBase.obj
 0001:00072d3b       ?OnStylesUpdated@CTDLTaskCtrlBase@@QAEXXZ 00473d3b f   TDLTaskCtrlBase.obj
 0001:00072da9       ?OnStyleUpdated@CTDLTaskCtrlBase@@QAEXW4TDC_STYLE@@HH@Z 00473da9 f   TDLTaskCtrlBase.obj
 0001:00073108       ?InvalidateColumnItem@CTDLTaskCtrlBase@@QAEHHH@Z 00474108 f   TDLTaskCtrlBase.obj
 0001:00073122       ?InvalidateColumnSelection@CTDLTaskCtrlBase@@QAEHH@Z 00474122 f   TDLTaskCtrlBase.obj
 0001:00073137       ?InvalidateSelection@CTDLTaskCtrlBase@@KAHAAVCListCtrl@@H@Z 00474137 f   TDLTaskCtrlBase.obj
 0001:00073187       ?InvalidateItem@CTDLTaskCtrlBase@@KAHAAVCListCtrl@@HH@Z 00474187 f   TDLTaskCtrlBase.obj
 0001:000731db       ?InvalidateAll@CTDLTaskCtrlBase@@QAEXHH@Z 004741db f   TDLTaskCtrlBase.obj
 0001:000731ee       ?IsShowingColumnsOnRight@CTDLTaskCtrlBase@@IBEHXZ 004741ee f   TDLTaskCtrlBase.obj
 0001:0007320b       ?OnUndoRedo@CTDLTaskCtrlBase@@QAEXH@Z 0047420b f   TDLTaskCtrlBase.obj
 0001:00073226       ?OnColumnVisibilityChange@CTDLTaskCtrlBase@@QAEXXZ 00474226 f   TDLTaskCtrlBase.obj
 0001:000732d0       ?UpdateAttributePaneVisibility@CTDLTaskCtrlBase@@IAEXXZ 004742d0 f   TDLTaskCtrlBase.obj
 0001:0007335b       ?OnImageListChange@CTDLTaskCtrlBase@@QAEXXZ 0047435b f   TDLTaskCtrlBase.obj
 0001:000733e5       ?IsVisible@CTDLTaskCtrlBase@@IBEHXZ 004743e5 f   TDLTaskCtrlBase.obj
 0001:00073417       ?OnCustomAttributeChange@CTDLTaskCtrlBase@@QAEXXZ 00474417 f   TDLTaskCtrlBase.obj
 0001:000734e9       ?GetColumnTitle@TDCCUSTOMATTRIBUTEDEFINITION@@QBE?AVCString@@XZ 004744e9 f i TDLTaskCtrlBase.obj
 0001:00073510       ?IsColumnShowing@CTDLTaskCtrlBase@@MBEHW4TDC_COLUMN@@@Z 00474510 f   TDLTaskCtrlBase.obj
 0001:00073541       ?SetColumnOrder@CTDLTaskCtrlBase@@IAEHABVCDWordArray@@@Z 00474541 f   TDLTaskCtrlBase.obj
 0001:000735de       ?GetColumnOrder@CTDLTaskCtrlBase@@IBEHAAVCDWordArray@@@Z 004745de f   TDLTaskCtrlBase.obj
 0001:00073671       ?SetColumnWidths@CTDLTaskCtrlBase@@IAEXABVCDWordArray@@@Z 00474671 f   TDLTaskCtrlBase.obj
 0001:000736a6       ?GetColumnWidths@CTDLTaskCtrlBase@@IBEXAAVCDWordArray@@@Z 004746a6 f   TDLTaskCtrlBase.obj
 0001:00073723       ?SetTrackedColumns@CTDLTaskCtrlBase@@IAEXABVCDWordArray@@@Z 00474723 f   TDLTaskCtrlBase.obj
 0001:00073758       ?GetTrackedColumns@CTDLTaskCtrlBase@@IBEXAAVCDWordArray@@@Z 00474758 f   TDLTaskCtrlBase.obj
 0001:000737d5       ?BuildColumns@CTDLTaskCtrlBase@@MAEHXZ 004747d5 f   TDLTaskCtrlBase.obj
 0001:00073a89       ?RecalcAllColumnWidths@CTDLTaskCtrlBase@@QAEXXZ 00474a89 f   TDLTaskCtrlBase.obj
 0001:00073aa0       ?RecalcColumnWidths@CTDLTaskCtrlBase@@QAEXXZ 00474aa0 f   TDLTaskCtrlBase.obj
 0001:00073ab5       ?RecalcColumnWidths@CTDLTaskCtrlBase@@IAEXH@Z 00474ab5 f   TDLTaskCtrlBase.obj
 0001:00073bdb       ?RecalcColumnWidth@CTDLTaskCtrlBase@@QAEXW4TDC_COLUMN@@@Z 00474bdb f   TDLTaskCtrlBase.obj
 0001:00073ca7       ?SaveState@CTDLTaskCtrlBase@@QBEXAAVCPreferences@@ABVCString@@@Z 00474ca7 f   TDLTaskCtrlBase.obj
 0001:00073de5       ?LoadState@CTDLTaskCtrlBase@@QAEXABVCPreferences@@ABVCString@@@Z 00474de5 f   TDLTaskCtrlBase.obj
 0001:00073f64       ?SaveSortState@CTDLTaskCtrlBase@@IBEXAAVCPreferences@@ABVCString@@@Z 00474f64 f   TDLTaskCtrlBase.obj
 0001:0007407f       ?LoadSortState@CTDLTaskCtrlBase@@IAEXABVCPreferences@@ABVCString@@@Z 0047507f f   TDLTaskCtrlBase.obj
 0001:000741a4       ?Validate@TDSORT@@QAEXXZ   004751a4 f i TDLTaskCtrlBase.obj
 0001:000741c9       ?Validate@TDSORTCOLUMNS@@QAEXXZ 004751c9 f i TDLTaskCtrlBase.obj
 0001:00074219       ?SortFuncMulti@CTDLTaskCtrlBase@@KGHJJJ@Z 00475219 f   TDLTaskCtrlBase.obj
 0001:000742ac       ??0TDSORTFLAGS@CTDLTaskCtrlBase@@QAE@XZ 004752ac f i TDLTaskCtrlBase.obj
 0001:000742c6       ?SortFunc@CTDLTaskCtrlBase@@KGHJJJ@Z 004752c6 f   TDLTaskCtrlBase.obj
 0001:00074318       ?SortTasks@CTDLTaskCtrlBase@@KAHJJABV1@ABUTDSORTCOLUMN@@ABUTDSORTFLAGS@1@@Z 00475318 f   TDLTaskCtrlBase.obj
 0001:00074477       ?HitTestTask@CTDLTaskCtrlBase@@QBEKABVCPoint@@@Z 00475477 f   TDLTaskCtrlBase.obj
 0001:00074499       ?HitTestColumnsItem@CTDLTaskCtrlBase@@QBEHABVCPoint@@HAAW4TDC_COLUMN@@PAK@Z 00475499 f   TDLTaskCtrlBase.obj
 0001:0007452e       ?HitTest@CTDLTaskCtrlBase@@QBE?AW4TDC_HITTEST@@ABVCPoint@@@Z 0047552e f   TDLTaskCtrlBase.obj
 0001:0007466c       ?PtInClientRect@CTDLTaskCtrlBase@@KAHUtagPOINT@@PAUHWND__@@H@Z 0047566c f   TDLTaskCtrlBase.obj
 0001:0007469f       ?HitTestColumnsTask@CTDLTaskCtrlBase@@IBEKABVCPoint@@@Z 0047569f f   TDLTaskCtrlBase.obj
 0001:000746f1       ?HitTestColumn@CTDLTaskCtrlBase@@QBE?AW4TDC_COLUMN@@ABVCPoint@@@Z 004756f1 f   TDLTaskCtrlBase.obj
 0001:000747fa       ?Release@CTDLTaskCtrlBase@@MAEXXZ 004757fa f   TDLTaskCtrlBase.obj
 0001:00074875       ?SetFont@CTDLTaskCtrlBase@@QAEHPAUHFONT__@@@Z 00475875 f   TDLTaskCtrlBase.obj
 0001:000748da       ?IsColumnLineOdd@CTDLTaskCtrlBase@@IBEHH@Z 004758da f   TDLTaskCtrlBase.obj
 0001:000748ef       ?IsSorting@CTDLTaskCtrlBase@@QBEHXZ 004758ef f   TDLTaskCtrlBase.obj
 0001:00074917       ?IsSortingBy@CTDLTaskCtrlBase@@QBEHW4TDC_COLUMN@@@Z 00475917 f   TDLTaskCtrlBase.obj
 0001:0007492b       ?IsSortingBy@TDSORT@@QBEHW4TDC_COLUMN@@H@Z 0047592b f i TDLTaskCtrlBase.obj
 0001:0007497e       ?UpdateHeaderSorting@CTDLTaskCtrlBase@@IAEXXZ 0047597e f   TDLTaskCtrlBase.obj
 0001:000749e3       ?Resort@CTDLTaskCtrlBase@@QAEXH@Z 004759e3 f   TDLTaskCtrlBase.obj
 0001:00074a2a       ??0TDSORTCOLUMNS@@QAE@XZ   00475a2a f i TDLTaskCtrlBase.obj
 0001:00074a46       ?IsMultiSorting@CTDLTaskCtrlBase@@QBEHXZ 00475a46 f   TDLTaskCtrlBase.obj
 0001:00074a60       ?Sort@CTDLTaskCtrlBase@@QAEXW4TDC_COLUMN@@H@Z 00475a60 f   TDLTaskCtrlBase.obj
 0001:00074b38       ?PrepareSort@CTDLTaskCtrlBase@@IBEP6GHJJJ@ZAAUTDSORTPARAMS@1@@Z 00475b38 f   TDLTaskCtrlBase.obj
 0001:00074bb3       ?DoSort@CTDLTaskCtrlBase@@IAEXXZ 00475bb3 f   TDLTaskCtrlBase.obj
 0001:00074c81       ??1CHoldListVScroll@@QAE@XZ 00475c81 f i TDLTaskCtrlBase.obj
 0001:00074cec       ??0TDSORTPARAMS@CTDLTaskCtrlBase@@QAE@ABV1@@Z 00475cec f i TDLTaskCtrlBase.obj
 0001:00074d12       ?GetSortBy@CTDLTaskCtrlBase@@QBEXAAUTDSORTCOLUMNS@@@Z 00475d12 f   TDLTaskCtrlBase.obj
 0001:00074d28       ?MultiSort@CTDLTaskCtrlBase@@QAEXABUTDSORTCOLUMNS@@@Z 00475d28 f   TDLTaskCtrlBase.obj
 0001:00074d73       ?GetFirstSelectedTaskPos@CTDLTaskCtrlBase@@IBEPAU__POSITION@@XZ 00475d73 f   TDLTaskCtrlBase.obj
 0001:00074d7e       ?GetNextSelectedTaskID@CTDLTaskCtrlBase@@IBEKAAPAU__POSITION@@@Z 00475d7e f   TDLTaskCtrlBase.obj
 0001:00074dae       ?OnNotifySplitterChange@CTDLTaskCtrlBase@@MAEXH@Z 00475dae f   TDLTaskCtrlBase.obj
 0001:00074dbd       ?DrawSplitBar@CTDLTaskCtrlBase@@MAEXPAVCDC@@ABVCRect@@K@Z 00475dbd f   TDLTaskCtrlBase.obj
 0001:00074dd6       ?GetTaskTextColors@CTDLTaskCtrlBase@@QBEHKAAK0H@Z 00475dd6 f   TDLTaskCtrlBase.obj
 0001:00074e24       ?GetTaskTextColors@CTDLTaskCtrlBase@@QBEHPBVTODOITEM@@PBVTODOSTRUCTURE@@AAK2H@Z 00475e24 f   TDLTaskCtrlBase.obj
 0001:00074e41       ?GetTaskTextColors@CTDLTaskCtrlBase@@IBEHPBVTODOITEM@@PBVTODOSTRUCTURE@@AAK2HH@Z 00475e41 f   TDLTaskCtrlBase.obj
 0001:00075153       ?SetPriorityColors@CTDLTaskCtrlBase@@QAEHABVCDWordArray@@@Z 00476153 f   TDLTaskCtrlBase.obj
 0001:000751a2       ?SetStartedTaskColors@CTDLTaskCtrlBase@@QAEHKK@Z 004761a2 f   TDLTaskCtrlBase.obj
 0001:000751e2       ?SetDueTaskColors@CTDLTaskCtrlBase@@QAEHKK@Z 004761e2 f   TDLTaskCtrlBase.obj
 0001:00075293       ?SetCompletedTaskColor@CTDLTaskCtrlBase@@QAEHK@Z 00476293 f   TDLTaskCtrlBase.obj
 0001:000752bf       ?SetFlaggedTaskColor@CTDLTaskCtrlBase@@QAEHK@Z 004762bf f   TDLTaskCtrlBase.obj
 0001:000752eb       ?SetReferenceTaskColor@CTDLTaskCtrlBase@@QAEHK@Z 004762eb f   TDLTaskCtrlBase.obj
 0001:00075317       ?SetAttributeColors@CTDLTaskCtrlBase@@QAEHW4TDC_ATTRIBUTE@@ABVCTDCColorMap@@@Z 00476317 f   TDLTaskCtrlBase.obj
 0001:00075384       ?GetAttributeColor@CTDLTaskCtrlBase@@IBEHABVCString@@AAK@Z 00476384 f   TDLTaskCtrlBase.obj
 0001:0007539d       ?GetColor@CTDCColorMap@@QBEHPBGAAK@Z 0047639d f i TDLTaskCtrlBase.obj
 0001:000753fb       ?GetPriorityColor@CTDLTaskCtrlBase@@QBEKH@Z 004763fb f   TDLTaskCtrlBase.obj
 0001:0007541b       ?DrawCommentsText@CTDLTaskCtrlBase@@IAEXPAVCDC@@ABVCRect@@1PBVTODOITEM@@PBVTODOSTRUCTURE@@@Z 0047641b f   TDLTaskCtrlBase.obj
 0001:00075637       ?GetTaskFont@CTDLTaskCtrlBase@@IAEPAVCFont@@PBVTODOITEM@@PBVTODOSTRUCTURE@@H@Z 00476637 f   TDLTaskCtrlBase.obj
 0001:000756b6       ?OnSetCursor@CTDLTaskCtrlBase@@IAEHPAVCWnd@@II@Z 004766b6 f   TDLTaskCtrlBase.obj
 0001:00075760       ?GetTaskReminder@CTDLTaskCtrlBase@@IBEHKAAVCOleDateTime@@@Z 00476760 f   TDLTaskCtrlBase.obj
 0001:00075798       ?GetTaskReminder@CTDLTaskCtrlBase@@IBEJK@Z 00476798 f   TDLTaskCtrlBase.obj
 0001:000757cb       ?DrawGridlines@CTDLTaskCtrlBase@@IAEXPAVCDC@@ABVCRect@@HHH@Z 004767cb f   TDLTaskCtrlBase.obj
 0001:0007584e       ?OnListCustomDraw@CTDLTaskCtrlBase@@MAEJPAUtagNMLVCUSTOMDRAW@@@Z 0047684e f   TDLTaskCtrlBase.obj
 0001:00075a66       ?DrawTasksRowBackground@CTDLTaskCtrlBase@@IAEXPAVCDC@@ABVCRect@@1W4GM_ITEMSTATE@@HK@Z 00476a66 f   TDLTaskCtrlBase.obj
 0001:00075b0f       ?DrawColumnsRowText@CTDLTaskCtrlBase@@IAEXPAVCDC@@HKPBVTODOITEM@@PBVTODOSTRUCTURE@@KH@Z 00476b0f f   TDLTaskCtrlBase.obj
 0001:000766c9       ?DrawColumnImage@CTDLTaskCtrlBase@@IAEXPAVCDC@@W4TDC_COLUMN@@ABVCRect@@@Z 004776c9 f   TDLTaskCtrlBase.obj
 0001:00076723       ?DrawColumnCheckBox@CTDLTaskCtrlBase@@IAEXPAVCDC@@ABVCRect@@H@Z 00477723 f   TDLTaskCtrlBase.obj
 0001:0007677e       ?CalcColumnIconTopLeft@CTDLTaskCtrlBase@@KA?AVCPoint@@ABVCRect@@HH@Z 0047777e f   TDLTaskCtrlBase.obj
 0001:000767d3       ?CalcColumnIconRect@CTDLTaskCtrlBase@@KAHABVCRect@@AAV2@HH@Z 004777d3 f   TDLTaskCtrlBase.obj
 0001:00076838       ?DrawItemCustomColumn@CTDLTaskCtrlBase@@IAEHPBVTODOITEM@@PBVTODOSTRUCTURE@@W4TDC_COLUMN@@PAVCDC@@ABVCRect@@K@Z 00477838 f   TDLTaskCtrlBase.obj
 0001:00076caa       ?GetImageName@TDCCUSTOMATTRIBUTEDEFINITION@@QBE?AVCString@@ABV2@@Z 00477caa f i TDLTaskCtrlBase.obj
 0001:00076d76       ?FormatDate@CTDLTaskCtrlBase@@IBEHABVCOleDateTime@@W4TDC_DATE@@AAVCString@@22H@Z 00477d76 f   TDLTaskCtrlBase.obj
 0001:00076e00       ?DrawColumnDate@CTDLTaskCtrlBase@@IAEXPAVCDC@@ABVCOleDateTime@@W4TDC_DATE@@ABVCRect@@KHH@Z 00477e00 f   TDLTaskCtrlBase.obj
 0001:000770ea       ?DrawColumnText@CTDLTaskCtrlBase@@IAEXPAVCDC@@ABVCString@@ABVCRect@@HKH@Z 004780ea f   TDLTaskCtrlBase.obj
 0001:0007718b       ?OnHeaderCustomDraw@CTDLTaskCtrlBase@@MAEJPAUtagNMCUSTOMDRAWINFO@@@Z 0047818b f   TDLTaskCtrlBase.obj
 0001:00077336       ?GetColumnHeaderCtrl@CTDLTaskCtrlBase@@IBEABVCEnHeaderCtrl@@W4TDC_COLUMN@@@Z 00478336 f   TDLTaskCtrlBase.obj
 0001:0007734f       ?GetColumn@CTDLTaskCtrlBase@@SAPBUTDCCOLUMN@@W4TDC_COLUMN@@@Z 0047834f f   TDLTaskCtrlBase.obj
 0001:0007737e       ?GetColumnID@CTDLTaskCtrlBase@@IBE?AW4TDC_COLUMN@@H@Z 0047837e f   TDLTaskCtrlBase.obj
 0001:000773a5       ?SetCompletionStatus@CTDLTaskCtrlBase@@QAEXABVCString@@@Z 004783a5 f   TDLTaskCtrlBase.obj
 0001:000773ef       ?GetTaskColumnText@CTDLTaskCtrlBase@@IBE?AVCString@@KPBVTODOITEM@@PBVTODOSTRUCTURE@@W4TDC_COLUMN@@@Z 004783ef f   TDLTaskCtrlBase.obj
 0001:00077c68       ?GetTaskCustomColumnText@CTDLTaskCtrlBase@@IBE?AVCString@@PBVTODOITEM@@PBVTODOSTRUCTURE@@W4TDC_COLUMN@@@Z 00478c68 f   TDLTaskCtrlBase.obj
 0001:00077e3f       ?WindowProc@CTDLTaskCtrlBase@@MAEJPAUHWND__@@IIJ@Z 00478e3f f   TDLTaskCtrlBase.obj
 0001:0007806c       ?CalcSplitterPosToFitColumns@CTDLTaskCtrlBase@@IBEHXZ 0047906c f   TDLTaskCtrlBase.obj
 0001:0007812d       ?ResizeSplitterToFitColumns@CTDLTaskCtrlBase@@IAEXXZ 0047912d f   TDLTaskCtrlBase.obj
 0001:00078164       ?RepackageAndSendToParent@CTDLTaskCtrlBase@@IAEXIIJ@Z 00479164 f   TDLTaskCtrlBase.obj
 0001:000781c9       ?ScWindowProc@CTDLTaskCtrlBase@@MAEJPAUHWND__@@IIJ@Z 004791c9 f   TDLTaskCtrlBase.obj
 0001:0007866b       ??0CPoint@@QAE@K@Z         0047966b f i TDLTaskCtrlBase.obj
 0001:00078682       ?HandleFileLinkColumnClick@CTDLTaskCtrlBase@@IAEXHKVCPoint@@@Z 00479682 f   TDLTaskCtrlBase.obj
 0001:0007878e       ?ShowFileLink@CTDLTaskCtrlBase@@IBEXPBG@Z 0047978e f   TDLTaskCtrlBase.obj
 0001:000787e5       ?HandleListLBtnDown@CTDLTaskCtrlBase@@IAEHAAVCListCtrl@@VCPoint@@@Z 004797e5 f   TDLTaskCtrlBase.obj
 0001:00078981       ?OnTimer@CTDLTaskCtrlBase@@IAEXI@Z 00479981 f   TDLTaskCtrlBase.obj
 0001:000789cc       ?NotifyParentOfColumnEditClick@CTDLTaskCtrlBase@@IAEXW4TDC_COLUMN@@K@Z 004799cc f   TDLTaskCtrlBase.obj
 0001:000789f5       ?OnHeaderClick@CTDLTaskCtrlBase@@IAEXW4TDC_COLUMN@@@Z 004799f5 f   TDLTaskCtrlBase.obj
 0001:00078a6f       ?ItemColumnSupportsClickHandling@CTDLTaskCtrlBase@@IBEHHW4TDC_COLUMN@@@Z 00479a6f f   TDLTaskCtrlBase.obj
 0001:00078c6e       ?SetModified@CTDLTaskCtrlBase@@QAEXW4TDC_ATTRIBUTE@@@Z 00479c6e f   TDLTaskCtrlBase.obj
 0001:00078fe7       ?ModCausesTaskTextColorChange@CTDLTaskCtrlBase@@QBEHW4TDC_ATTRIBUTE@@@Z 00479fe7 f   TDLTaskCtrlBase.obj
 0001:00079087       ?AccumulateRecalcColumn@CTDLTaskCtrlBase@@IBEHW4TDC_COLUMN@@AAW42@@Z 0047a087 f   TDLTaskCtrlBase.obj
 0001:000790c4       ?ModNeedsResort@CTDLTaskCtrlBase@@QBEHW4TDC_ATTRIBUTE@@@Z 0047a0c4 f   TDLTaskCtrlBase.obj
 0001:000790e7       ?AttribMatchesSort@CTDLTaskCtrlBase@@IBEHW4TDC_ATTRIBUTE@@@Z 0047a0e7 f   TDLTaskCtrlBase.obj
 0001:0007917a       ?ModNeedsResort@CTDLTaskCtrlBase@@IBEHW4TDC_ATTRIBUTE@@W4TDC_COLUMN@@@Z 0047a17a f   TDLTaskCtrlBase.obj
 0001:00079326       ?OnReminderChange@CTDLTaskCtrlBase@@QAEXXZ 0047a326 f   TDLTaskCtrlBase.obj
 0001:0007935a       ?SetAlternateLineColor@CTDLTaskCtrlBase@@QAEXK@Z 0047a35a f   TDLTaskCtrlBase.obj
 0001:0007936d       ?SetGridlineColor@CTDLTaskCtrlBase@@QAEXK@Z 0047a36d f   TDLTaskCtrlBase.obj
 0001:00079380       ?SetColor@CTDLTaskCtrlBase@@IAEXAAKK@Z 0047a380 f   TDLTaskCtrlBase.obj
 0001:000793b1       ?RedrawColumns@CTDLTaskCtrlBase@@QBEXH@Z 0047a3b1 f   TDLTaskCtrlBase.obj
 0001:000793e2       ?RedrawColumn@CTDLTaskCtrlBase@@QBEXW4TDC_COLUMN@@@Z 0047a3e2 f   TDLTaskCtrlBase.obj
 0001:00079486       ?CalcMaxDateColWidth@CTDLTaskCtrlBase@@IBEHW4TDC_DATE@@PAVCDC@@H@Z 0047a486 f   TDLTaskCtrlBase.obj
 0001:00079579       ?WantDrawColumnTime@CTDLTaskCtrlBase@@IBEHW4TDC_DATE@@H@Z 0047a579 f   TDLTaskCtrlBase.obj
 0001:000795f2       ?ClearSortColumn@CTDLTaskCtrlBase@@IAEXXZ 0047a5f2 f   TDLTaskCtrlBase.obj
 0001:00079648       ?SetSortColumn@CTDLTaskCtrlBase@@IAEXW4TDC_COLUMN@@W4TDC_SORTDIR@@@Z 0047a648 f   TDLTaskCtrlBase.obj
 0001:0007968c       ?RecalcColumnWidth@CTDLTaskCtrlBase@@IBEHHPAVCDC@@H@Z 0047a68c f   TDLTaskCtrlBase.obj
 0001:00079d88       ?SelectionHasIncompleteDependencies@CTDLTaskCtrlBase@@QBEHAAVCString@@@Z 0047ad88 f   TDLTaskCtrlBase.obj
 0001:00079dc6       ?TaskHasIncompleteDependencies@CTDLTaskCtrlBase@@IBEHKAAVCString@@@Z 0047adc6 f   TDLTaskCtrlBase.obj
 0001:00079f19       ?SelectionHasIcons@CTDLTaskCtrlBase@@QBEHXZ 0047af19 f   TDLTaskCtrlBase.obj
 0001:00079f6f       ?SelectionAreAllDone@CTDLTaskCtrlBase@@QBEHXZ 0047af6f f   TDLTaskCtrlBase.obj
 0001:00079faf       ?SelectionHasCircularDependencies@CTDLTaskCtrlBase@@QBEHAAVCDWordArray@@@Z 0047afaf f   TDLTaskCtrlBase.obj
 0001:0007a00f       ?SelectionHasDependents@CTDLTaskCtrlBase@@QBEHXZ 0047b00f f   TDLTaskCtrlBase.obj
 0001:0007a04c       ?SelectionHasReferences@CTDLTaskCtrlBase@@QBEHXZ 0047b04c f   TDLTaskCtrlBase.obj
 0001:0007a089       ?SelectionHasNonReferences@CTDLTaskCtrlBase@@QBEHXZ 0047b089 f   TDLTaskCtrlBase.obj
 0001:0007a0c7       ?SelectionHasIncompleteSubtasks@CTDLTaskCtrlBase@@QBEHH@Z 0047b0c7 f   TDLTaskCtrlBase.obj
 0001:0007a109       ?SelectionHasSubtasks@CTDLTaskCtrlBase@@QBEHXZ 0047b109 f   TDLTaskCtrlBase.obj
 0001:0007a14d       ?ParseTaskLink@CTDLTaskCtrlBase@@QBEHABVCString@@AAKAAV2@@Z 0047b14d f   TDLTaskCtrlBase.obj
 0001:0007a16b       ?ParseTaskLink@CTDLTaskCtrlBase@@SAHABVCString@@0AAKAAV2@@Z 0047b16b f   TDLTaskCtrlBase.obj
 0001:0007a256       ?EnableExtendedSelection@CTDLTaskCtrlBase@@SAXHH@Z 0047b256 f   TDLTaskCtrlBase.obj
 0001:0007a284       ?IsReservedShortcut@CTDLTaskCtrlBase@@SAHK@Z 0047b284 f   TDLTaskCtrlBase.obj
 0001:0007a330       ?GetSelectedTaskComments@CTDLTaskCtrlBase@@QBE?AVCString@@XZ 0047b330 f   TDLTaskCtrlBase.obj
 0001:0007a378       ?GetSelectedTaskCustomComments@CTDLTaskCtrlBase@@QBEABVCBinaryData@@AAVCString@@@Z 0047b378 f   TDLTaskCtrlBase.obj
 0001:0007a455       ?GetSelectedTaskTitle@CTDLTaskCtrlBase@@QBE?AVCString@@XZ 0047b455 f   TDLTaskCtrlBase.obj
 0001:0007a49d       ?GetSelectedTaskPriority@CTDLTaskCtrlBase@@QBEHXZ 0047b49d f   TDLTaskCtrlBase.obj
 0001:0007a4e9       ?GetSelectedTaskParentID@CTDLTaskCtrlBase@@QBEKXZ 0047b4e9 f   TDLTaskCtrlBase.obj
 0001:0007a533       ?GetSelectedTaskRisk@CTDLTaskCtrlBase@@QBEHXZ 0047b533 f   TDLTaskCtrlBase.obj
 0001:0007a57f       ?GetSelectedTaskIcon@CTDLTaskCtrlBase@@QBE?AVCString@@XZ 0047b57f f   TDLTaskCtrlBase.obj
 0001:0007a67b       ?SelectedTaskHasDate@CTDLTaskCtrlBase@@QBEHW4TDC_DATE@@@Z 0047b67b f   TDLTaskCtrlBase.obj
 0001:0007a698       ?GetSelectedTaskDate@CTDLTaskCtrlBase@@QBE?AVCOleDateTime@@W4TDC_DATE@@@Z 0047b698 f   TDLTaskCtrlBase.obj
 0001:0007a75b       ?IsSelectedTaskFlagged@CTDLTaskCtrlBase@@QBEHXZ 0047b75b f   TDLTaskCtrlBase.obj
 0001:0007a774       ?IsSelectedTaskReference@CTDLTaskCtrlBase@@QBEHXZ 0047b774 f   TDLTaskCtrlBase.obj
 0001:0007a78d       ?GetSelectedTaskTimeEstimate@CTDLTaskCtrlBase@@QBENAAW4TDC_UNITS@@@Z 0047b78d f   TDLTaskCtrlBase.obj
 0001:0007a81c       ?GetSelectedTaskTimeSpent@CTDLTaskCtrlBase@@QBENAAW4TDC_UNITS@@@Z 0047b81c f   TDLTaskCtrlBase.obj
 0001:0007a8ab       ?GetSelectedTaskColor@CTDLTaskCtrlBase@@QBEKXZ 0047b8ab f   TDLTaskCtrlBase.obj
 0001:0007a8c4       ?GetSelectedTaskRecurrence@CTDLTaskCtrlBase@@QBEHAAUTDCRECURRENCE@@@Z 0047b8c4 f   TDLTaskCtrlBase.obj
 0001:0007a960       ?GetSelectedTaskPercent@CTDLTaskCtrlBase@@QBEHXZ 0047b960 f   TDLTaskCtrlBase.obj
 0001:0007a9c8       ?GetSelectedTaskPath@CTDLTaskCtrlBase@@QBE?AVCString@@HH@Z 0047b9c8 f   TDLTaskCtrlBase.obj
 0001:0007ab0e       ?GetSelectedTaskCost@CTDLTaskCtrlBase@@QBENXZ 0047bb0e f   TDLTaskCtrlBase.obj
 0001:0007ab7f       ?GetSelectedTaskCustomAttributeData@CTDLTaskCtrlBase@@QBE?AVCString@@ABV2@H@Z 0047bb7f f   TDLTaskCtrlBase.obj
 0001:0007acb8       ?GetSelectedTaskAllocTo@CTDLTaskCtrlBase@@QBEHAAVCStringArray@@@Z 0047bcb8 f   TDLTaskCtrlBase.obj
 0001:0007ad88       ?GetSelectedTaskAllocBy@CTDLTaskCtrlBase@@QBE?AVCString@@XZ 0047bd88 f   TDLTaskCtrlBase.obj
 0001:0007ae84       ?GetSelectedTaskVersion@CTDLTaskCtrlBase@@QBE?AVCString@@XZ 0047be84 f   TDLTaskCtrlBase.obj
 0001:0007af80       ?GetSelectedTaskStatus@CTDLTaskCtrlBase@@QBE?AVCString@@XZ 0047bf80 f   TDLTaskCtrlBase.obj
 0001:0007b07c       ?GetSelectedTaskCategories@CTDLTaskCtrlBase@@QBEHAAVCStringArray@@@Z 0047c07c f   TDLTaskCtrlBase.obj
 0001:0007b14c       ?GetSelectedTaskTags@CTDLTaskCtrlBase@@QBEHAAVCStringArray@@@Z 0047c14c f   TDLTaskCtrlBase.obj
 0001:0007b21c       ?GetSelectedTaskDependencies@CTDLTaskCtrlBase@@QBEHAAVCStringArray@@@Z 0047c21c f   TDLTaskCtrlBase.obj
 0001:0007b2ec       ?GetSelectedTaskFileRef@CTDLTaskCtrlBase@@QBE?AVCString@@H@Z 0047c2ec f   TDLTaskCtrlBase.obj
 0001:0007b337       ?GetSelectedTaskFileRefs@CTDLTaskCtrlBase@@QBEHAAVCStringArray@@@Z 0047c337 f   TDLTaskCtrlBase.obj
 0001:0007b369       ?GetSelectedTaskFileRefCount@CTDLTaskCtrlBase@@QBEHXZ 0047c369 f   TDLTaskCtrlBase.obj
 0001:0007b395       ?GetSelectedTaskExtID@CTDLTaskCtrlBase@@QBE?AVCString@@XZ 0047c395 f   TDLTaskCtrlBase.obj
 0001:0007b3dd       ?CanSplitSelectedTask@CTDLTaskCtrlBase@@QBEHXZ 0047c3dd f   TDLTaskCtrlBase.obj
 0001:0007b42f       ?IsSelectedTaskDone@CTDLTaskCtrlBase@@QBEHXZ 0047c42f f   TDLTaskCtrlBase.obj
 0001:0007b44a       ?InitCheckboxImageList@CTDLTaskCtrlBase@@IAEHXZ 0047c44a f   TDLTaskCtrlBase.obj
 0001:0007b57f       ?FormatInfoTip@CTDLTaskCtrlBase@@IBE?AVCString@@K@Z 0047c57f f   TDLTaskCtrlBase.obj
 0001:0007bfa5       ?PreTranslateMessage@CTDLTaskCtrlBase@@UAEHPAUtagMSG@@@Z 0047cfa5 f   TDLTaskCtrlBase.obj
 0001:0007bff3       ?CopyStrT@Misc@@YAXABV?$CMap@VCString@@PBGKAAK@@AAV2@@Z 0047cff3 f i TDLTaskCtrlBase.obj
 0001:0007c069       ?MatchAllStrT@Misc@@YAHABV?$CMap@VCString@@PBGKAAK@@0@Z 0047d069 f i TDLTaskCtrlBase.obj
 0001:0007c0fc       ??0?$CMap@W4TDC_COLUMN@@W41@PBUTDCCOLUMN@@AAPBU2@@@QAE@H@Z 0047d0fc f i TDLTaskCtrlBase.obj
 0001:0007c123       ??1?$CMap@W4TDC_COLUMN@@W41@PBUTDCCOLUMN@@AAPBU2@@@UAE@XZ 0047d123 f i TDLTaskCtrlBase.obj
 0001:0007c156       ??_E?$CMap@W4TDC_COLUMN@@W41@PBUTDCCOLUMN@@AAPBU2@@@UAEPAXI@Z 0047d156 f i TDLTaskCtrlBase.obj
 0001:0007c156       ??_G?$CMap@W4TDC_COLUMN@@W41@PBUTDCCOLUMN@@AAPBU2@@@UAEPAXI@Z 0047d156 f i TDLTaskCtrlBase.obj
 0001:0007c172       ?GetNextAssoc@?$CMap@VCString@@PBGKAAK@@QBEXAAPAU__POSITION@@AAVCString@@AAK@Z 0047d172 f i TDLTaskCtrlBase.obj
 0001:0007c172       ?GetNextAssoc@?$CMap@VCString@@PBGPAVCMapStringToString@@AAPAV2@@@QBEXAAPAU__POSITION@@AAVCString@@AAPAVCMapStringToString@@@Z 0047d172 f i TDLTaskCtrlBase.obj
 0001:0007c1dd       ??_ECTDLTaskCtrlBase@@WEA@AEPAXI@Z 0047d1dd f i TDLTaskCtrlBase.obj
 0001:0007c1e5       ??0CTDLTaskIconDlg@@QAE@ABVCTDCImageList@@ABVCString@@PAVCWnd@@@Z 0047d1e5 f   TDLTaskIconDlg.obj
 0001:0007c275       ??_GCTDLTaskIconDlg@@UAEPAXI@Z 0047d275 f i TDLTaskIconDlg.obj
 0001:0007c275       ??_ECTDLTaskIconDlg@@UAEPAXI@Z 0047d275 f i TDLTaskIconDlg.obj
 0001:0007c291       ??0CTDLTaskIconDlg@@QAE@ABVCTDCImageList@@ABVCStringArray@@PAVCWnd@@@Z 0047d291 f   TDLTaskIconDlg.obj
 0001:0007c363       ?DoDataExchange@CTDLTaskIconDlg@@MAEXPAVCDataExchange@@@Z 0047d363 f   TDLTaskIconDlg.obj
 0001:0007c388       ?GetMessageMap@CTDLTaskIconDlg@@MBEPBUAFX_MSGMAP@@XZ 0047d388 f   TDLTaskIconDlg.obj
 0001:0007c38e       ?OnInitDialog@CTDLTaskIconDlg@@MAEHXZ 0047d38e f   TDLTaskIconDlg.obj
 0001:0007c473       ?GetIconName@CTDLTaskIconDlg@@QBE?AVCString@@XZ 0047d473 f   TDLTaskIconDlg.obj
 0001:0007c4b6       ?GetIconNames@CTDLTaskIconDlg@@QBEHAAVCStringArray@@@Z 0047d4b6 f   TDLTaskIconDlg.obj
 0001:0007c59e       ?GetUserIconName@CTDLTaskIconDlg@@QBE?AVCString@@ABV2@@Z 0047d59e f   TDLTaskIconDlg.obj
 0001:0007c5f7       ?EnableDisable@CTDLTaskIconDlg@@IAEXXZ 0047d5f7 f   TDLTaskIconDlg.obj
 0001:0007c655       ?BuildListCtrl@CTDLTaskIconDlg@@IAEXXZ 0047d655 f   TDLTaskIconDlg.obj
 0001:0007c97b       ?OnDblclkIconlist@CTDLTaskIconDlg@@IAEXPAUtagNMHDR@@PAJ@Z 0047d97b f   TDLTaskIconDlg.obj
 0001:0007ca25       ?OnItemchangedIconlist@CTDLTaskIconDlg@@IAEXPAUtagNMHDR@@PAJ@Z 0047da25 f   TDLTaskIconDlg.obj
 0001:0007caaf       ?OnBeginlabeleditIconlist@CTDLTaskIconDlg@@IAEXPAUtagNMHDR@@PAJ@Z 0047daaf f   TDLTaskIconDlg.obj
 0001:0007cad0       ?OnEndlabeleditIconlist@CTDLTaskIconDlg@@IAEXPAUtagNMHDR@@PAJ@Z 0047dad0 f   TDLTaskIconDlg.obj
 0001:0007cb61       ?OnDestroy@CTDLTaskIconDlg@@IAEXXZ 0047db61 f   TDLTaskIconDlg.obj
 0001:0007cbec       ?SaveRenamedImages@CTDLTaskIconDlg@@IAEXXZ 0047dbec f   TDLTaskIconDlg.obj
 0001:0007cd10       ?FindListItem@CTDLTaskIconDlg@@IBEHH@Z 0047dd10 f   TDLTaskIconDlg.obj
 0001:0007cd51       ?OnSize@CTDLTaskIconDlg@@IAEXIHH@Z 0047dd51 f   TDLTaskIconDlg.obj
 0001:0007ce92       ?OnGetMinMaxInfo@CTDLTaskIconDlg@@IAEXPAUtagMINMAXINFO@@@Z 0047de92 f   TDLTaskIconDlg.obj
 0001:0007cea9       ?OnEditlabel@CTDLTaskIconDlg@@IAEXXZ 0047dea9 f   TDLTaskIconDlg.obj
 0001:0007cef1       ?PreTranslateMessage@CTDLTaskIconDlg@@UAEHPAUtagMSG@@@Z 0047def1 f   TDLTaskIconDlg.obj
 0001:0007cf5b       ?OnEraseBkgnd@CTDLTaskIconDlg@@IAEHPAVCDC@@@Z 0047df5b f   TDLTaskIconDlg.obj
 0001:0007cf9b       ?SortFunc@CTDLTaskIconDlg@@KGHJJJ@Z 0047df9b f   TDLTaskIconDlg.obj
 0001:0007d005       ?GetImageName@CTDLTaskIconDlg@@IBE?AVCString@@H@Z 0047e005 f   TDLTaskIconDlg.obj
 0001:0007d3cf       ?GetRuntimeClass@CTDLTaskCtrlBase@@UBEPAUCRuntimeClass@@XZ 0047e3cf f   TDLTaskListCtrl.obj
 0001:0007d3cf       ?_GetBaseClass@CTDLTaskListCtrl@@KGPAUCRuntimeClass@@XZ 0047e3cf f   TDLTaskListCtrl.obj
 0001:0007d3cf       ?_GetBaseClass@CTDLTaskTreeCtrl@@KGPAUCRuntimeClass@@XZ 0047e3cf f   TDLTaskListCtrl.obj
 0001:0007d3d5       ?GetRuntimeClass@CTDLTaskListCtrl@@UBEPAUCRuntimeClass@@XZ 0047e3d5 f   TDLTaskListCtrl.obj
 0001:0007d3db       ??0CTDLTaskListCtrl@@QAE@ABVCTDCImageList@@ABVCToDoCtrlData@@ABVCToDoCtrlFind@@ABVCWordArray@@ABVCTDCColumnIDMap@@ABVCTDCCustomAttribDefinitionArray@@@Z 0047e3db f   TDLTaskListCtrl.obj
 0001:0007d443       ?GetSelectedTaskID@CTDLTaskListCtrl@@UBEKXZ 0047e443 f i TDLTaskListCtrl.obj
 0001:0007d459       ?GetSelectedCount@CTDLTaskListCtrl@@UBEHXZ 0047e459 f i TDLTaskListCtrl.obj
 0001:0007d46f       ?GetItemCount@CTDLTaskListCtrl@@UBEHXZ 0047e46f f i TDLTaskListCtrl.obj
 0001:0007d46f       ?GetVisibleItemCount@CTDLTaskListCtrl@@UBEHXZ 0047e46f f i TDLTaskListCtrl.obj
 0001:0007d485       ?GetColumnItemTaskID@CTDLTaskListCtrl@@MBEKH@Z 0047e485 f i TDLTaskListCtrl.obj
 0001:0007d497       ??_GCTDLTaskListCtrl@@UAEPAXI@Z 0047e497 f i TDLTaskListCtrl.obj
 0001:0007d497       ??_ECTDLTaskListCtrl@@UAEPAXI@Z 0047e497 f i TDLTaskListCtrl.obj
 0001:0007d4b3       ??1CTDLTaskListCtrl@@UAE@XZ 0047e4b3 f   TDLTaskListCtrl.obj
 0001:0007d4ff       ?GetMessageMap@CTDLTaskCtrlBase@@MBEPBUAFX_MSGMAP@@XZ 0047e4ff f   TDLTaskListCtrl.obj
 0001:0007d4ff       ?_GetBaseMessageMap@CTDLTaskTreeCtrl@@KGPBUAFX_MSGMAP@@XZ 0047e4ff f   TDLTaskListCtrl.obj
 0001:0007d4ff       ?_GetBaseMessageMap@CTDLTaskListCtrl@@KGPBUAFX_MSGMAP@@XZ 0047e4ff f   TDLTaskListCtrl.obj
 0001:0007d505       ?GetMessageMap@CTDLTaskListCtrl@@MBEPBUAFX_MSGMAP@@XZ 0047e505 f   TDLTaskListCtrl.obj
 0001:0007d50b       ?CreateTasksWnd@CTDLTaskListCtrl@@MAEHPAVCWnd@@ABVCRect@@H@Z 0047e50b f   TDLTaskListCtrl.obj
 0001:0007d57d       ?SetTasksImageList@CTDLTaskListCtrl@@MAEXPAU_IMAGELIST@@HH@Z 0047e57d f   TDLTaskListCtrl.obj
 0001:0007d5c2       ?IsListItemSelected@CTDLTaskCtrlBase@@MBEHPAUHWND__@@H@Z 0047e5c2 f   TDLTaskListCtrl.obj
 0001:0007d5c2       ?IsListItemSelected@CTDLTaskListCtrl@@MBEHPAUHWND__@@H@Z 0047e5c2 f   TDLTaskListCtrl.obj
 0001:0007d5dd       ?OnStyleUpdated@CTDLTaskListCtrl@@QAEXW4TDC_STYLE@@HH@Z 0047e5dd f   TDLTaskListCtrl.obj
 0001:0007d64d       ?BuildColumns@CTDLTaskListCtrl@@MAEHXZ 0047e64d f   TDLTaskListCtrl.obj
 0001:0007d6ba       ?HitTestTasksTask@CTDLTaskListCtrl@@MBEKABVCPoint@@@Z 0047e6ba f   TDLTaskListCtrl.obj
 0001:0007d70b       ?Release@CTDLTaskListCtrl@@MAEXXZ 0047e70b f   TDLTaskListCtrl.obj
 0001:0007d70b       ?Release@CTDLTaskTreeCtrl@@MAEXXZ 0047e70b f   TDLTaskListCtrl.obj
 0001:0007d73c       ?DeleteAll@CTDLTaskListCtrl@@UAEXXZ 0047e73c f   TDLTaskListCtrl.obj
 0001:0007d78b       ?RemoveDeletedItems@CTDLTaskListCtrl@@QAEXXZ 0047e78b f   TDLTaskListCtrl.obj
 0001:0007d853       ?GetTask@CTDLTaskListCtrl@@QBEPBVTODOITEM@@H@Z 0047e853 f i TDLTaskListCtrl.obj
 0001:0007d880       ?OnListCustomDraw@CTDLTaskListCtrl@@MAEJPAUtagNMLVCUSTOMDRAW@@@Z 0047e880 f   TDLTaskListCtrl.obj
 0001:0007db13       ?OnNotifySplitterChange@CTDLTaskListCtrl@@MAEXH@Z 0047eb13 f   TDLTaskListCtrl.obj
 0001:0007dbb1       ?OnListGetDispInfo@CTDLTaskListCtrl@@MAEJPAUtagLVDISPINFOW@@@Z 0047ebb1 f   TDLTaskListCtrl.obj
 0001:0007dcbc       ?WindowProc@CTDLTaskListCtrl@@MAEJPAUHWND__@@IIJ@Z 0047ecbc f   TDLTaskListCtrl.obj
 0001:0007dd61       ?NotifyParentSelChange@CTDLTaskListCtrl@@MAEXW4SELCHANGE_ACTION@CTDLTaskCtrlBase@@@Z 0047ed61 f   TDLTaskListCtrl.obj
 0001:0007dd9b       ?ScWindowProc@CTDLTaskListCtrl@@MAEJPAUHWND__@@IIJ@Z 0047ed9b f   TDLTaskListCtrl.obj
 0001:0007e63e       ?OnListSelectionChange@CTDLTaskListCtrl@@MAEXPAUtagNMLISTVIEW@@@Z 0047f63e f   TDLTaskListCtrl.obj
 0001:0007e6e5       ?HasHitTestFlag@CTDLTaskListCtrl@@KAHII@Z 0047f6e5 f   TDLTaskListCtrl.obj
 0001:0007e70e       ?HandleClientColumnClick@CTDLTaskListCtrl@@IAEHABVCPoint@@H@Z 0047f70e f   TDLTaskListCtrl.obj
 0001:0007e858       ?OnSetCursor@CTDLTaskListCtrl@@IAEHPAVCWnd@@II@Z 0047f858 f   TDLTaskListCtrl.obj
 0001:0007e900       ?RecalcColumnWidth@CTDLTaskListCtrl@@MBEHHPAVCDC@@@Z 0047f900 f   TDLTaskListCtrl.obj
 0001:0007e912       ?GetItemTitleRect@CTDLTaskListCtrl@@IBEHHW4TDC_TITLERECT@@AAVCRect@@PAVCDC@@PBG@Z 0047f912 f   TDLTaskListCtrl.obj
 0001:0007e9d2       ?GetSelectionBoundingRect@CTDLTaskListCtrl@@QBEHAAVCRect@@@Z 0047f9d2 f   TDLTaskListCtrl.obj
 0001:0007ea6f       ?GetLabelEditRect@CTDLTaskListCtrl@@QBEHAAVCRect@@@Z 0047fa6f f   TDLTaskListCtrl.obj
 0001:0007ea8d       ?InvalidateSelection@CTDLTaskListCtrl@@UAEHH@Z 0047fa8d f   TDLTaskListCtrl.obj
 0001:0007eaba       ?InvalidateTask@CTDLTaskListCtrl@@MAEHKH@Z 0047faba f   TDLTaskListCtrl.obj
 0001:0007eb02       ?InvalidateItem@CTDLTaskListCtrl@@QAEHHH@Z 0047fb02 f   TDLTaskListCtrl.obj
 0001:0007eb5c       ?GetSelectedItem@CTDLTaskListCtrl@@QBEHXZ 0047fb5c f   TDLTaskListCtrl.obj
 0001:0007eb7f       ?SelectItem@CTDLTaskListCtrl@@QAEHH@Z 0047fb7f f   TDLTaskListCtrl.obj
 0001:0007ec2f       ?EnsureSelectionVisible@CTDLTaskListCtrl@@UAEHXZ 0047fc2f f   TDLTaskListCtrl.obj
 0001:0007ece6       ?IsTaskSelected@CTDLTaskListCtrl@@UBEHK@Z 0047fce6 f   TDLTaskListCtrl.obj
 0001:0007ed29       ?GetSelectedTaskIDs@CTDLTaskListCtrl@@UBEHAAVCDWordArray@@H@Z 0047fd29 f   TDLTaskListCtrl.obj
 0001:0007ed5f       ?GetSelectedTaskIDs@CTDLTaskListCtrl@@QBEHAAVCDWordArray@@AAK@Z 0047fd5f f   TDLTaskListCtrl.obj
 0001:0007edec       ?SelectTasks@CTDLTaskListCtrl@@UAEHABVCDWordArray@@H@Z 0047fdec f   TDLTaskListCtrl.obj
 0001:0007ee74       ?SetSelectedTasks@CTDLTaskListCtrl@@IAEXABVCDWordArray@@K@Z 0047fe74 f   TDLTaskListCtrl.obj
 0001:0007ef6c       ?CacheSelection@CTDLTaskListCtrl@@QBEXAAUTDCSELECTIONCACHE@@H@Z 0047ff6c f   TDLTaskListCtrl.obj
 0001:0007f041       ?RestoreSelection@CTDLTaskListCtrl@@QAEXABUTDCSELECTIONCACHE@@@Z 00480041 f   TDLTaskListCtrl.obj
 0001:0007f125       ?DeselectAll@CTDLTaskListCtrl@@MAEXXZ 00480125 f   TDLTaskListCtrl.obj
 0001:0007f186       ?SelectAll@CTDLTaskListCtrl@@UAEHXZ 00480186 f   TDLTaskListCtrl.obj
 0001:0007f1ea       ?GetTopIndex@CTDLTaskListCtrl@@IBEHXZ 004801ea f   TDLTaskListCtrl.obj
 0001:0007f222       ?SetTopIndex@CTDLTaskListCtrl@@IAEHH@Z 00480222 f   TDLTaskListCtrl.obj
 0001:0007f29d       ?GetFocusedListTaskID@CTDLTaskListCtrl@@QBEKXZ 0048029d f   TDLTaskListCtrl.obj
 0001:0007f2c8       ?GetFocusedListItem@CTDLTaskListCtrl@@QBEHXZ 004802c8 f   TDLTaskListCtrl.obj
 0001:0007f2de       ?FindTaskItem@CTDLTaskListCtrl@@QBEHK@Z 004802de f   TDLTaskListCtrl.obj
 0001:0007f2fa       ?GetListItemState@CTDLTaskListCtrl@@IBE?AW4GM_ITEMSTATE@@H@Z 004802fa f   TDLTaskListCtrl.obj
 0001:0007f367       ?GetColumnItemState@CTDLTaskListCtrl@@MBE?AW4GM_ITEMSTATE@@H@Z 00480367 f   TDLTaskListCtrl.obj
 0001:0007f373       ??_ECTDLTaskListCtrl@@WEA@AEPAXI@Z 00480373 f i TDLTaskListCtrl.obj
 0001:000802ca       ??0CONTENTFORMAT@@QAE@PBG@Z 004812ca f i TDLTasklistImportDlg.obj
 0001:0008031c       ??0CTDLTasklistImportCtrl@@QAE@XZ 0048131c f   TDLTasklistImportDlg.obj
 0001:0008033d       ?Sort@CToDoCtrl@@UAEXW4TDC_COLUMN@@H@Z 0048133d f i TDLTasklistImportDlg.obj
 0001:00080353       ?CanSortBy@CToDoCtrl@@UBEHW4TDC_COLUMN@@@Z 00481353 f i TDLTasklistImportDlg.obj
 0001:0008036c       ?MultiSort@CToDoCtrl@@UAEXABUTDSORTCOLUMNS@@@Z 0048136c f i TDLTasklistImportDlg.obj
 0001:0008037e       ?GetSortBy@CToDoCtrl@@UBE?AW4TDC_COLUMN@@XZ 0048137e f i TDLTasklistImportDlg.obj
 0001:00080385       ?GetSortBy@CToDoCtrl@@UBEXAAUTDSORTCOLUMNS@@@Z 00481385 f i TDLTasklistImportDlg.obj
 0001:00080397       ?IsSorting@CToDoCtrl@@UBEHXZ 00481397 f i TDLTasklistImportDlg.obj
 0001:000803a2       ?IsMultiSorting@CToDoCtrl@@UBEHXZ 004813a2 f i TDLTasklistImportDlg.obj
 0001:000803ad       ?IsSortingBy@CToDoCtrl@@UBEHW4TDC_COLUMN@@@Z 004813ad f i TDLTasklistImportDlg.obj
 0001:000803bf       ?Resort@CToDoCtrl@@UAEXH@Z 004813bf f i TDLTasklistImportDlg.obj
 0001:000803d1       ?ResortSelectedTaskParents@CToDoCtrl@@UAEXXZ 004813d1 f i TDLTasklistImportDlg.obj
 0001:000803dc       ?CanMoveSelectedTask@CToDoCtrl@@UBEHW4TDC_MOVETASK@@@Z 004813dc f i TDLTasklistImportDlg.obj
 0001:000803ee       ?TasksHaveFocus@CToDoCtrl@@UBEHXZ 004813ee f i TDLTasklistImportDlg.obj
 0001:000803f9       ?Copy@CEnListCtrl@@MAEXXZ  004813f9 f i TDLTasklistImportDlg.obj
 0001:000803f9       ?NotifyEndPreferencesUpdate@CToDoCtrl@@UAEXXZ 004813f9 f i TDLTasklistImportDlg.obj
 0001:000803f9       ?AssertValid@CObject@@UBEXXZ 004813f9 f i TDLTasklistImportDlg.obj
 0001:000803f9       ?OnCancel@CTDLFilterBar@@MAEXXZ 004813f9 f i TDLTasklistImportDlg.obj
 0001:000803f9       ??3@YAXPAX0@Z              004813f9 f i TDLTasklistImportDlg.obj
 0001:000803f9       ?Cut@CEnListCtrl@@MAEXXZ   004813f9 f i TDLTasklistImportDlg.obj
 0001:000803f9       ?NotifyBeginPreferencesUpdate@CToDoCtrl@@UAEXXZ 004813f9 f i TDLTasklistImportDlg.obj
 0001:000803f9       ?Paste@CEnListCtrl@@MAEXXZ 004813f9 f i TDLTasklistImportDlg.obj
 0001:000803f9       ?PostDetachWindow@CSubclassWnd@@MAEXXZ 004813f9 f i TDLTasklistImportDlg.obj
 0001:000803f9       ?OnOK@CTDLFilterBar@@MAEXXZ 004813f9 f i TDLTasklistImportDlg.obj
 0001:000803f9       ?Delete@CEnListCtrl@@MAEXXZ 004813f9 f i TDLTasklistImportDlg.obj
 0001:000803f9       ?PreDetachWindow@CSubclassWnd@@MAEXXZ 004813f9 f i TDLTasklistImportDlg.obj
 0001:000803f9       ?OnOK@CToDoListWnd@@MAEXXZ 004813f9 f i TDLTasklistImportDlg.obj
 0001:000803f9       ?PostCreate@CRuntimeDlg@@MAEXXZ 004813f9 f i TDLTasklistImportDlg.obj
 0001:000803fa       ?InvalidateItem@CToDoCtrl@@MAEXPAU_TREEITEM@@H@Z 004813fa f i TDLTasklistImportDlg.obj
 0001:00080410       ?OnStylesUpdated@CToDoCtrl@@MAEXXZ 00481410 f i TDLTasklistImportDlg.obj
 0001:0008041b       ?OnTaskIconsChanged@CToDoCtrl@@MAEXXZ 0048141b f i TDLTasklistImportDlg.obj
 0001:00080426       ??_GCTDLTasklistImportCtrl@@UAEPAXI@Z 00481426 f i TDLTasklistImportDlg.obj
 0001:00080426       ??_ECTDLTasklistImportCtrl@@UAEPAXI@Z 00481426 f i TDLTasklistImportDlg.obj
 0001:00080442       ?ShowAllColumns@CTDLTasklistImportCtrl@@QAEXXZ 00481442 f   TDLTasklistImportDlg.obj
 0001:0008048c       ?DeselectAll@CTDLTasklistImportCtrl@@QAEXXZ 0048148c f   TDLTasklistImportDlg.obj
 0001:0008049e       ??0CTDLTasklistImportDlg@@QAE@ABVCString@@PAVCWnd@@@Z 0048149e f   TDLTasklistImportDlg.obj
 0001:00080535       ??_ECTDLTasklistImportDlg@@UAEPAXI@Z 00481535 f i TDLTasklistImportDlg.obj
 0001:00080535       ??_GCTDLTasklistImportDlg@@UAEPAXI@Z 00481535 f i TDLTasklistImportDlg.obj
 0001:00080551       ?DoDataExchange@CTDLTasklistImportDlg@@MAEXPAVCDataExchange@@@Z 00481551 f   TDLTasklistImportDlg.obj
 0001:00080599       ?GetMessageMap@CTDLTasklistImportDlg@@MBEPBUAFX_MSGMAP@@XZ 00481599 f   TDLTasklistImportDlg.obj
 0001:0008059f       ?OnInitDialog@CTDLTasklistImportDlg@@MAEHXZ 0048159f f   TDLTasklistImportDlg.obj
 0001:000806b7       ?OnSelectall@CTDLTasklistImportDlg@@IAEXXZ 004816b7 f   TDLTasklistImportDlg.obj
 0001:000806c2       ?OnSelectnone@CTDLTasklistImportDlg@@IAEXXZ 004816c2 f   TDLTasklistImportDlg.obj
 0001:000806cd       ?OnTDCNotifySelectionChange@CTDLTasklistImportDlg@@IAEJIJ@Z 004816cd f   TDLTasklistImportDlg.obj
 0001:00080718       ?OnOK@CTDLTasklistImportDlg@@MAEXXZ 00481718 f   TDLTasklistImportDlg.obj
 0001:00080791       ?GetSelectedTasks@CTDLTasklistImportDlg@@QAE?AW4IIMPORT_RESULT@@PAVITaskList8@@@Z 00481791 f   TDLTasklistImportDlg.obj
 0001:00080801       ?ResetSelectedTaskCreationDate@CTDLTasklistImportDlg@@IAEXPAXH@Z 00481801 f   TDLTasklistImportDlg.obj
 0001:00080877       ??0CTDLTasklistStorageMgr@@QAE@XZ 00481877 f   TDLTasklistStorageMgr.obj
 0001:00080889       ??_GCTDLTasklistStorageMgr@@UAEPAXI@Z 00481889 f i TDLTasklistStorageMgr.obj
 0001:00080889       ??_ECTDLTasklistStorageMgr@@UAEPAXI@Z 00481889 f i TDLTasklistStorageMgr.obj
 0001:000808a5       ??1CTDLTasklistStorageMgr@@UAE@XZ 004818a5 f   TDLTasklistStorageMgr.obj
 0001:000808b0       ?Initialize@CTDLTasklistStorageMgr@@MBEXXZ 004818b0 f   TDLTasklistStorageMgr.obj
 0001:000808bc       ?RetrieveTasklist@CTDLTasklistStorageMgr@@QAEHAAUTSM_TASKLISTINFO@@AAVCTaskFile@@HPAVIPreferences@@H@Z 004818bc f   TDLTasklistStorageMgr.obj
 0001:0008096c       ?StoreTasklist@CTDLTasklistStorageMgr@@QAEHAAUTSM_TASKLISTINFO@@ABVCTaskFile@@HPAVIPreferences@@H@Z 0048196c f   TDLTasklistStorageMgr.obj
 0001:00080d84       ?GetRuntimeClass@CTDLTaskTreeCtrl@@UBEPAUCRuntimeClass@@XZ 00481d84 f   TDLTaskTreeCtrl.obj
 0001:00080d8a       ??0CTDLTaskTreeCtrl@@QAE@ABVCTDCImageList@@ABVCToDoCtrlData@@ABVCWordArray@@ABVCTDCColumnIDMap@@ABVCTDCCustomAttribDefinitionArray@@@Z 00481d8a f   TDLTaskTreeCtrl.obj
 0001:00080e44       ?GetSelectedTaskID@CTDLTaskTreeCtrl@@UBEKXZ 00481e44 f i TDLTaskTreeCtrl.obj
 0001:00080e60       ?GetSelectedCount@CTDLTaskTreeCtrl@@UBEHXZ 00481e60 f i TDLTaskTreeCtrl.obj
 0001:00080e67       ?IsTaskSelected@CTDLTaskTreeCtrl@@UBEHK@Z 00481e67 f i TDLTaskTreeCtrl.obj
 0001:00080e79       ?GetItemCount@CTDLTaskTreeCtrl@@UBEHXZ 00481e79 f i TDLTaskTreeCtrl.obj
 0001:00080e8f       ?GetVisibleItemCount@CTDLTaskTreeCtrl@@UBEHXZ 00481e8f f i TDLTaskTreeCtrl.obj
 0001:00080ea5       ?Tasks@CTDLTaskTreeCtrl@@MBEPAUHWND__@@XZ 00481ea5 f i TDLTaskTreeCtrl.obj
 0001:00080ea5       ?Tasks@CTDLTaskListCtrl@@MBEPAUHWND__@@XZ 00481ea5 f i TDLTaskTreeCtrl.obj
 0001:00080eb4       ??_GCTDLTaskTreeCtrl@@UAEPAXI@Z 00481eb4 f i TDLTaskTreeCtrl.obj
 0001:00080eb4       ??_ECTDLTaskTreeCtrl@@UAEPAXI@Z 00481eb4 f i TDLTaskTreeCtrl.obj
 0001:00080ed0       ??1CTDLTaskTreeCtrl@@UAE@XZ 00481ed0 f   TDLTaskTreeCtrl.obj
 0001:00080f4c       ?GetMessageMap@CTDLTaskTreeCtrl@@MBEPBUAFX_MSGMAP@@XZ 00481f4c f   TDLTaskTreeCtrl.obj
 0001:00080f52       ?CreateTasksWnd@CTDLTaskTreeCtrl@@MAEHPAVCWnd@@ABVCRect@@H@Z 00481f52 f   TDLTaskTreeCtrl.obj
 0001:00080f7d       ?IsTreeItemSelected@CTDLTaskTreeCtrl@@MBEHPAUHWND__@@PAU_TREEITEM@@@Z 00481f7d f   TDLTaskTreeCtrl.obj
 0001:00080f8f       ?SelectItem@CTDLTaskTreeCtrl@@QAEHPAU_TREEITEM@@@Z 00481f8f f   TDLTaskTreeCtrl.obj
 0001:00080f9f       ?SelectItem@CTDLTaskTreeCtrl@@IAEHPAU_TREEITEM@@HW4SELCHANGE_ACTION@CTDLTaskCtrlBase@@@Z 00481f9f f   TDLTaskTreeCtrl.obj
 0001:000810c5       ??1CHoldHScroll@@QAE@XZ    004820c5 f i TDLTaskTreeCtrl.obj
 0001:000810ff       ?DeselectAll@CTDLTaskTreeCtrl@@UAEXXZ 004820ff f   TDLTaskTreeCtrl.obj
 0001:0008115e       ?SelectAll@CTDLTaskTreeCtrl@@UAEHXZ 0048215e f   TDLTaskTreeCtrl.obj
 0001:00081195       ?OnStylesUpdated@CTDLTaskTreeCtrl@@QAEXXZ 00482195 f   TDLTaskTreeCtrl.obj
 0001:000811a6       ?OnStyleUpdated@CTDLTaskTreeCtrl@@QAEXW4TDC_STYLE@@HH@Z 004821a6 f   TDLTaskTreeCtrl.obj
 0001:00081215       ?BuildColumns@CTDLTaskTreeCtrl@@MAEHXZ 00482215 f   TDLTaskTreeCtrl.obj
 0001:0008121a       ?HitTestTasksTask@CTDLTaskTreeCtrl@@MBEKABVCPoint@@@Z 0048221a f   TDLTaskTreeCtrl.obj
 0001:0008126c       ?SetExpandedTasks@CTDLTaskTreeCtrl@@QAEXABVCDWordArray@@@Z 0048226c f   TDLTaskTreeCtrl.obj
 0001:00081385       ?EnsureSelectionVisible@CTDLTaskTreeCtrl@@UAEHXZ 00482385 f   TDLTaskTreeCtrl.obj
 0001:000814c7       ?IsColumnShowing@CTDLTaskTreeCtrl@@MBEHW4TDC_COLUMN@@@Z 004824c7 f   TDLTaskTreeCtrl.obj
 0001:000814de       ?IsTreeItemLineOdd@CTDLTaskTreeCtrl@@IBEHPAU_TREEITEM@@@Z 004824de f   TDLTaskTreeCtrl.obj
 0001:000814f6       ?GetListItem@CTDLTaskTreeCtrl@@IBEHPAU_TREEITEM@@@Z 004824f6 f   TDLTaskTreeCtrl.obj
 0001:00081512       ?DeleteAll@CTDLTaskTreeCtrl@@UAEXXZ 00482512 f   TDLTaskTreeCtrl.obj
 0001:0008153e       ?ExpandAll@CTDLTaskTreeCtrl@@QAEXH@Z 0048253e f   TDLTaskTreeCtrl.obj
 0001:00081586       ?ExpandItem@CTDLTaskTreeCtrl@@QAEXPAU_TREEITEM@@HH@Z 00482586 f   TDLTaskTreeCtrl.obj
 0001:000816e5       ?CanExpandItem@CTDLTaskTreeCtrl@@QBEHPAU_TREEITEM@@H@Z 004826e5 f   TDLTaskTreeCtrl.obj
 0001:00081725       ?ResortSelectedTaskParents@CTDLTaskTreeCtrl@@QAEXXZ 00482725 f   TDLTaskTreeCtrl.obj
 0001:0008185d       ?OnTreeCustomDraw@CTDLTaskTreeCtrl@@MAEJPAUtagNMTVCUSTOMDRAW@@@Z 0048285d f   TDLTaskTreeCtrl.obj
 0001:00081aae       ?GetSelectionBoundingRect@CTDLTaskTreeCtrl@@QBEHAAVCRect@@@Z 00482aae f   TDLTaskTreeCtrl.obj
 0001:00081ae6       ?GetTreeItemState@CTDLTaskTreeCtrl@@IBE?AW4GM_ITEMSTATE@@PAU_TREEITEM@@@Z 00482ae6 f   TDLTaskTreeCtrl.obj
 0001:00081b46       ?GetColumnItemState@CTDLTaskTreeCtrl@@MBE?AW4GM_ITEMSTATE@@H@Z 00482b46 f   TDLTaskTreeCtrl.obj
 0001:00081b64       ?OnListSelectionChange@CTDLTaskTreeCtrl@@MAEXPAUtagNMLISTVIEW@@@Z 00482b64 f   TDLTaskTreeCtrl.obj
 0001:00081cac       ?SyncColumnSelectionToTasks@CTDLTaskTreeCtrl@@IAEXXZ 00482cac f   TDLTaskTreeCtrl.obj
 0001:00081e47       ?NotifyParentSelChange@CTDLTaskTreeCtrl@@MAEXW4SELCHANGE_ACTION@CTDLTaskCtrlBase@@@Z 00482e47 f   TDLTaskTreeCtrl.obj
 0001:00081eb1       ?OnTreeSelectionChange@CTDLTaskTreeCtrl@@MAEXPAUtagNMTREEVIEWW@@@Z 00482eb1 f   TDLTaskTreeCtrl.obj
 0001:00082045       ??8CHTIList@@QAEHABV0@@Z   00483045 f i TDLTaskTreeCtrl.obj
 0001:00082087       ?PreTranslateMessage@CTDLTaskTreeCtrl@@UAEHPAUtagMSG@@@Z 00483087 f   TDLTaskTreeCtrl.obj
 0001:000820ea       ?HandleClientColumnClick@CTDLTaskTreeCtrl@@IAEHABVCPoint@@H@Z 004830ea f   TDLTaskTreeCtrl.obj
 0001:000821c3       ??0CPoint@@QAE@UtagPOINT@@@Z 004831c3 f i TDLTaskTreeCtrl.obj
 0001:000821d5       ?OnSetCursor@CTDLTaskTreeCtrl@@IAEHPAVCWnd@@II@Z 004831d5 f   TDLTaskTreeCtrl.obj
 0001:00082265       ?OnTreeGetDispInfo@CTDLTaskTreeCtrl@@MAEJPAUtagTVDISPINFOW@@@Z 00483265 f   TDLTaskTreeCtrl.obj
 0001:00082362       ?WindowProc@CTDLTaskTreeCtrl@@MAEJPAUHWND__@@IIJ@Z 00483362 f   TDLTaskTreeCtrl.obj
 0001:00082589       ?BeginLabelEditTimer@CTDLTaskTreeCtrl@@IAEXXZ 00483589 f   TDLTaskTreeCtrl.obj
 0001:000825b1       ?EndLabelEditTimer@CTDLTaskTreeCtrl@@IAEXXZ 004835b1 f   TDLTaskTreeCtrl.obj
 0001:000825cf       ?ScWindowProc@CTDLTaskTreeCtrl@@MAEJPAUHWND__@@IIJ@Z 004835cf f   TDLTaskTreeCtrl.obj
 0001:00082fa5       ??0CDisableTreeTips@@QAE@AAVCTreeCtrl@@HH@Z 00483fa5 f i TDLTaskTreeCtrl.obj
 0001:0008300a       ??1CDisableTreeTips@@QAE@XZ 0048400a f i TDLTaskTreeCtrl.obj
 0001:00083052       ?GetToolTips@CTreeCtrl@@QBEPAVCToolTipCtrl@@XZ 00484052 f i TDLTaskTreeCtrl.obj
 0001:0008306b       ?ExpandList@CTDLTaskTreeCtrl@@IAEXPAU_TREEITEM@@@Z 0048406b f   TDLTaskTreeCtrl.obj
 0001:000830ab       ?ExpandList@CTDLTaskTreeCtrl@@IAEXPAU_TREEITEM@@AAH@Z 004840ab f   TDLTaskTreeCtrl.obj
 0001:000830de       ?CollapseList@CTDLTaskTreeCtrl@@IAEXPAU_TREEITEM@@@Z 004840de f   TDLTaskTreeCtrl.obj
 0001:0008310d       ?GetColumnItemTaskID@CTDLTaskTreeCtrl@@MBEKH@Z 0048410d f   TDLTaskTreeCtrl.obj
 0001:0008312f       ?RecalcColumnWidth@CTDLTaskTreeCtrl@@MBEHHPAVCDC@@@Z 0048412f f   TDLTaskTreeCtrl.obj
 0001:00083141       ?GetItemTitleRect@CTDLTaskTreeCtrl@@IBEHPAU_TREEITEM@@W4TDC_TITLERECT@@AAVCRect@@PAVCDC@@PBG@Z 00484141 f   TDLTaskTreeCtrl.obj
 0001:000831fe       ?GetLabelEditRect@CTDLTaskTreeCtrl@@QBEHAAVCRect@@@Z 004841fe f   TDLTaskTreeCtrl.obj
 0001:00083222       ?RemoveOrphanTreeItemReferences@CTDLTaskTreeCtrl@@QAEHPAU_TREEITEM@@@Z 00484222 f   TDLTaskTreeCtrl.obj
 0001:000832b7       ?MoveItem@CTDLTaskTreeCtrl@@QAEPAU_TREEITEM@@PAU2@00@Z 004842b7 f   TDLTaskTreeCtrl.obj
 0001:000833a6       ?MoveSelection@CTDLTaskTreeCtrl@@QAEHW4TDC_MOVETASK@@@Z 004843a6 f   TDLTaskTreeCtrl.obj
 0001:00083435       ?GetLastItem@CTreeSelectionHelper@@QBEPAU_TREEITEM@@XZ 00484435 f i TDLTaskTreeCtrl.obj
 0001:00083443       ?MoveSelection@CTDLTaskTreeCtrl@@QAEXPAU_TREEITEM@@0@Z 00484443 f   TDLTaskTreeCtrl.obj
 0001:0008361d       ?CanMoveSelection@CTDLTaskTreeCtrl@@QBEHW4TDC_MOVETASK@@@Z 0048461d f   TDLTaskTreeCtrl.obj
 0001:000836fc       ?CanSelectTasksInHistory@CTDLTaskTreeCtrl@@QBEHH@Z 004846fc f   TDLTaskTreeCtrl.obj
 0001:0008371e       ?SelectTasksInHistory@CTDLTaskTreeCtrl@@QAEHH@Z 0048471e f   TDLTaskTreeCtrl.obj
 0001:00083755       ?CanMoveItem@CTDLTaskTreeCtrl@@IBEHPAU_TREEITEM@@W4TDC_MOVETASK@@@Z 00484755 f   TDLTaskTreeCtrl.obj
 0001:000837c3       ?InvalidateSelection@CTDLTaskTreeCtrl@@UAEHH@Z 004847c3 f   TDLTaskTreeCtrl.obj
 0001:00083867       ?InvalidateTask@CTDLTaskTreeCtrl@@UAEHKH@Z 00484867 f   TDLTaskTreeCtrl.obj
 0001:000838a2       ?InvalidateItem@CTDLTaskTreeCtrl@@QAEHPAU_TREEITEM@@H@Z 004848a2 f   TDLTaskTreeCtrl.obj
 0001:000838fa       ?CacheSelection@CTDLTaskTreeCtrl@@QBEXAAUTDCSELECTIONCACHE@@H@Z 004848fa f   TDLTaskTreeCtrl.obj
 0001:00083981       ?RestoreSelection@CTDLTaskTreeCtrl@@QAEHABUTDCSELECTIONCACHE@@@Z 00484981 f   TDLTaskTreeCtrl.obj
 0001:00083add       ?GetSelectedTaskIDs@CTDLTaskTreeCtrl@@UBEHAAVCDWordArray@@H@Z 00484add f   TDLTaskTreeCtrl.obj
 0001:00083b2b       ?GetSelectedTaskIDs@CTDLTaskTreeCtrl@@QBEHAAVCDWordArray@@AAKH@Z 00484b2b f   TDLTaskTreeCtrl.obj
 0001:00083c1b       ?SelectTasks@CTDLTaskTreeCtrl@@UAEHABVCDWordArray@@H@Z 00484c1b f   TDLTaskTreeCtrl.obj
 0001:00083d6e       ?MultiSelectItem@CTDLTaskTreeCtrl@@IAEHPAU_TREEITEM@@W4TSH_SELECT@@H@Z 00484d6e f   TDLTaskTreeCtrl.obj
 0001:00083dcc       ?GetTaskParentID@CTDLTaskTreeCtrl@@QBEKPAU_TREEITEM@@@Z 00484dcc f   TDLTaskTreeCtrl.obj
 0001:00083e14       ?InsertItem@CTDLTaskTreeCtrl@@QAEPAU_TREEITEM@@KPAU2@0@Z 00484e14 f   TDLTaskTreeCtrl.obj
 0001:00083e42       ?GetInsertLocation@CTDLTaskTreeCtrl@@QBEHW4TDC_MOVETASK@@AAK1@Z 00484e42 f   TDLTaskTreeCtrl.obj
 0001:00083ea2       ?GetInsertLocation@CTDLTaskTreeCtrl@@QBEHW4TDC_MOVETASK@@AAPAU_TREEITEM@@1@Z 00484ea2 f   TDLTaskTreeCtrl.obj
 0001:00083fe3       ?GetInsertLocation@CTDLTaskTreeCtrl@@QBEHW4TDC_INSERTWHERE@@AAPAU_TREEITEM@@1@Z 00484fe3 f   TDLTaskTreeCtrl.obj
 0001:00084114       ?SaveState@CTDLTaskTreeCtrl@@QBEXAAVCPreferences@@ABVCString@@H@Z 00485114 f   TDLTaskTreeCtrl.obj
 0001:000841bf       ?LoadState@CTDLTaskTreeCtrl@@QAEPAU_TREEITEM@@ABVCPreferences@@ABVCString@@H@Z 004851bf f   TDLTaskTreeCtrl.obj
 0001:000842d1       ?SaveTreeExpandedState@CTDLTaskTreeCtrl@@IBEHAAVCPreferences@@ABVCString@@PAU_TREEITEM@@H@Z 004852d1 f   TDLTaskTreeCtrl.obj
 0001:000843c9       ?SetTasksImageList@CTDLTaskTreeCtrl@@MAEXPAU_IMAGELIST@@HH@Z 004853c9 f   TDLTaskTreeCtrl.obj
 0001:00084407       ?CalcSelectedTaskTimeEstimate@CTDLTaskTreeCtrl@@QBENW4TDC_UNITS@@@Z 00485407 f   TDLTaskTreeCtrl.obj
 0001:000844ac       ?CalcSelectedTaskTimeSpent@CTDLTaskTreeCtrl@@QBENW4TDC_UNITS@@@Z 004854ac f   TDLTaskTreeCtrl.obj
 0001:00084551       ?CalcSelectedTaskCost@CTDLTaskTreeCtrl@@QBENXZ 00485551 f   TDLTaskTreeCtrl.obj
 0001:000845f1       ??0?$CMap@KKPAU_TREEITEM@@AAPAU1@@@QAE@H@Z 004855f1 f i TDLTaskTreeCtrl.obj
 0001:00084618       ?RemoveAt@?$CList@PAU_TREEITEM@@PAU1@@@QAEXPAU__POSITION@@@Z 00485618 f i TDLTaskTreeCtrl.obj
 0001:0008464f       ?Find@?$CList@PAU_TREEITEM@@PAU1@@@QBEPAU__POSITION@@PAU_TREEITEM@@PAU2@@Z 0048564f f i TDLTaskTreeCtrl.obj
 0001:00084672       ?FreeNode@?$CList@PAU_TREEITEM@@PAU1@@@IAEXPAUCNode@1@@Z 00485672 f i TDLTaskTreeCtrl.obj
 0001:0008468b       ??_ECTDLTaskTreeCtrl@@WEA@AEPAXI@Z 0048568b f i TDLTaskTreeCtrl.obj
 0001:000846eb       ??0CTDLTaskViewListBox@@QAE@PBVCUIExtensionMgr@@@Z 004856eb f   TDLTaskViewListBox.obj
 0001:00084736       ??_ECTDLTaskViewListBox@@UAEPAXI@Z 00485736 f i TDLTaskViewListBox.obj
 0001:00084736       ??_GCTDLTaskViewListBox@@UAEPAXI@Z 00485736 f i TDLTaskViewListBox.obj
 0001:00084752       ??1CTDLTaskViewListBox@@UAE@XZ 00485752 f   TDLTaskViewListBox.obj
 0001:0008479c       ?_GetBaseMessageMap@CTDLTaskViewListBox@@KGPBUAFX_MSGMAP@@XZ 0048579c f   TDLTaskViewListBox.obj
 0001:0008479c       ?_GetBaseMessageMap@CTDLColumnListBox@@KGPBUAFX_MSGMAP@@XZ 0048579c f   TDLTaskViewListBox.obj
 0001:0008479c       ?_GetBaseMessageMap@CTDLAttributeListBox@@KGPBUAFX_MSGMAP@@XZ 0048579c f   TDLTaskViewListBox.obj
 0001:000847a2       ?GetMessageMap@CTDLTaskViewListBox@@MBEPBUAFX_MSGMAP@@XZ 004857a2 f   TDLTaskViewListBox.obj
 0001:000847a8       ?PreSubclassWindow@CTDLTaskViewListBox@@MAEXXZ 004857a8 f   TDLTaskViewListBox.obj
 0001:000847cb       ?OnCreate@CTDLTaskViewListBox@@IAEHPAUtagCREATESTRUCTW@@@Z 004857cb f   TDLTaskViewListBox.obj
 0001:000847fe       ?OnInitListBox@CTDLTaskViewListBox@@IAEJIJ@Z 004857fe f   TDLTaskViewListBox.obj
 0001:00084808       ?BuildList@CTDLTaskViewListBox@@IAEXXZ 00485808 f   TDLTaskViewListBox.obj
 0001:0008493a       ?AddItemImage@CTDLTaskViewListBox@@IAEHPAUHICON__@@H@Z 0048593a f   TDLTaskViewListBox.obj
 0001:0008498d       ?SetHiddenViews@CTDLTaskViewListBox@@QAEXABVCStringArray@@@Z 0048598d f   TDLTaskViewListBox.obj
 0001:00084a37       ?GetHiddenViews@CTDLTaskViewListBox@@QBEHAAVCStringArray@@@Z 00485a37 f   TDLTaskViewListBox.obj
 0001:00084a45       ?GetViews@CTDLTaskViewListBox@@IBEHAAVCStringArray@@H@Z 00485a45 f   TDLTaskViewListBox.obj
 0001:00084b54       ?OnDestroy@CTDLTaskViewListBox@@IAEXXZ 00485b54 f   TDLTaskViewListBox.obj
 0001:00084b69       ?PreDrawItem@CTDLTaskViewListBox@@MAEXPAUtagDRAWITEMSTRUCT@@@Z 00485b69 f   TDLTaskViewListBox.obj
 0001:00084c31       ?GetImageIndex@CTDLTaskViewListBox@@IBEHH@Z 00485c31 f   TDLTaskViewListBox.obj
 0001:00084cc2       ?OnActivate@CWnd@@IAEXIPAV1@H@Z 00485cc2 f i TDLTimeTrackerDlg.obj
 0001:00084cca       ?OnTimer@CWnd@@IAEXI@Z     00485cca f i TDLTimeTrackerDlg.obj
 0001:00085b6f       ??0TRACKITEM@@QAE@XZ       00486b6f f   TDLTimeTrackerDlg.obj
 0001:00085ba8       ??8TRACKITEM@@QBEHABU0@@Z  00486ba8 f   TDLTimeTrackerDlg.obj
 0001:00085bdc       ??9TRACKITEM@@QBEHABU0@@Z  00486bdc f   TDLTimeTrackerDlg.obj
 0001:00085bed       ?GetTaskTitle@TRACKITEM@@QBE?AVCString@@H@Z 00486bed f   TDLTimeTrackerDlg.obj
 0001:00085c6b       ??0TRACKTASKLIST@@QAE@XZ   00486c6b f   TDLTimeTrackerDlg.obj
 0001:00085caa       ??_GTRACKTASKLIST@@UAEPAXI@Z 00486caa f i TDLTimeTrackerDlg.obj
 0001:00085caa       ??_ETRACKTASKLIST@@UAEPAXI@Z 00486caa f i TDLTimeTrackerDlg.obj
 0001:00085cc6       ??1TRACKTASKLIST@@UAE@XZ   00486cc6 f   TDLTimeTrackerDlg.obj
 0001:00085cdb       ?SetTasks@TRACKTASKLIST@@QAEHABVCTaskFile@@@Z 00486cdb f   TDLTimeTrackerDlg.obj
 0001:00085d79       ?UpdateTasks@TRACKTASKLIST@@IAEHABVCTaskFile@@PAXABVCString@@ABV?$CMap@KKHH@@@Z 00486d79 f   TDLTimeTrackerDlg.obj
 0001:00085f33       ??H@YG?AVCString@@ABV0@D@Z 00486f33 f i TDLTimeTrackerDlg.obj
 0001:00085f53       ??1TRACKITEM@@QAE@XZ       00486f53 f i TDLTimeTrackerDlg.obj
 0001:00085f88       ??4TRACKITEM@@QAEAAU0@ABU0@@Z 00486f88 f i TDLTimeTrackerDlg.obj
 0001:00085fb5       ?UpdateTasks@TRACKTASKLIST@@QAEHABVCTaskFile@@@Z 00486fb5 f   TDLTimeTrackerDlg.obj
 0001:0008604d       ?RemoveDeletedtasks@TRACKTASKLIST@@QAEHXZ 0048704d f   TDLTimeTrackerDlg.obj
 0001:000860a2       ?BuildTaskMap@TRACKTASKLIST@@IBEXAAV?$CMap@KKHH@@@Z 004870a2 f   TDLTimeTrackerDlg.obj
 0001:000860eb       ?IsTracking@TRACKTASKLIST@@QBEHK@Z 004870eb f   TDLTimeTrackerDlg.obj
 0001:0008610e       ??0CTDCTrackTasklistArray@@QAE@XZ 0048710e f   TDLTimeTrackerDlg.obj
 0001:00086125       ??_GCTDCTrackTasklistArray@@UAEPAXI@Z 00487125 f i TDLTimeTrackerDlg.obj
 0001:00086125       ??_ECTDCTrackTasklistArray@@UAEPAXI@Z 00487125 f i TDLTimeTrackerDlg.obj
 0001:00086141       ??1CTDCTrackTasklistArray@@UAE@XZ 00487141 f   TDLTimeTrackerDlg.obj
 0001:00086179       ?GetNumTasklists@CTDCTrackTasklistArray@@QBEHXZ 00487179 f   TDLTimeTrackerDlg.obj
 0001:00086179       ?GetOccurrenceCount@TDCRECURRENCE@@QBEHXZ 00487179 f   TDLTimeTrackerDlg.obj
 0001:0008617d       ?AddTasklist@CTDCTrackTasklistArray@@QAEHPBVCFilteredToDoCtrl@@ABVCTaskFile@@@Z 0048717d f   TDLTimeTrackerDlg.obj
 0001:00086200       ?DeleteTasklist@CTDCTrackTasklistArray@@QAEHPBVCFilteredToDoCtrl@@@Z 00487200 f   TDLTimeTrackerDlg.obj
 0001:0008623a       ?DeleteAllTasklists@CTDCTrackTasklistArray@@QAEXXZ 0048723a f   TDLTimeTrackerDlg.obj
 0001:0008626b       ?UpdateTracking@CTDCTrackTasklistArray@@QAEHPBVCFilteredToDoCtrl@@@Z 0048726b f   TDLTimeTrackerDlg.obj
 0001:000862b0       ?FindTasklist@CTDCTrackTasklistArray@@QBEHPBVCFilteredToDoCtrl@@@Z 004872b0 f   TDLTimeTrackerDlg.obj
 0001:000862e1       ?GetTasklist@CTDCTrackTasklistArray@@QAEPAUTRACKTASKLIST@@PBVCFilteredToDoCtrl@@@Z 004872e1 f   TDLTimeTrackerDlg.obj
 0001:000862e1       ?GetTasklist@CTDCTrackTasklistArray@@QBEPBUTRACKTASKLIST@@PBVCFilteredToDoCtrl@@@Z 004872e1 f   TDLTimeTrackerDlg.obj
 0001:00086300       ?GetTasklist@CTDCTrackTasklistArray@@QBEPBUTRACKTASKLIST@@H@Z 00487300 f   TDLTimeTrackerDlg.obj
 0001:00086324       ?GetTasks@CTDCTrackTasklistArray@@QAEPAV?$CArray@UTRACKITEM@@AAU1@@@PBVCFilteredToDoCtrl@@@Z 00487324 f   TDLTimeTrackerDlg.obj
 0001:0008633b       ??0CTDLTimeTrackerDlg@@QAE@XZ 0048733b f   TDLTimeTrackerDlg.obj
 0001:00086472       ?DoModal@CTaskSelectionDlg@@UAEHXZ 00487472 f i TDLTimeTrackerDlg.obj
 0001:00086472       ?DoModal@CTDLTimeTrackerDlg@@MAEHXZ 00487472 f i TDLTimeTrackerDlg.obj
 0001:00086476       ?OnCancel@CTDLTimeTrackerDlg@@MAEXXZ 00487476 f i TDLTimeTrackerDlg.obj
 0001:0008647e       ?OnOK@CTDLTimeTrackerDlg@@MAEXXZ 0048747e f i TDLTimeTrackerDlg.obj
 0001:00086483       ??_ECTDLTimeTrackerDlg@@UAEPAXI@Z 00487483 f i TDLTimeTrackerDlg.obj
 0001:00086483       ??_GCTDLTimeTrackerDlg@@UAEPAXI@Z 00487483 f i TDLTimeTrackerDlg.obj
 0001:0008649f       ??1CTDLTimeTrackerDlg@@UAE@XZ 0048749f f   TDLTimeTrackerDlg.obj
 0001:0008658e       ?DoDataExchange@CTDLTimeTrackerDlg@@MAEXPAVCDataExchange@@@Z 0048758e f   TDLTimeTrackerDlg.obj
 0001:000865f2       ?GetMessageMap@CTDLTimeTrackerDlg@@MBEPBUAFX_MSGMAP@@XZ 004875f2 f   TDLTimeTrackerDlg.obj
 0001:000865f8       ?Create@CTDLTimeTrackerDlg@@QAEHK@Z 004875f8 f   TDLTimeTrackerDlg.obj
 0001:00086656       ?Create@CTDLTimeTrackerDlg@@IAEHH@Z 00487656 f   TDLTimeTrackerDlg.obj
 0001:000866c0       ?Recreate@CTDLTimeTrackerDlg@@IAEHXZ 004876c0 f   TDLTimeTrackerDlg.obj
 0001:00086782       ?OnInitDialog@CTDLTimeTrackerDlg@@MAEHXZ 00487782 f   TDLTimeTrackerDlg.obj
 0001:0008697f       ?PreTranslateMessage@CTDLTimeTrackerDlg@@MAEHPAUtagMSG@@@Z 0048797f f   TDLTimeTrackerDlg.obj
 0001:00086a44       ?SetUITheme@CTDLTimeTrackerDlg@@QAEXABVCUIThemeFile@@@Z 00487a44 f   TDLTimeTrackerDlg.obj
 0001:00086abe       ?GetTasklistCBIndex@CTDLTimeTrackerDlg@@IBEHPBVCFilteredToDoCtrl@@@Z 00487abe f   TDLTimeTrackerDlg.obj
 0001:00086ad0       ?AddTasklist@CTDLTimeTrackerDlg@@QAEHPBVCFilteredToDoCtrl@@@Z 00487ad0 f   TDLTimeTrackerDlg.obj
 0001:00086b2b       ?AddTasklist@CTDLTimeTrackerDlg@@QAEHPBVCFilteredToDoCtrl@@ABVCTaskFile@@@Z 00487b2b f   TDLTimeTrackerDlg.obj
 0001:00086c5b       ?UpdateTasks@CTDLTimeTrackerDlg@@QAEHPBVCFilteredToDoCtrl@@ABVCTaskFile@@@Z 00487c5b f   TDLTimeTrackerDlg.obj
 0001:00086cb8       ?UpdateTasklistName@CTDLTimeTrackerDlg@@QAEXPBVCFilteredToDoCtrl@@@Z 00487cb8 f   TDLTimeTrackerDlg.obj
 0001:00086d8a       ?RemoveDeletedTasks@CTDLTimeTrackerDlg@@QAEXPBVCFilteredToDoCtrl@@@Z 00487d8a f   TDLTimeTrackerDlg.obj
 0001:00086dd4       ?SelectTaskList@CTDLTimeTrackerDlg@@QAEHPBVCFilteredToDoCtrl@@@Z 00487dd4 f   TDLTimeTrackerDlg.obj
 0001:00086df8       ?GetSelectedTasklist@CTDLTimeTrackerDlg@@QBEPBVCFilteredToDoCtrl@@XZ 00487df8 f   TDLTimeTrackerDlg.obj
 0001:00086e03       ?IsSelectedTasklist@CTDLTimeTrackerDlg@@IBEHPBVCFilteredToDoCtrl@@@Z 00487e03 f   TDLTimeTrackerDlg.obj
 0001:00086e1f       ?GetSelectedTaskID@CTDLTimeTrackerDlg@@QBEKXZ 00487e1f f   TDLTimeTrackerDlg.obj
 0001:00086e2d       ?RebuildTasklistCombo@CTDLTimeTrackerDlg@@IAEHXZ 00487e2d f   TDLTimeTrackerDlg.obj
 0001:00086f51       ?RebuildTaskCombo@CTDLTimeTrackerDlg@@IAEXXZ 00487f51 f   TDLTimeTrackerDlg.obj
 0001:000870a3       ?RemoveTasklist@CTDLTimeTrackerDlg@@QAEHPBVCFilteredToDoCtrl@@@Z 004880a3 f   TDLTimeTrackerDlg.obj
 0001:00087116       ?RemoveAllTasklists@CTDLTimeTrackerDlg@@QAEXXZ 00488116 f   TDLTimeTrackerDlg.obj
 0001:00087169       ?UpdateTracking@CTDLTimeTrackerDlg@@QAEHPBVCFilteredToDoCtrl@@@Z 00488169 f   TDLTimeTrackerDlg.obj
 0001:000871fa       ?IsTrackingSelectedTasklistAndTask@CTDLTimeTrackerDlg@@IBEHXZ 004881fa f   TDLTimeTrackerDlg.obj
 0001:00087223       ?UpdateButtonState@CTDLTimeTrackerDlg@@IAEXXZ 00488223 f   TDLTimeTrackerDlg.obj
 0001:0008730c       ?UpdateTaskTime@CTDLTimeTrackerDlg@@QAEXPBVCFilteredToDoCtrl@@@Z 0048830c f   TDLTimeTrackerDlg.obj
 0001:000874a3       ?OnStartStopTracking@CTDLTimeTrackerDlg@@IAEXXZ 004884a3 f   TDLTimeTrackerDlg.obj
 0001:0008750f       ?OnCtlColor@CTDLTimeTrackerDlg@@IAEPAUHBRUSH__@@PAVCDC@@PAVCWnd@@I@Z 0048850f f   TDLTimeTrackerDlg.obj
 0001:0008757e       ?OnNcHitTest@CTDLTimeTrackerDlg@@IAEIVCPoint@@@Z 0048857e f   TDLTimeTrackerDlg.obj
 0001:0008758e       ?OnSelchangeTasklist@CTDLTimeTrackerDlg@@IAEXXZ 0048858e f   TDLTimeTrackerDlg.obj
 0001:0008762a       ?OnSelchangeTask@CTDLTimeTrackerDlg@@IAEXXZ 0048862a f   TDLTimeTrackerDlg.obj
 0001:00087643       ?OnEraseBkgnd@CTDLTimeTrackerDlg@@IAEHPAVCDC@@@Z 00488643 f   TDLTimeTrackerDlg.obj
 0001:00087687       ?GetBkgndColor@CTDLTimeTrackerDlg@@IBEKXZ 00488687 f   TDLTimeTrackerDlg.obj
 0001:0008768d       ?OnChangeQuickFind@CTDLTimeTrackerDlg@@IAEXXZ 0048868d f   TDLTimeTrackerDlg.obj
 0001:000876f7       ?QuickFindNextTaskComboItem@CTDLTimeTrackerDlg@@IBEHHH@Z 004886f7 f   TDLTimeTrackerDlg.obj
 0001:00087790       ?QuickFindNextTaskComboItem@CTDLTimeTrackerDlg@@IBEHHHHAAH@Z 00488790 f   TDLTimeTrackerDlg.obj
 0001:00087820       ?OnToolTipNotify@CTDLTimeTrackerDlg@@IAEHIPAUtagNMHDR@@PAJ@Z 00488820 f   TDLTimeTrackerDlg.obj
 0001:00087904       ?OnShowWindow@CTDLTimeTrackerDlg@@IAEXHI@Z 00488904 f   TDLTimeTrackerDlg.obj
 0001:00087934       ?OnDestroy@CTDLTimeTrackerDlg@@IAEXXZ 00488934 f   TDLTimeTrackerDlg.obj
 0001:00087950       ?LoadSettings@CTDLTimeTrackerDlg@@IAEXXZ 00488950 f   TDLTimeTrackerDlg.obj
 0001:00087a05       ?SaveSettings@CTDLTimeTrackerDlg@@IBEXXZ 00488a05 f   TDLTimeTrackerDlg.obj
 0001:00087ab0       ?OnSize@CTDLTimeTrackerDlg@@IAEXIHH@Z 00488ab0 f   TDLTimeTrackerDlg.obj
 0001:00087acb       ?OnGetMinMaxInfo@CTDLTimeTrackerDlg@@IAEXPAUtagMINMAXINFO@@@Z 00488acb f   TDLTimeTrackerDlg.obj
 0001:00087af3       ?Resize@CTDLTimeTrackerDlg@@IAEXHH@Z 00488af3 f   TDLTimeTrackerDlg.obj
 0001:00087d71       ?CalcAvailableRows@CTDLTimeTrackerDlg@@IBEHH@Z 00488d71 f   TDLTimeTrackerDlg.obj
 0001:00087dba       ?CalcMinMaxSizes@CTDLTimeTrackerDlg@@IAEXXZ 00488dba f   TDLTimeTrackerDlg.obj
 0001:00087e3f       ?OnNcLButtonDblClk@CTDLTimeTrackerDlg@@IAEXIVCPoint@@@Z 00488e3f f   TDLTimeTrackerDlg.obj
 0001:00087efe       ?OnToggleTopMost@CTDLTimeTrackerDlg@@IAEXXZ 00488efe f   TDLTimeTrackerDlg.obj
 0001:00087f0d       ?SetAlwaysOnTop@CTDLTimeTrackerDlg@@IAEXH@Z 00488f0d f   TDLTimeTrackerDlg.obj
 0001:00087f21       ?SetOption@CTDLTimeTrackerDlg@@QAEXKH@Z 00488f21 f   TDLTimeTrackerDlg.obj
 0001:00087f90       ?HasOption@CTDLTimeTrackerDlg@@IBEHK@Z 00488f90 f   TDLTimeTrackerDlg.obj
 0001:00087fa6       ??1?$CArray@PAUTRACKTASKLIST@@AAPAU1@@@UAE@XZ 00488fa6 f i TDLTimeTrackerDlg.obj
 0001:00087fe2       ?GetAt@?$CArray@UTRACKITEM@@AAU1@@@QBE?AUTRACKITEM@@H@Z 00488fe2 f i TDLTimeTrackerDlg.obj
 0001:00088003       ?Add@?$CArray@UTRACKITEM@@AAU1@@@QAEHAAUTRACKITEM@@@Z 00489003 f i TDLTimeTrackerDlg.obj
 0001:0008802d       ?RemoveAt@?$CArray@UTRACKITEM@@AAU1@@@QAEXHH@Z 0048902d f i TDLTimeTrackerDlg.obj
 0001:00088083       ?Serialize@?$CArray@UTRACKITEM@@AAU1@@@UAEXAAVCArchive@@@Z 00489083 f i TDLTimeTrackerDlg.obj
 0001:000880c2       ??1?$CMap@KKHH@@UAE@XZ     004890c2 f i TDLTimeTrackerDlg.obj
 0001:000880f5       ??_G?$CArray@PAUTRACKTASKLIST@@AAPAU1@@@UAEPAXI@Z 004890f5 f i TDLTimeTrackerDlg.obj
 0001:000880f5       ??_E?$CArray@PAUTRACKTASKLIST@@AAPAU1@@@UAEPAXI@Z 004890f5 f i TDLTimeTrackerDlg.obj
 0001:00088111       ??_E?$CArray@UTRACKITEM@@AAU1@@@UAEPAXI@Z 00489111 f i TDLTimeTrackerDlg.obj
 0001:00088111       ??_G?$CArray@UTRACKITEM@@AAU1@@@UAEPAXI@Z 00489111 f i TDLTimeTrackerDlg.obj
 0001:0008812d       ??1?$CArray@UTRACKITEM@@AAU1@@@UAE@XZ 0048912d f i TDLTimeTrackerDlg.obj
 0001:00088174       ??0TRACKITEM@@QAE@ABU0@@Z  00489174 f i TDLTimeTrackerDlg.obj
 0001:000881bd       ??_E?$CMap@KKHH@@UAEPAXI@Z 004891bd f i TDLTimeTrackerDlg.obj
 0001:000881bd       ??_G?$CMap@KKHH@@UAEPAXI@Z 004891bd f i TDLTimeTrackerDlg.obj
 0001:000881d9       ?SetSize@?$CArray@UTRACKITEM@@AAU1@@@QAEXHH@Z 004891d9 f i TDLTimeTrackerDlg.obj
 0001:000882f9       ?DestructElements@@YGXPAUTRACKITEM@@H@Z 004892f9 f i TDLTimeTrackerDlg.obj
 0001:0008831d       ?SerializeElements@@YGXAAVCArchive@@PAUTRACKITEM@@H@Z 0048931d f i TDLTimeTrackerDlg.obj
 0001:0008834d       ?ConstructElements@@YGXPAUTRACKITEM@@H@Z 0048934d f i TDLTimeTrackerDlg.obj
 0001:00088c98       ??0CTDLToolsUserInputDlg@@QAE@ABVCTDCToolsCmdlineParser@@@Z 00489c98 f   TDLToolsUserInputDlg.obj
 0001:0008908c       ??_ECTDLToolsUserInputDlg@@UAEPAXI@Z 0048a08c f i TDLToolsUserInputDlg.obj
 0001:0008908c       ??_GCTDLToolsUserInputDlg@@UAEPAXI@Z 0048a08c f i TDLToolsUserInputDlg.obj
 0001:000890a8       ??0TUINPUTITEM@CTDLToolsUserInputDlg@@QAE@XZ 0048a0a8 f i TDLToolsUserInputDlg.obj
 0001:000890e8       ??1TUINPUTITEM@CTDLToolsUserInputDlg@@QAE@XZ 0048a0e8 f i TDLToolsUserInputDlg.obj
 0001:0008912d       ??1CTDLToolsUserInputDlg@@UAE@XZ 0048a12d f   TDLToolsUserInputDlg.obj
 0001:000891c7       ?_GetBaseMessageMap@CTDLToolsUserInputDlg@@KGPBUAFX_MSGMAP@@XZ 0048a1c7 f   TDLToolsUserInputDlg.obj
 0001:000891c7       ?_GetBaseMessageMap@CToDoCtrl@@KGPBUAFX_MSGMAP@@XZ 0048a1c7 f   TDLToolsUserInputDlg.obj
 0001:000891cd       ?GetMessageMap@CTDLToolsUserInputDlg@@MBEPBUAFX_MSGMAP@@XZ 0048a1cd f   TDLToolsUserInputDlg.obj
 0001:000891d3       ?DoModal@CTDLToolsUserInputDlg@@QAEHPBG@Z 0048a1d3 f   TDLToolsUserInputDlg.obj
 0001:000891ef       ?OnOK@CTDLToolsUserInputDlg@@MAEXXZ 0048a1ef f   TDLToolsUserInputDlg.obj
 0001:00089326       ?OnInitDialog@CTDLToolsUserInputDlg@@MAEHXZ 0048a326 f   TDLToolsUserInputDlg.obj
 0001:000893e6       ?GetResult@CTDLToolsUserInputDlg@@QAE?AVCString@@PBG@Z 0048a3e6 f   TDLToolsUserInputDlg.obj
 0001:0008946a       ?OnSize@CTDLToolsUserInputDlg@@IAEXIHH@Z 0048a46a f   TDLToolsUserInputDlg.obj
 0001:0008958a       ?OnGetMinMaxInfo@CTDLToolsUserInputDlg@@IAEXPAUtagMINMAXINFO@@@Z 0048a58a f   TDLToolsUserInputDlg.obj
 0001:000895e9       ?SetInitialPos@CTDLToolsUserInputDlg@@MAEXPBUtagRECT@@K@Z 0048a5e9 f   TDLToolsUserInputDlg.obj
 0001:0008961d       ?Add@?$CArray@UTUINPUTITEM@CTDLToolsUserInputDlg@@AAU12@@@QAEHAAUTUINPUTITEM@CTDLToolsUserInputDlg@@@Z 0048a61d f i TDLToolsUserInputDlg.obj
 0001:00089648       ??1?$CArray@UTUINPUTITEM@CTDLToolsUserInputDlg@@AAU12@@@UAE@XZ 0048a648 f i TDLToolsUserInputDlg.obj
 0001:0008968f       ?Serialize@?$CArray@UTUINPUTITEM@CTDLToolsUserInputDlg@@AAU12@@@UAEXAAVCArchive@@@Z 0048a68f f i TDLToolsUserInputDlg.obj
 0001:000896ce       ??_E?$CArray@UTUINPUTITEM@CTDLToolsUserInputDlg@@AAU12@@@UAEPAXI@Z 0048a6ce f i TDLToolsUserInputDlg.obj
 0001:000896ce       ??_G?$CArray@UTUINPUTITEM@CTDLToolsUserInputDlg@@AAU12@@@UAEPAXI@Z 0048a6ce f i TDLToolsUserInputDlg.obj
 0001:000896ea       ?SetSize@?$CArray@UTUINPUTITEM@CTDLToolsUserInputDlg@@AAU12@@@QAEXHH@Z 0048a6ea f i TDLToolsUserInputDlg.obj
 0001:00089811       ?DestructElements@@YGXPAUTUINPUTITEM@CTDLToolsUserInputDlg@@H@Z 0048a811 f i TDLToolsUserInputDlg.obj
 0001:00089835       ?SerializeElements@@YGXAAVCArchive@@PAUTUINPUTITEM@CTDLToolsUserInputDlg@@H@Z 0048a835 f i TDLToolsUserInputDlg.obj
 0001:00089868       ??4TUINPUTITEM@CTDLToolsUserInputDlg@@QAEAAU01@ABU01@@Z 0048a868 f i TDLToolsUserInputDlg.obj
 0001:000898bd       ?ConstructElements@@YGXPAUTUINPUTITEM@CTDLToolsUserInputDlg@@H@Z 0048a8bd f i TDLToolsUserInputDlg.obj
 0001:0008a21f       ??0CTDLTransformDialog@@QAE@PBGW4FTC_VIEW@@PAVCWnd@@@Z 0048b21f f   TDLTransformDialog.obj
 0001:0008a3e6       ??_ECTDLTransformDialog@@UAEPAXI@Z 0048b3e6 f i TDLTransformDialog.obj
 0001:0008a3e6       ??_GCTDLTransformDialog@@UAEPAXI@Z 0048b3e6 f i TDLTransformDialog.obj
 0001:0008a402       ??1CTDLTransformDialog@@UAE@XZ 0048b402 f i TDLTransformDialog.obj
 0001:0008a488       ?DoDataExchange@CTDLTransformDialog@@MAEXPAVCDataExchange@@@Z 0048b488 f   TDLTransformDialog.obj
 0001:0008a4ef       ?_GetBaseMessageMap@CTDLOffsetDatesDlg@@KGPBUAFX_MSGMAP@@XZ 0048b4ef f   TDLTransformDialog.obj
 0001:0008a4ef       ?_GetBaseMessageMap@CTDLExportDlg@@KGPBUAFX_MSGMAP@@XZ 0048b4ef f   TDLTransformDialog.obj
 0001:0008a4ef       ?_GetBaseMessageMap@CTDLPasteFromClipboardDlg@@KGPBUAFX_MSGMAP@@XZ 0048b4ef f   TDLTransformDialog.obj
 0001:0008a4ef       ?_GetBaseMessageMap@CTDLMultiSortDlg@@KGPBUAFX_MSGMAP@@XZ 0048b4ef f   TDLTransformDialog.obj
 0001:0008a4ef       ?_GetBaseMessageMap@CTDLSetReminderDlg@@KGPBUAFX_MSGMAP@@XZ 0048b4ef f   TDLTransformDialog.obj
 0001:0008a4ef       ?_GetBaseMessageMap@CTDLCmdlineOptionsDlg@@KGPBUAFX_MSGMAP@@XZ 0048b4ef f   TDLTransformDialog.obj
 0001:0008a4ef       ?GetMessageMap@CTDLDialog@@MBEPBUAFX_MSGMAP@@XZ 0048b4ef f   TDLTransformDialog.obj
 0001:0008a4ef       ?_GetBaseMessageMap@CTDLShowReminderDlg@@KGPBUAFX_MSGMAP@@XZ 0048b4ef f   TDLTransformDialog.obj
 0001:0008a4ef       ?_GetBaseMessageMap@CTDLTaskIconDlg@@KGPBUAFX_MSGMAP@@XZ 0048b4ef f   TDLTransformDialog.obj
 0001:0008a4ef       ?_GetBaseMessageMap@CTDLCustomAttributeDlg@@KGPBUAFX_MSGMAP@@XZ 0048b4ef f   TDLTransformDialog.obj
 0001:0008a4ef       ?_GetBaseMessageMap@CTDLFilterDlg@@KGPBUAFX_MSGMAP@@XZ 0048b4ef f   TDLTransformDialog.obj
 0001:0008a4ef       ?_GetBaseMessageMap@CTDLPrintDialog@@KGPBUAFX_MSGMAP@@XZ 0048b4ef f   TDLTransformDialog.obj
 0001:0008a4ef       ?_GetBaseMessageMap@CTDLImportOutlookObjectsDlg@@KGPBUAFX_MSGMAP@@XZ 0048b4ef f   TDLTransformDialog.obj
 0001:0008a4ef       ?_GetBaseMessageMap@CTDLTransformDialog@@KGPBUAFX_MSGMAP@@XZ 0048b4ef f   TDLTransformDialog.obj
 0001:0008a4ef       ?_GetBaseMessageMap@CTDLLanguageDlg@@KGPBUAFX_MSGMAP@@XZ 0048b4ef f   TDLTransformDialog.obj
 0001:0008a4ef       ?_GetBaseMessageMap@CTDLColumnSelectionDlg@@KGPBUAFX_MSGMAP@@XZ 0048b4ef f   TDLTransformDialog.obj
 0001:0008a4ef       ?_GetBaseMessageMap@CTDLPrefMigrationDlg@@KGPBUAFX_MSGMAP@@XZ 0048b4ef f   TDLTransformDialog.obj
 0001:0008a4ef       ?_GetBaseMessageMap@CTDLKeyboardShortcutDisplayDlg@@KGPBUAFX_MSGMAP@@XZ 0048b4ef f   TDLTransformDialog.obj
 0001:0008a4ef       ?_GetBaseMessageMap@CTDLSendTasksDlg@@KGPBUAFX_MSGMAP@@XZ 0048b4ef f   TDLTransformDialog.obj
 0001:0008a4ef       ?_GetBaseMessageMap@CTDLAddLoggedTimeDlg@@KGPBUAFX_MSGMAP@@XZ 0048b4ef f   TDLTransformDialog.obj
 0001:0008a4ef       ?_GetBaseMessageMap@CTDLRecurringTaskOptionDlg@@KGPBUAFX_MSGMAP@@XZ 0048b4ef f   TDLTransformDialog.obj
 0001:0008a4ef       ?_GetBaseMessageMap@CTDLAnalyseLoggedTimeDlg@@KGPBUAFX_MSGMAP@@XZ 0048b4ef f   TDLTransformDialog.obj
 0001:0008a4ef       ?_GetBaseMessageMap@CTDLImportDialog@@KGPBUAFX_MSGMAP@@XZ 0048b4ef f   TDLTransformDialog.obj
 0001:0008a4ef       ?_GetBaseMessageMap@CTDLCsvImportExportDlg@@KGPBUAFX_MSGMAP@@XZ 0048b4ef f   TDLTransformDialog.obj
 0001:0008a4f5       ?GetMessageMap@CTDLTransformDialog@@MBEPBUAFX_MSGMAP@@XZ 0048b4f5 f   TDLTransformDialog.obj
 0001:0008a4fb       ?OnOK@CTDLTransformDialog@@UAEXXZ 0048b4fb f   TDLTransformDialog.obj
 0001:0008a577       ?OnInitDialog@CTDLTransformDialog@@MAEHXZ 0048b577 f   TDLTransformDialog.obj
 0001:0008a59e       ?OnChangeStylesheet@CTDLTransformDialog@@IAEXXZ 0048b59e f   TDLTransformDialog.obj
 0001:0008a63c       ?GetStylesheet@CTDLTransformDialog@@QBE?AVCString@@XZ 0048b63c f   TDLTransformDialog.obj
 0001:0008a6ba       ?OnCtlColor@CTDLTransformDialog@@IAEPAUHBRUSH__@@PAVCDC@@PAVCWnd@@I@Z 0048b6ba f   TDLTransformDialog.obj
 0001:0008a9e5       ??0CTDLViewTabControl@@QAE@K@Z 0048b9e5 f   TDLViewTabControl.obj
 0001:0008aa5c       ??_ECTDLViewTabControl@@UAEPAXI@Z 0048ba5c f i TDLViewTabControl.obj
 0001:0008aa5c       ??_GCTDLViewTabControl@@UAEPAXI@Z 0048ba5c f i TDLViewTabControl.obj
 0001:0008aa78       ??1CTDLViewTabControl@@UAE@XZ 0048ba78 f   TDLViewTabControl.obj
 0001:0008ab09       ?_GetBaseMessageMap@CTDLViewTabControl@@KGPBUAFX_MSGMAP@@XZ 0048bb09 f   TDLViewTabControl.obj
 0001:0008ab0f       ?GetMessageMap@CTDLViewTabControl@@MBEPBUAFX_MSGMAP@@XZ 0048bb0f f   TDLViewTabControl.obj
 0001:0008ab15       ?AttachView@CTDLViewTabControl@@QAEHPAUHWND__@@W4FTC_VIEW@@PBGPAUHICON__@@PAX@Z 0048bb15 f   TDLViewTabControl.obj
 0001:0008ac47       ??1TDCVIEW@CTDLViewTabControl@@QAE@XZ 0048bc47 f i TDLViewTabControl.obj
 0001:0008ac4f       ?DetachView@CTDLViewTabControl@@QAEHPAUHWND__@@@Z 0048bc4f f   TDLViewTabControl.obj
 0001:0008ac79       ?GetViewRect@CTDLViewTabControl@@IBEXAAUTDCVIEW@1@AAVCRect@@@Z 0048bc79 f   TDLViewTabControl.obj
 0001:0008acb0       ?GetViewWnd@CTDLViewTabControl@@IBEPAVCWnd@@AAUTDCVIEW@1@@Z 0048bcb0 f   TDLViewTabControl.obj
 0001:0008acbe       ?SwitchToTab@CTDLViewTabControl@@IAEHH@Z 0048bcbe f   TDLViewTabControl.obj
 0001:0008ae2c       ?GetActiveWnd@CTDLViewTabControl@@QBEPAVCWnd@@XZ 0048be2c f   TDLViewTabControl.obj
 0001:0008aea9       ?GetActiveView@CTDLViewTabControl@@QBE?AW4FTC_VIEW@@XZ 0048bea9 f   TDLViewTabControl.obj
 0001:0008aebe       ?GetViewHwnd@CTDLViewTabControl@@QBEPAUHWND__@@W4FTC_VIEW@@@Z 0048bebe f   TDLViewTabControl.obj
 0001:0008af00       ?GetViewName@CTDLViewTabControl@@QBE?AVCString@@W4FTC_VIEW@@@Z 0048bf00 f   TDLViewTabControl.obj
 0001:0008af7a       ?SetViewHwnd@CTDLViewTabControl@@QAEHW4FTC_VIEW@@PAUHWND__@@@Z 0048bf7a f   TDLViewTabControl.obj
 0001:0008afb5       ?GetViewData@CTDLViewTabControl@@QBEPAXW4FTC_VIEW@@@Z 0048bfb5 f   TDLViewTabControl.obj
 0001:0008b002       ?TabToIndex@CTDLViewTabControl@@IBEHH@Z 0048c002 f   TDLViewTabControl.obj
 0001:0008b01a       ?GetTabView@CTDLViewTabControl@@IBE?AW4FTC_VIEW@@H@Z 0048c01a f   TDLViewTabControl.obj
 0001:0008b026       ?SetActiveView@CTDLViewTabControl@@QAEHW4FTC_VIEW@@H@Z 0048c026 f   TDLViewTabControl.obj
 0001:0008b049       ?Resize@CTDLViewTabControl@@QAEXABVCRect@@PAVCDeferWndMove@@PAUtagRECT@@@Z 0048c049 f   TDLViewTabControl.obj
 0001:0008b0e6       ?FindView@CTDLViewTabControl@@IBEHPAUHWND__@@@Z 0048c0e6 f   TDLViewTabControl.obj
 0001:0008b133       ?FindView@CTDLViewTabControl@@IBEHW4FTC_VIEW@@@Z 0048c133 f   TDLViewTabControl.obj
 0001:0008b181       ?FindTab@CTDLViewTabControl@@IBEHW4FTC_VIEW@@@Z 0048c181 f   TDLViewTabControl.obj
 0001:0008b18d       ?PreSubclassWindow@CTDLViewTabControl@@MAEXXZ 0048c18d f   TDLViewTabControl.obj
 0001:0008b1ef       ?ShowTabControl@CTDLViewTabControl@@QAEXH@Z 0048c1ef f   TDLViewTabControl.obj
 0001:0008b223       ?CalcTabViewRects@CTDLViewTabControl@@IAEHABVCRect@@AAV2@1@Z 0048c223 f   TDLViewTabControl.obj
 0001:0008b2ed       ?OnSelChange@CTDLViewTabControl@@IAEXPAUtagNMHDR@@PAJ@Z 0048c2ed f   TDLViewTabControl.obj
 0001:0008b33a       ?ActivateNextView@CTDLViewTabControl@@QAEXH@Z 0048c33a f   TDLViewTabControl.obj
 0001:0008b3a9       ?DoTabChange@CTDLViewTabControl@@IAEHHHH@Z 0048c3a9 f   TDLViewTabControl.obj
 0001:0008b506       ?OnCloseTab@CTDLViewTabControl@@IAEXPAUtagNMHDR@@PAJ@Z 0048c506 f   TDLViewTabControl.obj
 0001:0008b533       ?WantTabCloseButton@CTDLViewTabControl@@MBEHH@Z 0048c533 f   TDLViewTabControl.obj
 0001:0008b545       ?IsViewTabShowing@CTDLViewTabControl@@QBEHW4FTC_VIEW@@@Z 0048c545 f   TDLViewTabControl.obj
 0001:0008b55b       ?ShowViewTab@CTDLViewTabControl@@QAEHW4FTC_VIEW@@H@Z 0048c55b f   TDLViewTabControl.obj
 0001:0008b66b       ?Add@?$CArray@UTDCVIEW@CTDLViewTabControl@@AAU12@@@QAEHAAUTDCVIEW@CTDLViewTabControl@@@Z 0048c66b f i TDLViewTabControl.obj
 0001:0008b696       ??A?$CArray@UTDCVIEW@CTDLViewTabControl@@AAU12@@@QBE?AUTDCVIEW@CTDLViewTabControl@@H@Z 0048c696 f i TDLViewTabControl.obj
 0001:0008b6b0       ?RemoveAt@?$CArray@UTDCVIEW@CTDLViewTabControl@@AAU12@@@QAEXHH@Z 0048c6b0 f i TDLViewTabControl.obj
 0001:0008b70d       ??1?$CArray@UTDCVIEW@CTDLViewTabControl@@AAU12@@@UAE@XZ 0048c70d f i TDLViewTabControl.obj
 0001:0008b754       ?Serialize@?$CArray@UTDCVIEW@CTDLViewTabControl@@AAU12@@@UAEXAAVCArchive@@@Z 0048c754 f i TDLViewTabControl.obj
 0001:0008b793       ??_E?$CArray@UTDCVIEW@CTDLViewTabControl@@AAU12@@@UAEPAXI@Z 0048c793 f i TDLViewTabControl.obj
 0001:0008b793       ??_G?$CArray@UTDCVIEW@CTDLViewTabControl@@AAU12@@@UAEPAXI@Z 0048c793 f i TDLViewTabControl.obj
 0001:0008b7af       ?SetSize@?$CArray@UTDCVIEW@CTDLViewTabControl@@AAU12@@@QAEXHH@Z 0048c7af f i TDLViewTabControl.obj
 0001:0008b8d6       ?GetAt@?$CArray@UTDCVIEW@CTDLViewTabControl@@AAU12@@@QBE?AUTDCVIEW@CTDLViewTabControl@@H@Z 0048c8d6 f i TDLViewTabControl.obj
 0001:0008b8fa       ?DestructElements@@YGXPAUTDCVIEW@CTDLViewTabControl@@H@Z 0048c8fa f i TDLViewTabControl.obj
 0001:0008b91e       ?SerializeElements@@YGXAAVCArchive@@PAUCMDLINEARG@@H@Z 0048c91e f i TDLViewTabControl.obj
 0001:0008b91e       ?SerializeElements@@YGXAAVCArchive@@PAUTDCVIEW@CTDLViewTabControl@@H@Z 0048c91e f i TDLViewTabControl.obj
 0001:0008b91e       ?SerializeElements@@YGXAAVCArchive@@PAUUSERTOOL@@H@Z 0048c91e f i TDLViewTabControl.obj
 0001:0008b951       ??0TDCVIEW@CTDLViewTabControl@@QAE@ABU01@@Z 0048c951 f i TDLViewTabControl.obj
 0001:0008b982       ??4TDCVIEW@CTDLViewTabControl@@QAEAAU01@ABU01@@Z 0048c982 f i TDLViewTabControl.obj
 0001:0008b9b3       ?ConstructElements@@YGXPAUTDCVIEW@CTDLViewTabControl@@H@Z 0048c9b3 f i TDLViewTabControl.obj
 0001:0008ba54       ?SetImageList@CTabCtrl@@QAEPAVCImageList@@PAV2@@Z 0048ca54 f i TDLViewTabControl.obj
 0001:0008ba79       ?_GetBaseClass@CTDLWebUpdatePromptDlg@@KGPAUCRuntimeClass@@XZ 0048ca79 f   TDLWebUpdatePromptDlg.obj
 0001:0008ba79       ?_GetBaseClass@CTDLWelcomeWizard@@KGPAUCRuntimeClass@@XZ 0048ca79 f   TDLWebUpdatePromptDlg.obj
 0001:0008ba7f       ?GetRuntimeClass@CTDLWebUpdatePromptDlg@@UBEPAUCRuntimeClass@@XZ 0048ca7f f   TDLWebUpdatePromptDlg.obj
 0001:0008ba85       ??0CTDLWebUpdatePromptDlg@@IAE@PBGABVCStringArray@@@Z 0048ca85 f   TDLWebUpdatePromptDlg.obj
 0001:0008bb60       ??_GCTDLWebUpdatePromptDlg@@UAEPAXI@Z 0048cb60 f i TDLWebUpdatePromptDlg.obj
 0001:0008bb60       ??_ECTDLWebUpdatePromptDlg@@UAEPAXI@Z 0048cb60 f i TDLWebUpdatePromptDlg.obj
 0001:0008bb7c       ??1CTDLWebUpdatePromptPage@@UAE@XZ 0048cb7c f i TDLWebUpdatePromptDlg.obj
 0001:0008bbc6       ??1CPropertyPageEx@@UAE@XZ 0048cbc6 f i TDLWebUpdatePromptDlg.obj
 0001:0008bc10       ??1CTDLWebUpdatePromptDlg@@UAE@XZ 0048cc10 f   TDLWebUpdatePromptDlg.obj
 0001:0008bc6f       ?_GetBaseMessageMap@CTDLWelcomeWizard@@KGPBUAFX_MSGMAP@@XZ 0048cc6f f   TDLWebUpdatePromptDlg.obj
 0001:0008bc6f       ?_GetBaseMessageMap@CTDLWebUpdatePromptDlg@@KGPBUAFX_MSGMAP@@XZ 0048cc6f f   TDLWebUpdatePromptDlg.obj
 0001:0008bc75       ?GetMessageMap@CTDLWebUpdatePromptDlg@@MBEPBUAFX_MSGMAP@@XZ 0048cc75 f   TDLWebUpdatePromptDlg.obj
 0001:0008bc7b       ?CheckForUpdates@CTDLWebUpdatePromptDlg@@SA?AW4TDL_WEBUPDATE_CHECK@@XZ 0048cc7b f   TDLWebUpdatePromptDlg.obj
 0001:0008be0a       ?OnInitDialog@CTDLWebUpdatePromptDlg@@MAEHXZ 0048ce0a f   TDLWebUpdatePromptDlg.obj
 0001:0008bf88       ?OnCommand@CTDLWebUpdatePromptDlg@@MAEHIJ@Z 0048cf88 f   TDLWebUpdatePromptDlg.obj
 0001:0008bffa       ?CreateObject@CTDLWebUpdatePromptPage@@SGPAVCObject@@XZ 0048cffa f   TDLWebUpdatePromptDlg.obj
 0001:0008c02f       ?_GetBaseClass@CTDLWebUpdatePromptPage@@KGPAUCRuntimeClass@@XZ 0048d02f f   TDLWebUpdatePromptDlg.obj
 0001:0008c02f       ?_GetBaseClass@CTDLWelcomePage2@@KGPAUCRuntimeClass@@XZ 0048d02f f   TDLWebUpdatePromptDlg.obj
 0001:0008c02f       ?_GetBaseClass@CTDLWelcomePage1@@KGPAUCRuntimeClass@@XZ 0048d02f f   TDLWebUpdatePromptDlg.obj
 0001:0008c02f       ?_GetBaseClass@CTDLWelcomePage3@@KGPAUCRuntimeClass@@XZ 0048d02f f   TDLWebUpdatePromptDlg.obj
 0001:0008c035       ?GetRuntimeClass@CTDLWebUpdatePromptPage@@UBEPAUCRuntimeClass@@XZ 0048d035 f   TDLWebUpdatePromptDlg.obj
 0001:0008c03b       ??0CTDLWebUpdatePromptPage@@QAE@XZ 0048d03b f   TDLWebUpdatePromptDlg.obj
 0001:0008c093       ??_GCTDLWebUpdatePromptPage@@UAEPAXI@Z 0048d093 f i TDLWebUpdatePromptDlg.obj
 0001:0008c093       ??_ECTDLWebUpdatePromptPage@@UAEPAXI@Z 0048d093 f i TDLWebUpdatePromptDlg.obj
 0001:0008c0af       ?DoDataExchange@CTDLWebUpdatePromptPage@@MAEXPAVCDataExchange@@@Z 0048d0af f   TDLWebUpdatePromptDlg.obj
 0001:0008c0c7       ?_GetBaseMessageMap@CTDLReuseRecurringTaskDlg@@KGPBUAFX_MSGMAP@@XZ 0048d0c7 f   TDLWebUpdatePromptDlg.obj
 0001:0008c0c7       ?_GetBaseMessageMap@CTDLTimeTrackerDlg@@KGPBUAFX_MSGMAP@@XZ 0048d0c7 f   TDLWebUpdatePromptDlg.obj
 0001:0008c0c7       ?_GetBaseMessageMap@CTaskSelectionDlg@@KGPBUAFX_MSGMAP@@XZ 0048d0c7 f   TDLWebUpdatePromptDlg.obj
 0001:0008c0c7       ?_GetBaseMessageMap@CTDLWebUpdatePromptPage@@KGPBUAFX_MSGMAP@@XZ 0048d0c7 f   TDLWebUpdatePromptDlg.obj
 0001:0008c0c7       ?_GetBaseMessageMap@CTDLTasklistImportDlg@@KGPBUAFX_MSGMAP@@XZ 0048d0c7 f   TDLWebUpdatePromptDlg.obj
 0001:0008c0c7       ?_GetBaseMessageMap@CTDLFilterBar@@KGPBUAFX_MSGMAP@@XZ 0048d0c7 f   TDLWebUpdatePromptDlg.obj
 0001:0008c0c7       ?_GetBaseMessageMap@CTDLDialog@@KGPBUAFX_MSGMAP@@XZ 0048d0c7 f   TDLWebUpdatePromptDlg.obj
 0001:0008c0c7       ?_GetBaseMessageMap@CTDLAboutDlg@@KGPBUAFX_MSGMAP@@XZ 0048d0c7 f   TDLWebUpdatePromptDlg.obj
 0001:0008c0c7       ?_GetBaseMessageMap@CTDLFindTasksDlg@@KGPBUAFX_MSGMAP@@XZ 0048d0c7 f   TDLWebUpdatePromptDlg.obj
 0001:0008c0cd       ?GetMessageMap@CTDLWebUpdatePromptPage@@MBEPBUAFX_MSGMAP@@XZ 0048d0cd f   TDLWebUpdatePromptDlg.obj
 0001:0008c0d3       ?SetInfo@CTDLWebUpdatePromptPage@@QAEXPBGABVCStringArray@@@Z 0048d0d3 f   TDLWebUpdatePromptDlg.obj
 0001:0008c1bb       ?OnInitDialog@CTDLWebUpdatePromptPage@@MAEHXZ 0048d1bb f   TDLWebUpdatePromptDlg.obj
 0001:0008c1ed       ?OnCtlColor@CTDLWebUpdatePromptPage@@IAEPAUHBRUSH__@@PAVCDC@@PAVCWnd@@I@Z 0048d1ed f   TDLWebUpdatePromptDlg.obj
 0001:0008c22b       ?OnSetActive@CTDLWebUpdatePromptPage@@MAEHXZ 0048d22b f   TDLWebUpdatePromptDlg.obj
 0001:0008cb55       ?GetRuntimeClass@CTDLWelcomeWizard@@UBEPAUCRuntimeClass@@XZ 0048db55 f   TDLWelcomeWizard.obj
 0001:0008cb5b       ??0CTDLWelcomeWizard@@QAE@XZ 0048db5b f   TDLWelcomeWizard.obj
 0001:0008cbe1       ??_ECTDLWelcomeWizard@@UAEPAXI@Z 0048dbe1 f i TDLWelcomeWizard.obj
 0001:0008cbe1       ??_GCTDLWelcomeWizard@@UAEPAXI@Z 0048dbe1 f i TDLWelcomeWizard.obj
 0001:0008cbfd       ?InitSheet@CTDLWelcomeWizard@@IAEXXZ 0048dbfd f   TDLWelcomeWizard.obj
 0001:0008cc94       ??1CTDLWelcomeWizard@@UAE@XZ 0048dc94 f   TDLWelcomeWizard.obj
 0001:0008cd02       ?GetMessageMap@CTDLWelcomeWizard@@MBEPBUAFX_MSGMAP@@XZ 0048dd02 f   TDLWelcomeWizard.obj
 0001:0008cd08       ?OnInitDialog@CTDLWelcomeWizard@@MAEHXZ 0048dd08 f   TDLWelcomeWizard.obj
 0001:0008cd50       ?OnWizFinish@CTDLWelcomeWizard@@IAEXXZ 0048dd50 f   TDLWelcomeWizard.obj
 0001:0008cd88       ?CreateObject@CTDLWelcomePage1@@SGPAVCObject@@XZ 0048dd88 f   TDLWelcomeWizard.obj
 0001:0008cdbd       ?GetRuntimeClass@CTDLWelcomePage1@@UBEPAUCRuntimeClass@@XZ 0048ddbd f   TDLWelcomeWizard.obj
 0001:0008cdc3       ??0CTDLWelcomePage1@@QAE@XZ 0048ddc3 f   TDLWelcomeWizard.obj
 0001:0008ce64       ??_GCTDLWelcomePage1@@UAEPAXI@Z 0048de64 f i TDLWelcomeWizard.obj
 0001:0008ce64       ??_ECTDLWelcomePage1@@UAEPAXI@Z 0048de64 f i TDLWelcomeWizard.obj
 0001:0008ce80       ??1CTDLWelcomePage1@@UAE@XZ 0048de80 f   TDLWelcomeWizard.obj
 0001:0008ce8b       ?DoDataExchange@CTDLWelcomePage1@@MAEXPAVCDataExchange@@@Z 0048de8b f   TDLWelcomeWizard.obj
 0001:0008cebc       ?_GetBaseMessageMap@CTDLWelcomePage2@@KGPBUAFX_MSGMAP@@XZ 0048debc f   TDLWelcomeWizard.obj
 0001:0008cebc       ?_GetBaseMessageMap@CTDLRecurringTaskYearlyOptionPage@@KGPBUAFX_MSGMAP@@XZ 0048debc f   TDLWelcomeWizard.obj
 0001:0008cebc       ?_GetBaseMessageMap@CTDLRecurringTaskWeeklyOptionPage@@KGPBUAFX_MSGMAP@@XZ 0048debc f   TDLWelcomeWizard.obj
 0001:0008cebc       ?_GetBaseMessageMap@CTDLWelcomePage1@@KGPBUAFX_MSGMAP@@XZ 0048debc f   TDLWelcomeWizard.obj
 0001:0008cebc       ?_GetBaseMessageMap@CTDLRecurringTaskDailyOptionPage@@KGPBUAFX_MSGMAP@@XZ 0048debc f   TDLWelcomeWizard.obj
 0001:0008cebc       ?_GetBaseMessageMap@CTDLRecurringTaskMonthlyOptionPage@@KGPBUAFX_MSGMAP@@XZ 0048debc f   TDLWelcomeWizard.obj
 0001:0008cebc       ?_GetBaseMessageMap@CTDLWelcomePage3@@KGPBUAFX_MSGMAP@@XZ 0048debc f   TDLWelcomeWizard.obj
 0001:0008cec2       ?GetMessageMap@CTDLWelcomePage1@@MBEPBUAFX_MSGMAP@@XZ 0048dec2 f   TDLWelcomeWizard.obj
 0001:0008cec8       ?OnInitDialog@CTDLWelcomePage1@@MAEHXZ 0048dec8 f   TDLWelcomeWizard.obj
 0001:0008cee8       ?OnSetActive@CTDLWelcomePage1@@UAEHXZ 0048dee8 f   TDLWelcomeWizard.obj
 0001:0008cf15       ?CreateObject@CTDLWelcomePage2@@SGPAVCObject@@XZ 0048df15 f   TDLWelcomeWizard.obj
 0001:0008cf4a       ?GetRuntimeClass@CTDLWelcomePage2@@UBEPAUCRuntimeClass@@XZ 0048df4a f   TDLWelcomeWizard.obj
 0001:0008cf50       ??0CTDLWelcomePage2@@QAE@XZ 0048df50 f   TDLWelcomeWizard.obj
 0001:0008cff2       ??_ECTDLWelcomePage2@@UAEPAXI@Z 0048dff2 f i TDLWelcomeWizard.obj
 0001:0008cff2       ??_GCTDLWelcomePage2@@UAEPAXI@Z 0048dff2 f i TDLWelcomeWizard.obj
 0001:0008d00e       ??1CTDLWelcomePage2@@UAE@XZ 0048e00e f   TDLWelcomeWizard.obj
 0001:0008d04c       ?DoDataExchange@CTDLWelcomePage2@@MAEXPAVCDataExchange@@@Z 0048e04c f   TDLWelcomeWizard.obj
 0001:0008d064       ?GetMessageMap@CTDLWelcomePage2@@MBEPBUAFX_MSGMAP@@XZ 0048e064 f   TDLWelcomeWizard.obj
 0001:0008d06a       ?OnInitDialog@CTDLWelcomePage2@@MAEHXZ 0048e06a f   TDLWelcomeWizard.obj
 0001:0008d087       ?OnSetActive@CTDLWelcomePage2@@UAEHXZ 0048e087 f   TDLWelcomeWizard.obj
 0001:0008d0b4       ?CreateObject@CTDLWelcomePage3@@SGPAVCObject@@XZ 0048e0b4 f   TDLWelcomeWizard.obj
 0001:0008d0e9       ?GetRuntimeClass@CTDLWelcomePage3@@UBEPAUCRuntimeClass@@XZ 0048e0e9 f   TDLWelcomeWizard.obj
 0001:0008d0ef       ??0CTDLWelcomePage3@@QAE@XZ 0048e0ef f   TDLWelcomeWizard.obj
 0001:0008d240       ??_ECTDLWelcomePage3@@UAEPAXI@Z 0048e240 f i TDLWelcomeWizard.obj
 0001:0008d240       ??_GCTDLWelcomePage3@@UAEPAXI@Z 0048e240 f i TDLWelcomeWizard.obj
 0001:0008d25c       ??1CTDLWelcomePage3@@UAE@XZ 0048e25c f   TDLWelcomeWizard.obj
 0001:0008d2ac       ?DoDataExchange@CTDLWelcomePage3@@MAEXPAVCDataExchange@@@Z 0048e2ac f   TDLWelcomeWizard.obj
 0001:0008d300       ?GetMessageMap@CTDLWelcomePage3@@MBEPBUAFX_MSGMAP@@XZ 0048e300 f   TDLWelcomeWizard.obj
 0001:0008d306       ?OnInitDialog@CTDLWelcomePage3@@MAEHXZ 0048e306 f   TDLWelcomeWizard.obj
 0001:0008d346       ?GetSampleFilePath@CTDLWelcomePage3@@QBE?AVCString@@XZ 0048e346 f   TDLWelcomeWizard.obj
 0001:0008d3d5       ?OnSample@CTDLWelcomePage3@@IAEXXZ 0048e3d5 f   TDLWelcomeWizard.obj
 0001:0008d3d5       ?OnNosample@CTDLWelcomePage3@@IAEXXZ 0048e3d5 f   TDLWelcomeWizard.obj
 0001:0008d3f2       ?OnSetActive@CTDLWelcomePage3@@UAEHXZ 0048e3f2 f   TDLWelcomeWizard.obj
 0001:0008d41f       ?OnGetFileIcon@CTDLWelcomePage3@@IAEJIJ@Z 0048e41f f   TDLWelcomeWizard.obj
 0001:0008ef2e       ??0CToDoCommentsCtrl@@QAE@XZ 0048ff2e f   todocommentsctrl.obj
 0001:0008efa3       ?GetContent@CToDoCommentsCtrl@@UBEHPAE@Z 0048ffa3 f i todocommentsctrl.obj
 0001:0008efa3       ?GetNewStorage@CRichEditBaseCtrl@@MAEJPAPAUIStorage@@@Z 0048ffa3 f i todocommentsctrl.obj
 0001:0008efa3       ?DeleteObject@CRichEditBaseCtrl@@MAEJPAUIOleObject@@@Z 0048ffa3 f i todocommentsctrl.obj
 0001:0008efa3       ?ContextSensitiveHelp@CRichEditBaseCtrl@@MAEJH@Z 0048ffa3 f i todocommentsctrl.obj
 0001:0008efa8       ?GetInPlaceContext@CRichEditBaseCtrl@@MAEJPAPAUIOleInPlaceFrame@@PAPAUIOleInPlaceUIWindow@@PAUtagOIFI@@@Z 0048ffa8 f i todocommentsctrl.obj
 0001:0008efae       ?QueryInsertObject@CRichEditBaseCtrl@@MAEJPAU_GUID@@PAUIStorage@@J@Z 0048ffae f i todocommentsctrl.obj
 0001:0008efb3       ?GetClipboardData@CRichEditBaseCtrl@@MAEJPAU_charrange@@KPAPAUIDataObject@@@Z 0048ffb3 f i todocommentsctrl.obj
 0001:0008efbb       ?NewFindReplaceDlg@CRichEditBaseCtrl@@MAEPAVCFindReplaceDialog@@XZ 0048ffbb f i todocommentsctrl.obj
 0001:0008eff0       ?SetContent@CToDoCommentsCtrl@@UAE_NPBEH_N@Z 0048fff0 f i todocommentsctrl.obj
 0001:0008eff5       ?GetHwnd@CToDoCommentsCtrl@@UBEPAUHWND__@@XZ 0048fff5 f i todocommentsctrl.obj
 0001:0008f004       ?GetTypeID@CToDoCommentsCtrl@@UBEPBGXZ 00490004 f i todocommentsctrl.obj
 0001:0008f00a       ?Release@CToDoCommentsCtrl@@UAEXXZ 0049000a f i todocommentsctrl.obj
 0001:0008f02b       ?GetSpellCheckInterface@CToDoCommentsCtrl@@UAEPAVISpellCheck@@XZ 0049002b f i todocommentsctrl.obj
 0001:0008f02f       ?Undo@CToDoCommentsCtrl@@UAE_NXZ 0049002f f i todocommentsctrl.obj
 0001:0008f041       ?Redo@CToDoCommentsCtrl@@UAE_NXZ 00490041 f i todocommentsctrl.obj
 0001:0008f053       ??_GCToDoCommentsCtrl@@UAEPAXI@Z 00490053 f i todocommentsctrl.obj
 0001:0008f053       ??_ECToDoCommentsCtrl@@UAEPAXI@Z 00490053 f i todocommentsctrl.obj
 0001:0008f06f       ??1CToDoCommentsCtrl@@UAE@XZ 0049006f f   todocommentsctrl.obj
 0001:0008f0b7       ?GetTextContent@CToDoCommentsCtrl@@UBEHPAGH@Z 004900b7 f   todocommentsctrl.obj
 0001:0008f0e1       ?SetTextContent@CToDoCommentsCtrl@@UAE_NPBG_N@Z 004900e1 f   todocommentsctrl.obj
 0001:0008f158       ?_GetBaseMessageMap@CToDoCommentsCtrl@@KGPBUAFX_MSGMAP@@XZ 00490158 f   todocommentsctrl.obj
 0001:0008f15e       ?GetMessageMap@CToDoCommentsCtrl@@MBEPBUAFX_MSGMAP@@XZ 0049015e f   todocommentsctrl.obj
 0001:0008f164       ?Create@CToDoCommentsCtrl@@QAEHKABUtagRECT@@PAVCWnd@@I@Z 00490164 f   todocommentsctrl.obj
 0001:0008f184       ?OnSetFont@CToDoCommentsCtrl@@IAEJIJ@Z 00490184 f   todocommentsctrl.obj
 0001:0008f1d5       ?OnChangeText@CToDoCommentsCtrl@@IAEHXZ 004901d5 f   todocommentsctrl.obj
 0001:0008f223       ?OnKillFocus@CToDoCommentsCtrl@@IAEHXZ 00490223 f   todocommentsctrl.obj
 0001:0008f251       ?SetReadOnly@CToDoCommentsCtrl@@UAEX_N@Z 00490251 f   todocommentsctrl.obj
 0001:0008f295       ?OnContextMenu@CToDoCommentsCtrl@@IAEXPAVCWnd@@VCPoint@@@Z 00490295 f   todocommentsctrl.obj
 0001:0008f366       ?OnCommentsMenuCmd@CToDoCommentsCtrl@@IAEXI@Z 00490366 f   todocommentsctrl.obj
 0001:0008f7df       ?SetWordWrap@CToDoCommentsCtrl@@IAEXH@Z 004907df f   todocommentsctrl.obj
 0001:0008f80a       ?OnUpdateCommentsMenuCmd@CToDoCommentsCtrl@@IAEXPAVCCmdUI@@@Z 0049080a f   todocommentsctrl.obj
 0001:0008fab7       ?Paste@CToDoCommentsCtrl@@IAEHXZ 00490ab7 f   todocommentsctrl.obj
 0001:0008fb54       ?CanPaste@CToDoCommentsCtrl@@IAEHXZ 00490b54 f   todocommentsctrl.obj
 0001:0008fba4       ?OnSetCursor@CToDoCommentsCtrl@@IAEHPAVCWnd@@II@Z 00490ba4 f   todocommentsctrl.obj
 0001:0008fbd1       ?IsTDLClipboardEmpty@CToDoCommentsCtrl@@IBEHXZ 00490bd1 f   todocommentsctrl.obj
 0001:0008fc50       ?SendNotifyCustomUrl@CToDoCommentsCtrl@@MBEJPBG@Z 00490c50 f   todocommentsctrl.obj
 0001:0008fce0       ?SendNotifyFailedUrl@CToDoCommentsCtrl@@MBEJPBG@Z 00490ce0 f   todocommentsctrl.obj
 0001:0008fd13       ?PreSubclassWindow@CToDoCommentsCtrl@@MAEXXZ 00490d13 f   todocommentsctrl.obj
 0001:0008fd18       ?SavePreferences@CToDoCommentsCtrl@@UBEXPAVIPreferences@@PBG@Z 00490d18 f   todocommentsctrl.obj
 0001:0008fd32       ?LoadPreferences@CToDoCommentsCtrl@@UAEXPBVIPreferences@@PBG@Z 00490d32 f   todocommentsctrl.obj
 0001:0008fd6c       ?OnSetWordWrap@CToDoCommentsCtrl@@IAEJIJ@Z 00490d6c f   todocommentsctrl.obj
 0001:0008fd7a       ?OnCreate@CToDoCommentsCtrl@@IAEHPAUtagCREATESTRUCTW@@@Z 00490d7a f   todocommentsctrl.obj
 0001:0008fdef       ?ProcessMessage@CToDoCommentsCtrl@@UAE_NPAUtagMSG@@@Z 00490def f   todocommentsctrl.obj
 0001:00092715       ??0CToDoCtrl@@QAE@AAVCContentMgr@@ABVCONTENTFORMAT@@ABUTDCCOLEDITFILTERVISIBILITY@@@Z 00493715 f   ToDoCtrl.obj
 0001:00092dff       ??_GCSpinButtonCtrl@@UAEPAXI@Z 00493dff f i ToDoCtrl.obj
 0001:00092dff       ??_ECSpinButtonCtrl@@UAEPAXI@Z 00493dff f i ToDoCtrl.obj
 0001:00092e1b       ??_GCToDoCtrl@@UAEPAXI@Z   00493e1b f i ToDoCtrl.obj
 0001:00092e1b       ??_ECToDoCtrl@@UAEPAXI@Z   00493e1b f i ToDoCtrl.obj
 0001:00092e37       ??1CTDCCustomControlArray@@UAE@XZ 00493e37 f i ToDoCtrl.obj
 0001:00092e3c       ??_ECTDCCustomControlArray@@UAEPAXI@Z 00493e3c f i ToDoCtrl.obj
 0001:00092e3c       ??_GCTDCCustomControlArray@@UAEPAXI@Z 00493e3c f i ToDoCtrl.obj
 0001:00092e58       ??1CToDoCtrl@@UAE@XZ       00493e58 f   ToDoCtrl.obj
 0001:0009326d       ?DoDataExchange@CToDoCtrl@@MAEXPAVCDataExchange@@@Z 0049426d f   ToDoCtrl.obj
 0001:0009371a       ?UpdateComments@CToDoCtrl@@IAEXH@Z 0049471a f   ToDoCtrl.obj
 0001:00093797       ?GetMessageMap@CToDoCtrl@@MBEPBUAFX_MSGMAP@@XZ 00494797 f   ToDoCtrl.obj
 0001:00093797       ?_GetBaseMessageMap@CTabbedToDoCtrl@@KGPBUAFX_MSGMAP@@XZ 00494797 f   ToDoCtrl.obj
 0001:00093c39       ?ParseTaskLink@CToDoCtrl@@QBEHABVCString@@AAKAAV2@@Z 00494c39 f   ToDoCtrl.obj
 0001:00093c53       ?ParseTaskLink@CToDoCtrl@@SAHABVCString@@0AAKAAV2@@Z 00494c53 f   ToDoCtrl.obj
 0001:00093c6c       ?IsReservedShortcut@CToDoCtrl@@SAHK@Z 00494c6c f   ToDoCtrl.obj
 0001:00093c77       ?EnableExtendedSelection@CToDoCtrl@@SAXHH@Z 00494c77 f   ToDoCtrl.obj
 0001:00093c87       ?SetRecentlyModifiedPeriod@CToDoCtrl@@SAXABVCOleDateTimeSpan@@@Z 00494c87 f   ToDoCtrl.obj
 0001:00093c9a       ?CompareFileFormat@CToDoCtrl@@QBE?AW4TDC_FILEFMT@@XZ 00494c9a f   ToDoCtrl.obj
 0001:00093cb4       ?EnableEncryption@CToDoCtrl@@QAEXH@Z 00494cb4 f   ToDoCtrl.obj
 0001:00093d51       ?VerifyPassword@CToDoCtrl@@QBEHABVCString@@@Z 00494d51 f   ToDoCtrl.obj
 0001:00093d77       ?CanEncrypt@CToDoCtrl@@SAHXZ 00494d77 f   ToDoCtrl.obj
 0001:00093d7c       ?Create@CToDoCtrl@@QAEHABUtagRECT@@PAVCWnd@@IHH@Z 00494d7c f   ToDoCtrl.obj
 0001:00093dd9       ?OnInitDialog@CToDoCtrl@@MAEHXZ 00494dd9 f   ToDoCtrl.obj
 0001:00093ff4       ?SetBuddy@CSpinButtonCtrl@@QAEPAVCWnd@@PAV2@@Z 00494ff4 f i ToDoCtrl.obj
 0001:00094019       ?LoadTaskIcons@CToDoCtrl@@IAEXXZ 00495019 f   ToDoCtrl.obj
 0001:00094047       ?CreateContentControl@CToDoCtrl@@IAEHH@Z 00495047 f   ToDoCtrl.obj
 0001:000942d1       ?InitEditPrompts@CToDoCtrl@@IAEXXZ 004952d1 f   ToDoCtrl.obj
 0001:000944e5       ?SetTreeFont@CToDoCtrl@@QAEHPAUHFONT__@@@Z 004954e5 f   ToDoCtrl.obj
 0001:0009453b       ?SetCommentsFont@CToDoCtrl@@QAEHPAUHFONT__@@@Z 0049553b f   ToDoCtrl.obj
 0001:0009454f       ?UpdateCommentsFont@CToDoCtrl@@IAEHH@Z 0049554f f   ToDoCtrl.obj
 0001:00094611       ?ResizeAttributeColumnsToFit@CToDoCtrl@@QAEXXZ 00495611 f   ToDoCtrl.obj
 0001:0009461c       ?SetMaximizeState@CToDoCtrl@@QAEXW4TDC_MAXSTATE@@@Z 0049561c f   ToDoCtrl.obj
 0001:000946b9       ?OnSize@CToDoCtrl@@IAEXIHH@Z 004956b9 f   ToDoCtrl.obj
 0001:000946ec       ?Resize@CToDoCtrl@@MAEXHHH@Z 004956ec f   ToDoCtrl.obj
 0001:00094819       ?ReposProjectName@CToDoCtrl@@IAEXPAVCDeferWndMove@@AAVCRect@@@Z 00495819 f   ToDoCtrl.obj
 0001:000948e3       ?CalcRequiredControlsRect@CToDoCtrl@@IBEHABVCRect@@AAV2@AAH2H@Z 004958e3 f   ToDoCtrl.obj
 0001:00094bd6       ??1CTDCControlArray@@UAE@XZ 00495bd6 f i ToDoCtrl.obj
 0001:00094bdb       ??_ECTDCControlArray@@UAEPAXI@Z 00495bdb f i ToDoCtrl.obj
 0001:00094bdb       ??_GCTDCControlArray@@UAEPAXI@Z 00495bdb f i ToDoCtrl.obj
 0001:00094bf7       ?ReposControls@CToDoCtrl@@IAEXPAVCDeferWndMove@@AAVCRect@@H@Z 00495bf7 f   ToDoCtrl.obj
 0001:00094e4f       ?GetControls@CToDoCtrl@@IBEHAAVCTDCControlArray@@H@Z 00495e4f f   ToDoCtrl.obj
 0001:00094f4f       ?ReposControl@CToDoCtrl@@IAEXABUCTRLITEM@@PAVCDeferWndMove@@PBVCDlgUnits@@ABVCRect@@H@Z 00495f4f f   ToDoCtrl.obj
 0001:0009514e       ?ReposTaskTree@CToDoCtrl@@MAEXPAVCDeferWndMove@@ABVCRect@@@Z 0049614e f   ToDoCtrl.obj
 0001:00095167       ?IsSplitterVisible@CToDoCtrl@@IBEHXZ 00496167 f   ToDoCtrl.obj
 0001:00095188       ?IsCommentsVisible@CToDoCtrl@@IBEHH@Z 00496188 f   ToDoCtrl.obj
 0001:000951b8       ?ReposComments@CToDoCtrl@@IAEXPAVCDeferWndMove@@AAVCRect@@@Z 004961b8 f   ToDoCtrl.obj
 0001:0009546d       ?ShowHideControl@CToDoCtrl@@IAEXABUCTRLITEM@@@Z 0049646d f   ToDoCtrl.obj
 0001:000954d1       ?ShowHideControls@CToDoCtrl@@IAEXXZ 004964d1 f   ToDoCtrl.obj
 0001:000955bd       ?GetBuddy@CUSTOMATTRIBCTRLITEM@@QBEHAAUCTRLITEM@@@Z 004965bd f i ToDoCtrl.obj
 0001:000955e8       ?EnableDisableCustomControl@CToDoCtrl@@IAEXABUCUSTOMATTRIBCTRLITEM@@KHH@Z 004965e8 f   ToDoCtrl.obj
 0001:0009572f       ?GetSelectedTaskCustomAttributeData@CToDoCtrl@@QBE?AVCString@@ABV2@H@Z 0049672f f i ToDoCtrl.obj
 0001:00095752       ?EnableDisableControl@CToDoCtrl@@IAEXABUCTRLITEM@@KHHHH@Z 00496752 f   ToDoCtrl.obj
 0001:0009592e       ?EnableDisableControls@CToDoCtrl@@IAEXPAU_TREEITEM@@@Z 0049692e f   ToDoCtrl.obj
 0001:00095b53       ?CalcMaxCommentSize@CToDoCtrl@@IBEHXZ 00496b53 f   ToDoCtrl.obj
 0001:00095b9a       ?IsCtrlShowing@CToDoCtrl@@IBEHABUCTRLITEM@@@Z 00496b9a f   ToDoCtrl.obj
 0001:00095d57       ?UpdateSelectedTaskPath@CToDoCtrl@@MAEXXZ 00496d57 f   ToDoCtrl.obj
 0001:00095d62       ?UpdateControls@CToDoCtrl@@IAEXHPAU_TREEITEM@@@Z 00496d62 f   ToDoCtrl.obj
 0001:0009643b       ?GetSelectedTaskComments@CToDoCtrl@@QBE?AVCString@@XZ 0049743b f i ToDoCtrl.obj
 0001:00096458       ?GetSelectedTaskAllocBy@CToDoCtrl@@QBE?AVCString@@XZ 00497458 f i ToDoCtrl.obj
 0001:00096475       ?GetSelectedTaskStatus@CToDoCtrl@@QBE?AVCString@@XZ 00497475 f i ToDoCtrl.obj
 0001:00096492       ?GetSelectedTaskExtID@CToDoCtrl@@QBE?AVCString@@XZ 00497492 f i ToDoCtrl.obj
 0001:000964af       ?GetSelectedTaskVersion@CToDoCtrl@@QBE?AVCString@@XZ 004974af f i ToDoCtrl.obj
 0001:000964cc       ?UpdateTasklistVisibility@CToDoCtrl@@MAEXXZ 004974cc f   ToDoCtrl.obj
 0001:000964fc       ?SetCtrlDate@CToDoCtrl@@IAEXAAVCDateTimeCtrl@@ABVCOleDateTime@@1@Z 004974fc f   ToDoCtrl.obj
 0001:0009656a       ?UpdateTask@CToDoCtrl@@IAEXW4TDC_ATTRIBUTE@@K@Z 0049756a f   ToDoCtrl.obj
 0001:00096a9e       ?OnChangePriority@CToDoCtrl@@IAEXXZ 00497a9e f   ToDoCtrl.obj
 0001:00096aa8       ?OnChangeRisk@CToDoCtrl@@IAEXXZ 00497aa8 f   ToDoCtrl.obj
 0001:00096ab2       ?OnStartDatechange@CToDoCtrl@@IAEXPAUtagNMHDR@@PAJ@Z 00497ab2 f   ToDoCtrl.obj
 0001:00096ad9       ?OnDueDatechange@CToDoCtrl@@IAEXPAUtagNMHDR@@PAJ@Z 00497ad9 f   ToDoCtrl.obj
 0001:00096b00       ?OnCompletionDatechange@CToDoCtrl@@IAEXPAUtagNMHDR@@PAJ@Z 00497b00 f   ToDoCtrl.obj
 0001:00096b27       ?OnSelChangeDueTime@CToDoCtrl@@IAEXXZ 00497b27 f   ToDoCtrl.obj
 0001:00096b31       ?OnSelChangeStartTime@CToDoCtrl@@IAEXXZ 00497b31 f   ToDoCtrl.obj
 0001:00096b3b       ?OnSelChangeDoneTime@CToDoCtrl@@IAEXXZ 00497b3b f   ToDoCtrl.obj
 0001:00096b45       ?OnCustomAttributeChange@CToDoCtrl@@IAEXIPAUtagNMHDR@@PAJ@Z 00497b45 f   ToDoCtrl.obj
 0001:00096b58       ?OnCustomAttributeChange@CToDoCtrl@@IAEXI@Z 00497b58 f   ToDoCtrl.obj
 0001:00096bb5       ?SetSelectedTaskCustomAttributeData@CToDoCtrl@@QAEHABVCString@@0@Z 00497bb5 f   ToDoCtrl.obj
 0001:00096bc7       ?SetSelectedTaskCustomAttributeData@CToDoCtrl@@IAEHABVCString@@0H@Z 00497bc7 f   ToDoCtrl.obj
 0001:00096d19       ?DrawSplitter@CToDoCtrl@@IAEXPAVCDC@@@Z 00497d19 f   ToDoCtrl.obj
 0001:00096d89       ?OnEraseBkgnd@CToDoCtrl@@IAEHPAVCDC@@@Z 00497d89 f   ToDoCtrl.obj
 0001:00096e5b       ?GetAutoListData@CToDoCtrl@@QBEHAAUTDCAUTOLISTDATA@@@Z 00497e5b f   ToDoCtrl.obj
 0001:00096ef0       ?SetDefaultAutoListData@CToDoCtrl@@QAEXABUTDCAUTOLISTDATA@@@Z 00497ef0 f   ToDoCtrl.obj
 0001:00097000       ?SetDefaultListContent@CToDoCtrl@@KAXAAVCAutoComboBox@@ABVCStringArray@@1H@Z 00498000 f   ToDoCtrl.obj
 0001:000970c9       ?SetAutoListContentReadOnly@CToDoCtrl@@QAEHW4TDC_ATTRIBUTE@@H@Z 004980c9 f   ToDoCtrl.obj
 0001:0009716b       ?SetComboReadOnly@CToDoCtrl@@IAEHAAVCAutoComboBox@@HABVCStringArray@@H@Z 0049816b f   ToDoCtrl.obj
 0001:00097269       ?SetSelectedTaskColor@CToDoCtrl@@QAEHK@Z 00498269 f   ToDoCtrl.obj
 0001:00097361       ?EditSelectedTaskIcon@CToDoCtrl@@QAEHXZ 00498361 f   ToDoCtrl.obj
 0001:00097419       ?GetSelectedTaskIcon@CToDoCtrl@@QBE?AVCString@@XZ 00498419 f i ToDoCtrl.obj
 0001:00097436       ?ClearSelectedTaskIcon@CToDoCtrl@@QAEHXZ 00498436 f   ToDoCtrl.obj
 0001:0009748c       ?SetSelectedTaskIcon@CToDoCtrl@@QAEHABVCString@@@Z 0049848c f   ToDoCtrl.obj
 0001:0009753f       ?CanPasteText@CToDoCtrl@@QAEHXZ 0049853f f   ToDoCtrl.obj
 0001:00097562       ?PasteText@CToDoCtrl@@QAEHABVCString@@@Z 00498562 f   ToDoCtrl.obj
 0001:00097599       ?SetSelectedTaskComments@CToDoCtrl@@QAEHABVCString@@ABVCBinaryData@@@Z 00498599 f   ToDoCtrl.obj
 0001:000975ab       ?SetSelectedTaskComments@CToDoCtrl@@IAEHABVCString@@ABVCBinaryData@@H@Z 004985ab f   ToDoCtrl.obj
 0001:00097745       ?SetSelectedTaskTitle@CToDoCtrl@@QAEHABVCString@@@Z 00498745 f   ToDoCtrl.obj
 0001:0009783b       ?GetSelectionBoundingRect@CToDoCtrl@@UBEHAAVCRect@@@Z 0049883b f   ToDoCtrl.obj
 0001:00097873       ?GetTaskDate@CToDoCtrl@@QBE?AVCOleDateTime@@KW4TDC_DATE@@@Z 00498873 f   ToDoCtrl.obj
 0001:00097891       ?GetTaskTimes@CToDoCtrl@@QBEHKAANAAW4TDC_UNITS@@01@Z 00498891 f   ToDoCtrl.obj
 0001:000978d5       ?SetSelectedTaskPriority@CToDoCtrl@@QAEHH@Z 004988d5 f   ToDoCtrl.obj
 0001:000979bc       ?SetSelectedTaskRisk@CToDoCtrl@@QAEHH@Z 004989bc f   ToDoCtrl.obj
 0001:00097aa3       ?SetSelectedTaskFlag@CToDoCtrl@@QAEHH@Z 00498aa3 f   ToDoCtrl.obj
 0001:00097bab       ?IncrementSelectedTaskPriority@CToDoCtrl@@QAEHH@Z 00498bab f   ToDoCtrl.obj
 0001:00097cac       ?ShowTaskHasIncompleteDependenciesError@CToDoCtrl@@IAEXABVCString@@@Z 00498cac f   ToDoCtrl.obj
 0001:00097d4d       ?ShowTaskHasCircularDependenciesError@CToDoCtrl@@IBEXABVCDWordArray@@@Z 00498d4d f   ToDoCtrl.obj
 0001:00097def       ?SetSelectedTaskDate@CToDoCtrl@@QAEHW4TDC_DATE@@ABVCOleDateTime@@@Z 00498def f   ToDoCtrl.obj
 0001:00097e01       ?SetSelectedTaskDate@CToDoCtrl@@IAEHW4TDC_DATE@@ABVCOleDateTime@@H@Z 00498e01 f   ToDoCtrl.obj
 0001:00098020       ?MoveSelectedTaskDates@CToDoCtrl@@IAEHABVCOleDateTime@@H@Z 00499020 f   ToDoCtrl.obj
 0001:00098120       ?OffsetSelectedTaskDate@CToDoCtrl@@QAEHW4TDC_DATE@@HW4TDC_OFFSET@@H@Z 00499120 f   ToDoCtrl.obj
 0001:00098295       ?OffsetSelectedTaskDates@CToDoCtrl@@QAEHHW4TDC_OFFSET@@H@Z 00499295 f   ToDoCtrl.obj
 0001:000983fa       ?SetInheritedParentAttributes@CToDoCtrl@@SAXABVCTDCAttributeMap@@H@Z 004993fa f   ToDoCtrl.obj
 0001:0009840a       ?CheckWantSubtasksCompleted@CToDoCtrl@@IAEHXZ 0049940a f   ToDoCtrl.obj
 0001:0009848e       ?SetSelectedTaskDone@CToDoCtrl@@QAEHH@Z 0049948e f   ToDoCtrl.obj
 0001:000984cc       ?AdjustNewRecurringTasksDates@CToDoCtrl@@IAEXKKABVCOleDateTime@@H@Z 004994cc f   ToDoCtrl.obj
 0001:000986bf       ?SetSelectedTaskDone@CToDoCtrl@@IAEHABVCOleDateTime@@H@Z 004996bf f   ToDoCtrl.obj
 0001:00098c88       ?OnRecreateRecurringTask@CToDoCtrl@@IAEJIJ@Z 00499c88 f   ToDoCtrl.obj
 0001:00098f2f       ?SetTaskDone@CToDoCtrl@@IAEHPAU_TREEITEM@@ABVCOleDateTime@@HH@Z 00499f2f f   ToDoCtrl.obj
 0001:000990ac       ?SetSelectedTaskPercentDone@CToDoCtrl@@QAEHH@Z 0049a0ac f   ToDoCtrl.obj
 0001:00099196       ?SetSelectedTaskCost@CToDoCtrl@@QAEHN@Z 0049a196 f   ToDoCtrl.obj
 0001:0009928e       ?SetSelectedTaskRecurrence@CToDoCtrl@@QAEHABUTDCRECURRENCE@@@Z 0049a28e f   ToDoCtrl.obj
 0001:000993a2       ?SetPercentDoneIncrement@CToDoCtrl@@QAEXH@Z 0049a3a2 f   ToDoCtrl.obj
 0001:00099408       ?GetNextPercentDone@CToDoCtrl@@IAEHHH@Z 0049a408 f   ToDoCtrl.obj
 0001:0009944b       ?IncrementSelectedTaskPercentDone@CToDoCtrl@@QAEHH@Z 0049a44b f   ToDoCtrl.obj
 0001:000995ba       ?SetSelectedTaskTimeEstimate@CToDoCtrl@@QAEHNW4TDC_UNITS@@@Z 0049a5ba f   ToDoCtrl.obj
 0001:000997bd       ?SetSelectedTaskTimeSpent@CToDoCtrl@@QAEHNW4TDC_UNITS@@@Z 0049a7bd f   ToDoCtrl.obj
 0001:00099954       ?SetSelectedTaskTimeEstimateUnits@CToDoCtrl@@IAEHW4TDC_UNITS@@H@Z 0049a954 f   ToDoCtrl.obj
 0001:00099bb4       ?SetSelectedTaskTimeSpentUnits@CToDoCtrl@@IAEHW4TDC_UNITS@@H@Z 0049abb4 f   ToDoCtrl.obj
 0001:00099da4       ?SetTextChange@CToDoCtrl@@IAEHHAAVCString@@ABV2@W4TDC_ATTRIBUTE@@IKPAVCAutoComboBox@@@Z 0049ada4 f   ToDoCtrl.obj
 0001:00099e10       ?SetSelectedTaskAllocTo@CToDoCtrl@@QAEHABVCStringArray@@@Z 0049ae10 f   ToDoCtrl.obj
 0001:00099e27       ?AppendSelectedTaskAllocTo@CToDoCtrl@@QAEHABVCStringArray@@@Z 0049ae27 f   ToDoCtrl.obj
 0001:00099e3e       ?SetSelectedTaskAllocBy@CToDoCtrl@@QAEHABVCString@@@Z 0049ae3e f   ToDoCtrl.obj
 0001:00099f07       ?SetSelectedTaskVersion@CToDoCtrl@@QAEHABVCString@@@Z 0049af07 f   ToDoCtrl.obj
 0001:00099fd3       ?SetSelectedTaskStatus@CToDoCtrl@@QAEHABVCString@@@Z 0049afd3 f   ToDoCtrl.obj
 0001:0009a0de       ?SetSelectedTaskArray@CToDoCtrl@@IAEHW4TDC_ATTRIBUTE@@ABVCStringArray@@HAAVCCheckComboBox@@@Z 0049b0de f   ToDoCtrl.obj
 0001:0009a189       ?SetSelectedTaskArray@CToDoCtrl@@IAE?AW4TDC_SET@@W4TDC_ATTRIBUTE@@ABVCStringArray@@HAAK@Z 0049b189 f   ToDoCtrl.obj
 0001:0009a24f       ?SetSelectedTaskCategories@CToDoCtrl@@QAEHABVCStringArray@@@Z 0049b24f f   ToDoCtrl.obj
 0001:0009a266       ?AppendSelectedTaskCategories@CToDoCtrl@@QAEHABVCStringArray@@@Z 0049b266 f   ToDoCtrl.obj
 0001:0009a27d       ?SetSelectedTaskTags@CToDoCtrl@@QAEHABVCStringArray@@@Z 0049b27d f   ToDoCtrl.obj
 0001:0009a294       ?AppendSelectedTaskTags@CToDoCtrl@@QAEHABVCStringArray@@@Z 0049b294 f   ToDoCtrl.obj
 0001:0009a2ab       ?SetSelectedTaskFileRefs@CToDoCtrl@@QAEHABVCStringArray@@@Z 0049b2ab f   ToDoCtrl.obj
 0001:0009a2bb       ?AppendSelectedTaskFileRefs@CToDoCtrl@@QAEHABVCStringArray@@@Z 0049b2bb f   ToDoCtrl.obj
 0001:0009a2cb       ?SetSelectedTaskFileRefs@CToDoCtrl@@IAEHABVCStringArray@@HH@Z 0049b2cb f   ToDoCtrl.obj
 0001:0009a37e       ?SetSelectedTaskDependencies@CToDoCtrl@@QAEHABVCStringArray@@@Z 0049b37e f   ToDoCtrl.obj
 0001:0009a38c       ?AppendSelectedTaskDependencies@CToDoCtrl@@QAEHABVCStringArray@@@Z 0049b38c f   ToDoCtrl.obj
 0001:0009a39a       ?SetSelectedTaskDependencies@CToDoCtrl@@IAEHABVCStringArray@@H@Z 0049b39a f   ToDoCtrl.obj
 0001:0009a436       ?CanTimeTrackSelectedTask@CToDoCtrl@@QBEHXZ 0049b436 f   ToDoCtrl.obj
 0001:0009a47b       ?IsSelectedTaskBeingTimeTracked@CToDoCtrl@@QBEHXZ 0049b47b f   ToDoCtrl.obj
 0001:0009a4b5       ?GetTimeTrackTaskID@CToDoCtrl@@QBEKH@Z 0049b4b5 f   ToDoCtrl.obj
 0001:0009a4d2       ?IsActivelyTimeTracking@CToDoCtrl@@QBEHXZ 0049b4d2 f   ToDoCtrl.obj
 0001:0009a553       ?SetSelectedTaskFileRef@CToDoCtrl@@QAEHABVCString@@@Z 0049b553 f   ToDoCtrl.obj
 0001:0009a561       ?SetSelectedTaskFileRef@CToDoCtrl@@IAEHABVCString@@H@Z 0049b561 f   ToDoCtrl.obj
 0001:0009a5d8       ?SetSelectedTaskExtID@CToDoCtrl@@QAEHABVCString@@@Z 0049b5d8 f   ToDoCtrl.obj
 0001:0009a69e       ?GetSelectedTaskRecurrence@CToDoCtrl@@QBEHAAUTDCRECURRENCE@@@Z 0049b69e f   ToDoCtrl.obj
 0001:0009a6d3       ?GetSelectedTaskFileRefs@CToDoCtrl@@QBEHAAVCStringArray@@@Z 0049b6d3 f   ToDoCtrl.obj
 0001:0009a6e1       ?GetSelectedTaskFileRefs@CToDoCtrl@@IBEHAAVCStringArray@@H@Z 0049b6e1 f   ToDoCtrl.obj
 0001:0009a713       ?GotoSelectedTaskFileRef@CToDoCtrl@@QAEHH@Z 0049b713 f   ToDoCtrl.obj
 0001:0009a75b       ?GetSelectedTaskFileRef@CToDoCtrl@@IBE?AVCString@@HH@Z 0049b75b f   ToDoCtrl.obj
 0001:0009a7f7       ?GetSelectedTaskFileRef@CToDoCtrl@@QBE?AVCString@@H@Z 0049b7f7 f   ToDoCtrl.obj
 0001:0009a813       ?CreateNewTask@CToDoCtrl@@QAEHABVCString@@W4TDC_INSERTWHERE@@HK@Z 0049b813 f   ToDoCtrl.obj
 0001:0009a89e       ?CanCreateNewTask@CToDoCtrl@@QBEHW4TDC_INSERTWHERE@@@Z 0049b89e f   ToDoCtrl.obj
 0001:0009a935       ?CanCreateNewTask@CToDoCtrl@@QBEHW4TDC_INSERTWHERE@@ABVCString@@@Z 0049b935 f   ToDoCtrl.obj
 0001:0009a98c       ?CreateNewTask@CToDoCtrl@@MAEPAVTODOITEM@@PAU_TREEITEM@@@Z 0049b98c f   ToDoCtrl.obj
 0001:0009a9c5       ?InsertItem@CToDoCtrl@@IAEPAU_TREEITEM@@ABVCString@@PAU2@1HK@Z 0049b9c5 f   ToDoCtrl.obj
 0001:0009abd9       ?SplitSelectedTask@CToDoCtrl@@QAEHH@Z 0049bbd9 f   ToDoCtrl.obj
 0001:0009aedc       ??YCOleDateTime@@QAEABV0@VCOleDateTimeSpan@@@Z 0049bedc f i ToDoCtrl.obj
 0001:0009af03       ?DeleteSelectedTask@CToDoCtrl@@MAEHHH@Z 0049bf03 f   ToDoCtrl.obj
 0001:0009b256       ?DeleteSelectedTask@CToDoCtrl@@QAEHXZ 0049c256 f   ToDoCtrl.obj
 0001:0009b2ae       ?GetLabelEditRect@CToDoCtrl@@MAEHAAVCRect@@@Z 0049c2ae f   ToDoCtrl.obj
 0001:0009b2da       ?EditSelectedTask@CToDoCtrl@@QAEHH@Z 0049c2da f   ToDoCtrl.obj
 0001:0009b46a       ?GetSelectedTaskTitle@CToDoCtrl@@QBE?AVCString@@XZ 0049c46a f i ToDoCtrl.obj
 0001:0009b487       ?IsTaskLabelEditing@CToDoCtrl@@QBEHXZ 0049c487 f   ToDoCtrl.obj
 0001:0009b4bb       ?OnEditEnd@CToDoCtrl@@IAEJIJ@Z 0049c4bb f   ToDoCtrl.obj
 0001:0009b63e       ?SetEditTitleTaskID@CToDoCtrl@@MAEXK@Z 0049c63e f   ToDoCtrl.obj
 0001:0009b657       ?OnEditCancel@CToDoCtrl@@IAEJIJ@Z 0049c657 f   ToDoCtrl.obj
 0001:0009b7a6       ?ConfirmDeleteAllTasks@CToDoCtrl@@IBEHH@Z 0049c7a6 f   ToDoCtrl.obj
 0001:0009b8fd       ?DeleteAllTasks@CToDoCtrl@@QAEHXZ 0049c8fd f   ToDoCtrl.obj
 0001:0009b9fe       ?SetStyle@CToDoCtrl@@QAEHW4TDC_STYLE@@H@Z 0049c9fe f   ToDoCtrl.obj
 0001:0009ba1e       ?SetStyle@CToDoCtrl@@MAEHW4TDC_STYLE@@HH@Z 0049ca1e f   ToDoCtrl.obj
 0001:0009bd54       ?SetStyles@CToDoCtrl@@QAEHABV?$CMap@W4TDC_STYLE@@W41@HAAH@@@Z 0049cd54 f   ToDoCtrl.obj
 0001:0009be60       ?HasStyle@CToDoCtrl@@QBEHW4TDC_STYLE@@@Z 0049ce60 f   ToDoCtrl.obj
 0001:0009be9b       ?SetCompletionStatus@CToDoCtrl@@QAEXABVCString@@@Z 0049ce9b f   ToDoCtrl.obj
 0001:0009bed8       ?SetLayoutPositions@CToDoCtrl@@QAEXW4TDC_UILOCATION@@0H@Z 0049ced8 f   ToDoCtrl.obj
 0001:0009bf2c       ?GetCustomAttributeDefs@CToDoCtrl@@QBEHAAVCTDCCustomAttribDefinitionArray@@@Z 0049cf2c f   ToDoCtrl.obj
 0001:0009bf46       ?SetCustomAttributeDefs@CToDoCtrl@@QAEXABVCTDCCustomAttribDefinitionArray@@@Z 0049cf46 f   ToDoCtrl.obj
 0001:0009bf98       ?UpdateVisibleColumns@CToDoCtrl@@UAEXXZ 0049cf98 f   ToDoCtrl.obj
 0001:0009bfcb       ?SetColumnEditFilterVisibility@CToDoCtrl@@QAEXABUTDCCOLEDITFILTERVISIBILITY@@@Z 0049cfcb f   ToDoCtrl.obj
 0001:0009c05c       ?CheckForDiff@TDCCOLEDITFILTERVISIBILITY@@QBEHABU1@AAH11@Z 0049d05c f i ToDoCtrl.obj
 0001:0009c0bc       ?GetColumnEditFilterVisibility@CToDoCtrl@@QBEXAAUTDCCOLEDITFILTERVISIBILITY@@@Z 0049d0bc f   ToDoCtrl.obj
 0001:0009c0cf       ?GetVisibleColumns@CToDoCtrl@@QBEABVCTDCColumnIDMap@@XZ 0049d0cf f   ToDoCtrl.obj
 0001:0009c0d6       ?GetVisibleEditFields@CToDoCtrl@@QBEABVCTDCAttributeMap@@XZ 0049d0d6 f   ToDoCtrl.obj
 0001:0009c0dd       ?GetVisibleFilterFields@CToDoCtrl@@QBEABVCTDCAttributeMap@@XZ 0049d0dd f   ToDoCtrl.obj
 0001:0009c0e4       ?IsColumnShowing@CToDoCtrl@@UBEHW4TDC_COLUMN@@@Z 0049d0e4 f   ToDoCtrl.obj
 0001:0009c126       ?IsEditFieldShowing@CToDoCtrl@@QBEHW4TDC_ATTRIBUTE@@@Z 0049d126 f   ToDoCtrl.obj
 0001:0009c153       ?IsColumnOrEditFieldShowing@CToDoCtrl@@QBEHW4TDC_COLUMN@@W4TDC_ATTRIBUTE@@@Z 0049d153 f   ToDoCtrl.obj
 0001:0009c17c       ?Save@CToDoCtrl@@QAE?AW4TDC_FILE@@ABVCString@@@Z 0049d17c f   ToDoCtrl.obj
 0001:0009c1d7       ?Save@CToDoCtrl@@QAE?AW4TDC_FILE@@AAVCTaskFile@@ABVCString@@@Z 0049d1d7 f   ToDoCtrl.obj
 0001:0009c4ca       ?Continue@CXmlParseController@@UBEHPBG0@Z 0049d4ca f i ToDoCtrl.obj
 0001:0009c4e2       ??1CXmlParseController@@QAE@XZ 0049d4e2 f i ToDoCtrl.obj
 0001:0009c4ea       ?MapTaskfileError@CToDoCtrl@@KA?AW4TDC_FILE@@H@Z 0049d4ea f   ToDoCtrl.obj
 0001:0009c51e       ?BuildTasksForSave@CToDoCtrl@@IAEXAAVCTaskFile@@H@Z 0049d51e f   ToDoCtrl.obj
 0001:0009c610       ?SaveGlobals@CToDoCtrl@@IBEXAAVCTaskFile@@@Z 0049d610 f   ToDoCtrl.obj
 0001:0009c680       ?RemoveItems@TDCAUTOLISTDATA@@QAEXABU1@@Z 0049d680 f i ToDoCtrl.obj
 0001:0009c6e2       ?LoadGlobals@CToDoCtrl@@IAEXABVCTaskFile@@@Z 0049d6e2 f   ToDoCtrl.obj
 0001:0009c798       ?AddUserListContent@CToDoCtrl@@KAXAAVCAutoComboBox@@ABVCStringArray@@@Z 0049d798 f   ToDoCtrl.obj
 0001:0009c7b8       ?SaveCustomAttributeDefinitions@CToDoCtrl@@IBEXAAVCTaskFile@@@Z 0049d7b8 f   ToDoCtrl.obj
 0001:0009c7de       ?LoadCustomAttributeDefinitions@CToDoCtrl@@IAEXABVCTaskFile@@@Z 0049d7de f   ToDoCtrl.obj
 0001:0009c7ff       ?RebuildCustomAttributeUI@CToDoCtrl@@MAEXXZ 0049d7ff f   ToDoCtrl.obj
 0001:0009c841       ?CheckRestoreBackupFile@CToDoCtrl@@IAEHABVCString@@@Z 0049d841 f   ToDoCtrl.obj
 0001:0009ca1f       ?Load@CToDoCtrl@@QAE?AW4TDC_FILE@@ABVCString@@@Z 0049da1f f   ToDoCtrl.obj
 0001:0009ca7a       ?Load@CToDoCtrl@@QAE?AW4TDC_FILE@@ABVCString@@AAVCTaskFile@@@Z 0049da7a f   ToDoCtrl.obj
 0001:0009cd6e       ?GetPassword@CXmlFileEx@@QAE?AVCString@@XZ 0049dd6e f i ToDoCtrl.obj
 0001:0009cd8c       ?DelayLoad@CToDoCtrl@@QAEHABVCString@@AAVCOleDateTime@@@Z 0049dd8c f   ToDoCtrl.obj
 0001:0009ce79       ?LoadTasks@CToDoCtrl@@MAEHABVCTaskFile@@@Z 0049de79 f   ToDoCtrl.obj
 0001:0009d266       ?GetArchivableTasks@CToDoCtrl@@MBEHAAVCTaskFile@@H@Z 0049e266 f   ToDoCtrl.obj
 0001:0009d30b       ?RemoveArchivedTasks@CToDoCtrl@@IAEXABVCTaskFile@@W4TDC_ARCHIVE@@H@Z 0049e30b f   ToDoCtrl.obj
 0001:0009d431       ?RemoveArchivedTask@CToDoCtrl@@IAEHABVCTaskFile@@PAXW4TDC_ARCHIVE@@H@Z 0049e431 f   ToDoCtrl.obj
 0001:0009d5b8       ?RemoveArchivedTask@CToDoCtrl@@MAEHK@Z 0049e5b8 f   ToDoCtrl.obj
 0001:0009d5f8       ?ArchiveDoneTasks@CToDoCtrl@@QAEHW4TDC_ARCHIVE@@H@Z 0049e5f8 f   ToDoCtrl.obj
 0001:0009d70a       ?ArchiveSelectedTasks@CToDoCtrl@@QAEHH@Z 0049e70a f   ToDoCtrl.obj
 0001:0009d83a       ?ArchiveTasks@CToDoCtrl@@IAEHABVCString@@ABVCTaskFile@@@Z 0049e83a f   ToDoCtrl.obj
 0001:0009da1d       ??0TASKFILE_HEADER@@QAE@XZ 0049ea1d f i ToDoCtrl.obj
 0001:0009da82       ??1TASKFILE_HEADER@@QAE@XZ 0049ea82 f i ToDoCtrl.obj
 0001:0009dad2       ?AddTaskToTreeItem@CToDoCtrl@@IAEPAU_TREEITEM@@ABVCTaskFile@@PAXPAU2@2W4TDC_RESETIDS@@@Z 0049ead2 f   ToDoCtrl.obj
 0001:0009dc0d       ?InsertTreeItem@CToDoCtrl@@IAEPAU_TREEITEM@@PBVTODOITEM@@KPAU2@1@Z 0049ec0d f   ToDoCtrl.obj
 0001:0009dcb7       ?OnDestroy@CToDoCtrl@@IAEXXZ 0049ecb7 f   ToDoCtrl.obj
 0001:0009dd94       ?SetModified@CToDoCtrl@@QAEXH@Z 0049ed94 f   ToDoCtrl.obj
 0001:0009ddea       ?IsModified@CToDoCtrl@@QBEHXZ 0049edea f   ToDoCtrl.obj
 0001:0009de18       ?SetModified@CToDoCtrl@@MAEXHW4TDC_ATTRIBUTE@@K@Z 0049ee18 f   ToDoCtrl.obj
 0001:0009df14       ?ModNeedsResort@CToDoCtrl@@MBEHW4TDC_ATTRIBUTE@@@Z 0049ef14 f   ToDoCtrl.obj
 0001:0009df26       ?OnCommentsChange@CToDoCtrl@@IAEJIJ@Z 0049ef26 f   ToDoCtrl.obj
 0001:0009df3d       ?OnCommentsKillFocus@CToDoCtrl@@IAEJIJ@Z 0049ef3d f   ToDoCtrl.obj
 0001:0009df47       ?OnChangeProjectName@CToDoCtrl@@IAEXXZ 0049ef47 f   ToDoCtrl.obj
 0001:0009df63       ?OnTreeDragOver@CToDoCtrl@@IAEJIJ@Z 0049ef63 f   ToDoCtrl.obj
 0001:0009dff1       ?OnTreeDragDrop@CToDoCtrl@@IAEJIJ@Z 0049eff1 f   ToDoCtrl.obj
 0001:0009e675       ?RemoveNonSelectedTasks@CToDoCtrl@@IBEXAAVCTaskFile@@PAX@Z 0049f675 f   ToDoCtrl.obj
 0001:0009e6df       ?PrepareTaskIDsForPaste@CToDoCtrl@@IBEXAAVCTaskFile@@W4TDC_RESETIDS@@@Z 0049f6df f   ToDoCtrl.obj
 0001:0009e7d0       ?PrepareTaskIDsForPasteAsRef@CToDoCtrl@@IBEXAAVCTaskFile@@@Z 0049f7d0 f   ToDoCtrl.obj
 0001:0009e8f9       ?BuildTaskIDMapForPaste@CToDoCtrl@@IBEXAAVCTaskFile@@PAXAAKAAV?$CMap@KKKAAK@@W4TDC_RESETIDS@@H@Z 0049f8f9 f   ToDoCtrl.obj
 0001:0009e9a7       ?PrepareTaskIDsForPaste@CToDoCtrl@@IBEXAAVCTaskFile@@PAXABV?$CMap@KKKAAK@@H@Z 0049f9a7 f   ToDoCtrl.obj
 0001:0009eb60       ?PrepareTaskIDsForPaste@CToDoCtrl@@IBEHAAVCString@@ABV?$CMap@KKKAAK@@@Z 0049fb60 f   ToDoCtrl.obj
 0001:0009ec7e       ?PreTranslateMessage@CToDoCtrl@@UAEHPAUtagMSG@@@Z 0049fc7e f   ToDoCtrl.obj
 0001:0009ed88       ?MoveSelectedTask@CToDoCtrl@@UAEHW4TDC_MOVETASK@@@Z 0049fd88 f   ToDoCtrl.obj
 0001:0009edd0       ?MoveSelection@CToDoCtrl@@IAEHW4TDC_MOVETASK@@@Z 0049fdd0 f   ToDoCtrl.obj
 0001:0009eeba       ?GotoNextTopLevelTask@CToDoCtrl@@UAEHW4TDC_GOTO@@@Z 0049feba f   ToDoCtrl.obj
 0001:0009eef9       ?CanGotoNextTopLevelTask@CToDoCtrl@@UBEHW4TDC_GOTO@@@Z 0049fef9 f   ToDoCtrl.obj
 0001:0009ef27       ?GotoNextTask@CToDoCtrl@@UAEHW4TDC_GOTO@@@Z 0049ff27 f   ToDoCtrl.obj
 0001:0009ef78       ?CanGotoNextTask@CToDoCtrl@@UBEHW4TDC_GOTO@@@Z 0049ff78 f   ToDoCtrl.obj
 0001:0009efbb       ?SetDueTaskColors@CToDoCtrl@@QAEXKK@Z 0049ffbb f   ToDoCtrl.obj
 0001:0009efd1       ?SetPriorityColors@CToDoCtrl@@QAEXABVCDWordArray@@@Z 0049ffd1 f   ToDoCtrl.obj
 0001:0009effa       ?SetProjectName@CToDoCtrl@@QAEXABVCString@@@Z 0049fffa f   ToDoCtrl.obj
 0001:0009f040       ?GetArchivePath@CToDoCtrl@@QBEHAAVCString@@@Z 004a0040 f   ToDoCtrl.obj
 0001:0009f089       ?GetFriendlyProjectName@CToDoCtrl@@QBE?AVCString@@H@Z 004a0089 f   ToDoCtrl.obj
 0001:0009f17e       ?OnContextMenu@CToDoCtrl@@IAEXPAVCWnd@@VCPoint@@@Z 004a017e f   ToDoCtrl.obj
 0001:0009f193       ?HitTest@CToDoCtrl@@UBE?AW4TDC_HITTEST@@ABVCPoint@@@Z 004a0193 f   ToDoCtrl.obj
 0001:0009f1a5       ?ColumnHitTest@CToDoCtrl@@UBE?AW4TDC_COLUMN@@ABVCPoint@@@Z 004a01a5 f   ToDoCtrl.obj
 0001:0009f1b7       ?OnAutoComboAddDelete@CToDoCtrl@@IAEJIJ@Z 004a01b7 f   ToDoCtrl.obj
 0001:0009f3d0       ?OnSelChangeAllocTo@CToDoCtrl@@IAEXXZ 004a03d0 f   ToDoCtrl.obj
 0001:0009f3da       ?OnSelChangeAllocBy@CToDoCtrl@@IAEXXZ 004a03da f   ToDoCtrl.obj
 0001:0009f3e4       ?OnSelChangeStatus@CToDoCtrl@@IAEXXZ 004a03e4 f   ToDoCtrl.obj
 0001:0009f3ee       ?OnSelChangeVersion@CToDoCtrl@@IAEXXZ 004a03ee f   ToDoCtrl.obj
 0001:0009f3f8       ?OnSelChangeCategory@CToDoCtrl@@IAEXXZ 004a03f8 f   ToDoCtrl.obj
 0001:0009f402       ?OnSelChangeFileRefPath@CToDoCtrl@@IAEXXZ 004a0402 f   ToDoCtrl.obj
 0001:0009f41c       ?OnCancelChangeFileRefPath@CToDoCtrl@@IAEXXZ 004a041c f   ToDoCtrl.obj
 0001:0009f42f       ?OnSelChangeTag@CToDoCtrl@@IAEXXZ 004a042f f   ToDoCtrl.obj
 0001:0009f439       ?OnSelCancelAllocTo@CToDoCtrl@@IAEXXZ 004a0439 f   ToDoCtrl.obj
 0001:0009f4e6       ?OnSelCancelCategory@CToDoCtrl@@IAEXXZ 004a04e6 f   ToDoCtrl.obj
 0001:0009f593       ?OnSelCancelTag@CToDoCtrl@@IAEXXZ 004a0593 f   ToDoCtrl.obj
 0001:0009f640       ?OnChangeTimeEstimate@CToDoCtrl@@IAEXXZ 004a0640 f   ToDoCtrl.obj
 0001:0009f64a       ?OnChangeTimeSpent@CToDoCtrl@@IAEXXZ 004a064a f   ToDoCtrl.obj
 0001:0009f662       ?OnChangeExternalID@CToDoCtrl@@IAEXXZ 004a0662 f   ToDoCtrl.obj
 0001:0009f66c       ?OnChangeCost@CToDoCtrl@@IAEXXZ 004a066c f   ToDoCtrl.obj
 0001:0009f676       ?OnChangeDependency@CToDoCtrl@@IAEXXZ 004a0676 f   ToDoCtrl.obj
 0001:0009f680       ?OnChangeRecurrence@CToDoCtrl@@IAEXXZ 004a0680 f   ToDoCtrl.obj
 0001:0009f68a       ?OnChangePercent@CToDoCtrl@@IAEXXZ 004a068a f   ToDoCtrl.obj
 0001:0009f6a4       ?IsClipboardEmpty@CToDoCtrl@@IBEHH@Z 004a06a4 f   ToDoCtrl.obj
 0001:0009f703       ?CopyCurrentSelection@CToDoCtrl@@MBEHXZ 004a0703 f   ToDoCtrl.obj
 0001:0009f8a3       ?CopySelectedTask@CToDoCtrl@@QBEHXZ 004a08a3 f   ToDoCtrl.obj
 0001:0009f8ab       ?CutSelectedTask@CToDoCtrl@@QAEHXZ 004a08ab f   ToDoCtrl.obj
 0001:0009f90b       ?CanPasteTasks@CToDoCtrl@@QBEHW4TDC_PASTE@@H@Z 004a090b f   ToDoCtrl.obj
 0001:0009f9d9       ?ClearCopiedItem@CToDoCtrl@@QBEXXZ 004a09d9 f   ToDoCtrl.obj
 0001:0009f9de       ?PasteTasks@CToDoCtrl@@QAEHW4TDC_PASTE@@H@Z 004a09de f   ToDoCtrl.obj
 0001:0009fc71       ?AddTasksToTree@CToDoCtrl@@MAEHABVCTaskFile@@PAU_TREEITEM@@1W4TDC_RESETIDS@@HW4TDC_ATTRIBUTE@@@Z 004a0c71 f   ToDoCtrl.obj
 0001:0009fdd2       ?OnTreeClick@CToDoCtrl@@IAEXPAUtagNMHDR@@PAJ@Z 004a0dd2 f   ToDoCtrl.obj
 0001:0009fe23       ?OnColumnEditClick@CToDoCtrl@@IAEJIJ@Z 004a0e23 f   ToDoCtrl.obj
 0001:0009ffb2       ?MapColumnToCtrlID@CToDoCtrl@@IBEIW4TDC_COLUMN@@@Z 004a0fb2 f   ToDoCtrl.obj
 0001:000a01b9       ?MapCtrlIDToColumn@CToDoCtrl@@IBE?AW4TDC_COLUMN@@I@Z 004a11b9 f   ToDoCtrl.obj
 0001:000a0268       ?HandleCustomColumnClick@CToDoCtrl@@IAEHW4TDC_COLUMN@@@Z 004a1268 f   ToDoCtrl.obj
 0001:000a056c       ?GetNextListItem@TDCCUSTOMATTRIBUTEDEFINITION@@QBE?AVCString@@ABV2@H@Z 004a156c f i ToDoCtrl.obj
 0001:000a05dd       ?Set@TDCCADATA@@QAEX_NG@Z  004a15dd f i ToDoCtrl.obj
 0001:000a0604       ?TimeTrackTask@CToDoCtrl@@IAEXPAU_TREEITEM@@@Z 004a1604 f   ToDoCtrl.obj
 0001:000a0639       ?BeginTimeTracking@CToDoCtrl@@QAEXK@Z 004a1639 f   ToDoCtrl.obj
 0001:000a064a       ?BeginTimeTracking@CToDoCtrl@@MAEXKH@Z 004a164a f   ToDoCtrl.obj
 0001:000a0744       ?EndTimeTracking@CToDoCtrl@@QAEXH@Z 004a1744 f   ToDoCtrl.obj
 0001:000a0755       ?EndTimeTracking@CToDoCtrl@@MAEXHH@Z 004a1755 f   ToDoCtrl.obj
 0001:000a0858       ?DoAddTimeToLogFile@CToDoCtrl@@QAEHXZ 004a1858 f   ToDoCtrl.obj
 0001:000a0880       ?DoAddTimeToLogFile@CToDoCtrl@@IAEHKNH@Z 004a1880 f   ToDoCtrl.obj
 0001:000a0a21       ?GetComment@CTDLAddLoggedTimeDlg@@QBE?AVCString@@XZ 004a1a21 f i ToDoCtrl.obj
 0001:000a0a3f       ?OnApplyAddLoggedTime@CToDoCtrl@@IAEJIJ@Z 004a1a3f f   ToDoCtrl.obj
 0001:000a0ad3       ?AddTimeToTaskLogFile@CToDoCtrl@@IAEHKNABVCOleDateTime@@ABVCString@@HH@Z 004a1ad3 f   ToDoCtrl.obj
 0001:000a0cbc       ?GetTaskPath@CToDoCtrl@@QBE?AVCString@@KH@Z 004a1cbc f i ToDoCtrl.obj
 0001:000a0cdf       ?GetSelectedTaskTimeLogPath@CToDoCtrl@@QBE?AVCString@@XZ 004a1cdf f   ToDoCtrl.obj
 0001:000a0d83       ?OnGetFont@CToDoCtrl@@IAEJIJ@Z 004a1d83 f   ToDoCtrl.obj
 0001:000a0da5       ?IsTaskRecurring@CToDoCtrl@@QBEHK@Z 004a1da5 f   ToDoCtrl.obj
 0001:000a0dd9       ?OnTreeSelChange@CToDoCtrl@@IAEXPAUtagNMHDR@@PAJ@Z 004a1dd9 f   ToDoCtrl.obj
 0001:000a0e27       ?SelectTask@CToDoCtrl@@MAEHKH@Z 004a1e27 f   ToDoCtrl.obj
 0001:000a0e6e       ?SelectTasks@CToDoCtrl@@MAEHABVCDWordArray@@H@Z 004a1e6e f   ToDoCtrl.obj
 0001:000a0e96       ?SelectItem@CToDoCtrl@@QAEXPAU_TREEITEM@@@Z 004a1e96 f   ToDoCtrl.obj
 0001:000a0f50       ?SelectAll@CToDoCtrl@@QAEXXZ 004a1f50 f   ToDoCtrl.obj
 0001:000a0f82       ?GetTasks@CToDoCtrl@@QBEHAAVCTaskFile@@ABUTDCGETTASKS@@@Z 004a1f82 f   ToDoCtrl.obj
 0001:000a0fb3       ?PrepareTaskfileForTasks@CToDoCtrl@@IBEXAAVCTaskFile@@ABUTDCGETTASKS@@@Z 004a1fb3 f   ToDoCtrl.obj
 0001:000a1012       ?XMLHeaderIsUnicode@CToDoCtrl@@KAHPBG@Z 004a2012 f   ToDoCtrl.obj
 0001:000a1060       ?AppendTaskFileHeader@CToDoCtrl@@IBEXAAVCTaskFile@@@Z 004a2060 f   ToDoCtrl.obj
 0001:000a1137       ?GetAllTasks@CToDoCtrl@@IBEHAAVCTaskFile@@@Z 004a2137 f   ToDoCtrl.obj
 0001:000a117e       ?AddSubTasksToTaskFile@CToDoCtrl@@IBEHPBVTODOSTRUCTURE@@AAVCTaskFile@@PAXH@Z 004a217e f   ToDoCtrl.obj
 0001:000a1239       ?AddTaskToTaskFile@CToDoCtrl@@IBEHPBVTODOITEM@@PBVTODOSTRUCTURE@@AAVCTaskFile@@PAXH@Z 004a2239 f   ToDoCtrl.obj
 0001:000a12ba       ?HandleUnsavedComments@CToDoCtrl@@IAEXXZ 004a22ba f   ToDoCtrl.obj
 0001:000a12f0       ?SetAllTasks@CToDoCtrl@@IAEPAU_TREEITEM@@ABVCTaskFile@@@Z 004a22f0 f   ToDoCtrl.obj
 0001:000a1333       ?RebuildTree@CToDoCtrl@@MAEPAU_TREEITEM@@PBX@Z 004a2333 f   ToDoCtrl.obj
 0001:000a139e       ?BuildTreeItem@CToDoCtrl@@MAEHPAU_TREEITEM@@PBVTODOSTRUCTURE@@PBX@Z 004a239e f   ToDoCtrl.obj
 0001:000a14ac       ?WantAddTask@CToDoCtrl@@MBEHPBVTODOITEM@@PBVTODOSTRUCTURE@@PBX@Z 004a24ac f   ToDoCtrl.obj
 0001:000a14b2       ?GetSelectedTasks@CToDoCtrl@@QBEHAAVCTaskFile@@ABUTDCGETTASKS@@K@Z 004a24b2 f   ToDoCtrl.obj
 0001:000a166d       ?AddItemAndParentToTaskFile@CToDoCtrl@@IBEHPAU_TREEITEM@@AAVCTaskFile@@ABUTDCGETTASKS@@HH@Z 004a266d f   ToDoCtrl.obj
 0001:000a1712       ?CacheTreeSelection@CToDoCtrl@@QBEXAAUTDCSELECTIONCACHE@@H@Z 004a2712 f   ToDoCtrl.obj
 0001:000a1728       ?RestoreTreeSelection@CToDoCtrl@@QAEHABUTDCSELECTIONCACHE@@@Z 004a2728 f   ToDoCtrl.obj
 0001:000a1780       ?GetSelectedTaskIDs@CToDoCtrl@@QBEHAAVCDWordArray@@H@Z 004a2780 f   ToDoCtrl.obj
 0001:000a179d       ?GetSelectedTaskIDs@CToDoCtrl@@QBEHAAVCDWordArray@@AAKH@Z 004a279d f   ToDoCtrl.obj
 0001:000a17b7       ?InsertTasks@CToDoCtrl@@QAEHABVCTaskFile@@W4TDC_INSERTWHERE@@H@Z 004a27b7 f   ToDoCtrl.obj
 0001:000a1952       ?SetTaskAttributes@CToDoCtrl@@IBEHPBVTODOITEM@@PBVTODOSTRUCTURE@@AAVCTaskFile@@PAXABUTDCGETTASKS@@H@Z 004a2952 f   ToDoCtrl.obj
 0001:000a2453       ?GetHtmlImageFolder@CTaskFile@@QAE?AVCString@@XZ 004a3453 f i ToDoCtrl.obj
 0001:000a2471       ?WantAttribute@TDCGETTASKS@@QBEHW4TDC_ATTRIBUTE@@@Z 004a3471 f i ToDoCtrl.obj
 0001:000a24b3       ?GetTaskTextColor@CToDoCtrl@@IBEKPBVTODOITEM@@PBVTODOSTRUCTURE@@@Z 004a34b3 f   ToDoCtrl.obj
 0001:000a2506       ?SetAllTaskAttributes@CToDoCtrl@@IBEHPBVTODOITEM@@PBVTODOSTRUCTURE@@AAVCTaskFile@@PAX@Z 004a3506 f   ToDoCtrl.obj
 0001:000a27e1       ?AddTreeChildrenToTaskFile@CToDoCtrl@@IBEHPAU_TREEITEM@@AAVCTaskFile@@PAXABUTDCGETTASKS@@@Z 004a37e1 f   ToDoCtrl.obj
 0001:000a2849       ?AddTreeItemToTaskFile@CToDoCtrl@@IBEHPAU_TREEITEM@@AAVCTaskFile@@PAXABUTDCGETTASKS@@HK@Z 004a3849 f   ToDoCtrl.obj
 0001:000a2a53       ?SetFocusToTasks@CToDoCtrl@@UAEXXZ 004a3a53 f   ToDoCtrl.obj
 0001:000a2aae       ?SetFocusToComments@CToDoCtrl@@UAEXXZ 004a3aae f   ToDoCtrl.obj
 0001:000a2ad0       ?GetControlDescription@CToDoCtrl@@UBE?AVCString@@PBVCWnd@@@Z 004a3ad0 f   ToDoCtrl.obj
 0001:000a2c08       ?GetLastSaveFolder@CToDoCtrl@@IBE?AVCString@@XZ 004a3c08 f   ToDoCtrl.obj
 0001:000a2c27       ?MakeRelativePaths@CToDoCtrl@@IBEXAAVCStringArray@@@Z 004a3c27 f   ToDoCtrl.obj
 0001:000a2c90       ?MakeFullPaths@CToDoCtrl@@IBEXAAVCStringArray@@@Z 004a3c90 f   ToDoCtrl.obj
 0001:000a2cf6       ?OnDropObject@CToDoCtrl@@IAEJIJ@Z 004a3cf6 f   ToDoCtrl.obj
 0001:000a2ea6       ??1COleVariant@@QAE@XZ     004a3ea6 f i ToDoCtrl.obj
 0001:000a2eae       ?CreateTasksFromOutlookObjects@CToDoCtrl@@IAEHPAUTLDT_DATA@@@Z 004a3eae f   ToDoCtrl.obj
 0001:000a316c       ?CreateTaskFromOutlookObject@CToDoCtrl@@IAEHABVCTDCCsvColumnMapping@@PAV_MailItem@OutlookAPI@@HAAVCTaskFile@@@Z 004a416c f   ToDoCtrl.obj
 0001:000a36ce       ??1Attachments@OutlookAPI@@QAE@XZ 004a46ce f i ToDoCtrl.obj
 0001:000a36ce       ??1_MailItem@OutlookAPI@@QAE@XZ 004a46ce f i ToDoCtrl.obj
 0001:000a36d3       ?GetPreferencesKey@CToDoCtrl@@QBE?AVCString@@ABV2@@Z 004a46d3 f   ToDoCtrl.obj
 0001:000a37e1       ?SaveDefaultRecurrence@CToDoCtrl@@IBEXAAVCPreferences@@@Z 004a47e1 f   ToDoCtrl.obj
 0001:000a386f       ?LoadDefaultRecurrence@CToDoCtrl@@IAEXABVCPreferences@@@Z 004a486f f   ToDoCtrl.obj
 0001:000a3901       ?SaveSplitPos@CToDoCtrl@@IBEXAAVCPreferences@@@Z 004a4901 f   ToDoCtrl.obj
 0001:000a3999       ?LoadSplitPos@CToDoCtrl@@IAEXABVCPreferences@@@Z 004a4999 f   ToDoCtrl.obj
 0001:000a3a42       ?SaveAttributeVisibility@CToDoCtrl@@IBEXAAVCPreferences@@@Z 004a4a42 f   ToDoCtrl.obj
 0001:000a3aac       ?LoadAttributeVisibility@CToDoCtrl@@IAEXABVCPreferences@@@Z 004a4aac f   ToDoCtrl.obj
 0001:000a3b54       ?SaveTasksState@CToDoCtrl@@MBEXAAVCPreferences@@H@Z 004a4b54 f   ToDoCtrl.obj
 0001:000a3bc0       ?LoadTasksState@CToDoCtrl@@MAEPAU_TREEITEM@@ABVCPreferences@@H@Z 004a4bc0 f   ToDoCtrl.obj
 0001:000a3c41       ?EndLabelEdit@CToDoCtrl@@MAEXH@Z 004a4c41 f   ToDoCtrl.obj
 0001:000a3c53       ?Flush@CToDoCtrl@@QAEXH@Z  004a4c53 f   ToDoCtrl.obj
 0001:000a3d2f       ?GetSourceControlID@CToDoCtrl@@IBE?AVCString@@H@Z 004a4d2f f   ToDoCtrl.obj
 0001:000a3d6d       ?CheckIn@CToDoCtrl@@QAE?AW4TDC_FILE@@XZ 004a4d6d f   ToDoCtrl.obj
 0001:000a3f10       ?IsCheckedOut@CToDoCtrl@@QBEHXZ 004a4f10 f   ToDoCtrl.obj
 0001:000a3f2e       ?IsSourceControlled@CToDoCtrl@@QBEHXZ 004a4f2e f   ToDoCtrl.obj
 0001:000a3f35       ?AddToSourceControl@CToDoCtrl@@QAEHH@Z 004a4f35 f   ToDoCtrl.obj
 0001:000a4006       ?CheckOut@CToDoCtrl@@QAE?AW4TDC_FILE@@AAVCString@@@Z 004a5006 f   ToDoCtrl.obj
 0001:000a4233       ?FindTasks@CToDoCtrl@@QBEHABUSEARCHPARAMS@@AAV?$CArray@USEARCHRESULT@@AAU1@@@@Z 004a5233 f   ToDoCtrl.obj
 0001:000a4249       ?HasOverdueTasks@CToDoCtrl@@QBEHXZ 004a5249 f   ToDoCtrl.obj
 0001:000a4254       ?HasDueTodayTasks@CToDoCtrl@@QBEHXZ 004a5254 f   ToDoCtrl.obj
 0001:000a425f       ?SelectTask@CToDoCtrl@@QAEHVCString@@W4TDC_SELECTTASK@@@Z 004a525f f   ToDoCtrl.obj
 0001:000a441a       ?OnLButtonDown@CToDoCtrl@@IAEXIVCPoint@@@Z 004a541a f   ToDoCtrl.obj
 0001:000a446d       ?OnLButtonUp@CToDoCtrl@@IAEXIVCPoint@@@Z 004a546d f   ToDoCtrl.obj
 0001:000a44cc       ?GetStackCommentsAndControls@CToDoCtrl@@IBEHXZ 004a54cc f   ToDoCtrl.obj
 0001:000a4507       ?CalcMinCommentSize@CToDoCtrl@@IBEHXZ 004a5507 f   ToDoCtrl.obj
 0001:000a457b       ?ValidateCommentsSize@CToDoCtrl@@IAEXXZ 004a557b f   ToDoCtrl.obj
 0001:000a45fd       ?OnMouseMove@CToDoCtrl@@IAEXIVCPoint@@@Z 004a55fd f   ToDoCtrl.obj
 0001:000a4731       ?GetSplitterRect@CToDoCtrl@@IBE?AVCRect@@XZ 004a5731 f   ToDoCtrl.obj
 0001:000a47c5       ?OnSetCursor@CToDoCtrl@@IAEHPAVCWnd@@II@Z 004a57c5 f   ToDoCtrl.obj
 0001:000a486e       ?OnCaptureChanged@CToDoCtrl@@IAEXPAVCWnd@@@Z 004a586e f   ToDoCtrl.obj
 0001:000a4894       ?OnShowWindow@CToDoCtrl@@IAEXHI@Z 004a5894 f   ToDoCtrl.obj
 0001:000a48d5       ?OnTimeUnitsChange@CToDoCtrl@@IAEJIJ@Z 004a58d5 f   ToDoCtrl.obj
 0001:000a49e0       ?SpellcheckSelectedTask@CToDoCtrl@@QAEXH@Z 004a59e0 f   ToDoCtrl.obj
 0001:000a4ade       ?OnCommentsWantSpellCheck@CToDoCtrl@@IAEJIJ@Z 004a5ade f   ToDoCtrl.obj
 0001:000a4aea       ?CanSpellcheckSelectedTaskComments@CToDoCtrl@@QAEHXZ 004a5aea f   ToDoCtrl.obj
 0001:000a4b1e       ?CanSpellcheckComments@CToDoCtrl@@IAEHXZ 004a5b1e f   ToDoCtrl.obj
 0001:000a4b30       ?Spellcheck@CToDoCtrl@@QAEXXZ 004a5b30 f   ToDoCtrl.obj
 0001:000a4c3f       ?SpellcheckItem@CToDoCtrl@@IAEHPAU_TREEITEM@@PAVCSpellCheckDlg@@HH@Z 004a5c3f f   ToDoCtrl.obj
 0001:000a4e01       ?GetCorrectedText@CSpellCheckDlg@@QAE?AVCString@@XZ 004a5e01 f i ToDoCtrl.obj
 0001:000a4e1f       ?SpellcheckItem@CToDoCtrl@@IAEHPAU_TREEITEM@@PAVCSpellCheckDlg@@@Z 004a5e1f f   ToDoCtrl.obj
 0001:000a4e95       ?GetSelectedTaskCustomAttributeData@CToDoCtrl@@QBEHAAVCMapStringToString@@H@Z 004a5e95 f   ToDoCtrl.obj
 0001:000a4f25       ?SetDefaultTaskAttributes@CToDoCtrl@@QAEXABVTODOITEM@@@Z 004a5f25 f   ToDoCtrl.obj
 0001:000a4fc6       ?OnEEBtnClick@CToDoCtrl@@IAEJIJ@Z 004a5fc6 f   ToDoCtrl.obj
 0001:000a5021       ?GotoSelectedReferenceTaskTarget@CToDoCtrl@@QAEHXZ 004a6021 f   ToDoCtrl.obj
 0001:000a50bf       ?GotoSelectedTaskReferences@CToDoCtrl@@QAEHXZ 004a60bf f   ToDoCtrl.obj
 0001:000a5180       ?GotoSelectedTaskDependency@CToDoCtrl@@QAEHXZ 004a6180 f   ToDoCtrl.obj
 0001:000a51dc       ?EditSelectedTaskRecurrence@CToDoCtrl@@QAEHXZ 004a61dc f   ToDoCtrl.obj
 0001:000a5222       ?OnTimer@CToDoCtrl@@IAEXI@Z 004a6222 f   ToDoCtrl.obj
 0001:000a529c       ?OnTimerMidnight@CToDoCtrl@@MAEXXZ 004a629c f   ToDoCtrl.obj
 0001:000a52aa       ?IncrementTrackedTime@CToDoCtrl@@IAEXH@Z 004a62aa f   ToDoCtrl.obj
 0001:000a53fd       ?SelectTasksInHistory@CToDoCtrl@@QAEXH@Z 004a63fd f   ToDoCtrl.obj
 0001:000a5427       ?OnFileEditWantIcon@CToDoCtrl@@IAEJIJ@Z 004a6427 f   ToDoCtrl.obj
 0001:000a5494       ?OnFileEditDisplayFile@CToDoCtrl@@IAEJIJ@Z 004a6494 f   ToDoCtrl.obj
 0001:000a54e9       ?GotoFile@CToDoCtrl@@IAEHABVCString@@H@Z 004a64e9 f   ToDoCtrl.obj
 0001:000a55a6       ?ExpandTasks@CToDoCtrl@@UAEXW4TDC_EXPANDCOLLAPSE@@H@Z 004a65a6 f   ToDoCtrl.obj
 0001:000a5793       ?SearchAndExpand@CToDoCtrl@@IAEXABUSEARCHPARAMS@@H@Z 004a6793 f   ToDoCtrl.obj
 0001:000a5823       ?CanExpandTasks@CToDoCtrl@@UBEHW4TDC_EXPANDCOLLAPSE@@H@Z 004a6823 f   ToDoCtrl.obj
 0001:000a587f       ?GetClipboardID@CToDoCtrl@@IBE?AVCString@@XZ 004a687f f   ToDoCtrl.obj
 0001:000a5900       ?GetClipboardID@CToDoCtrl@@IBEHAAVCString@@H@Z 004a6900 f   ToDoCtrl.obj
 0001:000a59b9       ?OnTDCHasClipboard@CToDoCtrl@@IAEJIJ@Z 004a69b9 f   ToDoCtrl.obj
 0001:000a59d0       ?OnTDCGetClipboard@CToDoCtrl@@IAEJIJ@Z 004a69d0 f   ToDoCtrl.obj
 0001:000a5a63       ?OnTDCDoTaskLink@CToDoCtrl@@IAEJIJ@Z 004a6a63 f   ToDoCtrl.obj
 0001:000a5aa9       ?OnTDCFailedLink@CToDoCtrl@@IAEJIJ@Z 004a6aa9 f   ToDoCtrl.obj
 0001:000a5b8d       ?GetTasklistFolder@CTDLTaskCtrlBase@@QBE?AVCString@@XZ 004a6b8d f i ToDoCtrl.obj
 0001:000a5bab       ?OnTDCTaskIsDone@CToDoCtrl@@IAEJIJ@Z 004a6bab f   ToDoCtrl.obj
 0001:000a5bd4       ?ShowTaskLink@CToDoCtrl@@IAEHABVCString@@@Z 004a6bd4 f   ToDoCtrl.obj
 0001:000a5cec       ?OnSelChangeCommentsType@CToDoCtrl@@IAEXXZ 004a6cec f   ToDoCtrl.obj
 0001:000a5dcd       ?OnSettingChange@CToDoCtrl@@IAEXIPBG@Z 004a6dcd f   ToDoCtrl.obj
 0001:000a5df4       ?OnRefreshPercentSpinVisibility@CToDoCtrl@@IAEJIJ@Z 004a6df4 f   ToDoCtrl.obj
 0001:000a5e19       ?OnFixupPostDropSelection@CToDoCtrl@@IAEJIJ@Z 004a6e19 f   ToDoCtrl.obj
 0001:000a5e27       ?OnChangeColour@CToDoCtrl@@IAEJIJ@Z 004a6e27 f   ToDoCtrl.obj
 0001:000a5e35       ?CanUndoLastAction@CToDoCtrl@@QBEHH@Z 004a6e35 f   ToDoCtrl.obj
 0001:000a5ee7       ?UndoLastAction@CToDoCtrl@@QAEHH@Z 004a6ee7 f   ToDoCtrl.obj
 0001:000a61fd       ?UndoLastActionItems@CToDoCtrl@@IAEHABV?$CArray@UTDCUNDOELEMENT@@AAU1@@@@Z 004a71fd f   ToDoCtrl.obj
 0001:000a6397       ??1TDCUNDOELEMENT@@QAE@XZ  004a7397 f i ToDoCtrl.obj
 0001:000a639f       ?GetTaskReminder@CToDoCtrl@@QBEJK@Z 004a739f f   ToDoCtrl.obj
 0001:000a63c9       ?SetUITheme@CToDoCtrl@@QAEXABVCUIThemeFile@@@Z 004a73c9 f   ToDoCtrl.obj
 0001:000a643f       ?OnCtlColor@CToDoCtrl@@IAEPAUHBRUSH__@@PAVCDC@@PAVCWnd@@I@Z 004a743f f   ToDoCtrl.obj
 0001:000a64b2       ?RedrawReminders@CToDoCtrl@@QAEXXZ 004a74b2 f   ToDoCtrl.obj
 0001:000a64bd       ?GetFocusedControlAttribute@CToDoCtrl@@IBE?AW4TDC_ATTRIBUTE@@XZ 004a74bd f   ToDoCtrl.obj
 0001:000a6532       ?CanClearSelectedTaskFocusedAttribute@CToDoCtrl@@QBEHXZ 004a7532 f   ToDoCtrl.obj
 0001:000a6555       ?ClearSelectedTaskFocusedAttribute@CToDoCtrl@@QAEHXZ 004a7555 f   ToDoCtrl.obj
 0001:000a6574       ?CanClearSelectedTaskAttribute@CToDoCtrl@@QBEHW4TDC_ATTRIBUTE@@@Z 004a7574 f   ToDoCtrl.obj
 0001:000a65aa       ?ClearSelectedTaskAttribute@CToDoCtrl@@QAEHW4TDC_ATTRIBUTE@@@Z 004a75aa f   ToDoCtrl.obj
 0001:000a696c       ?RemoveHead@?$CList@PAU_TREEITEM@@PAU1@@@QAEPAU_TREEITEM@@XZ 004a796c f i ToDoCtrl.obj
 0001:000a6990       ?Add@?$CArray@UCTRLITEM@@AAU1@@@QAEHAAUCTRLITEM@@@Z 004a7990 f i ToDoCtrl.obj
 0001:000a69bb       ??1?$CArray@UCTRLITEM@@AAU1@@@UAE@XZ 004a79bb f i ToDoCtrl.obj
 0001:000a69f7       ?Serialize@?$CArray@UCTRLITEM@@AAU1@@@UAEXAAVCArchive@@@Z 004a79f7 f i ToDoCtrl.obj
 0001:000a6a36       ??A?$CArray@UCUSTOMATTRIBCTRLITEM@@AAU1@@@QBE?AUCUSTOMATTRIBCTRLITEM@@H@Z 004a7a36 f i ToDoCtrl.obj
 0001:000a6a50       ??1?$CArray@UCUSTOMATTRIBCTRLITEM@@AAU1@@@UAE@XZ 004a7a50 f i ToDoCtrl.obj
 0001:000a6a97       ?Serialize@?$CArray@UCUSTOMATTRIBCTRLITEM@@AAU1@@@UAEXAAVCArchive@@@Z 004a7a97 f i ToDoCtrl.obj
 0001:000a6ad6       ??A?$CArray@UTDCUNDOELEMENT@@AAU1@@@QBE?AUTDCUNDOELEMENT@@H@Z 004a7ad6 f i ToDoCtrl.obj
 0001:000a6af0       ??1?$CArray@UTDCUNDOELEMENT@@AAU1@@@UAE@XZ 004a7af0 f i ToDoCtrl.obj
 0001:000a6b37       ?Serialize@?$CArray@UTDCUNDOELEMENT@@AAU1@@@UAEXAAVCArchive@@@Z 004a7b37 f i ToDoCtrl.obj
 0001:000a6b76       ??1?$CMap@KKKAAK@@UAE@XZ   004a7b76 f i ToDoCtrl.obj
 0001:000a6ba9       ??_G?$CArray@UCTRLITEM@@AAU1@@@UAEPAXI@Z 004a7ba9 f i ToDoCtrl.obj
 0001:000a6ba9       ??_E?$CArray@UCTRLITEM@@AAU1@@@UAEPAXI@Z 004a7ba9 f i ToDoCtrl.obj
 0001:000a6bc5       ??_G?$CArray@UCUSTOMATTRIBCTRLITEM@@AAU1@@@UAEPAXI@Z 004a7bc5 f i ToDoCtrl.obj
 0001:000a6bc5       ??_E?$CArray@UCUSTOMATTRIBCTRLITEM@@AAU1@@@UAEPAXI@Z 004a7bc5 f i ToDoCtrl.obj
 0001:000a6be1       ??_E?$CArray@UTDCUNDOELEMENT@@AAU1@@@UAEPAXI@Z 004a7be1 f i ToDoCtrl.obj
 0001:000a6be1       ??_G?$CArray@UTDCUNDOELEMENT@@AAU1@@@UAEPAXI@Z 004a7be1 f i ToDoCtrl.obj
 0001:000a6bfd       ??_G?$CMap@KKKAAK@@UAEPAXI@Z 004a7bfd f i ToDoCtrl.obj
 0001:000a6bfd       ??_E?$CMap@KKKAAK@@UAEPAXI@Z 004a7bfd f i ToDoCtrl.obj
 0001:000a6c19       ?SetSize@?$CArray@UCTRLITEM@@AAU1@@@QAEXHH@Z 004a7c19 f i ToDoCtrl.obj
 0001:000a6d38       ?GetAt@?$CArray@UCUSTOMATTRIBCTRLITEM@@AAU1@@@QBE?AUCUSTOMATTRIBCTRLITEM@@H@Z 004a7d38 f i ToDoCtrl.obj
 0001:000a6d7b       ?SerializeElements@@YGXAAVCArchive@@PAUCUSTOMATTRIBCTRLITEM@@H@Z 004a7d7b f i ToDoCtrl.obj
 0001:000a6d7b       ?SerializeElements@@YGXAAVCArchive@@PAUTDCUNDOACTION@@H@Z 004a7d7b f i ToDoCtrl.obj
 0001:000a6dae       ?SetSize@?$CArray@UTDCUNDOELEMENT@@AAU1@@@QAEXHH@Z 004a7dae f i ToDoCtrl.obj
 0001:000a6ee0       ?GetAt@?$CArray@UTDCUNDOELEMENT@@AAU1@@@QBE?AUTDCUNDOELEMENT@@H@Z 004a7ee0 f i ToDoCtrl.obj
 0001:000a6f2a       ??4TDCUNDOELEMENT@@QAEABU0@ABU0@@Z 004a7f2a f i ToDoCtrl.obj
 0001:000a6f63       ?DestructElements@@YGXPAUTDCUNDOELEMENT@@H@Z 004a7f63 f i ToDoCtrl.obj
 0001:000a6f8a       ?SerializeElements@@YGXAAVCArchive@@PAUTDCUNDOELEMENT@@H@Z 004a7f8a f i ToDoCtrl.obj
 0001:000a6fc0       ?GetAssocAt@?$CMap@KKPAU_TREEITEM@@AAPAU1@@@IBEPAUCAssoc@1@KAAI@Z 004a7fc0 f i ToDoCtrl.obj
 0001:000a6fc0       ?GetAssocAt@?$CMap@W4OUTLOOK_FIELDTYPE@@W41@VCString@@AAV2@@@IBEPAUCAssoc@1@W4OUTLOOK_FIELDTYPE@@AAI@Z 004a7fc0 f i ToDoCtrl.obj
 0001:000a6ff2       ?ConstructElements@@YGXPAUTDCUNDOELEMENT@@H@Z 004a7ff2 f i ToDoCtrl.obj
 0001:000a712c       ??0CUndoAction@@QAE@AAVCToDoCtrlData@@W4TDCUNDOACTIONTYPE@@H@Z 004a812c f   ToDoCtrlData.obj
 0001:000a7159       ??1CUndoAction@@QAE@XZ     004a8159 f   ToDoCtrlData.obj
 0001:000a720f       ??0CToDoCtrlData@@QAE@ABVCWordArray@@@Z 004a820f f   ToDoCtrlData.obj
 0001:000a728d       ??0CToDoCtrlStructure@@QAE@XZ 004a828d f i ToDoCtrlData.obj
 0001:000a72cb       ??_ECToDoCtrlData@@UAEPAXI@Z 004a82cb f i ToDoCtrlData.obj
 0001:000a72cb       ??_GCToDoCtrlData@@UAEPAXI@Z 004a82cb f i ToDoCtrlData.obj
 0001:000a72e7       ??1CToDoCtrlData@@UAE@XZ   004a82e7 f   ToDoCtrlData.obj
 0001:000a734f       ?SetInheritedParentAttributes@CToDoCtrlData@@SAXABVCTDCAttributeMap@@H@Z 004a834f f   ToDoCtrlData.obj
 0001:000a7367       ?WantUpdateInheritedAttibute@CToDoCtrlData@@SAHW4TDC_ATTRIBUTE@@@Z 004a8367 f   ToDoCtrlData.obj
 0001:000a7389       ?BuildDataModel@CToDoCtrlData@@QAEHABVCTaskFile@@@Z 004a8389 f   ToDoCtrlData.obj
 0001:000a73b3       ?AddTaskToDataModel@CToDoCtrlData@@IAEHABVCTaskFile@@PAXPAVTODOSTRUCTURE@@@Z 004a83b3 f   ToDoCtrlData.obj
 0001:000a7452       ?NewTask@CToDoCtrlData@@QBEPAVTODOITEM@@XZ 004a8452 f   ToDoCtrlData.obj
 0001:000a7489       ?NewTask@CToDoCtrlData@@QBEPAVTODOITEM@@ABV2@K@Z 004a8489 f   ToDoCtrlData.obj
 0001:000a74f3       ?NewTask@CToDoCtrlData@@QBEPAVTODOITEM@@ABVCTaskFile@@PAX@Z 004a84f3 f   ToDoCtrlData.obj
 0001:000a756c       ?HasTask@CToDoCtrlData@@QBEHK@Z 004a856c f   ToDoCtrlData.obj
 0001:000a7581       ?GetTask@CToDoCtrlData@@QBEPBVTODOITEM@@AAKH@Z 004a8581 f   ToDoCtrlData.obj
 0001:000a7591       ?GetTask@CToDoCtrlData@@IAEPAVTODOITEM@@AAKH@Z 004a8591 f   ToDoCtrlData.obj
 0001:000a75e7       ?GetTask@CToDoCtrlData@@IBEPAVTODOITEM@@PBVTODOSTRUCTURE@@H@Z 004a85e7 f   ToDoCtrlData.obj
 0001:000a760e       ?Locate@CToDoCtrlData@@IBEHKKAAPAVTODOSTRUCTURE@@AAH@Z 004a860e f   ToDoCtrlData.obj
 0001:000a7659       ?LocateTask@CToDoCtrlData@@IBEHKAAPAVTODOSTRUCTURE@@AAH@Z 004a8659 f   ToDoCtrlData.obj
 0001:000a7670       ?LocateTask@CToDoCtrlData@@QBEPBVTODOSTRUCTURE@@K@Z 004a8670 f   ToDoCtrlData.obj
 0001:000a768b       ?AddTask@CToDoCtrlData@@QAEXKPAVTODOITEM@@KK@Z 004a868b f   ToDoCtrlData.obj
 0001:000a772a       ?DeleteAllTasks@CToDoCtrlData@@QAEXXZ 004a872a f   ToDoCtrlData.obj
 0001:000a77a9       ?GetTaskTitle@CToDoCtrlData@@QBE?AVCString@@K@Z 004a87a9 f   ToDoCtrlData.obj
 0001:000a77dd       ?GetTaskIcon@CToDoCtrlData@@QBE?AVCString@@K@Z 004a87dd f   ToDoCtrlData.obj
 0001:000a7814       ?GetTaskComments@CToDoCtrlData@@QBE?AVCString@@K@Z 004a8814 f   ToDoCtrlData.obj
 0001:000a784b       ?GetTaskCustomComments@CToDoCtrlData@@QBEABVCBinaryData@@KAAVCString@@@Z 004a884b f   ToDoCtrlData.obj
 0001:000a78c2       ?GetTaskCost@CToDoCtrlData@@QBENK@Z 004a88c2 f   ToDoCtrlData.obj
 0001:000a78ea       ?GetTaskTimeEstimate@CToDoCtrlData@@QBENKAAW4TDC_UNITS@@@Z 004a88ea f   ToDoCtrlData.obj
 0001:000a791e       ?GetTaskTimeSpent@CToDoCtrlData@@QBENKAAW4TDC_UNITS@@@Z 004a891e f   ToDoCtrlData.obj
 0001:000a7952       ?GetTaskAllocTo@CToDoCtrlData@@QBEHKAAVCStringArray@@@Z 004a8952 f   ToDoCtrlData.obj
 0001:000a7984       ?GetTaskAllocBy@CToDoCtrlData@@QBE?AVCString@@K@Z 004a8984 f   ToDoCtrlData.obj
 0001:000a79bb       ?GetTaskVersion@CToDoCtrlData@@QBE?AVCString@@K@Z 004a89bb f   ToDoCtrlData.obj
 0001:000a79f2       ?GetTaskStatus@CToDoCtrlData@@QBE?AVCString@@K@Z 004a89f2 f   ToDoCtrlData.obj
 0001:000a7a29       ?GetTaskCategories@CToDoCtrlData@@QBEHKAAVCStringArray@@@Z 004a8a29 f   ToDoCtrlData.obj
 0001:000a7a5b       ?GetTaskTags@CToDoCtrlData@@QBEHKAAVCStringArray@@@Z 004a8a5b f   ToDoCtrlData.obj
 0001:000a7a8d       ?GetTaskPath@CToDoCtrlData@@QBE?AVCString@@KH@Z 004a8a8d f   ToDoCtrlData.obj
 0001:000a7c3b       ?GetTaskDependencies@CToDoCtrlData@@QBEHKAAVCStringArray@@@Z 004a8c3b f   ToDoCtrlData.obj
 0001:000a7c6d       ?GetTaskDependency@CToDoCtrlData@@QBE?AVCString@@KH@Z 004a8c6d f   ToDoCtrlData.obj
 0001:000a7cb4       ?IsTaskDependent@CToDoCtrlData@@QBEHK@Z 004a8cb4 f   ToDoCtrlData.obj
 0001:000a7cdc       ?IsTaskLocallyDependentOn@CToDoCtrlData@@QBEHKKH@Z 004a8cdc f   ToDoCtrlData.obj
 0001:000a7d80       ?GetTaskLocalDependencies@CToDoCtrlData@@QBEHKAAVCDWordArray@@@Z 004a8d80 f   ToDoCtrlData.obj
 0001:000a7ddb       ?TaskHasDependents@CToDoCtrlData@@QBEHK@Z 004a8ddb f   ToDoCtrlData.obj
 0001:000a7e8b       ?GetTaskLocalDependents@CToDoCtrlData@@QBEHKAAVCDWordArray@@@Z 004a8e8b f   ToDoCtrlData.obj
 0001:000a7f4b       ?FixupTaskLocalDependentsIDs@CToDoCtrlData@@QAEXKK@Z 004a8f4b f   ToDoCtrlData.obj
 0001:000a804d       ?TaskHasLocalCircularDependencies@CToDoCtrlData@@QBEHK@Z 004a904d f   ToDoCtrlData.obj
 0001:000a811a       ?FindTaskLocalDependency@CToDoCtrlData@@IBEHKKAAV?$CMap@KKKK@@@Z 004a911a f   ToDoCtrlData.obj
 0001:000a81c9       ?GetTaskExtID@CToDoCtrlData@@QBE?AVCString@@K@Z 004a91c9 f   ToDoCtrlData.obj
 0001:000a8200       ?GetTaskColor@CToDoCtrlData@@QBEKK@Z 004a9200 f   ToDoCtrlData.obj
 0001:000a8224       ?GetTaskPriority@CToDoCtrlData@@QBEHK@Z 004a9224 f   ToDoCtrlData.obj
 0001:000a8249       ?GetTaskRisk@CToDoCtrlData@@QBEHK@Z 004a9249 f   ToDoCtrlData.obj
 0001:000a826e       ?GetTaskCustomAttributeData@CToDoCtrlData@@QBE?AVCString@@KABV2@@Z 004a926e f   ToDoCtrlData.obj
 0001:000a82ae       ?CalcTaskCustomAttributeData@CToDoCtrlData@@QBEHKABUTDCCUSTOMATTRIBUTEDEFINITION@@AAN@Z 004a92ae f   ToDoCtrlData.obj
 0001:000a8305       ?CalcTaskCustomAttributeData@CToDoCtrlData@@QBEHPBVTODOITEM@@PBVTODOSTRUCTURE@@ABUTDCCUSTOMATTRIBUTEDEFINITION@@AAN@Z 004a9305 f   ToDoCtrlData.obj
 0001:000a84f6       ?IsTaskFlagged@CToDoCtrlData@@QBEHK@Z 004a94f6 f   ToDoCtrlData.obj
 0001:000a851a       ?TaskHasFileRef@CToDoCtrlData@@QBEHK@Z 004a951a f   ToDoCtrlData.obj
 0001:000a8542       ?CanTaskRecur@CToDoCtrlData@@QBEHK@Z 004a9542 f   ToDoCtrlData.obj
 0001:000a8567       ?IsTaskRecurring@CToDoCtrlData@@QBEHPBVTODOITEM@@PBVTODOSTRUCTURE@@H@Z 004a9567 f   ToDoCtrlData.obj
 0001:000a85a9       ?IsTaskRecurring@CToDoCtrlData@@QBEHKH@Z 004a95a9 f   ToDoCtrlData.obj
 0001:000a85fb       ?GetTaskRecurrence@CToDoCtrlData@@QBEHKAAUTDCRECURRENCE@@@Z 004a95fb f   ToDoCtrlData.obj
 0001:000a862f       ?GetTaskNextOccurrence@CToDoCtrlData@@QAEHKAAVCOleDateTime@@AAH@Z 004a962f f   ToDoCtrlData.obj
 0001:000a865c       ?GetTaskDate@CToDoCtrlData@@QBE?AVCOleDateTime@@KW4TDC_DATE@@@Z 004a965c f   ToDoCtrlData.obj
 0001:000a8695       ?GetTaskPercent@CToDoCtrlData@@QBEHKH@Z 004a9695 f   ToDoCtrlData.obj
 0001:000a86d4       ?GetTaskFileRef@CToDoCtrlData@@QBE?AVCString@@KH@Z 004a96d4 f   ToDoCtrlData.obj
 0001:000a8714       ?GetTaskFileRefs@CToDoCtrlData@@QBEHKAAVCStringArray@@@Z 004a9714 f   ToDoCtrlData.obj
 0001:000a8746       ?GetTaskFileRefCount@CToDoCtrlData@@QBEHK@Z 004a9746 f   ToDoCtrlData.obj
 0001:000a8767       ?GetTaskParentID@CToDoCtrlData@@QBEKK@Z 004a9767 f   ToDoCtrlData.obj
 0001:000a8789       ?GetTaskReferenceID@CToDoCtrlData@@QBEKK@Z 004a9789 f   ToDoCtrlData.obj
 0001:000a87ad       ?IsTaskReference@CToDoCtrlData@@QBEHK@Z 004a97ad f   ToDoCtrlData.obj
 0001:000a87bf       ?IsReferenceToTask@CToDoCtrlData@@QBEHKK@Z 004a97bf f   ToDoCtrlData.obj
 0001:000a87e6       ?DeleteTask@CToDoCtrlData@@QAEHK@Z 004a97e6 f   ToDoCtrlData.obj
 0001:000a8829       ?DeleteTask@CToDoCtrlData@@IAEHPAVTODOSTRUCTURE@@H@Z 004a9829 f   ToDoCtrlData.obj
 0001:000a88e8       ?RemoveOrphanTaskReferences@CToDoCtrlData@@IAEHPAVTODOSTRUCTURE@@K@Z 004a98e8 f   ToDoCtrlData.obj
 0001:000a896e       ?RemoveOrphanTaskLocalDependencies@CToDoCtrlData@@IAEHPAVTODOSTRUCTURE@@K@Z 004a996e f   ToDoCtrlData.obj
 0001:000a8a1a       ?CopyTaskAttributes@CToDoCtrlData@@IBE?AW4TDC_SET@@PAVTODOITEM@@KABVCTDCAttributeMap@@@Z 004a9a1a f   ToDoCtrlData.obj
 0001:000a8e7d       ?ClearTaskAttribute@CToDoCtrlData@@QAE?AW4TDC_SET@@KW4TDC_ATTRIBUTE@@H@Z 004a9e7d f   ToDoCtrlData.obj
 0001:000a920f       ?ApplyLastInheritedChangeToSubtasks@CToDoCtrlData@@QAEXKW4TDC_ATTRIBUTE@@@Z 004aa20f f   ToDoCtrlData.obj
 0001:000a926f       ?ApplyLastChangeToSubtasks@CToDoCtrlData@@QAEHKW4TDC_ATTRIBUTE@@H@Z 004aa26f f   ToDoCtrlData.obj
 0001:000a92b7       ?ApplyLastChangeToSubtasks@CToDoCtrlData@@IAEHPBVTODOITEM@@PBVTODOSTRUCTURE@@W4TDC_ATTRIBUTE@@H@Z 004aa2b7 f   ToDoCtrlData.obj
 0001:000a95f2       ?SetTaskColor@CToDoCtrlData@@QAE?AW4TDC_SET@@KK@Z 004aa5f2 f   ToDoCtrlData.obj
 0001:000a9665       ?SetTaskComments@CToDoCtrlData@@QAE?AW4TDC_SET@@KABVCString@@ABVCBinaryData@@0@Z 004aa665 f   ToDoCtrlData.obj
 0001:000a9740       ?SetTaskCommentsType@CToDoCtrlData@@QAE?AW4TDC_SET@@KABVCString@@@Z 004aa740 f   ToDoCtrlData.obj
 0001:000a9778       ?SetTaskTitle@CToDoCtrlData@@QAE?AW4TDC_SET@@KABVCString@@@Z 004aa778 f   ToDoCtrlData.obj
 0001:000a97ad       ?SetTaskIcon@CToDoCtrlData@@QAE?AW4TDC_SET@@KABVCString@@@Z 004aa7ad f   ToDoCtrlData.obj
 0001:000a97e5       ?SetTaskFlag@CToDoCtrlData@@QAE?AW4TDC_SET@@KH@Z 004aa7e5 f   ToDoCtrlData.obj
 0001:000a984d       ?SetTaskCustomAttributeData@CToDoCtrlData@@QAE?AW4TDC_SET@@KABVCString@@0@Z 004aa84d f   ToDoCtrlData.obj
 0001:000a98e0       ?SetTaskRecurrence@CToDoCtrlData@@QAE?AW4TDC_SET@@KABUTDCRECURRENCE@@@Z 004aa8e0 f   ToDoCtrlData.obj
 0001:000a994e       ?SetTaskPriority@CToDoCtrlData@@QAE?AW4TDC_SET@@KH@Z 004aa94e f   ToDoCtrlData.obj
 0001:000a99c5       ?SetTaskRisk@CToDoCtrlData@@QAE?AW4TDC_SET@@KH@Z 004aa9c5 f   ToDoCtrlData.obj
 0001:000a9a3c       ?SetTaskDate@CToDoCtrlData@@QAE?AW4TDC_SET@@KW4TDC_DATE@@ABVCOleDateTime@@@Z 004aaa3c f   ToDoCtrlData.obj
 0001:000a9a54       ?SetTaskDate@CToDoCtrlData@@IAE?AW4TDC_SET@@KPAVTODOITEM@@W4TDC_DATE@@ABVCOleDateTime@@H@Z 004aaa54 f   ToDoCtrlData.obj
 0001:000a9da3       ?OffsetTaskDate@CToDoCtrlData@@QAE?AW4TDC_SET@@KW4TDC_DATE@@HW4TDC_OFFSET@@H@Z 004aada3 f   ToDoCtrlData.obj
 0001:000a9ebb       ?MoveTaskDates@CToDoCtrlData@@QAE?AW4TDC_SET@@KABVCOleDateTime@@@Z 004aaebb f   ToDoCtrlData.obj
 0001:000a9fbf       ?InitMissingTaskDate@CToDoCtrlData@@QAE?AW4TDC_SET@@KW4TDC_DATE@@ABVCOleDateTime@@H@Z 004aafbf f   ToDoCtrlData.obj
 0001:000aa069       ?SetTaskPercent@CToDoCtrlData@@QAE?AW4TDC_SET@@KH@Z 004ab069 f   ToDoCtrlData.obj
 0001:000aa0d9       ?SetTaskCost@CToDoCtrlData@@QAE?AW4TDC_SET@@KN@Z 004ab0d9 f   ToDoCtrlData.obj
 0001:000aa141       ?SetTaskTimeEstimate@CToDoCtrlData@@QAE?AW4TDC_SET@@KNW4TDC_UNITS@@@Z 004ab141 f   ToDoCtrlData.obj
 0001:000aa22c       ?RecalcTaskTimeEstimate@CToDoCtrlData@@IAE?AW4TDC_SET@@KPAVTODOITEM@@W4TDC_DATE@@@Z 004ab22c f   ToDoCtrlData.obj
 0001:000aa2ef       ?SetTaskTimeSpent@CToDoCtrlData@@QAE?AW4TDC_SET@@KNW4TDC_UNITS@@@Z 004ab2ef f   ToDoCtrlData.obj
 0001:000aa339       ?ResetRecurringSubtaskOcurrences@CToDoCtrlData@@QAEXK@Z 004ab339 f   ToDoCtrlData.obj
 0001:000aa3b3       ?SetTaskArray@CToDoCtrlData@@QAE?AW4TDC_SET@@KW4TDC_ATTRIBUTE@@ABVCStringArray@@H@Z 004ab3b3 f   ToDoCtrlData.obj
 0001:000aa428       ?GetTaskArray@CToDoCtrlData@@QAEHKW4TDC_ATTRIBUTE@@AAVCStringArray@@@Z 004ab428 f   ToDoCtrlData.obj
 0001:000aa48e       ?SetTaskAllocTo@CToDoCtrlData@@QAE?AW4TDC_SET@@KABVCStringArray@@H@Z 004ab48e f   ToDoCtrlData.obj
 0001:000aa4cb       ?SetTaskAllocBy@CToDoCtrlData@@QAE?AW4TDC_SET@@KABVCString@@@Z 004ab4cb f   ToDoCtrlData.obj
 0001:000aa503       ?SetTaskVersion@CToDoCtrlData@@QAE?AW4TDC_SET@@KABVCString@@@Z 004ab503 f   ToDoCtrlData.obj
 0001:000aa53b       ?SetTaskStatus@CToDoCtrlData@@QAE?AW4TDC_SET@@KABVCString@@@Z 004ab53b f   ToDoCtrlData.obj
 0001:000aa573       ?SetTaskCategories@CToDoCtrlData@@QAE?AW4TDC_SET@@KABVCStringArray@@H@Z 004ab573 f   ToDoCtrlData.obj
 0001:000aa5b0       ?SetTaskTags@CToDoCtrlData@@QAE?AW4TDC_SET@@KABVCStringArray@@H@Z 004ab5b0 f   ToDoCtrlData.obj
 0001:000aa5ed       ?SetTaskDependencies@CToDoCtrlData@@QAE?AW4TDC_SET@@KABVCStringArray@@H@Z 004ab5ed f   ToDoCtrlData.obj
 0001:000aa71b       ?SetTaskExtID@CToDoCtrlData@@QAE?AW4TDC_SET@@KABVCString@@@Z 004ab71b f   ToDoCtrlData.obj
 0001:000aa753       ?SaveEditUndo@CToDoCtrlData@@IAEHKPAVTODOITEM@@W4TDC_ATTRIBUTE@@@Z 004ab753 f   ToDoCtrlData.obj
 0001:000aa779       ?EditTaskArrayAttribute@CToDoCtrlData@@IAE?AW4TDC_SET@@KPAVTODOITEM@@W4TDC_ATTRIBUTE@@AAVCStringArray@@ABV5@HH@Z 004ab779 f   ToDoCtrlData.obj
 0001:000aa7eb       ?EditTaskTimeAttribute@CToDoCtrlData@@IAE?AW4TDC_SET@@KPAVTODOITEM@@W4TDC_ATTRIBUTE@@AANNAAW4TDC_UNITS@@W45@@Z 004ab7eb f   ToDoCtrlData.obj
 0001:000aa846       ?SetTaskFileRefs@CToDoCtrlData@@QAE?AW4TDC_SET@@KABVCStringArray@@H@Z 004ab846 f   ToDoCtrlData.obj
 0001:000aa883       ?BeginNewUndoAction@CToDoCtrlData@@QAEHW4TDCUNDOACTIONTYPE@@@Z 004ab883 f   ToDoCtrlData.obj
 0001:000aa892       ?EndCurrentUndoAction@CToDoCtrlData@@QAEHXZ 004ab892 f   ToDoCtrlData.obj
 0001:000aa89a       ?ExtendLastUndoAction@CToDoCtrlData@@QAEHW4TDCUNDOACTIONTYPE@@@Z 004ab89a f   ToDoCtrlData.obj
 0001:000aa8a9       ?AddUndoElement@CToDoCtrlData@@IAEHW4TDCUNDOELMOP@@KKKG@Z 004ab8a9 f   ToDoCtrlData.obj
 0001:000aa93a       ?GetLastUndoActionTaskIDs@CToDoCtrlData@@QBEHHAAVCDWordArray@@@Z 004ab93a f   ToDoCtrlData.obj
 0001:000aa95a       ?GetLastUndoActionType@CToDoCtrlData@@QBE?AW4TDCUNDOACTIONTYPE@@H@Z 004ab95a f   ToDoCtrlData.obj
 0001:000aa976       ?DeleteLastUndoAction@CToDoCtrlData@@QAEHXZ 004ab976 f   ToDoCtrlData.obj
 0001:000aa97e       ?UndoLastAction@CToDoCtrlData@@QAEHHAAV?$CArray@UTDCUNDOELEMENT@@AAU1@@@@Z 004ab97e f   ToDoCtrlData.obj
 0001:000aac74       ?CanUndoLastAction@CToDoCtrlData@@QBEHH@Z 004abc74 f   ToDoCtrlData.obj
 0001:000aac86       ?MoveTask@CToDoCtrlData@@QAEHKKK@Z 004abc86 f   ToDoCtrlData.obj
 0001:000aad11       ?MoveTask@CToDoCtrlData@@IAEHPAVTODOSTRUCTURE@@HK0H@Z 004abd11 f   ToDoCtrlData.obj
 0001:000aad93       ?FixupParentCompletion@CToDoCtrlData@@QAEXK@Z 004abd93 f   ToDoCtrlData.obj
 0001:000aae04       ?MoveTasks@CToDoCtrlData@@QAEHABVCDWordArray@@KK@Z 004abe04 f   ToDoCtrlData.obj
 0001:000aaf45       ?SetTaskModified@CToDoCtrlData@@IAEHK@Z 004abf45 f   ToDoCtrlData.obj
 0001:000aaf69       ?TaskHasIncompleteSubtasks@CToDoCtrlData@@QBEHKH@Z 004abf69 f   ToDoCtrlData.obj
 0001:000aaf8d       ?TaskHasIncompleteSubtasks@CToDoCtrlData@@QBEHPBVTODOSTRUCTURE@@H@Z 004abf8d f   ToDoCtrlData.obj
 0001:000ab018       ?IsParentTaskDone@CToDoCtrlData@@QBEHPBVTODOSTRUCTURE@@@Z 004ac018 f   ToDoCtrlData.obj
 0001:000ab061       ?GetSubtaskTotals@CToDoCtrlData@@QBEHPBVTODOITEM@@PBVTODOSTRUCTURE@@AAH2@Z 004ac061 f   ToDoCtrlData.obj
 0001:000ab0d6       ?GetTaskPositionString@CToDoCtrlData@@QBE?AVCString@@PBVTODOITEM@@PBVTODOSTRUCTURE@@@Z 004ac0d6 f   ToDoCtrlData.obj
 0001:000ab1ee       ?GetTaskPath@CToDoCtrlData@@QBE?AVCString@@PBVTODOITEM@@PBVTODOSTRUCTURE@@@Z 004ac1ee f   ToDoCtrlData.obj
 0001:000ab319       ?CalcPercentDone@CToDoCtrlData@@QBEHPBVTODOITEM@@PBVTODOSTRUCTURE@@@Z 004ac319 f   ToDoCtrlData.obj
 0001:000ab3a2       ?CalcPercentFromTime@CToDoCtrlData@@QBEHPBVTODOITEM@@PBVTODOSTRUCTURE@@@Z 004ac3a2 f   ToDoCtrlData.obj
 0001:000ab418       ?SumPercentDone@CToDoCtrlData@@IBENPBVTODOITEM@@PBVTODOSTRUCTURE@@@Z 004ac418 f   ToDoCtrlData.obj
 0001:000ab556       ?GetTaskLeafCount@CToDoCtrlData@@IBEHPBVTODOITEM@@PBVTODOSTRUCTURE@@H@Z 004ac556 f   ToDoCtrlData.obj
 0001:000ab5d2       ?SumWeightedPercentDone@CToDoCtrlData@@IBENPBVTODOITEM@@PBVTODOSTRUCTURE@@@Z 004ac5d2 f   ToDoCtrlData.obj
 0001:000ab701       ?CalcCost@CToDoCtrlData@@QBENPBVTODOITEM@@PBVTODOSTRUCTURE@@@Z 004ac701 f   ToDoCtrlData.obj
 0001:000ab76d       ?SetDefaultCommentsFormat@CToDoCtrlData@@SAXABVCString@@@Z 004ac76d f   ToDoCtrlData.obj
 0001:000ab77c       ?SetDefaultTimeUnits@CToDoCtrlData@@SAXW4TDC_UNITS@@0@Z 004ac77c f   ToDoCtrlData.obj
 0001:000ab78f       ?GetBestCalcTimeEstUnits@CToDoCtrlData@@QBE?AW4TDC_UNITS@@PBVTODOITEM@@PBVTODOSTRUCTURE@@@Z 004ac78f f   ToDoCtrlData.obj
 0001:000ab80b       ?GetBestCalcTimeSpentUnits@CToDoCtrlData@@QBE?AW4TDC_UNITS@@PBVTODOITEM@@PBVTODOSTRUCTURE@@@Z 004ac80b f   ToDoCtrlData.obj
 0001:000ab887       ?CalcTimeEstimate@CToDoCtrlData@@QBENPBVTODOITEM@@PBVTODOSTRUCTURE@@W4TDC_UNITS@@@Z 004ac887 f   ToDoCtrlData.obj
 0001:000ab8b8       ?CalcTimeEstimate@CToDoCtrlData@@IBENPBVTODOITEM@@PBVTODOSTRUCTURE@@W4TDC_UNITS@@AAN@Z 004ac8b8 f   ToDoCtrlData.obj
 0001:000aba01       ?CalcRemainingTime@CToDoCtrlData@@QBENPBVTODOITEM@@PBVTODOSTRUCTURE@@AAW4TDC_UNITS@@@Z 004aca01 f   ToDoCtrlData.obj
 0001:000abad6       ?CalcTimeSpent@CToDoCtrlData@@QBENPBVTODOITEM@@PBVTODOSTRUCTURE@@W4TDC_UNITS@@@Z 004acad6 f   ToDoCtrlData.obj
 0001:000abbab       ?IsTaskStarted@CToDoCtrlData@@QBEHPBVTODOITEM@@PBVTODOSTRUCTURE@@H@Z 004acbab f   ToDoCtrlData.obj
 0001:000abc0d       ?IsTaskDue@CToDoCtrlData@@QBEHKH@Z 004acc0d f   ToDoCtrlData.obj
 0001:000abc5a       ?IsTaskOverDue@CToDoCtrlData@@QBEHK@Z 004acc5a f   ToDoCtrlData.obj
 0001:000abc68       ?IsTaskOverDue@CToDoCtrlData@@QBEHPBVTODOITEM@@PBVTODOSTRUCTURE@@@Z 004acc68 f   ToDoCtrlData.obj
 0001:000abc9e       ?HasOverdueTasks@CToDoCtrlData@@QBEHXZ 004acc9e f   ToDoCtrlData.obj
 0001:000abcde       ?HasDueTodayTasks@CToDoCtrlData@@QBEHXZ 004accde f   ToDoCtrlData.obj
 0001:000abcf1       ?HasDueTodayTasks@CToDoCtrlData@@IBEHPBVTODOSTRUCTURE@@@Z 004accf1 f   ToDoCtrlData.obj
 0001:000abd58       ?GetEarliestDueDate@CToDoCtrlData@@QBENXZ 004acd58 f   ToDoCtrlData.obj
 0001:000abdd9       ?GetTask@CToDoCtrlData@@QBEHAAKAAPBVTODOITEM@@AAPBVTODOSTRUCTURE@@H@Z 004acdd9 f   ToDoCtrlData.obj
 0001:000abe1c       ?GetTrueTaskID@CToDoCtrlData@@QBEKK@Z 004ace1c f   ToDoCtrlData.obj
 0001:000abe30       ?GetTrueTaskIDs@CToDoCtrlData@@QBEXAAVCDWordArray@@@Z 004ace30 f   ToDoCtrlData.obj
 0001:000abe64       ?IsTaskReferenced@CToDoCtrlData@@QBEHK@Z 004ace64 f   ToDoCtrlData.obj
 0001:000abe8f       ?IsTaskReferenced@CToDoCtrlData@@IBEHKPBVTODOSTRUCTURE@@@Z 004ace8f f   ToDoCtrlData.obj
 0001:000abee1       ?GetReferencesToTask@CToDoCtrlData@@QBEHKAAVCDWordArray@@@Z 004acee1 f   ToDoCtrlData.obj
 0001:000abf13       ?GetReferencesToTask@CToDoCtrlData@@IBEHKPBVTODOSTRUCTURE@@AAVCDWordArray@@@Z 004acf13 f   ToDoCtrlData.obj
 0001:000abf74       ?CalcCost@CToDoCtrlData@@QBENK@Z 004acf74 f   ToDoCtrlData.obj
 0001:000abfc2       ?CalcPercentDone@CToDoCtrlData@@QBEHK@Z 004acfc2 f   ToDoCtrlData.obj
 0001:000ac00c       ?CalcTimeEstimate@CToDoCtrlData@@QBENKW4TDC_UNITS@@@Z 004ad00c f   ToDoCtrlData.obj
 0001:000ac05d       ?CalcTimeSpent@CToDoCtrlData@@QBENKW4TDC_UNITS@@@Z 004ad05d f   ToDoCtrlData.obj
 0001:000ac0ae       ?IsTaskDone@CToDoCtrlData@@QBEHKK@Z 004ad0ae f   ToDoCtrlData.obj
 0001:000ac0fb       ?IsTaskDue@CToDoCtrlData@@QBEHPBVTODOITEM@@PBVTODOSTRUCTURE@@H@Z 004ad0fb f   ToDoCtrlData.obj
 0001:000ac15d       ?CalcDueDate@CToDoCtrlData@@QBENPBVTODOITEM@@PBVTODOSTRUCTURE@@@Z 004ad15d f   ToDoCtrlData.obj
 0001:000ac191       ?CalcStartDate@CToDoCtrlData@@QBENPBVTODOITEM@@PBVTODOSTRUCTURE@@@Z 004ad191 f   ToDoCtrlData.obj
 0001:000ac1c3       ?CalcStartDueDate@CToDoCtrlData@@IBENPBVTODOITEM@@PBVTODOSTRUCTURE@@HHH@Z 004ad1c3 f   ToDoCtrlData.obj
 0001:000ac34a       ?GetBestDate@CToDoCtrlData@@KANNNH@Z 004ad34a f   ToDoCtrlData.obj
 0001:000ac375       ?GetHighestPriority@CToDoCtrlData@@QBEHPBVTODOITEM@@PBVTODOSTRUCTURE@@H@Z 004ad375 f   ToDoCtrlData.obj
 0001:000ac48a       ?GetHighestRisk@CToDoCtrlData@@QBEHPBVTODOITEM@@PBVTODOSTRUCTURE@@@Z 004ad48a f   ToDoCtrlData.obj
 0001:000ac57c       ?FormatTaskAllocTo@CToDoCtrlData@@QBE?AVCString@@PBVTODOITEM@@@Z 004ad57c f   ToDoCtrlData.obj
 0001:000ac5b2       ?FormatTaskCategories@CToDoCtrlData@@QBE?AVCString@@PBVTODOITEM@@@Z 004ad5b2 f   ToDoCtrlData.obj
 0001:000ac5e8       ?FormatTaskTags@CToDoCtrlData@@QBE?AVCString@@PBVTODOITEM@@@Z 004ad5e8 f   ToDoCtrlData.obj
 0001:000ac61e       ?IsTaskDone@CToDoCtrlData@@QBEHPBVTODOITEM@@PBVTODOSTRUCTURE@@K@Z 004ad61e f   ToDoCtrlData.obj
 0001:000ac691       ?IsTaskTimeTrackable@CToDoCtrlData@@QBEHK@Z 004ad691 f   ToDoCtrlData.obj
 0001:000ac6f0       ?CompareTasks@CToDoCtrlData@@QBEHKKABUTDCCUSTOMATTRIBUTEDEFINITION@@H@Z 004ad6f0 f   ToDoCtrlData.obj
 0001:000ac869       ?CompareTasks@CToDoCtrlData@@QBEHKKW4TDC_COLUMN@@HHHHH@Z 004ad869 f   ToDoCtrlData.obj
 0001:000ad2f4       ?Compare@CToDoCtrlData@@KAHABVCOleDateTime@@0HW4TDC_DATE@@@Z 004ae2f4 f   ToDoCtrlData.obj
 0001:000ad3fd       ?Compare@CToDoCtrlData@@KAHABVCString@@0H@Z 004ae3fd f   ToDoCtrlData.obj
 0001:000ad444       ?Compare@CToDoCtrlData@@KAHHH@Z 004ae444 f   ToDoCtrlData.obj
 0001:000ad44d       ?Compare@CToDoCtrlData@@KAHNN@Z 004ae44d f   ToDoCtrlData.obj
 0001:000ad472       ?FindTasks@CToDoCtrlData@@QBEHABUSEARCHPARAMS@@AAV?$CArray@USEARCHRESULT@@AAU1@@@@Z 004ae472 f   ToDoCtrlData.obj
 0001:000ad4c0       ?FindTasks@CToDoCtrlData@@QBEHPBVTODOITEM@@PBVTODOSTRUCTURE@@ABUSEARCHPARAMS@@AAV?$CArray@USEARCHRESULT@@AAU1@@@@Z 004ae4c0 f   ToDoCtrlData.obj
 0001:000ad5a4       ?TaskMatches@CToDoCtrlData@@QBEHKABUSEARCHPARAMS@@AAUSEARCHRESULT@@@Z 004ae5a4 f   ToDoCtrlData.obj
 0001:000ad609       ?TaskMatches@CToDoCtrlData@@QBEHPBVTODOITEM@@PBVTODOSTRUCTURE@@ABUSEARCHPARAMS@@AAUSEARCHRESULT@@@Z 004ae609 f   ToDoCtrlData.obj
 0001:000ae04a       ?TaskCommentsMatch@CToDoCtrlData@@IBEHPBVTODOITEM@@ABUSEARCHPARAM@@AAUSEARCHRESULT@@@Z 004af04a f   ToDoCtrlData.obj
 0001:000ae097       ?TaskMatches@CToDoCtrlData@@IBEHABVCOleDateTime@@ABUSEARCHPARAM@@AAUSEARCHRESULT@@HW4TDC_DATE@@@Z 004af097 f   ToDoCtrlData.obj
 0001:000ae270       ?FormatResultDate@CToDoCtrlData@@IBE?AVCString@@ABVCOleDateTime@@@Z 004af270 f   ToDoCtrlData.obj
 0001:000ae312       ?TaskMatches@CToDoCtrlData@@IBEHABVCString@@ABUSEARCHPARAM@@AAUSEARCHRESULT@@H@Z 004af312 f   ToDoCtrlData.obj
 0001:000ae50c       ?HasString@SEARCHPARAM@@QBEHXZ 004af50c f i ToDoCtrlData.obj
 0001:000ae52a       ?TaskMatches@CToDoCtrlData@@IBEHABVCStringArray@@ABUSEARCHPARAM@@AAUSEARCHRESULT@@@Z 004af52a f   ToDoCtrlData.obj
 0001:000ae6a9       ?TaskMatches@CToDoCtrlData@@IBEHABUTDCCADATA@@KABUSEARCHPARAM@@AAUSEARCHRESULT@@@Z 004af6a9 f   ToDoCtrlData.obj
 0001:000ae7df       ?TaskMatches@CToDoCtrlData@@IBEHNABUSEARCHPARAM@@AAUSEARCHRESULT@@@Z 004af7df f   ToDoCtrlData.obj
 0001:000ae97d       ?TaskMatches@CToDoCtrlData@@IBEHHABUSEARCHPARAM@@AAUSEARCHRESULT@@@Z 004af97d f   ToDoCtrlData.obj
 0001:000aea8b       ?CalcNewTaskDependencyStartDate@CToDoCtrlData@@IBEHKKW4TDC_DATE@@AAVCOleDateTime@@@Z 004afa8b f   ToDoCtrlData.obj
 0001:000aeba8       ?SetNewTaskDependencyStartDate@CToDoCtrlData@@IAEIKABVCOleDateTime@@@Z 004afba8 f   ToDoCtrlData.obj
 0001:000aec96       ?CalcNewTaskDependencyStartDate@CToDoCtrlData@@IBEHKW4TDC_DATE@@AAVCOleDateTime@@@Z 004afc96 f   ToDoCtrlData.obj
 0001:000aed30       ?UpdateTaskLocalDependencyDates@CToDoCtrlData@@IAEIKW4TDC_DATE@@@Z 004afd30 f   ToDoCtrlData.obj
 0001:000aed6c       ?IsEndOfDay@CToDoCtrlData@@KAHABVCOleDateTime@@@Z 004afd6c f   ToDoCtrlData.obj
 0001:000aeda1       ?AddDuration@CToDoCtrlData@@KA?AVCOleDateTime@@AAV2@NW4TDC_UNITS@@@Z 004afda1 f   ToDoCtrlData.obj
 0001:000aef3c       ?CalcDuration@CToDoCtrlData@@KANABVCOleDateTime@@0W4TDC_UNITS@@@Z 004aff3c f   ToDoCtrlData.obj
 0001:000af09c       ?FixupTaskLocalDependentsDates@CToDoCtrlData@@IAEXKW4TDC_DATE@@@Z 004b009c f   ToDoCtrlData.obj
 0001:000af130       ?Add@?$CArray@UTDCUNDOELEMENT@@AAU1@@@QAEHAAUTDCUNDOELEMENT@@@Z 004b0130 f i ToDoCtrlData.obj
 0001:000af15d       ??1?$CMap@KKPAVTODOITEM@@AAPAV1@@@UAE@XZ 004b015d f i ToDoCtrlData.obj
 0001:000af190       ?EditTaskAttributeT@CToDoCtrlData@@IAE?AW4TDC_SET@@KPAVTODOITEM@@W4TDC_ATTRIBUTE@@AAVCString@@ABV5@@Z 004b0190 f i ToDoCtrlData.obj
 0001:000af1ea       ?ReplaceLastT@Misc@@YAHAAVCStringArray@@ABVCEnString@@@Z 004b01ea f i ToDoCtrlData.obj
 0001:000af1ea       ?ReplaceLastT@Misc@@YAHAAVCStringArray@@ABVCString@@@Z 004b01ea f i ToDoCtrlData.obj
 0001:000af20a       ??_E?$CArray@PAVTODOSTRUCTURE@@AAPAV1@@@UAEPAXI@Z 004b020a f i ToDoCtrlData.obj
 0001:000af20a       ??_G?$CArray@PAVTODOSTRUCTURE@@AAPAV1@@@UAEPAXI@Z 004b020a f i ToDoCtrlData.obj
 0001:000af226       ??1?$CArray@PAVTODOSTRUCTURE@@AAPAV1@@@UAE@XZ 004b0226 f i ToDoCtrlData.obj
 0001:000af262       ??_E?$CMap@KKPAVTODOSTRUCTURE@@AAPAV1@@@UAEPAXI@Z 004b0262 f i ToDoCtrlData.obj
 0001:000af262       ??_G?$CMap@KKPAVTODOSTRUCTURE@@AAPAV1@@@UAEPAXI@Z 004b0262 f i ToDoCtrlData.obj
 0001:000af27e       ??1?$CMap@KKPAVTODOSTRUCTURE@@AAPAV1@@@UAE@XZ 004b027e f i ToDoCtrlData.obj
 0001:000af2b1       ??_E?$CMap@KKPAVTODOITEM@@AAPAV1@@@UAEPAXI@Z 004b02b1 f i ToDoCtrlData.obj
 0001:000af2b1       ??_G?$CMap@KKPAVTODOITEM@@AAPAV1@@@UAEPAXI@Z 004b02b1 f i ToDoCtrlData.obj
 0001:000af2cd       ?SerializeElements@@YGXAAVCArchive@@PAPAVCFilteredToDoCtrl@@H@Z 004b02cd f i ToDoCtrlData.obj
 0001:000af2cd       ?SerializeElements@@YGXAAVCArchive@@PAPBUTDCCOLUMN@@H@Z 004b02cd f i ToDoCtrlData.obj
 0001:000af2cd       ?SerializeElements@@YGXAAVCArchive@@PAPAVCXmlItem@@H@Z 004b02cd f i ToDoCtrlData.obj
 0001:000af2cd       ?SerializeElements@@YGXAAVCArchive@@PAHH@Z 004b02cd f i ToDoCtrlData.obj
 0001:000af2cd       ?SerializeElements@@YGXAAVCArchive@@PAKH@Z 004b02cd f i ToDoCtrlData.obj
 0001:000af2cd       ?SerializeElements@@YGXAAVCArchive@@PAPAVIUIExtensionWindow@@H@Z 004b02cd f i ToDoCtrlData.obj
 0001:000af2cd       ?SerializeElements@@YGXAAVCArchive@@PAPAVTODOSTRUCTURE@@H@Z 004b02cd f i ToDoCtrlData.obj
 0001:000af2cd       ?SerializeElements@@YGXAAVCArchive@@PAW4CLA_TYPE@@H@Z 004b02cd f i ToDoCtrlData.obj
 0001:000af2cd       ?SerializeElements@@YGXAAVCArchive@@PAPAXH@Z 004b02cd f i ToDoCtrlData.obj
 0001:000af2cd       ?SerializeElements@@YGXAAVCArchive@@PAPAVCMapIDToTimeAndPeriod@CTDCTaskTimeLogAnalysis@@H@Z 004b02cd f i ToDoCtrlData.obj
 0001:000af2cd       ?SerializeElements@@YGXAAVCArchive@@PAPAUHWND__@@H@Z 004b02cd f i ToDoCtrlData.obj
 0001:000af2cd       ?SerializeElements@@YGXAAVCArchive@@PAW4TDC_STYLE@@H@Z 004b02cd f i ToDoCtrlData.obj
 0001:000af2cd       ?SerializeElements@@YGXAAVCArchive@@PAPAUTRACKTASKLIST@@H@Z 004b02cd f i ToDoCtrlData.obj
 0001:000af2cd       ?SerializeElements@@YGXAAVCArchive@@PAPAVCTaskFile@@H@Z 004b02cd f i ToDoCtrlData.obj
 0001:000af2cd       ?SerializeElements@@YGXAAVCArchive@@PAW4IUI_ATTRIBUTE@@H@Z 004b02cd f i ToDoCtrlData.obj
 0001:000af2cd       ?SerializeElements@@YGXAAVCArchive@@PAW4OUTLOOK_FIELDTYPE@@H@Z 004b02cd f i ToDoCtrlData.obj
 0001:000af2cd       ?SerializeElements@@YGXAAVCArchive@@PAW4TDC_ATTRIBUTE@@H@Z 004b02cd f i ToDoCtrlData.obj
 0001:000af2cd       ?SerializeElements@@YGXAAVCArchive@@PAPAU_TREEITEM@@H@Z 004b02cd f i ToDoCtrlData.obj
 0001:000af2cd       ?SerializeElements@@YGXAAVCArchive@@PAPAVCBrowserDlg@@H@Z 004b02cd f i ToDoCtrlData.obj
 0001:000af2cd       ?SerializeElements@@YGXAAVCArchive@@PAIH@Z 004b02cd f i ToDoCtrlData.obj
 0001:000af2cd       ?SerializeElements@@YGXAAVCArchive@@PAPAVCMapStringToString@@H@Z 004b02cd f i ToDoCtrlData.obj
 0001:000af2cd       ?SerializeElements@@YGXAAVCArchive@@PAPAVCPreferencesPageBase@@H@Z 004b02cd f i ToDoCtrlData.obj
 0001:000af2cd       ?SerializeElements@@YGXAAVCArchive@@PAW4TDC_COLUMN@@H@Z 004b02cd f i ToDoCtrlData.obj
 0001:000af2cd       ?SerializeElements@@YGXAAVCArchive@@PAPAVTODOITEM@@H@Z 004b02cd f i ToDoCtrlData.obj
 0001:000af37f       ??0CToDoCtrlFind@@QAE@AAVCTreeCtrl@@ABVCToDoCtrlData@@@Z 004b037f f   ToDoCtrlFind.obj
 0001:000af398       ??_ECToDoCtrlFind@@UAEPAXI@Z 004b0398 f i ToDoCtrlFind.obj
 0001:000af398       ??_GCToDoCtrlFind@@UAEPAXI@Z 004b0398 f i ToDoCtrlFind.obj
 0001:000af3b4       ??1CToDoCtrlFind@@UAE@XZ   004b03b4 f   ToDoCtrlFind.obj
 0001:000af3bb       ?GetItem@CToDoCtrlFind@@QBEPAU_TREEITEM@@K@Z 004b03bb f   ToDoCtrlFind.obj
 0001:000af40c       ?GetTaskID@CToDoCtrlFind@@QBEKPAU_TREEITEM@@@Z 004b040c f   ToDoCtrlFind.obj
 0001:000af45b       ?GetTask@CToDoCtrlFind@@QBEPBVTODOITEM@@PAU_TREEITEM@@H@Z 004b045b f   ToDoCtrlFind.obj
 0001:000af480       ?GetLargestReferenceID@CToDoCtrlFind@@QBEKH@Z 004b0480 f   ToDoCtrlFind.obj
 0001:000af490       ?GetLargestFileLinkCount@CToDoCtrlFind@@QBEHH@Z 004b0490 f   ToDoCtrlFind.obj
 0001:000af4a0       ?GetLongestValue@CToDoCtrlFind@@QBE?AVCString@@W4TDC_ATTRIBUTE@@H@Z 004b04a0 f   ToDoCtrlFind.obj
 0001:000af4c2       ?GetLongestValue@CToDoCtrlFind@@QBE?AVCString@@W4TDC_ATTRIBUTE@@ABV2@H@Z 004b04c2 f   ToDoCtrlFind.obj
 0001:000af56d       ?GetLongestValue@CToDoCtrlFind@@IBE?AVCString@@W4TDC_ATTRIBUTE@@PAU_TREEITEM@@PBVTODOITEM@@H@Z 004b056d f   ToDoCtrlFind.obj
 0001:000af79b       ?GetLongestValue@CToDoCtrlFind@@IBE?AVCString@@W4TDC_ATTRIBUTE@@PAU_TREEITEM@@PBVTODOITEM@@PBVTODOSTRUCTURE@@H@Z 004b079b f   ToDoCtrlFind.obj
 0001:000afa11       ?GetLongestTime@CToDoCtrlFind@@QBE?AVCString@@W4TDC_UNITS@@HH@Z 004b0a11 f   ToDoCtrlFind.obj
 0001:000afa35       ?GetLongestCustomAttribute@CToDoCtrlFind@@QBE?AVCString@@ABV2@H@Z 004b0a35 f   ToDoCtrlFind.obj
 0001:000afa56       ?GetLongestCustomDoubleAttribute@CToDoCtrlFind@@QBE?AVCString@@ABV2@H@Z 004b0a56 f   ToDoCtrlFind.obj
 0001:000afa78       ?GetLongerString@CToDoCtrlFind@@KA?AVCString@@ABV2@0@Z 004b0a78 f   ToDoCtrlFind.obj
 0001:000afaa4       ?GetLargestReferenceID@CToDoCtrlFind@@IBEKPAU_TREEITEM@@PBVTODOITEM@@H@Z 004b0aa4 f   ToDoCtrlFind.obj
 0001:000afb34       ?GetLargestFileLinkCount@CToDoCtrlFind@@IBEHPAU_TREEITEM@@PBVTODOITEM@@H@Z 004b0b34 f   ToDoCtrlFind.obj
 0001:000afbc0       ?WantSearchChildren@CToDoCtrlFind@@IBEHPAU_TREEITEM@@H@Z 004b0bc0 f   ToDoCtrlFind.obj
 0001:000afbea       ?GetLongestCustomAttribute@CToDoCtrlFind@@IBE?AVCString@@PAU_TREEITEM@@PBVTODOITEM@@ABV2@HH@Z 004b0bea f   ToDoCtrlFind.obj
 0001:000afcfe       ?GetLongestTime@CToDoCtrlFind@@IBE?AVCString@@PAU_TREEITEM@@PBVTODOITEM@@PBVTODOSTRUCTURE@@W4TDC_UNITS@@HH@Z 004b0cfe f   ToDoCtrlFind.obj
 0001:000aff67       ?GetTaskBreadcrumbs@CToDoCtrlFind@@QBEHPAU_TREEITEM@@AAVCDWordArray@@K@Z 004b0f67 f   ToDoCtrlFind.obj
 0001:000b00f1       ?FindTasks@CToDoCtrlFind@@QBEHABUSEARCHPARAMS@@AAV?$CArray@USEARCHRESULT@@AAU1@@@@Z 004b10f1 f   ToDoCtrlFind.obj
 0001:000b014c       ?FindTasks@CToDoCtrlFind@@IBEXPAU_TREEITEM@@ABUSEARCHPARAMS@@AAV?$CArray@USEARCHRESULT@@AAU1@@@@Z 004b114c f   ToDoCtrlFind.obj
 0001:000b0226       ?FindFirstTask@CToDoCtrlFind@@QBEKABUSEARCHPARAMS@@AAUSEARCHRESULT@@@Z 004b1226 f   ToDoCtrlFind.obj
 0001:000b025f       ?FindNextTask@CToDoCtrlFind@@QBEKKABUSEARCHPARAMS@@AAUSEARCHRESULT@@H@Z 004b125f f   ToDoCtrlFind.obj
 0001:000b02e7       ?FindFirstTask@CToDoCtrlFind@@IBEKPAU_TREEITEM@@ABUSEARCHPARAMS@@AAUSEARCHRESULT@@@Z 004b12e7 f   ToDoCtrlFind.obj
 0001:000b1304       ??0CToDoCtrlMgr@@QAE@AAVCTabCtrlEx@@@Z 004b2304 f   ToDoCtrlMgr.obj
 0001:000b1348       ??1CToDoCtrlMgr@@QAE@XZ    004b2348 f   ToDoCtrlMgr.obj
 0001:000b1395       ?SetPrefs@CToDoCtrlMgr@@QAEXPBVCPreferencesDlg@@@Z 004b2395 f   ToDoCtrlMgr.obj
 0001:000b139f       ?Prefs@CToDoCtrlMgr@@IBEABVCPreferencesDlg@@XZ 004b239f f   ToDoCtrlMgr.obj
 0001:000b13a3       ?GetToDoCtrl@CToDoCtrlMgr@@QAEAAVCFilteredToDoCtrl@@H@Z 004b23a3 f   ToDoCtrlMgr.obj
 0001:000b13b7       ?GetToDoCtrl@CToDoCtrlMgr@@QBEABVCFilteredToDoCtrl@@H@Z 004b23b7 f   ToDoCtrlMgr.obj
 0001:000b13ec       ??_GTDCITEM@CToDoCtrlMgr@@UAEPAXI@Z 004b23ec f i ToDoCtrlMgr.obj
 0001:000b13ec       ??_ETDCITEM@CToDoCtrlMgr@@UAEPAXI@Z 004b23ec f i ToDoCtrlMgr.obj
 0001:000b1408       ??1TDCITEM@CToDoCtrlMgr@@UAE@XZ 004b2408 f i ToDoCtrlMgr.obj
 0001:000b1419       ?GetTDCItem@CToDoCtrlMgr@@IAEAAUTDCITEM@1@H@Z 004b2419 f   ToDoCtrlMgr.obj
 0001:000b1419       ?GetTDCItem@CToDoCtrlMgr@@IBEABUTDCITEM@1@H@Z 004b2419 f   ToDoCtrlMgr.obj
 0001:000b1429       ?GetFileName@CToDoCtrlMgr@@QBE?AVCString@@HH@Z 004b2429 f   ToDoCtrlMgr.obj
 0001:000b147e       ?GetFilePath@CToDoCtrlMgr@@QBE?AVCString@@HH@Z 004b247e f   ToDoCtrlMgr.obj
 0001:000b1571       ?GetFolderPath@CToDoCtrlMgr@@QBE?AVCString@@H@Z 004b2571 f   ToDoCtrlMgr.obj
 0001:000b15c8       ?GetDisplayPath@CToDoCtrlMgr@@QBE?AVCString@@H@Z 004b25c8 f   ToDoCtrlMgr.obj
 0001:000b164a       ??1TSM_TASKLISTINFO@@QAE@XZ 004b264a f i ToDoCtrlMgr.obj
 0001:000b1655       ?UsesStorage@CToDoCtrlMgr@@QBEHH@Z 004b2655 f   ToDoCtrlMgr.obj
 0001:000b1671       ?GetStorageDetails@CToDoCtrlMgr@@QBEHHAAUTSM_TASKLISTINFO@@@Z 004b2671 f   ToDoCtrlMgr.obj
 0001:000b16a0       ?SetStorageDetails@CToDoCtrlMgr@@QAEHHABUTSM_TASKLISTINFO@@@Z 004b26a0 f   ToDoCtrlMgr.obj
 0001:000b16c9       ?SetStorageDetails@TDCITEM@CToDoCtrlMgr@@QAEXABUTSM_TASKLISTINFO@@@Z 004b26c9 f i ToDoCtrlMgr.obj
 0001:000b1767       ?ClearStorageDetails@TDCITEM@CToDoCtrlMgr@@QAEXXZ 004b2767 f i ToDoCtrlMgr.obj
 0001:000b17b9       ?ClearStorageDetails@CToDoCtrlMgr@@QAEHH@Z 004b27b9 f   ToDoCtrlMgr.obj
 0001:000b17e2       ?GetFriendlyProjectName@CToDoCtrlMgr@@QBE?AVCString@@H@Z 004b27e2 f   ToDoCtrlMgr.obj
 0001:000b1803       ?GetFriendlyProjectName@TDCITEM@CToDoCtrlMgr@@QBE?AVCString@@XZ 004b2803 f i ToDoCtrlMgr.obj
 0001:000b1867       ?GetProjectName@CToDoCtrl@@QBE?AVCString@@XZ 004b2867 f i ToDoCtrlMgr.obj
 0001:000b1885       ?FormatProjectNameWithFileName@CToDoCtrlMgr@@QBE?AVCString@@H@Z 004b2885 f   ToDoCtrlMgr.obj
 0001:000b197c       ?HasFilePath@CToDoCtrlMgr@@QBEHH@Z 004b297c f   ToDoCtrlMgr.obj
 0001:000b19a9       ?GetFilePathType@CToDoCtrlMgr@@QBE?AW4TDCM_PATHTYPE@@H@Z 004b29a9 f   ToDoCtrlMgr.obj
 0001:000b19b8       ?RefreshPathType@CToDoCtrlMgr@@QAE?AW4TDCM_PATHTYPE@@H@Z 004b29b8 f   ToDoCtrlMgr.obj
 0001:000b19d2       ?RefreshPathType@TDCITEM@CToDoCtrlMgr@@QAEXXZ 004b29d2 f i ToDoCtrlMgr.obj
 0001:000b1a30       ?IsPristine@CToDoCtrlMgr@@QBEHH@Z 004b2a30 f   ToDoCtrlMgr.obj
 0001:000b1a5a       ?IsLoaded@CToDoCtrlMgr@@QBEHH@Z 004b2a5a f   ToDoCtrlMgr.obj
 0001:000b1a69       ?IsModified@CToDoCtrlMgr@@QBEHH@Z 004b2a69 f   ToDoCtrlMgr.obj
 0001:000b1a7c       ?SetLoaded@CToDoCtrlMgr@@QAEXHH@Z 004b2a7c f   ToDoCtrlMgr.obj
 0001:000b1aa3       ?RefreshTimeTracking@CToDoCtrlMgr@@QAEXH@Z 004b2aa3 f   ToDoCtrlMgr.obj
 0001:000b1aaf       ?RefreshFileLastModified@CToDoCtrlMgr@@QAEHH@Z 004b2aaf f   ToDoCtrlMgr.obj
 0001:000b1b22       ?RefreshReadOnlyStatus@CToDoCtrlMgr@@QAEHH@Z 004b2b22 f   ToDoCtrlMgr.obj
 0001:000b1bab       ?GetReadOnlyStatus@CToDoCtrlMgr@@QBEHH@Z 004b2bab f   ToDoCtrlMgr.obj
 0001:000b1bba       ?SetDueItemStatus@CToDoCtrlMgr@@QAEXHW4TDCM_DUESTATUS@@@Z 004b2bba f   ToDoCtrlMgr.obj
 0001:000b1bcd       ?ShowDueTaskNotification@CToDoCtrlMgr@@QAEHHPBGH@Z 004b2bcd f   ToDoCtrlMgr.obj
 0001:000b1d26       ?VerifyPassword@CToDoCtrlMgr@@QBEHH@Z 004b2d26 f   ToDoCtrlMgr.obj
 0001:000b1d94       ?GetDueItemStatus@CToDoCtrlMgr@@QBE?AW4TDCM_DUESTATUS@@H@Z 004b2d94 f   ToDoCtrlMgr.obj
 0001:000b1da3       ?GetLastCheckoutSucceeded@CToDoCtrlMgr@@QBEHH@Z 004b2da3 f   ToDoCtrlMgr.obj
 0001:000b1db2       ?SetLastCheckoutSucceeded@CToDoCtrlMgr@@QAEXHH@Z 004b2db2 f   ToDoCtrlMgr.obj
 0001:000b1dc5       ?RefreshLastCheckoutStatus@CToDoCtrlMgr@@QAEXH@Z 004b2dc5 f   ToDoCtrlMgr.obj
 0001:000b1deb       ?CanCheckOut@CToDoCtrlMgr@@QBEHH@Z 004b2deb f   ToDoCtrlMgr.obj
 0001:000b1e1c       ?CanCheckIn@CToDoCtrlMgr@@QBEHH@Z 004b2e1c f   ToDoCtrlMgr.obj
 0001:000b1e4d       ?CheckOut@CToDoCtrlMgr@@QAE?AW4TDC_FILE@@H@Z 004b2e4d f   ToDoCtrlMgr.obj
 0001:000b1e94       ?CheckOut@CToDoCtrlMgr@@QAE?AW4TDC_FILE@@HAAVCString@@@Z 004b2e94 f   ToDoCtrlMgr.obj
 0001:000b1efa       ?CheckIn@CToDoCtrlMgr@@QAE?AW4TDC_FILE@@H@Z 004b2efa f   ToDoCtrlMgr.obj
 0001:000b1f4d       ?CanCheckInOut@CToDoCtrlMgr@@QBEHH@Z 004b2f4d f   ToDoCtrlMgr.obj
 0001:000b1f99       ?GetElapsedMinutesSinceLastMod@CToDoCtrlMgr@@QBEHH@Z 004b2f99 f   ToDoCtrlMgr.obj
 0001:000b1feb       ?UpdateToDoCtrlReadOnlyUIState@CToDoCtrlMgr@@QAEXH@Z 004b2feb f   ToDoCtrlMgr.obj
 0001:000b2003       ?UpdateToDoCtrlReadOnlyUIState@CToDoCtrlMgr@@QAEXAAVCFilteredToDoCtrl@@@Z 004b3003 f   ToDoCtrlMgr.obj
 0001:000b208b       ?CheckNotifyReadonly@CToDoCtrlMgr@@QBEXH@Z 004b308b f   ToDoCtrlMgr.obj
 0001:000b216c       ?RemoveToDoCtrl@CToDoCtrlMgr@@QAEHHH@Z 004b316c f   ToDoCtrlMgr.obj
 0001:000b2336       ?GetSelToDoCtrl@CToDoCtrlMgr@@QBEHXZ 004b3336 f i ToDoCtrlMgr.obj
 0001:000b234c       ?AddToDoCtrl@CToDoCtrlMgr@@QAEHPAVCFilteredToDoCtrl@@PBUTSM_TASKLISTINFO@@H@Z 004b334c f   ToDoCtrlMgr.obj
 0001:000b23f0       ??0TDCITEM@CToDoCtrlMgr@@QAE@PAVCFilteredToDoCtrl@@HPBUTSM_TASKLISTINFO@@@Z 004b33f0 f i ToDoCtrlMgr.obj
 0001:000b24ec       ?MoveToDoCtrl@CToDoCtrlMgr@@QAEXHH@Z 004b34ec f   ToDoCtrlMgr.obj
 0001:000b2618       ??0TDCITEM@CToDoCtrlMgr@@QAE@ABU01@@Z 004b3618 f i ToDoCtrlMgr.obj
 0001:000b2673       ?CanMoveToDoCtrl@CToDoCtrlMgr@@QBEHHH@Z 004b3673 f   ToDoCtrlMgr.obj
 0001:000b2693       ?ArchiveDoneTasks@CToDoCtrlMgr@@QAEHH@Z 004b3693 f   ToDoCtrlMgr.obj
 0001:000b26ec       ?ArchiveSelectedTasks@CToDoCtrlMgr@@QAEHH@Z 004b36ec f   ToDoCtrlMgr.obj
 0001:000b2714       ?GetArchivePath@CToDoCtrlMgr@@QBE?AVCString@@H@Z 004b3714 f   ToDoCtrlMgr.obj
 0001:000b2779       ?SortToDoCtrlsByName@CToDoCtrlMgr@@QAEHXZ 004b3779 f   ToDoCtrlMgr.obj
 0001:000b27f3       ?SortProc@CToDoCtrlMgr@@KAHPBX0@Z 004b37f3 f   ToDoCtrlMgr.obj
 0001:000b284e       ?AreToDoCtrlsSorted@CToDoCtrlMgr@@IBEHXZ 004b384e f   ToDoCtrlMgr.obj
 0001:000b290a       ?GetAutoListData@CToDoCtrlMgr@@QBEXAAUTDCAUTOLISTDATA@@0@Z 004b390a f   ToDoCtrlMgr.obj
 0001:000b29bf       ?RemoveAll@TDCAUTOLISTDATA@@QAEXXZ 004b39bf f i ToDoCtrlMgr.obj
 0001:000b2a06       ?UpdateTabItemText@CToDoCtrlMgr@@QAE?AVCString@@H@Z 004b3a06 f   ToDoCtrlMgr.obj
 0001:000b2b00       ?AddToSourceControl@CToDoCtrlMgr@@QAEHHH@Z 004b3b00 f   ToDoCtrlMgr.obj
 0001:000b2b85       ?GetTabItemText@CToDoCtrlMgr@@QBE?AVCString@@H@Z 004b3b85 f   ToDoCtrlMgr.obj
 0001:000b2be9       ?UpdateTabItemImage@CToDoCtrlMgr@@IBEHH@Z 004b3be9 f   ToDoCtrlMgr.obj
 0001:000b2c72       ?GetTabItemTooltip@CToDoCtrlMgr@@QBE?AVCString@@H@Z 004b3c72 f   ToDoCtrlMgr.obj
 0001:000b2d26       ?IsCheckedOut@CToDoCtrlMgr@@QBEHH@Z 004b3d26 f   ToDoCtrlMgr.obj
 0001:000b2d39       ?IsSourceControlled@CToDoCtrlMgr@@QBEHH@Z 004b3d39 f   ToDoCtrlMgr.obj
 0001:000b2d4c       ?SetNeedsPreferenceUpdate@CToDoCtrlMgr@@QAEXHH@Z 004b3d4c f   ToDoCtrlMgr.obj
 0001:000b2d5f       ?GetNeedsPreferenceUpdate@CToDoCtrlMgr@@QBEHH@Z 004b3d5f f   ToDoCtrlMgr.obj
 0001:000b2d6e       ?SetAllNeedPreferenceUpdate@CToDoCtrlMgr@@QAEXHH@Z 004b3d6e f   ToDoCtrlMgr.obj
 0001:000b2d99       ?FindToDoCtrl@CToDoCtrlMgr@@QBEHPBG@Z 004b3d99 f   ToDoCtrlMgr.obj
 0001:000b2de3       ?FindToDoCtrl@CToDoCtrlMgr@@QBEHPAUHWND__@@@Z 004b3de3 f   ToDoCtrlMgr.obj
 0001:000b2e28       ?FindToDoCtrl@CToDoCtrlMgr@@QBEHPBVCFilteredToDoCtrl@@@Z 004b3e28 f   ToDoCtrlMgr.obj
 0001:000b2e40       ?FindToDoCtrl@CToDoCtrlMgr@@QBEHABUTSM_TASKLISTINFO@@@Z 004b3e40 f   ToDoCtrlMgr.obj
 0001:000b2eca       ?PreparePopupMenu@CToDoCtrlMgr@@QBEXAAVCMenu@@IH@Z 004b3eca f   ToDoCtrlMgr.obj
 0001:000b2f38       ?AnyIsModified@CToDoCtrlMgr@@QBEHXZ 004b3f38 f   ToDoCtrlMgr.obj
 0001:000b2f63       ?DoBackup@CToDoCtrlMgr@@QBEHH@Z 004b3f63 f   ToDoCtrlMgr.obj
 0001:000b3214       ?GetBackupLocation@CPreferencesDlg@@QBE?AVCString@@PBG@Z 004b4214 f i ToDoCtrlMgr.obj
 0001:000b3234       ?CreateBackup@CToDoCtrlMgr@@KAHABVCString@@0H@Z 004b4234 f   ToDoCtrlMgr.obj
 0001:000b35cf       ?Add@?$CArray@UTDCITEM@CToDoCtrlMgr@@AAU12@@@QAEHAAUTDCITEM@CToDoCtrlMgr@@@Z 004b45cf f i ToDoCtrlMgr.obj
 0001:000b35fc       ??A?$CArray@UTDCITEM@CToDoCtrlMgr@@AAU12@@@QBE?AUTDCITEM@CToDoCtrlMgr@@H@Z 004b45fc f i ToDoCtrlMgr.obj
 0001:000b3616       ?InsertAt@?$CArray@UTDCITEM@CToDoCtrlMgr@@AAU12@@@QAEXHAAUTDCITEM@CToDoCtrlMgr@@H@Z 004b4616 f i ToDoCtrlMgr.obj
 0001:000b36d9       ?RemoveAt@?$CArray@UTDCITEM@CToDoCtrlMgr@@AAU12@@@QAEXHH@Z 004b46d9 f i ToDoCtrlMgr.obj
 0001:000b3753       ??1?$CArray@UTDCITEM@CToDoCtrlMgr@@AAU12@@@UAE@XZ 004b4753 f i ToDoCtrlMgr.obj
 0001:000b37b3       ?Serialize@?$CArray@UTDCITEM@CToDoCtrlMgr@@AAU12@@@UAEXAAVCArchive@@@Z 004b47b3 f i ToDoCtrlMgr.obj
 0001:000b37f2       ?Serialize@?$CMap@KKHH@@UAEXAAVCArchive@@@Z 004b47f2 f i ToDoCtrlMgr.obj
 0001:000b37f2       ?Serialize@?$CMap@KKKK@@UAEXAAVCArchive@@@Z 004b47f2 f i ToDoCtrlMgr.obj
 0001:000b37f2       ?Serialize@?$CMap@PAVCFilteredToDoCtrl@@PAV1@PAVCBrowserDlg@@PAV2@@@UAEXAAVCArchive@@@Z 004b47f2 f i ToDoCtrlMgr.obj
 0001:000b389c       ??_G?$CArray@UTDCITEM@CToDoCtrlMgr@@AAU12@@@UAEPAXI@Z 004b489c f i ToDoCtrlMgr.obj
 0001:000b389c       ??_E?$CArray@UTDCITEM@CToDoCtrlMgr@@AAU12@@@UAEPAXI@Z 004b489c f i ToDoCtrlMgr.obj
 0001:000b38b8       ??4TDCITEM@CToDoCtrlMgr@@QAEAAU01@ABU01@@Z 004b48b8 f i ToDoCtrlMgr.obj
