; Listing generated by Microsoft (R) Optimizing Compiler Version 16.00.40219.01 

	TITLE	D:\_code\RTFContentCtrl\CreateFileLinkDlg.cpp
	.686P
	.XMM
	include listing.inc
	.model	flat

INCLUDELIB MSVCRTD
INCLUDELIB OLDNAMES

_DATA	SEGMENT
_THIS_FILE DB	'CreateFileLinkDlg.cpp', 00H
_DATA	ENDS
CONST	SEGMENT
$SG171208 DB	'W', 00H, 'M', 00H, '_', 00H, 'I', 00H, 'C', 00H, 'C', 00H
	DB	'_', 00H, 'W', 00H, 'A', 00H, 'N', 00H, 'T', 00H, 'S', 00H, 'P'
	DB	00H, 'E', 00H, 'L', 00H, 'L', 00H, 'C', 00H, 'H', 00H, 'E', 00H
	DB	'C', 00H, 'K', 00H, 00H, 00H
$SG171213 DB	'W', 00H, 'M', 00H, '_', 00H, 'I', 00H, 'C', 00H, 'C', 00H
	DB	'_', 00H, 'C', 00H, 'O', 00H, 'M', 00H, 'M', 00H, 'E', 00H, 'N'
	DB	00H, 'T', 00H, 'S', 00H, 'C', 00H, 'H', 00H, 'A', 00H, 'N', 00H
	DB	'G', 00H, 'E', 00H, 00H, 00H
$SG171218 DB	'W', 00H, 'M', 00H, '_', 00H, 'I', 00H, 'C', 00H, 'C', 00H
	DB	'_', 00H, 'C', 00H, 'O', 00H, 'M', 00H, 'M', 00H, 'E', 00H, 'N'
	DB	00H, 'T', 00H, 'S', 00H, 'K', 00H, 'I', 00H, 'L', 00H, 'L', 00H
	DB	'F', 00H, 'O', 00H, 'C', 00H, 'U', 00H, 'S', 00H, 00H, 00H
	ORG $+2
$SG171240 DB	'CreateContentInterface', 00H
	ORG $+1
$SG171245 DB	'GetInterfaceVersion', 00H
$SG171258 DB	'CreateContentInterface', 00H
	ORG $+1
$SG171336 DB	'8', 00H, '4', 00H, '9', 00H, 'C', 00H, 'F', 00H, '9', 00H
	DB	'8', 00H, '8', 00H, '-', 00H, '7', 00H, '9', 00H, 'F', 00H, 'E'
	DB	00H, '-', 00H, '4', 00H, '1', 00H, '8', 00H, 'A', 00H, '-', 00H
	DB	'A', 00H, '4', 00H, '0', 00H, 'D', 00H, '-', 00H, '0', 00H, '1'
	DB	00H, 'F', 00H, 'E', 00H, '3', 00H, 'A', 00H, 'F', 00H, 'C', 00H
	DB	'A', 00H, 'B', 00H, '2', 00H, 'C', 00H, 00H, 00H
	ORG $+2
_RTF_TYPEID DD	FLAT:$SG171336
$SG172942 DB	'.', 00H, '.', 00H, '.', 00H, '/', 00H, '%', 00H, 's', 00H
	DB	00H, 00H
	ORG $+2
$SG172943 DB	'.', 00H, '.', 00H, '.', 00H, 00H, 00H
CONST	ENDS
PUBLIC	??_7CCreateFileLinkDlg@@6B@			; CCreateFileLinkDlg::`vftable'
PUBLIC	??0CCreateFileLinkDlg@@QAE@PB_WW4RE_PASTE@@HPAVCWnd@@@Z ; CCreateFileLinkDlg::CCreateFileLinkDlg
PUBLIC	??_R4CCreateFileLinkDlg@@6B@			; CCreateFileLinkDlg::`RTTI Complete Object Locator'
PUBLIC	??_R0?AVCCreateFileLinkDlg@@@8			; CCreateFileLinkDlg `RTTI Type Descriptor'
PUBLIC	??_R3CCreateFileLinkDlg@@8			; CCreateFileLinkDlg::`RTTI Class Hierarchy Descriptor'
PUBLIC	??_R2CCreateFileLinkDlg@@8			; CCreateFileLinkDlg::`RTTI Base Class Array'
PUBLIC	??_R1A@?0A@EA@CCreateFileLinkDlg@@8		; CCreateFileLinkDlg::`RTTI Base Class Descriptor at (0,-1,0,64)'
PUBLIC	??_R1A@?0A@EA@CDialog@@8			; CDialog::`RTTI Base Class Descriptor at (0,-1,0,64)'
PUBLIC	??_R0?AVCDialog@@@8				; CDialog `RTTI Type Descriptor'
PUBLIC	??_R3CDialog@@8					; CDialog::`RTTI Class Hierarchy Descriptor'
PUBLIC	??_R2CDialog@@8					; CDialog::`RTTI Base Class Array'
PUBLIC	??_R1A@?0A@EA@CWnd@@8				; CWnd::`RTTI Base Class Descriptor at (0,-1,0,64)'
PUBLIC	??_R0?AVCWnd@@@8				; CWnd `RTTI Type Descriptor'
PUBLIC	??_R3CWnd@@8					; CWnd::`RTTI Class Hierarchy Descriptor'
PUBLIC	??_R2CWnd@@8					; CWnd::`RTTI Base Class Array'
PUBLIC	??_R1A@?0A@EA@CCmdTarget@@8			; CCmdTarget::`RTTI Base Class Descriptor at (0,-1,0,64)'
PUBLIC	??_R0?AVCCmdTarget@@@8				; CCmdTarget `RTTI Type Descriptor'
PUBLIC	??_R3CCmdTarget@@8				; CCmdTarget::`RTTI Class Hierarchy Descriptor'
PUBLIC	??_R2CCmdTarget@@8				; CCmdTarget::`RTTI Base Class Array'
PUBLIC	??_R1A@?0A@EA@CObject@@8			; CObject::`RTTI Base Class Descriptor at (0,-1,0,64)'
PUBLIC	??_R0?AVCObject@@@8				; CObject `RTTI Type Descriptor'
PUBLIC	??_R3CObject@@8					; CObject::`RTTI Class Hierarchy Descriptor'
PUBLIC	??_R2CObject@@8					; CObject::`RTTI Base Class Array'
PUBLIC	?GetMessageMap@CCreateFileLinkDlg@@MBEPBUAFX_MSGMAP@@XZ ; CCreateFileLinkDlg::GetMessageMap
PUBLIC	?DoDataExchange@CCreateFileLinkDlg@@MAEXPAVCDataExchange@@@Z ; CCreateFileLinkDlg::DoDataExchange
PUBLIC	?OnInitDialog@CCreateFileLinkDlg@@MAEHXZ	; CCreateFileLinkDlg::OnInitDialog
EXTRN	??1CDialog@@UAE@XZ:PROC				; CDialog::~CDialog
EXTRN	__imp_??0?$CStringT@_WV?$StrTraitMFC_DLL@_WV?$ChTraitsCRT@_W@ATL@@@@@ATL@@QAE@PB_W@Z:PROC
EXTRN	??0CDialog@@QAE@IPAVCWnd@@@Z:PROC		; CDialog::CDialog
EXTRN	___security_cookie:DWORD
EXTRN	___CxxFrameHandler3:PROC
EXTRN	@__security_check_cookie@4:PROC
EXTRN	__RTC_CheckEsp:PROC
EXTRN	__RTC_Shutdown:PROC
EXTRN	__RTC_InitBase:PROC
EXTRN	??_7type_info@@6B@:QWORD			; type_info::`vftable'
EXTRN	?GetRuntimeClass@CDialog@@UBEPAUCRuntimeClass@@XZ:PROC ; CDialog::GetRuntimeClass
EXTRN	??_ECCreateFileLinkDlg@@UAEPAXI@Z:PROC		; CCreateFileLinkDlg::`vector deleting destructor'
EXTRN	?Serialize@CObject@@UAEXAAVCArchive@@@Z:PROC	; CObject::Serialize
EXTRN	?AssertValid@CDialog@@UBEXXZ:PROC		; CDialog::AssertValid
EXTRN	?Dump@CDialog@@UBEXAAVCDumpContext@@@Z:PROC	; CDialog::Dump
EXTRN	?OnCmdMsg@CDialog@@UAEHIHPAXPAUAFX_CMDHANDLERINFO@@@Z:PROC ; CDialog::OnCmdMsg
EXTRN	?OnFinalRelease@CWnd@@UAEXXZ:PROC		; CWnd::OnFinalRelease
EXTRN	?IsInvokeAllowed@CCmdTarget@@UAEHJ@Z:PROC	; CCmdTarget::IsInvokeAllowed
EXTRN	?GetDispatchIID@CCmdTarget@@UAEHPAU_GUID@@@Z:PROC ; CCmdTarget::GetDispatchIID
EXTRN	?GetTypeInfoCount@CCmdTarget@@UAEIXZ:PROC	; CCmdTarget::GetTypeInfoCount
EXTRN	?GetTypeLibCache@CCmdTarget@@UAEPAVCTypeLibCache@@XZ:PROC ; CCmdTarget::GetTypeLibCache
EXTRN	?GetTypeLib@CCmdTarget@@UAEJKPAPAUITypeLib@@@Z:PROC ; CCmdTarget::GetTypeLib
EXTRN	?GetCommandMap@CCmdTarget@@MBEPBUAFX_OLECMDMAP@@XZ:PROC ; CCmdTarget::GetCommandMap
EXTRN	?GetDispatchMap@CCmdTarget@@MBEPBUAFX_DISPMAP@@XZ:PROC ; CCmdTarget::GetDispatchMap
EXTRN	?GetConnectionMap@CCmdTarget@@MBEPBUAFX_CONNECTIONMAP@@XZ:PROC ; CCmdTarget::GetConnectionMap
EXTRN	?GetInterfaceMap@CWnd@@MBEPBUAFX_INTERFACEMAP@@XZ:PROC ; CWnd::GetInterfaceMap
EXTRN	?GetEventSinkMap@CCmdTarget@@MBEPBUAFX_EVENTSINKMAP@@XZ:PROC ; CCmdTarget::GetEventSinkMap
EXTRN	?OnCreateAggregates@CCmdTarget@@UAEHXZ:PROC	; CCmdTarget::OnCreateAggregates
EXTRN	?GetInterfaceHook@CCmdTarget@@UAEPAUIUnknown@@PBX@Z:PROC ; CCmdTarget::GetInterfaceHook
EXTRN	?GetExtraConnectionPoints@CCmdTarget@@MAEHPAVCPtrArray@@@Z:PROC ; CCmdTarget::GetExtraConnectionPoints
EXTRN	?GetConnectionHook@CCmdTarget@@MAEPAUIConnectionPoint@@ABU_GUID@@@Z:PROC ; CCmdTarget::GetConnectionHook
EXTRN	?PreSubclassWindow@CWnd@@UAEXXZ:PROC		; CWnd::PreSubclassWindow
EXTRN	?Create@CWnd@@UAEHPB_W0KABUtagRECT@@PAV1@IPAUCCreateContext@@@Z:PROC ; CWnd::Create
EXTRN	?CreateEx@CWnd@@UAEHKPB_W0KABUtagRECT@@PAV1@IPAX@Z:PROC ; CWnd::CreateEx
EXTRN	?CreateEx@CWnd@@UAEHKPB_W0KHHHHPAUHWND__@@PAUHMENU__@@PAX@Z:PROC ; CWnd::CreateEx
EXTRN	?DestroyWindow@CWnd@@UAEHXZ:PROC		; CWnd::DestroyWindow
EXTRN	?PreCreateWindow@CWnd@@UAEHAAUtagCREATESTRUCTW@@@Z:PROC ; CWnd::PreCreateWindow
EXTRN	?CalcWindowRect@CWnd@@UAEXPAUtagRECT@@I@Z:PROC	; CWnd::CalcWindowRect
EXTRN	?GetMenu@CWnd@@UBEPAVCMenu@@XZ:PROC		; CWnd::GetMenu
EXTRN	?SetMenu@CWnd@@UAEHPAVCMenu@@@Z:PROC		; CWnd::SetMenu
EXTRN	?OnToolHitTest@CWnd@@UBEHVCPoint@@PAUtagTOOLINFOW@@@Z:PROC ; CWnd::OnToolHitTest
EXTRN	?GetScrollBarCtrl@CWnd@@UBEPAVCScrollBar@@H@Z:PROC ; CWnd::GetScrollBarCtrl
EXTRN	?WinHelpW@CWnd@@UAEXKI@Z:PROC			; CWnd::WinHelpW
EXTRN	?HtmlHelpW@CWnd@@UAEXKI@Z:PROC			; CWnd::HtmlHelpW
EXTRN	?WinHelpInternal@CWnd@@UAEXKI@Z:PROC		; CWnd::WinHelpInternal
EXTRN	?ContinueModal@CWnd@@UAEHXZ:PROC		; CWnd::ContinueModal
EXTRN	?EndModalLoop@CWnd@@UAEXH@Z:PROC		; CWnd::EndModalLoop
EXTRN	?OnDrawIconicThumbnailOrLivePreview@CWnd@@UAEXAAVCDC@@VCRect@@VCSize@@HAAH@Z:PROC ; CWnd::OnDrawIconicThumbnailOrLivePreview
EXTRN	?EnsureStdObj@CWnd@@UAEJXZ:PROC			; CWnd::EnsureStdObj
EXTRN	?get_accParent@CWnd@@UAEJPAPAUIDispatch@@@Z:PROC ; CWnd::get_accParent
EXTRN	?get_accChildCount@CWnd@@UAEJPAJ@Z:PROC		; CWnd::get_accChildCount
EXTRN	?get_accChild@CWnd@@UAEJUtagVARIANT@@PAPAUIDispatch@@@Z:PROC ; CWnd::get_accChild
EXTRN	?get_accName@CWnd@@UAEJUtagVARIANT@@PAPA_W@Z:PROC ; CWnd::get_accName
EXTRN	?get_accValue@CWnd@@UAEJUtagVARIANT@@PAPA_W@Z:PROC ; CWnd::get_accValue
EXTRN	?get_accDescription@CWnd@@UAEJUtagVARIANT@@PAPA_W@Z:PROC ; CWnd::get_accDescription
EXTRN	?get_accRole@CWnd@@UAEJUtagVARIANT@@PAU2@@Z:PROC ; CWnd::get_accRole
EXTRN	?get_accState@CWnd@@UAEJUtagVARIANT@@PAU2@@Z:PROC ; CWnd::get_accState
EXTRN	?get_accHelp@CWnd@@UAEJUtagVARIANT@@PAPA_W@Z:PROC ; CWnd::get_accHelp
EXTRN	?get_accHelpTopic@CWnd@@UAEJPAPA_WUtagVARIANT@@PAJ@Z:PROC ; CWnd::get_accHelpTopic
EXTRN	?get_accKeyboardShortcut@CWnd@@UAEJUtagVARIANT@@PAPA_W@Z:PROC ; CWnd::get_accKeyboardShortcut
EXTRN	?get_accFocus@CWnd@@UAEJPAUtagVARIANT@@@Z:PROC	; CWnd::get_accFocus
EXTRN	?get_accSelection@CWnd@@UAEJPAUtagVARIANT@@@Z:PROC ; CWnd::get_accSelection
EXTRN	?get_accDefaultAction@CWnd@@UAEJUtagVARIANT@@PAPA_W@Z:PROC ; CWnd::get_accDefaultAction
EXTRN	?accSelect@CWnd@@UAEJJUtagVARIANT@@@Z:PROC	; CWnd::accSelect
EXTRN	?accLocation@CWnd@@UAEJPAJ000UtagVARIANT@@@Z:PROC ; CWnd::accLocation
EXTRN	?accNavigate@CWnd@@UAEJJUtagVARIANT@@PAU2@@Z:PROC ; CWnd::accNavigate
EXTRN	?accHitTest@CWnd@@UAEJJJPAUtagVARIANT@@@Z:PROC	; CWnd::accHitTest
EXTRN	?accDoDefaultAction@CWnd@@UAEJUtagVARIANT@@@Z:PROC ; CWnd::accDoDefaultAction
EXTRN	?put_accName@CWnd@@UAEJUtagVARIANT@@PA_W@Z:PROC	; CWnd::put_accName
EXTRN	?put_accValue@CWnd@@UAEJUtagVARIANT@@PA_W@Z:PROC ; CWnd::put_accValue
EXTRN	?SetProxy@CWnd@@UAEJPAUIAccessibleProxy@@@Z:PROC ; CWnd::SetProxy
EXTRN	?CreateAccessibleProxy@CWnd@@UAEJIJPAJ@Z:PROC	; CWnd::CreateAccessibleProxy
EXTRN	?OnCommand@CWnd@@MAEHIJ@Z:PROC			; CWnd::OnCommand
EXTRN	?OnNotify@CWnd@@MAEHIJPAJ@Z:PROC		; CWnd::OnNotify
EXTRN	?GetSuperWndProcAddr@CWnd@@MAEPAP6GJPAUHWND__@@IIJ@ZXZ:PROC ; CWnd::GetSuperWndProcAddr
EXTRN	?BeginModalState@CWnd@@UAEXXZ:PROC		; CWnd::BeginModalState
EXTRN	?EndModalState@CWnd@@UAEXXZ:PROC		; CWnd::EndModalState
EXTRN	?PreTranslateMessage@CDialog@@UAEHPAUtagMSG@@@Z:PROC ; CDialog::PreTranslateMessage
EXTRN	?OnAmbientProperty@CWnd@@UAEHPAVCOleControlSite@@JPAUtagVARIANT@@@Z:PROC ; CWnd::OnAmbientProperty
EXTRN	?WindowProc@CWnd@@MAEJIIJ@Z:PROC		; CWnd::WindowProc
EXTRN	?OnWndMsg@CWnd@@MAEHIIJPAJ@Z:PROC		; CWnd::OnWndMsg
EXTRN	?DefWindowProcW@CWnd@@MAEJIIJ@Z:PROC		; CWnd::DefWindowProcW
EXTRN	?PostNcDestroy@CWnd@@MAEXXZ:PROC		; CWnd::PostNcDestroy
EXTRN	?OnChildNotify@CWnd@@MAEHIIJPAJ@Z:PROC		; CWnd::OnChildNotify
EXTRN	?OnTouchInputs@CWnd@@MAEHIPAUtagTOUCHINPUT@@@Z:PROC ; CWnd::OnTouchInputs
EXTRN	?OnTouchInput@CWnd@@MAEHVCPoint@@HHPAUtagTOUCHINPUT@@@Z:PROC ; CWnd::OnTouchInput
EXTRN	?GetGestureStatus@CWnd@@MAEKVCPoint@@@Z:PROC	; CWnd::GetGestureStatus
EXTRN	?OnGestureZoom@CWnd@@MAEHVCPoint@@J@Z:PROC	; CWnd::OnGestureZoom
EXTRN	?OnGesturePan@CWnd@@MAEHVCPoint@@0@Z:PROC	; CWnd::OnGesturePan
EXTRN	?OnGestureRotate@CWnd@@MAEHVCPoint@@N@Z:PROC	; CWnd::OnGestureRotate
EXTRN	?OnGestureTwoFingerTap@CWnd@@MAEHVCPoint@@@Z:PROC ; CWnd::OnGestureTwoFingerTap
EXTRN	?OnGesturePressAndTap@CWnd@@MAEHVCPoint@@J@Z:PROC ; CWnd::OnGesturePressAndTap
EXTRN	?CheckAutoCenter@CDialog@@UAEHXZ:PROC		; CDialog::CheckAutoCenter
EXTRN	?IsFrameWnd@CWnd@@UBEHXZ:PROC			; CWnd::IsFrameWnd
EXTRN	?CreateControlContainer@CWnd@@MAEHPAPAVCOleControlContainer@@@Z:PROC ; CWnd::CreateControlContainer
EXTRN	?CreateControlSite@CWnd@@MAEHPAVCOleControlContainer@@PAPAVCOleControlSite@@IABU_GUID@@@Z:PROC ; CWnd::CreateControlSite
EXTRN	?SetOccDialogInfo@CDialog@@MAEHPAU_AFX_OCC_DIALOG_INFO@@@Z:PROC ; CDialog::SetOccDialogInfo
EXTRN	?GetOccDialogInfo@CDialog@@MAEPAU_AFX_OCC_DIALOG_INFO@@XZ:PROC ; CDialog::GetOccDialogInfo
EXTRN	?Create@CDialog@@UAEHIPAVCWnd@@@Z:PROC		; CDialog::Create
EXTRN	?Create@CDialog@@UAEHPB_WPAVCWnd@@@Z:PROC	; CDialog::Create
EXTRN	?CreateIndirect@CDialog@@UAEHPAXPAVCWnd@@@Z:PROC ; CDialog::CreateIndirect
EXTRN	?CreateIndirect@CDialog@@UAEHPBUDLGTEMPLATE@@PAVCWnd@@PAX@Z:PROC ; CDialog::CreateIndirect
EXTRN	?DoModal@CDialog@@UAEHXZ:PROC			; CDialog::DoModal
EXTRN	?OnSetFont@CDialog@@UAEXPAVCFont@@@Z:PROC	; CDialog::OnSetFont
EXTRN	?OnOK@CDialog@@MAEXXZ:PROC			; CDialog::OnOK
EXTRN	?OnCancel@CDialog@@MAEXXZ:PROC			; CDialog::OnCancel
EXTRN	?PreInitDialog@CDialog@@MAEXXZ:PROC		; CDialog::PreInitDialog
;	COMDAT ??_R2CObject@@8
; File d:\_code\rtfcontentctrl\createfilelinkdlg.cpp
rdata$r	SEGMENT
??_R2CObject@@8 DD FLAT:??_R1A@?0A@EA@CObject@@8	; CObject::`RTTI Base Class Array'
rdata$r	ENDS
;	COMDAT ??_R3CObject@@8
rdata$r	SEGMENT
??_R3CObject@@8 DD 00H					; CObject::`RTTI Class Hierarchy Descriptor'
	DD	00H
	DD	01H
	DD	FLAT:??_R2CObject@@8
rdata$r	ENDS
;	COMDAT ??_R0?AVCObject@@@8
_DATA	SEGMENT
??_R0?AVCObject@@@8 DD FLAT:??_7type_info@@6B@		; CObject `RTTI Type Descriptor'
	DD	00H
	DB	'.?AVCObject@@', 00H
_DATA	ENDS
;	COMDAT ??_R1A@?0A@EA@CObject@@8
rdata$r	SEGMENT
??_R1A@?0A@EA@CObject@@8 DD FLAT:??_R0?AVCObject@@@8	; CObject::`RTTI Base Class Descriptor at (0,-1,0,64)'
	DD	00H
	DD	00H
	DD	0ffffffffH
	DD	00H
	DD	040H
	DD	FLAT:??_R3CObject@@8
rdata$r	ENDS
;	COMDAT ??_R2CCmdTarget@@8
rdata$r	SEGMENT
??_R2CCmdTarget@@8 DD FLAT:??_R1A@?0A@EA@CCmdTarget@@8	; CCmdTarget::`RTTI Base Class Array'
	DD	FLAT:??_R1A@?0A@EA@CObject@@8
rdata$r	ENDS
;	COMDAT ??_R3CCmdTarget@@8
rdata$r	SEGMENT
??_R3CCmdTarget@@8 DD 00H				; CCmdTarget::`RTTI Class Hierarchy Descriptor'
	DD	00H
	DD	02H
	DD	FLAT:??_R2CCmdTarget@@8
rdata$r	ENDS
;	COMDAT ??_R0?AVCCmdTarget@@@8
_DATA	SEGMENT
??_R0?AVCCmdTarget@@@8 DD FLAT:??_7type_info@@6B@	; CCmdTarget `RTTI Type Descriptor'
	DD	00H
	DB	'.?AVCCmdTarget@@', 00H
_DATA	ENDS
;	COMDAT ??_R1A@?0A@EA@CCmdTarget@@8
rdata$r	SEGMENT
??_R1A@?0A@EA@CCmdTarget@@8 DD FLAT:??_R0?AVCCmdTarget@@@8 ; CCmdTarget::`RTTI Base Class Descriptor at (0,-1,0,64)'
	DD	01H
	DD	00H
	DD	0ffffffffH
	DD	00H
	DD	040H
	DD	FLAT:??_R3CCmdTarget@@8
rdata$r	ENDS
;	COMDAT ??_R2CWnd@@8
rdata$r	SEGMENT
??_R2CWnd@@8 DD	FLAT:??_R1A@?0A@EA@CWnd@@8		; CWnd::`RTTI Base Class Array'
	DD	FLAT:??_R1A@?0A@EA@CCmdTarget@@8
	DD	FLAT:??_R1A@?0A@EA@CObject@@8
rdata$r	ENDS
;	COMDAT ??_R3CWnd@@8
rdata$r	SEGMENT
??_R3CWnd@@8 DD	00H					; CWnd::`RTTI Class Hierarchy Descriptor'
	DD	00H
	DD	03H
	DD	FLAT:??_R2CWnd@@8
rdata$r	ENDS
;	COMDAT ??_R0?AVCWnd@@@8
_DATA	SEGMENT
??_R0?AVCWnd@@@8 DD FLAT:??_7type_info@@6B@		; CWnd `RTTI Type Descriptor'
	DD	00H
	DB	'.?AVCWnd@@', 00H
_DATA	ENDS
;	COMDAT ??_R1A@?0A@EA@CWnd@@8
rdata$r	SEGMENT
??_R1A@?0A@EA@CWnd@@8 DD FLAT:??_R0?AVCWnd@@@8		; CWnd::`RTTI Base Class Descriptor at (0,-1,0,64)'
	DD	02H
	DD	00H
	DD	0ffffffffH
	DD	00H
	DD	040H
	DD	FLAT:??_R3CWnd@@8
rdata$r	ENDS
;	COMDAT ??_R2CDialog@@8
rdata$r	SEGMENT
??_R2CDialog@@8 DD FLAT:??_R1A@?0A@EA@CDialog@@8	; CDialog::`RTTI Base Class Array'
	DD	FLAT:??_R1A@?0A@EA@CWnd@@8
	DD	FLAT:??_R1A@?0A@EA@CCmdTarget@@8
	DD	FLAT:??_R1A@?0A@EA@CObject@@8
rdata$r	ENDS
;	COMDAT ??_R3CDialog@@8
rdata$r	SEGMENT
??_R3CDialog@@8 DD 00H					; CDialog::`RTTI Class Hierarchy Descriptor'
	DD	00H
	DD	04H
	DD	FLAT:??_R2CDialog@@8
rdata$r	ENDS
;	COMDAT ??_R0?AVCDialog@@@8
_DATA	SEGMENT
??_R0?AVCDialog@@@8 DD FLAT:??_7type_info@@6B@		; CDialog `RTTI Type Descriptor'
	DD	00H
	DB	'.?AVCDialog@@', 00H
_DATA	ENDS
;	COMDAT ??_R1A@?0A@EA@CDialog@@8
rdata$r	SEGMENT
??_R1A@?0A@EA@CDialog@@8 DD FLAT:??_R0?AVCDialog@@@8	; CDialog::`RTTI Base Class Descriptor at (0,-1,0,64)'
	DD	03H
	DD	00H
	DD	0ffffffffH
	DD	00H
	DD	040H
	DD	FLAT:??_R3CDialog@@8
rdata$r	ENDS
;	COMDAT ??_R1A@?0A@EA@CCreateFileLinkDlg@@8
rdata$r	SEGMENT
??_R1A@?0A@EA@CCreateFileLinkDlg@@8 DD FLAT:??_R0?AVCCreateFileLinkDlg@@@8 ; CCreateFileLinkDlg::`RTTI Base Class Descriptor at (0,-1,0,64)'
	DD	04H
	DD	00H
	DD	0ffffffffH
	DD	00H
	DD	040H
	DD	FLAT:??_R3CCreateFileLinkDlg@@8
rdata$r	ENDS
;	COMDAT ??_R2CCreateFileLinkDlg@@8
rdata$r	SEGMENT
??_R2CCreateFileLinkDlg@@8 DD FLAT:??_R1A@?0A@EA@CCreateFileLinkDlg@@8 ; CCreateFileLinkDlg::`RTTI Base Class Array'
	DD	FLAT:??_R1A@?0A@EA@CDialog@@8
	DD	FLAT:??_R1A@?0A@EA@CWnd@@8
	DD	FLAT:??_R1A@?0A@EA@CCmdTarget@@8
	DD	FLAT:??_R1A@?0A@EA@CObject@@8
rdata$r	ENDS
;	COMDAT ??_R3CCreateFileLinkDlg@@8
rdata$r	SEGMENT
??_R3CCreateFileLinkDlg@@8 DD 00H			; CCreateFileLinkDlg::`RTTI Class Hierarchy Descriptor'
	DD	00H
	DD	05H
	DD	FLAT:??_R2CCreateFileLinkDlg@@8
rdata$r	ENDS
;	COMDAT ??_R0?AVCCreateFileLinkDlg@@@8
_DATA	SEGMENT
??_R0?AVCCreateFileLinkDlg@@@8 DD FLAT:??_7type_info@@6B@ ; CCreateFileLinkDlg `RTTI Type Descriptor'
	DD	00H
	DB	'.?AVCCreateFileLinkDlg@@', 00H
_DATA	ENDS
;	COMDAT ??_R4CCreateFileLinkDlg@@6B@
rdata$r	SEGMENT
??_R4CCreateFileLinkDlg@@6B@ DD 00H			; CCreateFileLinkDlg::`RTTI Complete Object Locator'
	DD	00H
	DD	00H
	DD	FLAT:??_R0?AVCCreateFileLinkDlg@@@8
	DD	FLAT:??_R3CCreateFileLinkDlg@@8
rdata$r	ENDS
;	COMDAT ??_7CCreateFileLinkDlg@@6B@
CONST	SEGMENT
??_7CCreateFileLinkDlg@@6B@ DD FLAT:??_R4CCreateFileLinkDlg@@6B@ ; CCreateFileLinkDlg::`vftable'
	DD	FLAT:?GetRuntimeClass@CDialog@@UBEPAUCRuntimeClass@@XZ
	DD	FLAT:??_ECCreateFileLinkDlg@@UAEPAXI@Z
	DD	FLAT:?Serialize@CObject@@UAEXAAVCArchive@@@Z
	DD	FLAT:?AssertValid@CDialog@@UBEXXZ
	DD	FLAT:?Dump@CDialog@@UBEXAAVCDumpContext@@@Z
	DD	FLAT:?OnCmdMsg@CDialog@@UAEHIHPAXPAUAFX_CMDHANDLERINFO@@@Z
	DD	FLAT:?OnFinalRelease@CWnd@@UAEXXZ
	DD	FLAT:?IsInvokeAllowed@CCmdTarget@@UAEHJ@Z
	DD	FLAT:?GetDispatchIID@CCmdTarget@@UAEHPAU_GUID@@@Z
	DD	FLAT:?GetTypeInfoCount@CCmdTarget@@UAEIXZ
	DD	FLAT:?GetTypeLibCache@CCmdTarget@@UAEPAVCTypeLibCache@@XZ
	DD	FLAT:?GetTypeLib@CCmdTarget@@UAEJKPAPAUITypeLib@@@Z
	DD	FLAT:?GetMessageMap@CCreateFileLinkDlg@@MBEPBUAFX_MSGMAP@@XZ
	DD	FLAT:?GetCommandMap@CCmdTarget@@MBEPBUAFX_OLECMDMAP@@XZ
	DD	FLAT:?GetDispatchMap@CCmdTarget@@MBEPBUAFX_DISPMAP@@XZ
	DD	FLAT:?GetConnectionMap@CCmdTarget@@MBEPBUAFX_CONNECTIONMAP@@XZ
	DD	FLAT:?GetInterfaceMap@CWnd@@MBEPBUAFX_INTERFACEMAP@@XZ
	DD	FLAT:?GetEventSinkMap@CCmdTarget@@MBEPBUAFX_EVENTSINKMAP@@XZ
	DD	FLAT:?OnCreateAggregates@CCmdTarget@@UAEHXZ
	DD	FLAT:?GetInterfaceHook@CCmdTarget@@UAEPAUIUnknown@@PBX@Z
	DD	FLAT:?GetExtraConnectionPoints@CCmdTarget@@MAEHPAVCPtrArray@@@Z
	DD	FLAT:?GetConnectionHook@CCmdTarget@@MAEPAUIConnectionPoint@@ABU_GUID@@@Z
	DD	FLAT:?PreSubclassWindow@CWnd@@UAEXXZ
	DD	FLAT:?Create@CWnd@@UAEHPB_W0KABUtagRECT@@PAV1@IPAUCCreateContext@@@Z
	DD	FLAT:?CreateEx@CWnd@@UAEHKPB_W0KABUtagRECT@@PAV1@IPAX@Z
	DD	FLAT:?CreateEx@CWnd@@UAEHKPB_W0KHHHHPAUHWND__@@PAUHMENU__@@PAX@Z
	DD	FLAT:?DestroyWindow@CWnd@@UAEHXZ
	DD	FLAT:?PreCreateWindow@CWnd@@UAEHAAUtagCREATESTRUCTW@@@Z
	DD	FLAT:?CalcWindowRect@CWnd@@UAEXPAUtagRECT@@I@Z
	DD	FLAT:?GetMenu@CWnd@@UBEPAVCMenu@@XZ
	DD	FLAT:?SetMenu@CWnd@@UAEHPAVCMenu@@@Z
	DD	FLAT:?OnToolHitTest@CWnd@@UBEHVCPoint@@PAUtagTOOLINFOW@@@Z
	DD	FLAT:?GetScrollBarCtrl@CWnd@@UBEPAVCScrollBar@@H@Z
	DD	FLAT:?WinHelpW@CWnd@@UAEXKI@Z
	DD	FLAT:?HtmlHelpW@CWnd@@UAEXKI@Z
	DD	FLAT:?WinHelpInternal@CWnd@@UAEXKI@Z
	DD	FLAT:?ContinueModal@CWnd@@UAEHXZ
	DD	FLAT:?EndModalLoop@CWnd@@UAEXH@Z
	DD	FLAT:?OnDrawIconicThumbnailOrLivePreview@CWnd@@UAEXAAVCDC@@VCRect@@VCSize@@HAAH@Z
	DD	FLAT:?EnsureStdObj@CWnd@@UAEJXZ
	DD	FLAT:?get_accParent@CWnd@@UAEJPAPAUIDispatch@@@Z
	DD	FLAT:?get_accChildCount@CWnd@@UAEJPAJ@Z
	DD	FLAT:?get_accChild@CWnd@@UAEJUtagVARIANT@@PAPAUIDispatch@@@Z
	DD	FLAT:?get_accName@CWnd@@UAEJUtagVARIANT@@PAPA_W@Z
	DD	FLAT:?get_accValue@CWnd@@UAEJUtagVARIANT@@PAPA_W@Z
	DD	FLAT:?get_accDescription@CWnd@@UAEJUtagVARIANT@@PAPA_W@Z
	DD	FLAT:?get_accRole@CWnd@@UAEJUtagVARIANT@@PAU2@@Z
	DD	FLAT:?get_accState@CWnd@@UAEJUtagVARIANT@@PAU2@@Z
	DD	FLAT:?get_accHelp@CWnd@@UAEJUtagVARIANT@@PAPA_W@Z
	DD	FLAT:?get_accHelpTopic@CWnd@@UAEJPAPA_WUtagVARIANT@@PAJ@Z
	DD	FLAT:?get_accKeyboardShortcut@CWnd@@UAEJUtagVARIANT@@PAPA_W@Z
	DD	FLAT:?get_accFocus@CWnd@@UAEJPAUtagVARIANT@@@Z
	DD	FLAT:?get_accSelection@CWnd@@UAEJPAUtagVARIANT@@@Z
	DD	FLAT:?get_accDefaultAction@CWnd@@UAEJUtagVARIANT@@PAPA_W@Z
	DD	FLAT:?accSelect@CWnd@@UAEJJUtagVARIANT@@@Z
	DD	FLAT:?accLocation@CWnd@@UAEJPAJ000UtagVARIANT@@@Z
	DD	FLAT:?accNavigate@CWnd@@UAEJJUtagVARIANT@@PAU2@@Z
	DD	FLAT:?accHitTest@CWnd@@UAEJJJPAUtagVARIANT@@@Z
	DD	FLAT:?accDoDefaultAction@CWnd@@UAEJUtagVARIANT@@@Z
	DD	FLAT:?put_accName@CWnd@@UAEJUtagVARIANT@@PA_W@Z
	DD	FLAT:?put_accValue@CWnd@@UAEJUtagVARIANT@@PA_W@Z
	DD	FLAT:?SetProxy@CWnd@@UAEJPAUIAccessibleProxy@@@Z
	DD	FLAT:?CreateAccessibleProxy@CWnd@@UAEJIJPAJ@Z
	DD	FLAT:?OnCommand@CWnd@@MAEHIJ@Z
	DD	FLAT:?OnNotify@CWnd@@MAEHIJPAJ@Z
	DD	FLAT:?GetSuperWndProcAddr@CWnd@@MAEPAP6GJPAUHWND__@@IIJ@ZXZ
	DD	FLAT:?DoDataExchange@CCreateFileLinkDlg@@MAEXPAVCDataExchange@@@Z
	DD	FLAT:?BeginModalState@CWnd@@UAEXXZ
	DD	FLAT:?EndModalState@CWnd@@UAEXXZ
	DD	FLAT:?PreTranslateMessage@CDialog@@UAEHPAUtagMSG@@@Z
	DD	FLAT:?OnAmbientProperty@CWnd@@UAEHPAVCOleControlSite@@JPAUtagVARIANT@@@Z
	DD	FLAT:?WindowProc@CWnd@@MAEJIIJ@Z
	DD	FLAT:?OnWndMsg@CWnd@@MAEHIIJPAJ@Z
	DD	FLAT:?DefWindowProcW@CWnd@@MAEJIIJ@Z
	DD	FLAT:?PostNcDestroy@CWnd@@MAEXXZ
	DD	FLAT:?OnChildNotify@CWnd@@MAEHIIJPAJ@Z
	DD	FLAT:?OnTouchInputs@CWnd@@MAEHIPAUtagTOUCHINPUT@@@Z
	DD	FLAT:?OnTouchInput@CWnd@@MAEHVCPoint@@HHPAUtagTOUCHINPUT@@@Z
	DD	FLAT:?GetGestureStatus@CWnd@@MAEKVCPoint@@@Z
	DD	FLAT:?OnGestureZoom@CWnd@@MAEHVCPoint@@J@Z
	DD	FLAT:?OnGesturePan@CWnd@@MAEHVCPoint@@0@Z
	DD	FLAT:?OnGestureRotate@CWnd@@MAEHVCPoint@@N@Z
	DD	FLAT:?OnGestureTwoFingerTap@CWnd@@MAEHVCPoint@@@Z
	DD	FLAT:?OnGesturePressAndTap@CWnd@@MAEHVCPoint@@J@Z
	DD	FLAT:?CheckAutoCenter@CDialog@@UAEHXZ
	DD	FLAT:?IsFrameWnd@CWnd@@UBEHXZ
	DD	FLAT:?CreateControlContainer@CWnd@@MAEHPAPAVCOleControlContainer@@@Z
	DD	FLAT:?CreateControlSite@CWnd@@MAEHPAVCOleControlContainer@@PAPAVCOleControlSite@@IABU_GUID@@@Z
	DD	FLAT:?SetOccDialogInfo@CDialog@@MAEHPAU_AFX_OCC_DIALOG_INFO@@@Z
	DD	FLAT:?GetOccDialogInfo@CDialog@@MAEPAU_AFX_OCC_DIALOG_INFO@@XZ
	DD	FLAT:?Create@CDialog@@UAEHIPAVCWnd@@@Z
	DD	FLAT:?Create@CDialog@@UAEHPB_WPAVCWnd@@@Z
	DD	FLAT:?CreateIndirect@CDialog@@UAEHPAXPAVCWnd@@@Z
	DD	FLAT:?CreateIndirect@CDialog@@UAEHPBUDLGTEMPLATE@@PAVCWnd@@PAX@Z
	DD	FLAT:?DoModal@CDialog@@UAEHXZ
	DD	FLAT:?OnInitDialog@CCreateFileLinkDlg@@MAEHXZ
	DD	FLAT:?OnSetFont@CDialog@@UAEXPAVCFont@@@Z
	DD	FLAT:?OnOK@CDialog@@MAEXXZ
	DD	FLAT:?OnCancel@CDialog@@MAEXXZ
	DD	FLAT:?PreInitDialog@CDialog@@MAEXXZ
CONST	ENDS
;	COMDAT xdata$x
xdata$x	SEGMENT
__unwindtable$??0CCreateFileLinkDlg@@QAE@PB_WW4RE_PASTE@@HPAVCWnd@@@Z DD 0ffffffffH
	DD	FLAT:__unwindfunclet$??0CCreateFileLinkDlg@@QAE@PB_WW4RE_PASTE@@HPAVCWnd@@@Z$0
__ehfuncinfo$??0CCreateFileLinkDlg@@QAE@PB_WW4RE_PASTE@@HPAVCWnd@@@Z DD 019930522H
	DD	01H
	DD	FLAT:__unwindtable$??0CCreateFileLinkDlg@@QAE@PB_WW4RE_PASTE@@HPAVCWnd@@@Z
	DD	2 DUP(00H)
	DD	2 DUP(00H)
	DD	00H
	DD	01H
xdata$x	ENDS
;	COMDAT rtc$TMZ
rtc$TMZ	SEGMENT
__RTC_Shutdown.rtc$TMZ DD FLAT:__RTC_Shutdown
rtc$TMZ	ENDS
;	COMDAT rtc$IMZ
rtc$IMZ	SEGMENT
__RTC_InitBase.rtc$IMZ DD FLAT:__RTC_InitBase
; Function compile flags: /Odtp /RTCsu
rtc$IMZ	ENDS
;	COMDAT ??0CCreateFileLinkDlg@@QAE@PB_WW4RE_PASTE@@HPAVCWnd@@@Z
_TEXT	SEGMENT
_this$ = -16						; size = 4
__$EHRec$ = -12						; size = 12
_szRefFile$ = 8						; size = 4
_nLinkOption$ = 12					; size = 4
_bDefault$ = 16						; size = 4
_pParent$ = 20						; size = 4
??0CCreateFileLinkDlg@@QAE@PB_WW4RE_PASTE@@HPAVCWnd@@@Z PROC ; CCreateFileLinkDlg::CCreateFileLinkDlg, COMDAT
; _this$ = ecx

; 28   : {

	push	ebp
	mov	ebp, esp
	push	-1
	push	__ehhandler$??0CCreateFileLinkDlg@@QAE@PB_WW4RE_PASTE@@HPAVCWnd@@@Z
	mov	eax, DWORD PTR fs:0
	push	eax
	push	ecx
	push	esi
	mov	DWORD PTR [ebp-16], -858993460		; ccccccccH
	mov	eax, DWORD PTR ___security_cookie
	xor	eax, ebp
	push	eax
	lea	eax, DWORD PTR __$EHRec$[ebp]
	mov	DWORD PTR fs:0, eax
	mov	DWORD PTR _this$[ebp], ecx
	mov	eax, DWORD PTR _pParent$[ebp]
	push	eax
	push	16005					; 00003e85H
	mov	ecx, DWORD PTR _this$[ebp]
	call	??0CDialog@@QAE@IPAVCWnd@@@Z		; CDialog::CDialog
	mov	DWORD PTR __$EHRec$[ebp+8], 0
	mov	ecx, DWORD PTR _this$[ebp]
	mov	DWORD PTR [ecx], OFFSET ??_7CCreateFileLinkDlg@@6B@
	mov	edx, DWORD PTR _this$[ebp]
	mov	eax, DWORD PTR _bDefault$[ebp]
	mov	DWORD PTR [edx+148], eax
	mov	ecx, DWORD PTR _this$[ebp]
	mov	edx, DWORD PTR _nLinkOption$[ebp]
	mov	DWORD PTR [ecx+152], edx
	mov	esi, esp
	mov	eax, DWORD PTR _szRefFile$[ebp]
	push	eax
	mov	ecx, DWORD PTR _this$[ebp]
	add	ecx, 156				; 0000009cH
	call	DWORD PTR __imp_??0?$CStringT@_WV?$StrTraitMFC_DLL@_WV?$ChTraitsCRT@_W@ATL@@@@@ATL@@QAE@PB_W@Z
	cmp	esi, esp
	call	__RTC_CheckEsp

; 29   : 	//{{AFX_DATA_INIT(CCreateFileLinkDlg)
; 30   : 	//}}AFX_DATA_INIT
; 31   : }

	mov	DWORD PTR __$EHRec$[ebp+8], -1
	mov	eax, DWORD PTR _this$[ebp]
	mov	ecx, DWORD PTR __$EHRec$[ebp]
	mov	DWORD PTR fs:0, ecx
	pop	ecx
	pop	esi
	add	esp, 16					; 00000010H
	cmp	ebp, esp
	call	__RTC_CheckEsp
	mov	esp, ebp
	pop	ebp
	ret	16					; 00000010H
_TEXT	ENDS
;	COMDAT text$x
text$x	SEGMENT
__unwindfunclet$??0CCreateFileLinkDlg@@QAE@PB_WW4RE_PASTE@@HPAVCWnd@@@Z$0:
	mov	ecx, DWORD PTR _this$[ebp]
	jmp	??1CDialog@@UAE@XZ			; CDialog::~CDialog
__ehhandler$??0CCreateFileLinkDlg@@QAE@PB_WW4RE_PASTE@@HPAVCWnd@@@Z:
	mov	edx, DWORD PTR [esp+8]
	lea	eax, DWORD PTR [edx+12]
	mov	ecx, DWORD PTR [edx-12]
	xor	ecx, eax
	call	@__security_check_cookie@4
	mov	eax, OFFSET __ehfuncinfo$??0CCreateFileLinkDlg@@QAE@PB_WW4RE_PASTE@@HPAVCWnd@@@Z
	jmp	___CxxFrameHandler3
text$x	ENDS
??0CCreateFileLinkDlg@@QAE@PB_WW4RE_PASTE@@HPAVCWnd@@@Z ENDP ; CCreateFileLinkDlg::CCreateFileLinkDlg
PUBLIC	??1CCreateFileLinkDlg@@UAE@XZ			; CCreateFileLinkDlg::~CCreateFileLinkDlg
EXTRN	??3CObject@@SGXPAX@Z:PROC			; CObject::operator delete
; Function compile flags: /Odtp /RTCsu
;	COMDAT ??_GCCreateFileLinkDlg@@UAEPAXI@Z
_TEXT	SEGMENT
_this$ = -4						; size = 4
___flags$ = 8						; size = 4
??_GCCreateFileLinkDlg@@UAEPAXI@Z PROC			; CCreateFileLinkDlg::`scalar deleting destructor', COMDAT
; _this$ = ecx
	push	ebp
	mov	ebp, esp
	push	ecx
	mov	DWORD PTR [ebp-4], -858993460		; ccccccccH
	mov	DWORD PTR _this$[ebp], ecx
	mov	ecx, DWORD PTR _this$[ebp]
	call	??1CCreateFileLinkDlg@@UAE@XZ
	mov	eax, DWORD PTR ___flags$[ebp]
	and	eax, 1
	je	SHORT $LN1@scalar
	mov	ecx, DWORD PTR _this$[ebp]
	push	ecx
	call	??3CObject@@SGXPAX@Z			; CObject::operator delete
$LN1@scalar:
	mov	eax, DWORD PTR _this$[ebp]
	add	esp, 4
	cmp	ebp, esp
	call	__RTC_CheckEsp
	mov	esp, ebp
	pop	ebp
	ret	4
??_GCCreateFileLinkDlg@@UAEPAXI@Z ENDP			; CCreateFileLinkDlg::`scalar deleting destructor'
_TEXT	ENDS
EXTRN	__imp_??1?$CStringT@_WV?$StrTraitMFC_DLL@_WV?$ChTraitsCRT@_W@ATL@@@@@ATL@@QAE@XZ:PROC
; Function compile flags: /Odtp /RTCsu
;	COMDAT ??1CCreateFileLinkDlg@@UAE@XZ
_TEXT	SEGMENT
_this$ = -4						; size = 4
??1CCreateFileLinkDlg@@UAE@XZ PROC			; CCreateFileLinkDlg::~CCreateFileLinkDlg, COMDAT
; _this$ = ecx
	push	ebp
	mov	ebp, esp
	push	ecx
	push	esi
	mov	DWORD PTR [ebp-4], -858993460		; ccccccccH
	mov	DWORD PTR _this$[ebp], ecx
	mov	ecx, DWORD PTR _this$[ebp]
	add	ecx, 156				; 0000009cH
	mov	esi, esp
	call	DWORD PTR __imp_??1?$CStringT@_WV?$StrTraitMFC_DLL@_WV?$ChTraitsCRT@_W@ATL@@@@@ATL@@QAE@XZ
	cmp	esi, esp
	call	__RTC_CheckEsp
	mov	ecx, DWORD PTR _this$[ebp]
	call	??1CDialog@@UAE@XZ			; CDialog::~CDialog
	pop	esi
	add	esp, 4
	cmp	ebp, esp
	call	__RTC_CheckEsp
	mov	esp, ebp
	pop	ebp
	ret	0
??1CCreateFileLinkDlg@@UAE@XZ ENDP			; CCreateFileLinkDlg::~CCreateFileLinkDlg
_TEXT	ENDS
EXTRN	?DDX_Radio@@YGXPAVCDataExchange@@HAAH@Z:PROC	; DDX_Radio
EXTRN	?DDX_Check@@YGXPAVCDataExchange@@HAAH@Z:PROC	; DDX_Check
EXTRN	?DoDataExchange@CWnd@@MAEXPAVCDataExchange@@@Z:PROC ; CWnd::DoDataExchange
; Function compile flags: /Odtp /RTCsu
;	COMDAT ?DoDataExchange@CCreateFileLinkDlg@@MAEXPAVCDataExchange@@@Z
_TEXT	SEGMENT
_this$ = -4						; size = 4
_pDX$ = 8						; size = 4
?DoDataExchange@CCreateFileLinkDlg@@MAEXPAVCDataExchange@@@Z PROC ; CCreateFileLinkDlg::DoDataExchange, COMDAT
; _this$ = ecx

; 35   : {

	push	ebp
	mov	ebp, esp
	push	ecx
	mov	DWORD PTR [ebp-4], -858993460		; ccccccccH
	mov	DWORD PTR _this$[ebp], ecx

; 36   : 	CDialog::DoDataExchange(pDX);

	mov	eax, DWORD PTR _pDX$[ebp]
	push	eax
	mov	ecx, DWORD PTR _this$[ebp]
	call	?DoDataExchange@CWnd@@MAEXPAVCDataExchange@@@Z ; CWnd::DoDataExchange

; 37   : 	//{{AFX_DATA_MAP(CCreateFileLinkDlg)
; 38   : 	DDX_Check(pDX, IDC_MAKEDEFAULT, m_bMakeDefault);

	mov	ecx, DWORD PTR _this$[ebp]
	add	ecx, 148				; 00000094H
	push	ecx
	push	16007					; 00003e87H
	mov	edx, DWORD PTR _pDX$[ebp]
	push	edx
	call	?DDX_Check@@YGXPAVCDataExchange@@HAAH@Z	; DDX_Check

; 39   : 	//}}AFX_DATA_MAP
; 40   : 	DDX_Radio(pDX, IDC_FILEURL, m_nLinkOption);

	mov	eax, DWORD PTR _this$[ebp]
	add	eax, 152				; 00000098H
	push	eax
	push	16001					; 00003e81H
	mov	ecx, DWORD PTR _pDX$[ebp]
	push	ecx
	call	?DDX_Radio@@YGXPAVCDataExchange@@HAAH@Z	; DDX_Radio

; 41   : }

	add	esp, 4
	cmp	ebp, esp
	call	__RTC_CheckEsp
	mov	esp, ebp
	pop	ebp
	ret	4
?DoDataExchange@CCreateFileLinkDlg@@MAEXPAVCDataExchange@@@Z ENDP ; CCreateFileLinkDlg::DoDataExchange
_TEXT	ENDS
PUBLIC	?GetThisMessageMap@CCreateFileLinkDlg@@KGPBUAFX_MSGMAP@@XZ ; CCreateFileLinkDlg::GetThisMessageMap
; Function compile flags: /Odtp /RTCsu
;	COMDAT ?GetMessageMap@CCreateFileLinkDlg@@MBEPBUAFX_MSGMAP@@XZ
_TEXT	SEGMENT
_this$ = -4						; size = 4
?GetMessageMap@CCreateFileLinkDlg@@MBEPBUAFX_MSGMAP@@XZ PROC ; CCreateFileLinkDlg::GetMessageMap, COMDAT
; _this$ = ecx

; 44   : BEGIN_MESSAGE_MAP(CCreateFileLinkDlg, CDialog)

	push	ebp
	mov	ebp, esp
	push	ecx
	mov	DWORD PTR [ebp-4], -858993460		; ccccccccH
	mov	DWORD PTR _this$[ebp], ecx
	call	?GetThisMessageMap@CCreateFileLinkDlg@@KGPBUAFX_MSGMAP@@XZ ; CCreateFileLinkDlg::GetThisMessageMap
	add	esp, 4
	cmp	ebp, esp
	call	__RTC_CheckEsp
	mov	esp, ebp
	pop	ebp
	ret	0
?GetMessageMap@CCreateFileLinkDlg@@MBEPBUAFX_MSGMAP@@XZ ENDP ; CCreateFileLinkDlg::GetMessageMap
_TEXT	ENDS
EXTRN	?GetThisMessageMap@CDialog@@KGPBUAFX_MSGMAP@@XZ:PROC ; CDialog::GetThisMessageMap
;	COMDAT ?_messageEntries@?1??GetThisMessageMap@CCreateFileLinkDlg@@KGPBUAFX_MSGMAP@@XZ@4QBUAFX_MSGMAP_ENTRY@@B
CONST	SEGMENT
?_messageEntries@?1??GetThisMessageMap@CCreateFileLinkDlg@@KGPBUAFX_MSGMAP@@XZ@4QBUAFX_MSGMAP_ENTRY@@B DD 00H ; `CCreateFileLinkDlg::GetThisMessageMap'::`2'::_messageEntries
	DD	00H
	DD	00H
	DD	00H
	DD	00H
	DD	00H
CONST	ENDS
;	COMDAT ?messageMap@?1??GetThisMessageMap@CCreateFileLinkDlg@@KGPBUAFX_MSGMAP@@XZ@4U3@B
CONST	SEGMENT
?messageMap@?1??GetThisMessageMap@CCreateFileLinkDlg@@KGPBUAFX_MSGMAP@@XZ@4U3@B DD FLAT:?GetThisMessageMap@CDialog@@KGPBUAFX_MSGMAP@@XZ ; `CCreateFileLinkDlg::GetThisMessageMap'::`2'::messageMap
	DD	FLAT:?_messageEntries@?1??GetThisMessageMap@CCreateFileLinkDlg@@KGPBUAFX_MSGMAP@@XZ@4QBUAFX_MSGMAP_ENTRY@@B
; Function compile flags: /Odtp /RTCsu
CONST	ENDS
;	COMDAT ?GetThisMessageMap@CCreateFileLinkDlg@@KGPBUAFX_MSGMAP@@XZ
_TEXT	SEGMENT
?GetThisMessageMap@CCreateFileLinkDlg@@KGPBUAFX_MSGMAP@@XZ PROC ; CCreateFileLinkDlg::GetThisMessageMap, COMDAT

; 44   : BEGIN_MESSAGE_MAP(CCreateFileLinkDlg, CDialog)

	push	ebp
	mov	ebp, esp

; 45   : 	//{{AFX_MSG_MAP(CCreateFileLinkDlg)
; 46   : 	//}}AFX_MSG_MAP
; 47   : END_MESSAGE_MAP()

	mov	eax, OFFSET ?messageMap@?1??GetThisMessageMap@CCreateFileLinkDlg@@KGPBUAFX_MSGMAP@@XZ@4U3@B
	pop	ebp
	ret	0
?GetThisMessageMap@CCreateFileLinkDlg@@KGPBUAFX_MSGMAP@@XZ ENDP ; CCreateFileLinkDlg::GetThisMessageMap
_TEXT	ENDS
EXTRN	??1CEnString@@QAE@XZ:PROC			; CEnString::~CEnString
EXTRN	?SetWindowTextW@CWnd@@QAEXPB_W@Z:PROC		; CWnd::SetWindowTextW
EXTRN	?DoNotTranslate@CEnString@@QBEXXZ:PROC		; CEnString::DoNotTranslate
EXTRN	__imp_?Replace@?$CStringT@_WV?$StrTraitMFC_DLL@_WV?$ChTraitsCRT@_W@ATL@@@@@ATL@@QAEHPB_W0@Z:PROC
EXTRN	?Translate@CEnString@@QAEHPAUHWND__@@@Z:PROC	; CEnString::Translate
EXTRN	??BCWnd@@QBEPAUHWND__@@XZ:PROC			; CWnd::operator HWND__ *
EXTRN	__imp_?Format@?$CStringT@_WV?$StrTraitMFC_DLL@_WV?$ChTraitsCRT@_W@ATL@@@@@ATL@@QAAXPB_WZZ:PROC
EXTRN	?GetFileNameFromPath@FileMisc@@YA?AV?$CStringT@_WV?$StrTraitMFC_DLL@_WV?$ChTraitsCRT@_W@ATL@@@@@ATL@@PB_WH@Z:PROC ; FileMisc::GetFileNameFromPath
EXTRN	__imp_??0?$CStringT@_WV?$StrTraitMFC_DLL@_WV?$ChTraitsCRT@_W@ATL@@@@@ATL@@QAE@XZ:PROC
EXTRN	?GetWindowTextW@CWnd@@QBEXAAV?$CStringT@_WV?$StrTraitMFC_DLL@_WV?$ChTraitsCRT@_W@ATL@@@@@ATL@@@Z:PROC ; CWnd::GetWindowTextW
EXTRN	??0CEnString@@QAE@XZ:PROC			; CEnString::CEnString
EXTRN	__imp_?IsEmpty@?$CSimpleStringT@_W$00@ATL@@QBE_NXZ:PROC
EXTRN	?EnableWindow@CWnd@@QAEHH@Z:PROC		; CWnd::EnableWindow
EXTRN	?GetDlgItem@CWnd@@QBEPAV1@H@Z:PROC		; CWnd::GetDlgItem
EXTRN	?UpdateData@CWnd@@QAEHH@Z:PROC			; CWnd::UpdateData
EXTRN	?GetFileType@CEnBitmap@@SA?AW4EB_IMAGETYPE@@PB_W@Z:PROC ; CEnBitmap::GetFileType
EXTRN	__imp_??B?$CSimpleStringT@_W$00@ATL@@QBEPB_WXZ:PROC
EXTRN	?OnInitDialog@CDialog@@UAEHXZ:PROC		; CDialog::OnInitDialog
EXTRN	@_RTC_CheckStackVars@8:PROC
;	COMDAT xdata$x
xdata$x	SEGMENT
__unwindtable$?OnInitDialog@CCreateFileLinkDlg@@MAEHXZ DD 0ffffffffH
	DD	FLAT:__unwindfunclet$?OnInitDialog@CCreateFileLinkDlg@@MAEHXZ$0
	DD	00H
	DD	FLAT:__unwindfunclet$?OnInitDialog@CCreateFileLinkDlg@@MAEHXZ$1
	DD	01H
	DD	FLAT:__unwindfunclet$?OnInitDialog@CCreateFileLinkDlg@@MAEHXZ$2
__ehfuncinfo$?OnInitDialog@CCreateFileLinkDlg@@MAEHXZ DD 019930522H
	DD	03H
	DD	FLAT:__unwindtable$?OnInitDialog@CCreateFileLinkDlg@@MAEHXZ
	DD	2 DUP(00H)
	DD	2 DUP(00H)
	DD	00H
	DD	01H
; Function compile flags: /Odtp /RTCsu
xdata$x	ENDS
;	COMDAT ?OnInitDialog@CCreateFileLinkDlg@@MAEHXZ
_TEXT	SEGMENT
tv217 = -52						; size = 4
tv218 = -48						; size = 4
$T173178 = -44						; size = 4
_sFile$172940 = -36					; size = 4
_sText$172939 = -24					; size = 4
_this$ = -16						; size = 4
__$EHRec$ = -12						; size = 12
?OnInitDialog@CCreateFileLinkDlg@@MAEHXZ PROC		; CCreateFileLinkDlg::OnInitDialog, COMDAT
; _this$ = ecx

; 53   : {

	push	ebp
	mov	ebp, esp
	push	-1
	push	__ehhandler$?OnInitDialog@CCreateFileLinkDlg@@MAEHXZ
	mov	eax, DWORD PTR fs:0
	push	eax
	sub	esp, 40					; 00000028H
	push	esi
	push	edi
	push	ecx
	lea	edi, DWORD PTR [ebp-52]
	mov	ecx, 10					; 0000000aH
	mov	eax, -858993460				; ccccccccH
	rep stosd
	pop	ecx
	mov	eax, DWORD PTR ___security_cookie
	xor	eax, ebp
	push	eax
	lea	eax, DWORD PTR __$EHRec$[ebp]
	mov	DWORD PTR fs:0, eax
	mov	DWORD PTR _this$[ebp], ecx

; 54   : 	CDialog::OnInitDialog();

	mov	ecx, DWORD PTR _this$[ebp]
	call	?OnInitDialog@CDialog@@UAEHXZ		; CDialog::OnInitDialog

; 55   : 
; 56   : 	// Disable the 'display image file' if no ref file or ref file is not an image
; 57   : 	if (CEnBitmap::GetFileType(m_sRefFile) == FT_UNKNOWN)

	mov	ecx, DWORD PTR _this$[ebp]
	add	ecx, 156				; 0000009cH
	mov	esi, esp
	call	DWORD PTR __imp_??B?$CSimpleStringT@_W$00@ATL@@QBEPB_WXZ
	cmp	esi, esp
	call	__RTC_CheckEsp
	push	eax
	call	?GetFileType@CEnBitmap@@SA?AW4EB_IMAGETYPE@@PB_W@Z ; CEnBitmap::GetFileType
	add	esp, 4
	cmp	eax, -1
	jne	SHORT $LN3@OnInitDial

; 58   : 	{
; 59   : 		// If the link option is 'display image file' then reset it first
; 60   : 		// and turn off 'make this my default' so we don't overwrite
; 61   : 		// the original default
; 62   : 		if (m_nLinkOption == REP_ASIMAGE)

	mov	eax, DWORD PTR _this$[ebp]
	cmp	DWORD PTR [eax+152], 3
	jne	SHORT $LN2@OnInitDial

; 63   : 		{
; 64   : 			m_nLinkOption = 0;

	mov	ecx, DWORD PTR _this$[ebp]
	mov	DWORD PTR [ecx+152], 0

; 65   : 			m_bMakeDefault = FALSE;

	mov	edx, DWORD PTR _this$[ebp]
	mov	DWORD PTR [edx+148], 0

; 66   : 
; 67   : 			UpdateData(FALSE);

	push	0
	mov	ecx, DWORD PTR _this$[ebp]
	call	?UpdateData@CWnd@@QAEHH@Z		; CWnd::UpdateData
$LN2@OnInitDial:

; 68   : 		}
; 69   : 
; 70   : 		GetDlgItem(IDC_FILEIMAGE)->EnableWindow(FALSE);

	push	0
	push	16005					; 00003e85H
	mov	ecx, DWORD PTR _this$[ebp]
	call	?GetDlgItem@CWnd@@QBEPAV1@H@Z		; CWnd::GetDlgItem
	mov	ecx, eax
	call	?EnableWindow@CWnd@@QAEHH@Z		; CWnd::EnableWindow
$LN3@OnInitDial:

; 71   : 	}
; 72   : 
; 73   : 	// use the actual filename to format the first item
; 74   : 	if (!m_sRefFile.IsEmpty())

	mov	ecx, DWORD PTR _this$[ebp]
	add	ecx, 156				; 0000009cH
	mov	esi, esp
	call	DWORD PTR __imp_?IsEmpty@?$CSimpleStringT@_W$00@ATL@@QBE_NXZ
	cmp	esi, esp
	call	__RTC_CheckEsp
	movzx	eax, al
	test	eax, eax
	jne	$LN1@OnInitDial

; 75   : 	{
; 76   : 		CEnString sText;

	lea	ecx, DWORD PTR _sText$172939[ebp]
	call	??0CEnString@@QAE@XZ			; CEnString::CEnString
	mov	DWORD PTR __$EHRec$[ebp+8], 0

; 77   : 		GetDlgItem(IDC_FILEURL)->GetWindowText(sText);

	lea	ecx, DWORD PTR _sText$172939[ebp]
	push	ecx
	push	16001					; 00003e81H
	mov	ecx, DWORD PTR _this$[ebp]
	call	?GetDlgItem@CWnd@@QBEPAV1@H@Z		; CWnd::GetDlgItem
	mov	ecx, eax
	call	?GetWindowTextW@CWnd@@QBEXAAV?$CStringT@_WV?$StrTraitMFC_DLL@_WV?$ChTraitsCRT@_W@ATL@@@@@ATL@@@Z ; CWnd::GetWindowTextW

; 78   : 		
; 79   : 		CString sFile;

	mov	esi, esp
	lea	ecx, DWORD PTR _sFile$172940[ebp]
	call	DWORD PTR __imp_??0?$CStringT@_WV?$StrTraitMFC_DLL@_WV?$ChTraitsCRT@_W@ATL@@@@@ATL@@QAE@XZ
	cmp	esi, esp
	call	__RTC_CheckEsp
	mov	BYTE PTR __$EHRec$[ebp+8], 1

; 80   : 		sFile.Format(_T(".../%s"), FileMisc::GetFileNameFromPath(m_sRefFile));

	push	1
	mov	ecx, DWORD PTR _this$[ebp]
	add	ecx, 156				; 0000009cH
	mov	esi, esp
	call	DWORD PTR __imp_??B?$CSimpleStringT@_W$00@ATL@@QBEPB_WXZ
	cmp	esi, esp
	call	__RTC_CheckEsp
	push	eax
	lea	edx, DWORD PTR $T173178[ebp]
	push	edx
	call	?GetFileNameFromPath@FileMisc@@YA?AV?$CStringT@_WV?$StrTraitMFC_DLL@_WV?$ChTraitsCRT@_W@ATL@@@@@ATL@@PB_WH@Z ; FileMisc::GetFileNameFromPath
	add	esp, 12					; 0000000cH
	mov	DWORD PTR tv218[ebp], eax
	mov	eax, DWORD PTR tv218[ebp]
	mov	DWORD PTR tv217[ebp], eax
	mov	BYTE PTR __$EHRec$[ebp+8], 2
	mov	esi, esp
	mov	ecx, DWORD PTR tv217[ebp]
	mov	edx, DWORD PTR [ecx]
	push	edx
	push	OFFSET $SG172942
	lea	eax, DWORD PTR _sFile$172940[ebp]
	push	eax
	call	DWORD PTR __imp_?Format@?$CStringT@_WV?$StrTraitMFC_DLL@_WV?$ChTraitsCRT@_W@ATL@@@@@ATL@@QAAXPB_WZZ
	add	esp, 12					; 0000000cH
	cmp	esi, esp
	call	__RTC_CheckEsp
	mov	BYTE PTR __$EHRec$[ebp+8], 1
	mov	esi, esp
	lea	ecx, DWORD PTR $T173178[ebp]
	call	DWORD PTR __imp_??1?$CStringT@_WV?$StrTraitMFC_DLL@_WV?$ChTraitsCRT@_W@ATL@@@@@ATL@@QAE@XZ
	cmp	esi, esp
	call	__RTC_CheckEsp

; 81   : 		
; 82   : 		// Note: the label will not yet have been translated
; 83   : 		// so we have to do that first
; 84   : 		sText.Translate(*GetDlgItem(IDC_FILEURL));

	push	16001					; 00003e81H
	mov	ecx, DWORD PTR _this$[ebp]
	call	?GetDlgItem@CWnd@@QBEPAV1@H@Z		; CWnd::GetDlgItem
	mov	ecx, eax
	call	??BCWnd@@QBEPAUHWND__@@XZ		; CWnd::operator HWND__ *
	push	eax
	lea	ecx, DWORD PTR _sText$172939[ebp]
	call	?Translate@CEnString@@QAEHPAUHWND__@@@Z	; CEnString::Translate

; 85   : 		sText.Replace(_T("..."), sFile);

	mov	esi, esp
	lea	ecx, DWORD PTR _sFile$172940[ebp]
	call	DWORD PTR __imp_??B?$CSimpleStringT@_W$00@ATL@@QBEPB_WXZ
	cmp	esi, esp
	call	__RTC_CheckEsp
	mov	esi, esp
	push	eax
	push	OFFSET $SG172943
	lea	ecx, DWORD PTR _sText$172939[ebp]
	call	DWORD PTR __imp_?Replace@?$CStringT@_WV?$StrTraitMFC_DLL@_WV?$ChTraitsCRT@_W@ATL@@@@@ATL@@QAEHPB_W0@Z
	cmp	esi, esp
	call	__RTC_CheckEsp

; 86   : 		
; 87   : 		// disable translation on this composite string
; 88   : 		sText.DoNotTranslate();

	lea	ecx, DWORD PTR _sText$172939[ebp]
	call	?DoNotTranslate@CEnString@@QBEXXZ	; CEnString::DoNotTranslate

; 89   : 		
; 90   : 		// then set it
; 91   : 		GetDlgItem(IDC_FILEURL)->SetWindowText(sText);

	mov	esi, esp
	lea	ecx, DWORD PTR _sText$172939[ebp]
	call	DWORD PTR __imp_??B?$CSimpleStringT@_W$00@ATL@@QBEPB_WXZ
	cmp	esi, esp
	call	__RTC_CheckEsp
	push	eax
	push	16001					; 00003e81H
	mov	ecx, DWORD PTR _this$[ebp]
	call	?GetDlgItem@CWnd@@QBEPAV1@H@Z		; CWnd::GetDlgItem
	mov	ecx, eax
	call	?SetWindowTextW@CWnd@@QAEXPB_W@Z	; CWnd::SetWindowTextW

; 92   : 	}

	mov	BYTE PTR __$EHRec$[ebp+8], 0
	mov	esi, esp
	lea	ecx, DWORD PTR _sFile$172940[ebp]
	call	DWORD PTR __imp_??1?$CStringT@_WV?$StrTraitMFC_DLL@_WV?$ChTraitsCRT@_W@ATL@@@@@ATL@@QAE@XZ
	cmp	esi, esp
	call	__RTC_CheckEsp
	mov	DWORD PTR __$EHRec$[ebp+8], -1
	lea	ecx, DWORD PTR _sText$172939[ebp]
	call	??1CEnString@@QAE@XZ			; CEnString::~CEnString
$LN1@OnInitDial:

; 93   : 	
; 94   : 	return TRUE;  // return TRUE unless you set the focus to a control

	mov	eax, 1

; 95   : 	              // EXCEPTION: OCX Property Pages should return FALSE
; 96   : }

	push	edx
	mov	ecx, ebp
	push	eax
	lea	edx, DWORD PTR $LN13@OnInitDial
	call	@_RTC_CheckStackVars@8
	pop	eax
	pop	edx
	mov	ecx, DWORD PTR __$EHRec$[ebp]
	mov	DWORD PTR fs:0, ecx
	pop	ecx
	pop	edi
	pop	esi
	add	esp, 52					; 00000034H
	cmp	ebp, esp
	call	__RTC_CheckEsp
	mov	esp, ebp
	pop	ebp
	ret	0
	npad	2
$LN13@OnInitDial:
	DD	2
	DD	$LN12@OnInitDial
$LN12@OnInitDial:
	DD	-24					; ffffffe8H
	DD	4
	DD	$LN9@OnInitDial
	DD	-36					; ffffffdcH
	DD	4
	DD	$LN10@OnInitDial
$LN10@OnInitDial:
	DB	115					; 00000073H
	DB	70					; 00000046H
	DB	105					; 00000069H
	DB	108					; 0000006cH
	DB	101					; 00000065H
	DB	0
$LN9@OnInitDial:
	DB	115					; 00000073H
	DB	84					; 00000054H
	DB	101					; 00000065H
	DB	120					; 00000078H
	DB	116					; 00000074H
	DB	0
_TEXT	ENDS
;	COMDAT text$x
text$x	SEGMENT
__unwindfunclet$?OnInitDialog@CCreateFileLinkDlg@@MAEHXZ$0:
	lea	ecx, DWORD PTR _sText$172939[ebp]
	jmp	??1CEnString@@QAE@XZ			; CEnString::~CEnString
__unwindfunclet$?OnInitDialog@CCreateFileLinkDlg@@MAEHXZ$1:
	mov	esi, esp
	lea	ecx, DWORD PTR _sFile$172940[ebp]
	call	DWORD PTR __imp_??1?$CStringT@_WV?$StrTraitMFC_DLL@_WV?$ChTraitsCRT@_W@ATL@@@@@ATL@@QAE@XZ
	cmp	esi, esp
	jmp	__RTC_CheckEsp
__unwindfunclet$?OnInitDialog@CCreateFileLinkDlg@@MAEHXZ$2:
	mov	esi, esp
	lea	ecx, DWORD PTR $T173178[ebp]
	call	DWORD PTR __imp_??1?$CStringT@_WV?$StrTraitMFC_DLL@_WV?$ChTraitsCRT@_W@ATL@@@@@ATL@@QAE@XZ
	cmp	esi, esp
	jmp	__RTC_CheckEsp
__ehhandler$?OnInitDialog@CCreateFileLinkDlg@@MAEHXZ:
	mov	edx, DWORD PTR [esp+8]
	lea	eax, DWORD PTR [edx+12]
	mov	ecx, DWORD PTR [edx-52]
	xor	ecx, eax
	call	@__security_check_cookie@4
	mov	eax, OFFSET __ehfuncinfo$?OnInitDialog@CCreateFileLinkDlg@@MAEHXZ
	jmp	___CxxFrameHandler3
text$x	ENDS
?OnInitDialog@CCreateFileLinkDlg@@MAEHXZ ENDP		; CCreateFileLinkDlg::OnInitDialog
EXTRN	__imp__RegisterWindowMessageW@4:PROC
; Function compile flags: /Odtp /RTCsu
; File d:\_code\interfaces\icontentcontrol.h
;	COMDAT ??__EWM_ICC_WANTSPELLCHECK@@YAXXZ
text$yc	SEGMENT
??__EWM_ICC_WANTSPELLCHECK@@YAXXZ PROC			; `dynamic initializer for 'WM_ICC_WANTSPELLCHECK'', COMDAT

; 25   : const UINT WM_ICC_WANTSPELLCHECK 	= ::RegisterWindowMessageW(L"WM_ICC_WANTSPELLCHECK");

	push	ebp
	mov	ebp, esp
	push	esi
	mov	esi, esp
	push	OFFSET $SG171208
	call	DWORD PTR __imp__RegisterWindowMessageW@4
	cmp	esi, esp
	call	__RTC_CheckEsp
	mov	DWORD PTR _WM_ICC_WANTSPELLCHECK, eax
	pop	esi
	cmp	ebp, esp
	call	__RTC_CheckEsp
	pop	ebp
	ret	0
??__EWM_ICC_WANTSPELLCHECK@@YAXXZ ENDP			; `dynamic initializer for 'WM_ICC_WANTSPELLCHECK''
; Function compile flags: /Odtp /RTCsu
text$yc	ENDS
;	COMDAT ??__EWM_ICC_COMMENTSCHANGE@@YAXXZ
text$yc	SEGMENT
??__EWM_ICC_COMMENTSCHANGE@@YAXXZ PROC			; `dynamic initializer for 'WM_ICC_COMMENTSCHANGE'', COMDAT

; 26   : const UINT WM_ICC_COMMENTSCHANGE	= ::RegisterWindowMessageW(L"WM_ICC_COMMENTSCHANGE");

	push	ebp
	mov	ebp, esp
	push	esi
	mov	esi, esp
	push	OFFSET $SG171213
	call	DWORD PTR __imp__RegisterWindowMessageW@4
	cmp	esi, esp
	call	__RTC_CheckEsp
	mov	DWORD PTR _WM_ICC_COMMENTSCHANGE, eax
	pop	esi
	cmp	ebp, esp
	call	__RTC_CheckEsp
	pop	ebp
	ret	0
??__EWM_ICC_COMMENTSCHANGE@@YAXXZ ENDP			; `dynamic initializer for 'WM_ICC_COMMENTSCHANGE''
; Function compile flags: /Odtp /RTCsu
text$yc	ENDS
;	COMDAT ??__EWM_ICC_COMMENTSKILLFOCUS@@YAXXZ
text$yc	SEGMENT
??__EWM_ICC_COMMENTSKILLFOCUS@@YAXXZ PROC		; `dynamic initializer for 'WM_ICC_COMMENTSKILLFOCUS'', COMDAT

; 27   : const UINT WM_ICC_COMMENTSKILLFOCUS	= ::RegisterWindowMessageW(L"WM_ICC_COMMENTSKILLFOCUS");

	push	ebp
	mov	ebp, esp
	push	esi
	mov	esi, esp
	push	OFFSET $SG171218
	call	DWORD PTR __imp__RegisterWindowMessageW@4
	cmp	esi, esp
	call	__RTC_CheckEsp
	mov	DWORD PTR _WM_ICC_COMMENTSKILLFOCUS, eax
	pop	esi
	cmp	ebp, esp
	call	__RTC_CheckEsp
	pop	ebp
	ret	0
??__EWM_ICC_COMMENTSKILLFOCUS@@YAXXZ ENDP		; `dynamic initializer for 'WM_ICC_COMMENTSKILLFOCUS''
text$yc	ENDS
_BSS	SEGMENT
_WM_ICC_COMMENTSKILLFOCUS DD 01H DUP (?)
_WM_ICC_COMMENTSCHANGE DD 01H DUP (?)
_WM_ICC_WANTSPELLCHECK DD 01H DUP (?)
_BSS	ENDS
CRT$XCU	SEGMENT
_WM_ICC_WANTSPELLCHECK$initializer$ DD FLAT:??__EWM_ICC_WANTSPELLCHECK@@YAXXZ
_WM_ICC_COMMENTSCHANGE$initializer$ DD FLAT:??__EWM_ICC_COMMENTSCHANGE@@YAXXZ
_WM_ICC_COMMENTSKILLFOCUS$initializer$ DD FLAT:??__EWM_ICC_COMMENTSKILLFOCUS@@YAXXZ
CRT$XCU	ENDS
END
