; Listing generated by Microsoft (R) Optimizing Compiler Version 16.00.40219.01 

	TITLE	D:\_code\RTFContentCtrl\RTFContentControl.cpp
	.686P
	.XMM
	include listing.inc
	.model	flat

INCLUDELIB MSVCRTD
INCLUDELIB OLDNAMES

PUBLIC	?s_bConvertWithMSWord@CRTFContentControl@@1HA	; CRTFContentControl::s_bConvertWithMSWord
PUBLIC	?s_bInlineSpellChecking@CRTFContentControl@@1HA	; CRTFContentControl::s_bInlineSpellChecking
_BSS	SEGMENT
?s_bConvertWithMSWord@CRTFContentControl@@1HA DD 01H DUP (?) ; CRTFContentControl::s_bConvertWithMSWord
_BSS	ENDS
_DATA	SEGMENT
_TDL_PROTOCOL DD FLAT:$SG174630
_TDL_EXTENSION DD FLAT:$SG174632
_THIS_FILE DB	'RTFContentControl.cpp', 00H
	ORG $+2
?s_bInlineSpellChecking@CRTFContentControl@@1HA DD 01H	; CRTFContentControl::s_bInlineSpellChecking
_DATA	ENDS
CONST	SEGMENT
$SG171208 DB	'W', 00H, 'M', 00H, '_', 00H, 'I', 00H, 'C', 00H, 'C', 00H
	DB	'_', 00H, 'W', 00H, 'A', 00H, 'N', 00H, 'T', 00H, 'S', 00H, 'P'
	DB	00H, 'E', 00H, 'L', 00H, 'L', 00H, 'C', 00H, 'H', 00H, 'E', 00H
	DB	'C', 00H, 'K', 00H, 00H, 00H
$SG171213 DB	'W', 00H, 'M', 00H, '_', 00H, 'I', 00H, 'C', 00H, 'C', 00H
	DB	'_', 00H, 'C', 00H, 'O', 00H, 'M', 00H, 'M', 00H, 'E', 00H, 'N'
	DB	00H, 'T', 00H, 'S', 00H, 'C', 00H, 'H', 00H, 'A', 00H, 'N', 00H
	DB	'G', 00H, 'E', 00H, 00H, 00H
$SG171218 DB	'W', 00H, 'M', 00H, '_', 00H, 'I', 00H, 'C', 00H, 'C', 00H
	DB	'_', 00H, 'C', 00H, 'O', 00H, 'M', 00H, 'M', 00H, 'E', 00H, 'N'
	DB	00H, 'T', 00H, 'S', 00H, 'K', 00H, 'I', 00H, 'L', 00H, 'L', 00H
	DB	'F', 00H, 'O', 00H, 'C', 00H, 'U', 00H, 'S', 00H, 00H, 00H
	ORG $+2
$SG171240 DB	'CreateContentInterface', 00H
	ORG $+1
$SG171245 DB	'GetInterfaceVersion', 00H
$SG171258 DB	'CreateContentInterface', 00H
	ORG $+1
$SG171336 DB	'8', 00H, '4', 00H, '9', 00H, 'C', 00H, 'F', 00H, '9', 00H
	DB	'8', 00H, '8', 00H, '-', 00H, '7', 00H, '9', 00H, 'F', 00H, 'E'
	DB	00H, '-', 00H, '4', 00H, '1', 00H, '8', 00H, 'A', 00H, '-', 00H
	DB	'A', 00H, '4', 00H, '0', 00H, 'D', 00H, '-', 00H, '0', 00H, '1'
	DB	00H, 'F', 00H, 'E', 00H, '3', 00H, 'A', 00H, 'F', 00H, 'C', 00H
	DB	'A', 00H, 'B', 00H, '2', 00H, 'C', 00H, 00H, 00H
	ORG $+2
_RTF_TYPEID DD	FLAT:$SG171336
$SG172007 DB	'W', 00H, 'M', 00H, '_', 00H, 'U', 00H, 'R', 00H, 'E', 00H
	DB	'N', 00H, '_', 00H, 'C', 00H, 'U', 00H, 'S', 00H, 'T', 00H, 'O'
	DB	00H, 'M', 00H, 'U', 00H, 'R', 00H, 'L', 00H, 00H, 00H
$SG172012 DB	'W', 00H, 'M', 00H, '_', 00H, 'U', 00H, 'R', 00H, 'E', 00H
	DB	'N', 00H, '_', 00H, 'F', 00H, 'A', 00H, 'I', 00H, 'L', 00H, 'E'
	DB	00H, 'D', 00H, 'U', 00H, 'R', 00H, 'L', 00H, 00H, 00H
$SG173858 DB	'CreateSpellCheckerInterface', 00H
$SG173865 DB	'GetInterfaceVersion', 00H
$SG173874 DB	'CreateSpellCheckerInterface', 00H
$SG174630 DB	't', 00H, 'd', 00H, 'l', 00H, ':', 00H, '/', 00H, '/', 00H
	DB	00H, 00H
	ORG $+2
$SG174632 DB	'.', 00H, 't', 00H, 'd', 00H, 'l', 00H, 00H, 00H
	ORG $+2
$SG174636 DB	'W', 00H, 'M', 00H, '_', 00H, 'T', 00H, 'D', 00H, 'C', 00H
	DB	'N', 00H, '_', 00H, 'M', 00H, 'O', 00H, 'D', 00H, 'I', 00H, 'F'
	DB	00H, 'Y', 00H, 00H, 00H
	ORG $+2
$SG174641 DB	'W', 00H, 'M', 00H, '_', 00H, 'T', 00H, 'D', 00H, 'C', 00H
	DB	'N', 00H, '_', 00H, 'S', 00H, 'O', 00H, 'R', 00H, 'T', 00H, 00H
	DB	00H
	ORG $+2
$SG174646 DB	'W', 00H, 'M', 00H, '_', 00H, 'T', 00H, 'D', 00H, 'C', 00H
	DB	'N', 00H, '_', 00H, 'T', 00H, 'I', 00H, 'M', 00H, 'E', 00H, 'T'
	DB	00H, 'R', 00H, 'A', 00H, 'C', 00H, 'K', 00H, 00H, 00H
$SG174651 DB	'W', 00H, 'M', 00H, '_', 00H, 'T', 00H, 'D', 00H, 'C', 00H
	DB	'N', 00H, '_', 00H, 'V', 00H, 'I', 00H, 'E', 00H, 'W', 00H, 'P'
	DB	00H, 'R', 00H, 'E', 00H, 'C', 00H, 'H', 00H, 'A', 00H, 'N', 00H
	DB	'G', 00H, 'E', 00H, 00H, 00H
$SG174656 DB	'W', 00H, 'M', 00H, '_', 00H, 'T', 00H, 'D', 00H, 'C', 00H
	DB	'N', 00H, '_', 00H, 'V', 00H, 'I', 00H, 'E', 00H, 'W', 00H, 'P'
	DB	00H, 'O', 00H, 'S', 00H, 'T', 00H, 'C', 00H, 'H', 00H, 'A', 00H
	DB	'N', 00H, 'G', 00H, 'E', 00H, 00H, 00H
	ORG $+2
$SG174661 DB	'W', 00H, 'M', 00H, '_', 00H, 'T', 00H, 'D', 00H, 'C', 00H
	DB	'N', 00H, '_', 00H, 'S', 00H, 'E', 00H, 'L', 00H, 'E', 00H, 'C'
	DB	00H, 'T', 00H, 'I', 00H, 'O', 00H, 'N', 00H, 'C', 00H, 'H', 00H
	DB	'A', 00H, 'N', 00H, 'G', 00H, 'E', 00H, 00H, 00H
$SG174666 DB	'W', 00H, 'M', 00H, '_', 00H, 'T', 00H, 'D', 00H, 'C', 00H
	DB	'N', 00H, '_', 00H, 'S', 00H, 'C', 00H, 'R', 00H, 'O', 00H, 'L'
	DB	00H, 'L', 00H, 'C', 00H, 'H', 00H, 'A', 00H, 'N', 00H, 'G', 00H
	DB	'E', 00H, 00H, 00H
	ORG $+2
$SG174671 DB	'W', 00H, 'M', 00H, '_', 00H, 'T', 00H, 'D', 00H, 'C', 00H
	DB	'N', 00H, '_', 00H, 'R', 00H, 'E', 00H, 'C', 00H, 'R', 00H, 'E'
	DB	00H, 'A', 00H, 'T', 00H, 'E', 00H, 'R', 00H, 'E', 00H, 'C', 00H
	DB	'U', 00H, 'R', 00H, 'R', 00H, 'I', 00H, 'N', 00H, 'G', 00H, 'T'
	DB	00H, 'A', 00H, 'S', 00H, 'K', 00H, 00H, 00H
$SG174676 DB	'W', 00H, 'M', 00H, '_', 00H, 'T', 00H, 'D', 00H, 'C', 00H
	DB	'N', 00H, '_', 00H, 'D', 00H, 'O', 00H, 'U', 00H, 'B', 00H, 'L'
	DB	00H, 'E', 00H, 'C', 00H, 'L', 00H, 'K', 00H, 'R', 00H, 'E', 00H
	DB	'M', 00H, 'I', 00H, 'N', 00H, 'D', 00H, 'E', 00H, 'R', 00H, 'C'
	DB	00H, 'O', 00H, 'L', 00H, 00H, 00H
	ORG $+2
$SG174681 DB	'W', 00H, 'M', 00H, '_', 00H, 'T', 00H, 'D', 00H, 'C', 00H
	DB	'N', 00H, '_', 00H, 'C', 00H, 'O', 00H, 'L', 00H, 'U', 00H, 'M'
	DB	00H, 'N', 00H, 'E', 00H, 'D', 00H, 'I', 00H, 'T', 00H, 'C', 00H
	DB	'L', 00H, 'I', 00H, 'C', 00H, 'K', 00H, 00H, 00H
$SG174686 DB	'W', 00H, 'M', 00H, '_', 00H, 'F', 00H, 'B', 00H, 'N', 00H
	DB	'_', 00H, 'F', 00H, 'I', 00H, 'L', 00H, 'T', 00H, 'E', 00H, 'R'
	DB	00H, 'C', 00H, 'H', 00H, 'N', 00H, 'G', 00H, 00H, 00H
$SG174691 DB	'W', 00H, 'M', 00H, '_', 00H, 'T', 00H, 'D', 00H, 'C', 00H
	DB	'N', 00H, '_', 00H, 'L', 00H, 'I', 00H, 'S', 00H, 'T', 00H, 'C'
	DB	00H, 'H', 00H, 'A', 00H, 'N', 00H, 'G', 00H, 'E', 00H, 00H, 00H
	ORG $+2
$SG174696 DB	'W', 00H, 'M', 00H, '_', 00H, 'T', 00H, 'D', 00H, 'C', 00H
	DB	'M', 00H, '_', 00H, 'G', 00H, 'E', 00H, 'T', 00H, 'C', 00H, 'L'
	DB	00H, 'I', 00H, 'P', 00H, 'B', 00H, 'O', 00H, 'A', 00H, 'R', 00H
	DB	'D', 00H, 00H, 00H
	ORG $+2
$SG174701 DB	'W', 00H, 'M', 00H, '_', 00H, 'T', 00H, 'D', 00H, 'C', 00H
	DB	'M', 00H, '_', 00H, 'H', 00H, 'A', 00H, 'S', 00H, 'C', 00H, 'L'
	DB	00H, 'I', 00H, 'P', 00H, 'B', 00H, 'O', 00H, 'A', 00H, 'R', 00H
	DB	'D', 00H, 00H, 00H
	ORG $+2
$SG174706 DB	'W', 00H, 'M', 00H, '_', 00H, 'T', 00H, 'D', 00H, 'C', 00H
	DB	'M', 00H, '_', 00H, 'T', 00H, 'A', 00H, 'S', 00H, 'K', 00H, 'I'
	DB	00H, 'S', 00H, 'D', 00H, 'O', 00H, 'N', 00H, 'E', 00H, 00H, 00H
	ORG $+2
$SG174711 DB	'W', 00H, 'M', 00H, '_', 00H, 'T', 00H, 'D', 00H, 'C', 00H
	DB	'M', 00H, '_', 00H, 'T', 00H, 'A', 00H, 'S', 00H, 'K', 00H, 'H'
	DB	00H, 'A', 00H, 'S', 00H, 'R', 00H, 'E', 00H, 'M', 00H, 'I', 00H
	DB	'N', 00H, 'D', 00H, 'E', 00H, 'R', 00H, 00H, 00H
$SG174716 DB	'W', 00H, 'M', 00H, '_', 00H, 'T', 00H, 'D', 00H, 'C', 00H
	DB	'N', 00H, '_', 00H, 'D', 00H, 'I', 00H, 'S', 00H, 'M', 00H, 'I'
	DB	00H, 'S', 00H, 'S', 00H, 'R', 00H, 'E', 00H, 'M', 00H, 'I', 00H
	DB	'N', 00H, 'D', 00H, 'E', 00H, 'R', 00H, 00H, 00H
$SG174721 DB	'W', 00H, 'M', 00H, '_', 00H, 'T', 00H, 'D', 00H, 'C', 00H
	DB	'N', 00H, '_', 00H, 'S', 00H, 'N', 00H, 'O', 00H, 'O', 00H, 'Z'
	DB	00H, 'E', 00H, 'R', 00H, 'E', 00H, 'M', 00H, 'I', 00H, 'N', 00H
	DB	'D', 00H, 'E', 00H, 'R', 00H, 00H, 00H
	ORG $+2
$SG174726 DB	'W', 00H, 'M', 00H, '_', 00H, 'T', 00H, 'D', 00H, 'C', 00H
	DB	'M', 00H, '_', 00H, 'T', 00H, 'A', 00H, 'S', 00H, 'K', 00H, 'L'
	DB	00H, 'I', 00H, 'N', 00H, 'K', 00H, 00H, 00H
	ORG $+2
$SG174731 DB	'W', 00H, 'M', 00H, '_', 00H, 'T', 00H, 'D', 00H, 'C', 00H
	DB	'M', 00H, '_', 00H, 'F', 00H, 'A', 00H, 'I', 00H, 'L', 00H, 'E'
	DB	00H, 'D', 00H, 'L', 00H, 'I', 00H, 'N', 00H, 'K', 00H, 00H, 00H
	ORG $+2
$SG174736 DB	'W', 00H, 'M', 00H, '_', 00H, 'T', 00H, 'D', 00H, 'C', 00H
	DB	'M', 00H, '_', 00H, 'L', 00H, 'E', 00H, 'N', 00H, 'G', 00H, 'T'
	DB	00H, 'H', 00H, 'Y', 00H, 'O', 00H, 'P', 00H, 'E', 00H, 'R', 00H
	DB	'A', 00H, 'T', 00H, 'I', 00H, 'O', 00H, 'N', 00H, 00H, 00H
	ORG $+2
$SG174741 DB	'W', 00H, 'M', 00H, '_', 00H, 'F', 00H, 'T', 00H, 'D', 00H
	DB	'_', 00H, 'F', 00H, 'I', 00H, 'N', 00H, 'D', 00H, 00H, 00H
$SG174746 DB	'W', 00H, 'M', 00H, '_', 00H, 'F', 00H, 'T', 00H, 'D', 00H
	DB	'_', 00H, 'S', 00H, 'E', 00H, 'L', 00H, 'E', 00H, 'C', 00H, 'T'
	DB	00H, 'R', 00H, 'E', 00H, 'S', 00H, 'U', 00H, 'L', 00H, 'T', 00H
	DB	00H, 00H
$SG174751 DB	'W', 00H, 'M', 00H, '_', 00H, 'F', 00H, 'T', 00H, 'D', 00H
	DB	'_', 00H, 'S', 00H, 'E', 00H, 'L', 00H, 'E', 00H, 'C', 00H, 'T'
	DB	00H, 'A', 00H, 'L', 00H, 'L', 00H, 00H, 00H
	ORG $+2
$SG174756 DB	'W', 00H, 'M', 00H, '_', 00H, 'F', 00H, 'T', 00H, 'D', 00H
	DB	'_', 00H, 'C', 00H, 'L', 00H, 'O', 00H, 'S', 00H, 'E', 00H, 00H
	DB	00H
	ORG $+2
$SG174761 DB	'W', 00H, 'M', 00H, '_', 00H, 'F', 00H, 'T', 00H, 'D', 00H
	DB	'_', 00H, 'A', 00H, 'P', 00H, 'P', 00H, 'L', 00H, 'Y', 00H, 'A'
	DB	00H, 'S', 00H, 'F', 00H, 'I', 00H, 'L', 00H, 'T', 00H, 'E', 00H
	DB	'R', 00H, 00H, 00H
	ORG $+2
$SG174766 DB	'W', 00H, 'M', 00H, '_', 00H, 'F', 00H, 'T', 00H, 'D', 00H
	DB	'_', 00H, 'A', 00H, 'D', 00H, 'D', 00H, 'S', 00H, 'E', 00H, 'A'
	DB	00H, 'R', 00H, 'C', 00H, 'H', 00H, 00H, 00H
	ORG $+2
$SG174771 DB	'W', 00H, 'M', 00H, '_', 00H, 'F', 00H, 'T', 00H, 'D', 00H
	DB	'_', 00H, 'S', 00H, 'A', 00H, 'V', 00H, 'E', 00H, 'S', 00H, 'E'
	DB	00H, 'A', 00H, 'R', 00H, 'C', 00H, 'H', 00H, 00H, 00H
$SG174776 DB	'W', 00H, 'M', 00H, '_', 00H, 'F', 00H, 'T', 00H, 'D', 00H
	DB	'_', 00H, 'D', 00H, 'E', 00H, 'L', 00H, 'E', 00H, 'T', 00H, 'E'
	DB	00H, 'S', 00H, 'E', 00H, 'A', 00H, 'R', 00H, 'C', 00H, 'H', 00H
	DB	00H, 00H
$SG174781 DB	'W', 00H, 'M', 00H, '_', 00H, 'F', 00H, 'T', 00H, 'D', 00H
	DB	'_', 00H, 'G', 00H, 'E', 00H, 'T', 00H, 'L', 00H, 'I', 00H, 'S'
	DB	00H, 'T', 00H, 'I', 00H, 'T', 00H, 'E', 00H, 'M', 00H, 'S', 00H
	DB	00H, 00H
$SG174786 DB	'W', 00H, 'M', 00H, '_', 00H, 'T', 00H, 'D', 00H, 'L', 00H
	DB	'T', 00H, 'T', 00H, 'N', 00H, '_', 00H, 'S', 00H, 'T', 00H, 'A'
	DB	00H, 'R', 00H, 'T', 00H, 'T', 00H, 'R', 00H, 'A', 00H, 'C', 00H
	DB	'K', 00H, 'I', 00H, 'N', 00H, 'G', 00H, 00H, 00H
$SG174791 DB	'W', 00H, 'M', 00H, '_', 00H, 'T', 00H, 'D', 00H, 'L', 00H
	DB	'T', 00H, 'T', 00H, 'N', 00H, '_', 00H, 'S', 00H, 'T', 00H, 'O'
	DB	00H, 'P', 00H, 'T', 00H, 'R', 00H, 'A', 00H, 'C', 00H, 'K', 00H
	DB	'I', 00H, 'N', 00H, 'G', 00H, 00H, 00H
	ORG $+2
$SG174796 DB	'W', 00H, 'M', 00H, '_', 00H, 'T', 00H, 'D', 00H, 'L', 00H
	DB	'T', 00H, 'T', 00H, 'N', 00H, '_', 00H, 'L', 00H, 'O', 00H, 'A'
	DB	00H, 'D', 00H, 'D', 00H, 'E', 00H, 'L', 00H, 'A', 00H, 'Y', 00H
	DB	'E', 00H, 'D', 00H, 'T', 00H, 'A', 00H, 'S', 00H, 'K', 00H, 'L'
	DB	00H, 'I', 00H, 'S', 00H, 'T', 00H, 00H, 00H
$SG174802 DB	'T', 00H, 'O', 00H, 'D', 00H, 'O', 00H, 'L', 00H, 'I', 00H
	DB	'S', 00H, 'T', 00H, 00H, 00H
	ORG $+2
$SG174810 DB	'C', 00H, 'H', 00H, 'A', 00H, 'R', 00H, 'S', 00H, 'E', 00H
	DB	'T', 00H, 00H, 00H
$SG174817 DB	'A', 00H, 'P', 00H, 'P', 00H, 'V', 00H, 'E', 00H, 'R', 00H
	DB	00H, 00H
	ORG $+2
$SG174824 DB	'P', 00H, 'R', 00H, 'O', 00H, 'J', 00H, 'E', 00H, 'C', 00H
	DB	'T', 00H, 'N', 00H, 'A', 00H, 'M', 00H, 'E', 00H, 00H, 00H
$SG174831 DB	'L', 00H, 'A', 00H, 'S', 00H, 'T', 00H, 'S', 00H, 'O', 00H
	DB	'R', 00H, 'T', 00H, 'B', 00H, 'Y', 00H, 00H, 00H
	ORG $+2
$SG174838 DB	'L', 00H, 'A', 00H, 'S', 00H, 'T', 00H, 'S', 00H, 'O', 00H
	DB	'R', 00H, 'T', 00H, 'D', 00H, 'I', 00H, 'R', 00H, 00H, 00H
$SG174845 DB	'N', 00H, 'E', 00H, 'X', 00H, 'T', 00H, 'U', 00H, 'N', 00H
	DB	'I', 00H, 'Q', 00H, 'U', 00H, 'E', 00H, 'I', 00H, 'D', 00H, 00H
	DB	00H
	ORG $+2
$SG174852 DB	'A', 00H, 'R', 00H, 'C', 00H, 'H', 00H, 'I', 00H, 'V', 00H
	DB	'E', 00H, 00H, 00H
$SG174859 DB	'F', 00H, 'I', 00H, 'L', 00H, 'E', 00H, 'F', 00H, 'O', 00H
	DB	'R', 00H, 'M', 00H, 'A', 00H, 'T', 00H, 00H, 00H
	ORG $+2
$SG174866 DB	'F', 00H, 'I', 00H, 'L', 00H, 'E', 00H, 'V', 00H, 'E', 00H
	DB	'R', 00H, 'S', 00H, 'I', 00H, 'O', 00H, 'N', 00H, 00H, 00H
$SG174873 DB	'C', 00H, 'H', 00H, 'E', 00H, 'C', 00H, 'K', 00H, 'E', 00H
	DB	'D', 00H, 'O', 00H, 'U', 00H, 'T', 00H, 'T', 00H, 'O', 00H, 00H
	DB	00H
	ORG $+2
$SG174880 DB	'C', 00H, 'U', 00H, 'S', 00H, 'T', 00H, 'O', 00H, 'M', 00H
	DB	'C', 00H, 'O', 00H, 'M', 00H, 'M', 00H, 'E', 00H, 'N', 00H, 'T'
	DB	00H, 'S', 00H, 'T', 00H, 'Y', 00H, 'P', 00H, 'E', 00H, 00H, 00H
	ORG $+2
$SG174887 DB	'R', 00H, 'E', 00H, 'P', 00H, 'O', 00H, 'R', 00H, 'T', 00H
	DB	'T', 00H, 'I', 00H, 'T', 00H, 'L', 00H, 'E', 00H, 00H, 00H
$SG174894 DB	'R', 00H, 'E', 00H, 'P', 00H, 'O', 00H, 'R', 00H, 'T', 00H
	DB	'D', 00H, 'A', 00H, 'T', 00H, 'E', 00H, 00H, 00H
	ORG $+2
$SG174901 DB	'R', 00H, 'E', 00H, 'P', 00H, 'O', 00H, 'R', 00H, 'T', 00H
	DB	'D', 00H, 'A', 00H, 'T', 00H, 'E', 00H, 'O', 00H, 'L', 00H, 'E'
	DB	00H, 00H, 00H
$SG174908 DB	'F', 00H, 'I', 00H, 'L', 00H, 'E', 00H, 'N', 00H, 'A', 00H
	DB	'M', 00H, 'E', 00H, 00H, 00H
	ORG $+2
$SG174915 DB	'M', 00H, 'E', 00H, 'T', 00H, 'A', 00H, 'D', 00H, 'A', 00H
	DB	'T', 00H, 'A', 00H, 00H, 00H
	ORG $+2
$SG174922 DB	'E', 00H, 'A', 00H, 'R', 00H, 'L', 00H, 'I', 00H, 'E', 00H
	DB	'S', 00H, 'T', 00H, 'D', 00H, 'U', 00H, 'E', 00H, 'D', 00H, 'A'
	DB	00H, 'T', 00H, 'E', 00H, 00H, 00H
$SG174929 DB	'E', 00H, 'X', 00H, 'P', 00H, 'O', 00H, 'R', 00H, 'T', 00H
	DB	'S', 00H, 'T', 00H, 'Y', 00H, 'L', 00H, 'E', 00H, 00H, 00H
$SG174936 DB	'L', 00H, 'A', 00H, 'S', 00H, 'T', 00H, 'M', 00H, 'O', 00H
	DB	'D', 00H, 00H, 00H
$SG174943 DB	'L', 00H, 'A', 00H, 'S', 00H, 'T', 00H, 'M', 00H, 'O', 00H
	DB	'D', 00H, 'S', 00H, 'T', 00H, 'R', 00H, 'I', 00H, 'N', 00H, 'G'
	DB	00H, 00H, 00H
$SG174950 DB	'C', 00H, 'U', 00H, 'S', 00H, 'T', 00H, 'O', 00H, 'M', 00H
	DB	'A', 00H, 'T', 00H, 'T', 00H, 'R', 00H, 'I', 00H, 'B', 00H, 'D'
	DB	00H, 'E', 00H, 'F', 00H, 00H, 00H
$SG174957 DB	'I', 00H, 'D', 00H, 00H, 00H
	ORG $+2
$SG174964 DB	'T', 00H, 'Y', 00H, 'P', 00H, 'E', 00H, 00H, 00H
	ORG $+2
$SG174971 DB	'L', 00H, 'A', 00H, 'B', 00H, 'E', 00H, 'L', 00H, 00H, 00H
$SG174978 DB	'C', 00H, 'O', 00H, 'L', 00H, 'T', 00H, 'I', 00H, 'T', 00H
	DB	'L', 00H, 'E', 00H, 00H, 00H
	ORG $+2
$SG174985 DB	'C', 00H, 'O', 00H, 'L', 00H, 'A', 00H, 'L', 00H, 'I', 00H
	DB	'G', 00H, 'N', 00H, 00H, 00H
	ORG $+2
$SG174992 DB	'F', 00H, 'E', 00H, 'A', 00H, 'T', 00H, 'U', 00H, 'R', 00H
	DB	'E', 00H, 'S', 00H, 00H, 00H
	ORG $+2
$SG174999 DB	'L', 00H, 'I', 00H, 'S', 00H, 'T', 00H, 'D', 00H, 'A', 00H
	DB	'T', 00H, 'A', 00H, 00H, 00H
	ORG $+2
$SG175006 DB	'E', 00H, 'N', 00H, 'A', 00H, 'B', 00H, 'L', 00H, 'E', 00H
	DB	'D', 00H, 00H, 00H
$SG175013 DB	'A', 00H, 'T', 00H, 'T', 00H, 'R', 00H, 'I', 00H, 'B', 00H
	DB	'V', 00H, 'I', 00H, 'S', 00H, 00H, 00H
$SG175020 DB	'C', 00H, 'O', 00H, 'L', 00H, 00H, 00H
$SG175027 DB	'E', 00H, 'D', 00H, 'I', 00H, 'T', 00H, 00H, 00H
	ORG $+2
$SG175034 DB	'F', 00H, 'I', 00H, 'L', 00H, 'T', 00H, 'E', 00H, 'R', 00H
	DB	00H, 00H
	ORG $+2
$SG175041 DB	'S', 00H, 'H', 00H, 'O', 00H, 'W', 00H, 'E', 00H, 'D', 00H
	DB	'I', 00H, 'T', 00H, 'F', 00H, 'I', 00H, 'L', 00H, 'T', 00H, 'E'
	DB	00H, 'R', 00H, 00H, 00H
	ORG $+2
$SG175048 DB	'S', 00H, 'O', 00H, 'R', 00H, 'T', 00H, 'A', 00H, 'B', 00H
	DB	'L', 00H, 'E', 00H, 00H, 00H
	ORG $+2
$SG175055 DB	'C', 00H, 'U', 00H, 'S', 00H, 'T', 00H, 'O', 00H, 'M', 00H
	DB	'A', 00H, 'T', 00H, 'T', 00H, 'R', 00H, 'I', 00H, 'B', 00H, 00H
	DB	00H
	ORG $+2
$SG175062 DB	'T', 00H, 'A', 00H, 'S', 00H, 'K', 00H, 00H, 00H
	ORG $+2
$SG175069 DB	'I', 00H, 'D', 00H, 00H, 00H
	ORG $+2
$SG175076 DB	'R', 00H, 'E', 00H, 'F', 00H, 'I', 00H, 'D', 00H, 00H, 00H
$SG175083 DB	'P', 00H, 'O', 00H, 'S', 00H, 00H, 00H
$SG175090 DB	'P', 00H, 'A', 00H, 'R', 00H, 'E', 00H, 'N', 00H, 'T', 00H
	DB	'I', 00H, 'D', 00H, 00H, 00H
	ORG $+2
$SG175097 DB	'T', 00H, 'I', 00H, 'T', 00H, 'L', 00H, 'E', 00H, 00H, 00H
$SG175104 DB	'P', 00H, 'E', 00H, 'R', 00H, 'S', 00H, 'O', 00H, 'N', 00H
	DB	00H, 00H
	ORG $+2
$SG175111 DB	'A', 00H, 'L', 00H, 'L', 00H, 'O', 00H, 'C', 00H, 'A', 00H
	DB	'T', 00H, 'E', 00H, 'D', 00H, 'B', 00H, 'Y', 00H, 00H, 00H
$SG175118 DB	'C', 00H, 'A', 00H, 'T', 00H, 'E', 00H, 'G', 00H, 'O', 00H
	DB	'R', 00H, 'Y', 00H, 00H, 00H
	ORG $+2
$SG175125 DB	'T', 00H, 'A', 00H, 'G', 00H, 00H, 00H
$SG175132 DB	'S', 00H, 'T', 00H, 'A', 00H, 'T', 00H, 'U', 00H, 'S', 00H
	DB	00H, 00H
	ORG $+2
$SG175139 DB	'F', 00H, 'I', 00H, 'L', 00H, 'E', 00H, 'R', 00H, 'E', 00H
	DB	'F', 00H, 'P', 00H, 'A', 00H, 'T', 00H, 'H', 00H, 00H, 00H
$SG175146 DB	'C', 00H, 'R', 00H, 'E', 00H, 'A', 00H, 'T', 00H, 'E', 00H
	DB	'D', 00H, 'B', 00H, 'Y', 00H, 00H, 00H
$SG175153 DB	'C', 00H, 'O', 00H, 'L', 00H, 'O', 00H, 'R', 00H, 00H, 00H
$SG175160 DB	'F', 00H, 'L', 00H, 'A', 00H, 'G', 00H, 00H, 00H
	ORG $+2
$SG175167 DB	'W', 00H, 'E', 00H, 'B', 00H, 'C', 00H, 'O', 00H, 'L', 00H
	DB	'O', 00H, 'R', 00H, 00H, 00H
	ORG $+2
$SG175174 DB	'P', 00H, 'R', 00H, 'I', 00H, 'O', 00H, 'R', 00H, 'I', 00H
	DB	'T', 00H, 'Y', 00H, 00H, 00H
	ORG $+2
$SG175181 DB	'P', 00H, 'E', 00H, 'R', 00H, 'C', 00H, 'E', 00H, 'N', 00H
	DB	'T', 00H, 'D', 00H, 'O', 00H, 'N', 00H, 'E', 00H, 00H, 00H
$SG175188 DB	'T', 00H, 'I', 00H, 'M', 00H, 'E', 00H, 'E', 00H, 'S', 00H
	DB	'T', 00H, 'I', 00H, 'M', 00H, 'A', 00H, 'T', 00H, 'E', 00H, 00H
	DB	00H
	ORG $+2
$SG175195 DB	'T', 00H, 'I', 00H, 'M', 00H, 'E', 00H, 'E', 00H, 'S', 00H
	DB	'T', 00H, 'U', 00H, 'N', 00H, 'I', 00H, 'T', 00H, 'S', 00H, 00H
	DB	00H
	ORG $+2
$SG175202 DB	'T', 00H, 'I', 00H, 'M', 00H, 'E', 00H, 'S', 00H, 'P', 00H
	DB	'E', 00H, 'N', 00H, 'T', 00H, 00H, 00H
$SG175209 DB	'T', 00H, 'I', 00H, 'M', 00H, 'E', 00H, 'S', 00H, 'P', 00H
	DB	'E', 00H, 'N', 00H, 'T', 00H, 'U', 00H, 'N', 00H, 'I', 00H, 'T'
	DB	00H, 'S', 00H, 00H, 00H
	ORG $+2
$SG175216 DB	'R', 00H, 'E', 00H, 'C', 00H, 'U', 00H, 'R', 00H, 'R', 00H
	DB	'E', 00H, 'N', 00H, 'C', 00H, 'E', 00H, 00H, 00H
	ORG $+2
$SG175223 DB	'R', 00H, 'E', 00H, 'C', 00H, 'U', 00H, 'R', 00H, 'F', 00H
	DB	'R', 00H, 'E', 00H, 'Q', 00H, 00H, 00H
$SG175230 DB	'R', 00H, 'E', 00H, 'C', 00H, 'U', 00H, 'R', 00H, 'S', 00H
	DB	'P', 00H, 'E', 00H, 'C', 00H, 'I', 00H, 'F', 00H, 'I', 00H, 'C'
	DB	00H, '1', 00H, 00H, 00H
	ORG $+2
$SG175237 DB	'R', 00H, 'E', 00H, 'C', 00H, 'U', 00H, 'R', 00H, 'S', 00H
	DB	'P', 00H, 'E', 00H, 'C', 00H, 'I', 00H, 'F', 00H, 'I', 00H, 'C'
	DB	00H, '2', 00H, 00H, 00H
	ORG $+2
$SG175244 DB	'R', 00H, 'E', 00H, 'C', 00H, 'U', 00H, 'R', 00H, 'F', 00H
	DB	'R', 00H, 'O', 00H, 'M', 00H, 00H, 00H
$SG175251 DB	'R', 00H, 'E', 00H, 'C', 00H, 'U', 00H, 'R', 00H, 'R', 00H
	DB	'E', 00H, 'U', 00H, 'S', 00H, 'E', 00H, 00H, 00H
	ORG $+2
$SG175258 DB	'R', 00H, 'E', 00H, 'C', 00H, 'U', 00H, 'R', 00H, 'N', 00H
	DB	'U', 00H, 'M', 00H, 00H, 00H
	ORG $+2
$SG175265 DB	'R', 00H, 'E', 00H, 'C', 00H, 'U', 00H, 'R', 00H, 'R', 00H
	DB	'E', 00H, 'M', 00H, 'A', 00H, 'I', 00H, 'N', 00H, 'I', 00H, 'N'
	DB	00H, 'G', 00H, 00H, 00H
	ORG $+2
$SG175272 DB	'D', 00H, 'E', 00H, 'P', 00H, 'E', 00H, 'N', 00H, 'D', 00H
	DB	'S', 00H, 00H, 00H
$SG175279 DB	'V', 00H, 'E', 00H, 'R', 00H, 'S', 00H, 'I', 00H, 'O', 00H
	DB	'N', 00H, 00H, 00H
$SG175286 DB	'I', 00H, 'C', 00H, 'O', 00H, 'N', 00H, 'I', 00H, 'N', 00H
	DB	'D', 00H, 'E', 00H, 'X', 00H, 00H, 00H
$SG175293 DB	'M', 00H, 'E', 00H, 'T', 00H, 'A', 00H, 'D', 00H, 'A', 00H
	DB	'T', 00H, 'A', 00H, 00H, 00H
	ORG $+2
$SG175300 DB	'R', 00H, 'I', 00H, 'S', 00H, 'K', 00H, 00H, 00H
	ORG $+2
$SG175307 DB	'C', 00H, 'O', 00H, 'S', 00H, 'T', 00H, 00H, 00H
	ORG $+2
$SG175314 DB	'E', 00H, 'X', 00H, 'T', 00H, 'E', 00H, 'R', 00H, 'N', 00H
	DB	'A', 00H, 'L', 00H, 'I', 00H, 'D', 00H, 00H, 00H
	ORG $+2
$SG175321 DB	'S', 00H, 'U', 00H, 'B', 00H, 'T', 00H, 'A', 00H, 'S', 00H
	DB	'K', 00H, 'D', 00H, 'O', 00H, 'N', 00H, 'E', 00H, 00H, 00H
$SG175328 DB	'G', 00H, 'O', 00H, 'O', 00H, 'D', 00H, 'A', 00H, 'S', 00H
	DB	'D', 00H, 'O', 00H, 'N', 00H, 'E', 00H, 00H, 00H
	ORG $+2
$SG175335 DB	'R', 00H, 'E', 00H, 'G', 00H, 'U', 00H, 'L', 00H, 'A', 00H
	DB	'R', 00H, 'I', 00H, 'T', 00H, 'Y', 00H, 00H, 00H
	ORG $+2
$SG175342 DB	'R', 00H, 'E', 00H, 'G', 00H, 'P', 00H, 'E', 00H, 'C', 00H
	DB	'I', 00H, 'F', 00H, 'I', 00H, 'C', 00H, '1', 00H, 00H, 00H
$SG175349 DB	'R', 00H, 'E', 00H, 'G', 00H, 'P', 00H, 'E', 00H, 'C', 00H
	DB	'I', 00H, 'F', 00H, 'I', 00H, 'C', 00H, '2', 00H, 00H, 00H
$SG175356 DB	'R', 00H, 'E', 00H, 'G', 00H, 'F', 00H, 'R', 00H, 'O', 00H
	DB	'M', 00H, 'D', 00H, 'U', 00H, 'E', 00H, 00H, 00H
	ORG $+2
$SG175363 DB	'N', 00H, 'U', 00H, 'M', 00H, 'P', 00H, 'E', 00H, 'R', 00H
	DB	'S', 00H, 'O', 00H, 'N', 00H, 00H, 00H
$SG175370 DB	'N', 00H, 'U', 00H, 'M', 00H, 'C', 00H, 'A', 00H, 'T', 00H
	DB	'E', 00H, 'G', 00H, 'O', 00H, 'R', 00H, 'Y', 00H, 00H, 00H
$SG175377 DB	'N', 00H, 'U', 00H, 'M', 00H, 'T', 00H, 'A', 00H, 'G', 00H
	DB	'S', 00H, 00H, 00H
$SG175384 DB	'N', 00H, 'U', 00H, 'M', 00H, 'D', 00H, 'E', 00H, 'P', 00H
	DB	'E', 00H, 'N', 00H, 'D', 00H, 'S', 00H, 00H, 00H
	ORG $+2
$SG175391 DB	'C', 00H, 'U', 00H, 'S', 00H, 'T', 00H, 'O', 00H, 'M', 00H
	DB	'A', 00H, 'T', 00H, 'T', 00H, 'R', 00H, 'I', 00H, 'B', 00H, 00H
	DB	00H
	ORG $+2
$SG175398 DB	'I', 00H, 'D', 00H, 00H, 00H
	ORG $+2
$SG175405 DB	'N', 00H, 'A', 00H, 'M', 00H, 'E', 00H, 00H, 00H
	ORG $+2
$SG175412 DB	'V', 00H, 'A', 00H, 'L', 00H, 'U', 00H, 'E', 00H, 00H, 00H
$SG175419 DB	'D', 00H, 'A', 00H, 'T', 00H, 'E', 00H, 'S', 00H, 'T', 00H
	DB	'R', 00H, 'I', 00H, 'N', 00H, 'G', 00H, 00H, 00H
	ORG $+2
$SG175426 DB	'C', 00H, 'O', 00H, 'M', 00H, 'M', 00H, 'E', 00H, 'N', 00H
	DB	'T', 00H, 'S', 00H, 00H, 00H
	ORG $+2
$SG175433 DB	'C', 00H, 'U', 00H, 'S', 00H, 'T', 00H, 'O', 00H, 'M', 00H
	DB	'C', 00H, 'O', 00H, 'M', 00H, 'M', 00H, 'E', 00H, 'N', 00H, 'T'
	DB	00H, 'S', 00H, 00H, 00H
	ORG $+2
$SG175440 DB	'C', 00H, 'O', 00H, 'M', 00H, 'M', 00H, 'E', 00H, 'N', 00H
	DB	'T', 00H, 'S', 00H, 'T', 00H, 'Y', 00H, 'P', 00H, 'E', 00H, 00H
	DB	00H
	ORG $+2
$SG175447 DB	'H', 00H, 'T', 00H, 'M', 00H, 'L', 00H, 'C', 00H, 'O', 00H
	DB	'M', 00H, 'M', 00H, 'E', 00H, 'N', 00H, 'T', 00H, 'S', 00H, 00H
	DB	00H
	ORG $+2
$SG175454 DB	'D', 00H, 'O', 00H, 'N', 00H, 'E', 00H, 'D', 00H, 'A', 00H
	DB	'T', 00H, 'E', 00H, 00H, 00H
	ORG $+2
$SG175461 DB	'D', 00H, 'O', 00H, 'N', 00H, 'E', 00H, 'D', 00H, 'A', 00H
	DB	'T', 00H, 'E', 00H, 'S', 00H, 'T', 00H, 'R', 00H, 'I', 00H, 'N'
	DB	00H, 'G', 00H, 00H, 00H
	ORG $+2
$SG175468 DB	'D', 00H, 'U', 00H, 'E', 00H, 'D', 00H, 'A', 00H, 'T', 00H
	DB	'E', 00H, 00H, 00H
$SG175475 DB	'D', 00H, 'U', 00H, 'E', 00H, 'D', 00H, 'A', 00H, 'T', 00H
	DB	'E', 00H, 'S', 00H, 'T', 00H, 'R', 00H, 'I', 00H, 'N', 00H, 'G'
	DB	00H, 00H, 00H
$SG175482 DB	'S', 00H, 'T', 00H, 'A', 00H, 'R', 00H, 'T', 00H, 'D', 00H
	DB	'A', 00H, 'T', 00H, 'E', 00H, 00H, 00H
$SG175489 DB	'S', 00H, 'T', 00H, 'A', 00H, 'R', 00H, 'T', 00H, 'D', 00H
	DB	'A', 00H, 'T', 00H, 'E', 00H, 'S', 00H, 'T', 00H, 'R', 00H, 'I'
	DB	00H, 'N', 00H, 'G', 00H, 00H, 00H
$SG175496 DB	'C', 00H, 'R', 00H, 'E', 00H, 'A', 00H, 'T', 00H, 'I', 00H
	DB	'O', 00H, 'N', 00H, 'D', 00H, 'A', 00H, 'T', 00H, 'E', 00H, 00H
	DB	00H
	ORG $+2
$SG175503 DB	'C', 00H, 'R', 00H, 'E', 00H, 'A', 00H, 'T', 00H, 'I', 00H
	DB	'O', 00H, 'N', 00H, 'D', 00H, 'A', 00H, 'T', 00H, 'E', 00H, 'S'
	DB	00H, 'T', 00H, 'R', 00H, 'I', 00H, 'N', 00H, 'G', 00H, 00H, 00H
	ORG $+2
$SG175510 DB	'L', 00H, 'A', 00H, 'S', 00H, 'T', 00H, 'M', 00H, 'O', 00H
	DB	'D', 00H, 00H, 00H
$SG175517 DB	'L', 00H, 'A', 00H, 'S', 00H, 'T', 00H, 'M', 00H, 'O', 00H
	DB	'D', 00H, 'S', 00H, 'T', 00H, 'R', 00H, 'I', 00H, 'N', 00H, 'G'
	DB	00H, 00H, 00H
$SG175524 DB	'T', 00H, 'E', 00H, 'X', 00H, 'T', 00H, 'C', 00H, 'O', 00H
	DB	'L', 00H, 'O', 00H, 'R', 00H, 00H, 00H
$SG175531 DB	'B', 00H, 'A', 00H, 'C', 00H, 'K', 00H, 'C', 00H, 'O', 00H
	DB	'L', 00H, 'O', 00H, 'R', 00H, 00H, 00H
$SG175538 DB	'T', 00H, 'E', 00H, 'X', 00H, 'T', 00H, 'W', 00H, 'E', 00H
	DB	'B', 00H, 'C', 00H, 'O', 00H, 'L', 00H, 'O', 00H, 'R', 00H, 00H
	DB	00H
	ORG $+2
$SG175545 DB	'B', 00H, 'A', 00H, 'C', 00H, 'K', 00H, 'W', 00H, 'E', 00H
	DB	'B', 00H, 'C', 00H, 'O', 00H, 'L', 00H, 'O', 00H, 'R', 00H, 00H
	DB	00H
	ORG $+2
$SG175552 DB	'P', 00H, 'R', 00H, 'I', 00H, 'O', 00H, 'R', 00H, 'I', 00H
	DB	'T', 00H, 'Y', 00H, 'C', 00H, 'O', 00H, 'L', 00H, 'O', 00H, 'R'
	DB	00H, 00H, 00H
$SG175559 DB	'P', 00H, 'R', 00H, 'I', 00H, 'O', 00H, 'R', 00H, 'I', 00H
	DB	'T', 00H, 'Y', 00H, 'W', 00H, 'E', 00H, 'B', 00H, 'C', 00H, 'O'
	DB	00H, 'L', 00H, 'O', 00H, 'R', 00H, 00H, 00H
	ORG $+2
$SG175566 DB	'C', 00H, 'A', 00H, 'L', 00H, 'C', 00H, 'T', 00H, 'I', 00H
	DB	'M', 00H, 'E', 00H, 'E', 00H, 'S', 00H, 'T', 00H, 'I', 00H, 'M'
	DB	00H, 'A', 00H, 'T', 00H, 'E', 00H, 00H, 00H
	ORG $+2
$SG175573 DB	'C', 00H, 'A', 00H, 'L', 00H, 'C', 00H, 'T', 00H, 'I', 00H
	DB	'M', 00H, 'E', 00H, 'E', 00H, 'S', 00H, 'T', 00H, 'U', 00H, 'N'
	DB	00H, 'I', 00H, 'T', 00H, 'S', 00H, 00H, 00H
	ORG $+2
$SG175580 DB	'C', 00H, 'A', 00H, 'L', 00H, 'C', 00H, 'T', 00H, 'I', 00H
	DB	'M', 00H, 'E', 00H, 'S', 00H, 'P', 00H, 'E', 00H, 'N', 00H, 'T'
	DB	00H, 00H, 00H
$SG175587 DB	'C', 00H, 'A', 00H, 'L', 00H, 'C', 00H, 'T', 00H, 'I', 00H
	DB	'M', 00H, 'E', 00H, 'S', 00H, 'P', 00H, 'E', 00H, 'N', 00H, 'T'
	DB	00H, 'U', 00H, 'N', 00H, 'I', 00H, 'T', 00H, 'S', 00H, 00H, 00H
	ORG $+2
$SG175594 DB	'C', 00H, 'A', 00H, 'L', 00H, 'C', 00H, 'S', 00H, 'T', 00H
	DB	'A', 00H, 'R', 00H, 'T', 00H, 'D', 00H, 'A', 00H, 'T', 00H, 'E'
	DB	00H, 00H, 00H
$SG175601 DB	'C', 00H, 'A', 00H, 'L', 00H, 'C', 00H, 'S', 00H, 'T', 00H
	DB	'A', 00H, 'R', 00H, 'T', 00H, 'D', 00H, 'A', 00H, 'T', 00H, 'E'
	DB	00H, 'S', 00H, 'T', 00H, 'R', 00H, 'I', 00H, 'N', 00H, 'G', 00H
	DB	00H, 00H
$SG175608 DB	'C', 00H, 'A', 00H, 'L', 00H, 'C', 00H, 'D', 00H, 'U', 00H
	DB	'E', 00H, 'D', 00H, 'A', 00H, 'T', 00H, 'E', 00H, 00H, 00H
$SG175615 DB	'C', 00H, 'A', 00H, 'L', 00H, 'C', 00H, 'D', 00H, 'U', 00H
	DB	'E', 00H, 'D', 00H, 'A', 00H, 'T', 00H, 'E', 00H, 'S', 00H, 'T'
	DB	00H, 'R', 00H, 'I', 00H, 'N', 00H, 'G', 00H, 00H, 00H
$SG175622 DB	'C', 00H, 'A', 00H, 'L', 00H, 'C', 00H, 'P', 00H, 'E', 00H
	DB	'R', 00H, 'C', 00H, 'E', 00H, 'N', 00H, 'T', 00H, 'D', 00H, 'O'
	DB	00H, 'N', 00H, 'E', 00H, 00H, 00H
$SG175629 DB	'H', 00H, 'I', 00H, 'G', 00H, 'H', 00H, 'E', 00H, 'S', 00H
	DB	'T', 00H, 'P', 00H, 'R', 00H, 'I', 00H, 'O', 00H, 'R', 00H, 'I'
	DB	00H, 'T', 00H, 'Y', 00H, 00H, 00H
$SG175636 DB	'H', 00H, 'I', 00H, 'G', 00H, 'H', 00H, 'E', 00H, 'S', 00H
	DB	'T', 00H, 'R', 00H, 'I', 00H, 'S', 00H, 'K', 00H, 00H, 00H
$SG175643 DB	'C', 00H, 'A', 00H, 'L', 00H, 'C', 00H, 'C', 00H, 'O', 00H
	DB	'S', 00H, 'T', 00H, 00H, 00H
	ORG $+2
$SG175650 DB	'P', 00H, 'A', 00H, 'T', 00H, 'H', 00H, 00H, 00H
	ORG $+2
$SG175657 DB	'I', 00H, 'S', 00H, 'P', 00H, 'A', 00H, 'R', 00H, 'E', 00H
	DB	'N', 00H, 'T', 00H, 00H, 00H
	ORG $+2
$SG178251 DB	'H', 00H, 'T', 00H, 'M', 00H, 'L', 00H, ' ', 00H, 'F', 00H
	DB	'o', 00H, 'r', 00H, 'm', 00H, 'a', 00H, 't', 00H, 00H, 00H
$SG178256 DB	'm', 00H, 's', 00H, 'S', 00H, 'o', 00H, 'u', 00H, 'r', 00H
	DB	'c', 00H, 'e', 00H, 'U', 00H, 'r', 00H, 'l', 00H, 00H, 00H
$SG178261 DB	'R', 00H, 'i', 00H, 'c', 00H, 'h', 00H, ' ', 00H, 'T', 00H
	DB	'e', 00H, 'x', 00H, 't', 00H, ' ', 00H, 'F', 00H, 'o', 00H, 'r'
	DB	00H, 'm', 00H, 'a', 00H, 't', 00H, 00H, 00H
	ORG $+2
$SG178266 DB	'R', 00H, 'i', 00H, 'c', 00H, 'h', 00H, 'E', 00H, 'd', 00H
	DB	'i', 00H, 't', 00H, ' ', 00H, 'T', 00H, 'e', 00H, 'x', 00H, 't'
	DB	00H, ' ', 00H, 'a', 00H, 'n', 00H, 'd', 00H, ' ', 00H, 'O', 00H
	DB	'b', 00H, 'j', 00H, 'e', 00H, 'c', 00H, 't', 00H, 's', 00H, 00H
	DB	00H
$SG178271 DB	'E', 00H, 'm', 00H, 'b', 00H, 'e', 00H, 'd', 00H, 'd', 00H
	DB	'e', 00H, 'd', 00H, ' ', 00H, 'O', 00H, 'b', 00H, 'j', 00H, 'e'
	DB	00H, 'c', 00H, 't', 00H, 00H, 00H
$SG178276 DB	'F', 00H, 'i', 00H, 'l', 00H, 'e', 00H, 'N', 00H, 'a', 00H
	DB	'm', 00H, 'e', 00H, 'W', 00H, 00H, 00H
_IID_TASKLIST4 DD 0d063e3deH
	DW	083d1H
	DW	040d7H
	DB	0bcH
	DB	02dH
	DB	0faH
	DB	024H
	DB	04H
	DB	085H
	DB	057H
	DB	0edH
$SG180895 DB	09H, 00H, 00H, 00H
$SG180907 DB	'S', 00H, 'h', 00H, 'o', 00H, 'w', 00H, 'T', 00H, 'o', 00H
	DB	'o', 00H, 'l', 00H, 'b', 00H, 'a', 00H, 'r', 00H, 00H, 00H
$SG180908 DB	'S', 00H, 'h', 00H, 'o', 00H, 'w', 00H, 'R', 00H, 'u', 00H
	DB	'l', 00H, 'e', 00H, 'r', 00H, 00H, 00H
$SG180909 DB	'W', 00H, 'o', 00H, 'r', 00H, 'd', 00H, 'W', 00H, 'r', 00H
	DB	'a', 00H, 'p', 00H, 00H, 00H
	ORG $+2
$SG180910 DB	'F', 00H, 'o', 00H, 'r', 00H, 'e', 00H, 'g', 00H, 'r', 00H
	DB	'o', 00H, 'u', 00H, 'n', 00H, 'd', 00H, 'C', 00H, 'o', 00H, 'l'
	DB	00H, 'o', 00H, 'u', 00H, 'r', 00H, 00H, 00H
	ORG $+2
$SG180911 DB	'B', 00H, 'a', 00H, 'c', 00H, 'k', 00H, 'g', 00H, 'r', 00H
	DB	'o', 00H, 'u', 00H, 'n', 00H, 'd', 00H, 'C', 00H, 'o', 00H, 'l'
	DB	00H, 'o', 00H, 'u', 00H, 'r', 00H, 00H, 00H
	ORG $+2
$SG180920 DB	'S', 00H, 'h', 00H, 'o', 00H, 'w', 00H, 'T', 00H, 'o', 00H
	DB	'o', 00H, 'l', 00H, 'b', 00H, 'a', 00H, 'r', 00H, 00H, 00H
$SG180922 DB	'S', 00H, 'h', 00H, 'o', 00H, 'w', 00H, 'R', 00H, 'u', 00H
	DB	'l', 00H, 'e', 00H, 'r', 00H, 00H, 00H
$SG180924 DB	'W', 00H, 'o', 00H, 'r', 00H, 'd', 00H, 'W', 00H, 'r', 00H
	DB	'a', 00H, 'p', 00H, 00H, 00H
	ORG $+2
$SG180926 DB	'F', 00H, 'o', 00H, 'r', 00H, 'e', 00H, 'g', 00H, 'r', 00H
	DB	'o', 00H, 'u', 00H, 'n', 00H, 'd', 00H, 'C', 00H, 'o', 00H, 'l'
	DB	00H, 'o', 00H, 'u', 00H, 'r', 00H, 00H, 00H
	ORG $+2
$SG180928 DB	'B', 00H, 'a', 00H, 'c', 00H, 'k', 00H, 'g', 00H, 'r', 00H
	DB	'o', 00H, 'u', 00H, 'n', 00H, 'd', 00H, 'C', 00H, 'o', 00H, 'l'
	DB	00H, 'o', 00H, 'u', 00H, 'r', 00H, 00H, 00H
	ORG $+2
$SG180931 DB	'F', 00H, 'i', 00H, 'l', 00H, 'e', 00H, 'L', 00H, 'i', 00H
	DB	'n', 00H, 'k', 00H, 'O', 00H, 'p', 00H, 't', 00H, 'i', 00H, 'o'
	DB	00H, 'n', 00H, 00H, 00H
	ORG $+2
$SG180933 DB	'F', 00H, 'i', 00H, 'l', 00H, 'e', 00H, 'L', 00H, 'i', 00H
	DB	'n', 00H, 'k', 00H, 'O', 00H, 'p', 00H, 't', 00H, 'i', 00H, 'o'
	DB	00H, 'n', 00H, 'I', 00H, 's', 00H, 'D', 00H, 'e', 00H, 'f', 00H
	DB	'a', 00H, 'u', 00H, 'l', 00H, 't', 00H, 00H, 00H
$SG180979 DB	00H, 00H
	ORG $+2
$SG181010 DB	00H, 00H
	ORG $+2
$SG181086 DB	'%', 00H, 's', 00H, ':', 00H, ' ', 00H, '%', 00H, 's', 00H
	DB	00H, 00H
	ORG $+2
$SG181103 DB	'%', 00H, '2', 00H, '0', 00H, 00H, 00H
$SG181104 DB	' ', 00H, 00H, 00H
$SG181115 DB	' ', 00H, '%', 00H, 's', 00H, '%', 00H, 'l', 00H, 'u', 00H
	DB	00H, 00H
	ORG $+2
$SG181117 DB	' ', 00H, '%', 00H, 's', 00H, '%', 00H, 's', 00H, '?', 00H
	DB	'%', 00H, 'l', 00H, 'u', 00H, 00H, 00H
$SG181425 DB	'c:\program files (x86)\microsoft visual studio 10.0\vc\a'
	DB	'tlmfc\include\afxtempl.h', 00H
	ORG $+3
$SG181460 DB	'with ', 00H
	ORG $+2
$SG181461 DB	' elements', 00H
	ORG $+2
$SG181441 DB	'c:\program files (x86)\microsoft visual studio 10.0\vc\a'
	DB	'tlmfc\include\afxtempl.h', 00H
	ORG $+3
$SG181463 DB	0aH, 00H
	ORG $+2
$SG181471 DB	0aH, 00H
	ORG $+2
$SG181537 DB	' elements', 00H
	ORG $+2
$SG181481 DB	'c:\program files (x86)\microsoft visual studio 10.0\vc\a'
	DB	'tlmfc\include\afxtempl.h', 00H
	ORG $+3
$SG181536 DB	'with ', 00H
	ORG $+2
$SG181539 DB	0aH, 00H
	ORG $+2
$SG181483 DB	'c:\program files (x86)\microsoft visual studio 10.0\vc\a'
	DB	'tlmfc\include\afxtempl.h', 00H
	ORG $+3
$SG181547 DB	0aH, 00H
	ORG $+2
$SG181486 DB	'c:\program files (x86)\microsoft visual studio 10.0\vc\a'
	DB	'tlmfc\include\afxtempl.h', 00H
	ORG $+3
$SG181670 DB	'with ', 00H
	ORG $+2
$SG181671 DB	' elements', 00H
	ORG $+2
$SG181488 DB	'c:\program files (x86)\microsoft visual studio 10.0\vc\a'
	DB	'tlmfc\include\afxtempl.h', 00H
	ORG $+3
$SG181679 DB	0aH, 09H, '[', 00H
$SG181490 DB	'c:\program files (x86)\microsoft visual studio 10.0\vc\a'
	DB	'tlmfc\include\afxtempl.h', 00H
	ORG $+3
$SG181695 DB	0aH, 00H
	ORG $+2
$SG181493 DB	'c:\program files (x86)\microsoft visual studio 10.0\vc\a'
	DB	'tlmfc\include\afxtempl.h', 00H
	ORG $+3
$SG181760 DB	'with ', 00H
	ORG $+2
$SG181761 DB	' elements', 00H
	ORG $+2
$SG181501 DB	'c:\program files (x86)\microsoft visual studio 10.0\vc\a'
	DB	'tlmfc\include\afxtempl.h', 00H
	ORG $+3
$SG181763 DB	0aH, 00H
	ORG $+2
$SG181517 DB	'c:\program files (x86)\microsoft visual studio 10.0\vc\a'
	DB	'tlmfc\include\afxtempl.h', 00H
	ORG $+3
$SG181771 DB	0aH, 00H
	ORG $+2
$SG181557 DB	'c:\program files (x86)\microsoft visual studio 10.0\vc\a'
	DB	'tlmfc\include\afxtempl.h', 00H
	ORG $+3
$SG181894 DB	'with ', 00H
	ORG $+2
$SG181895 DB	' elements', 00H
	ORG $+2
$SG181559 DB	'c:\program files (x86)\microsoft visual studio 10.0\vc\a'
	DB	'tlmfc\include\afxtempl.h', 00H
	ORG $+3
$SG181903 DB	0aH, 09H, '[', 00H
$SG181562 DB	'c:\program files (x86)\microsoft visual studio 10.0\vc\a'
	DB	'tlmfc\include\afxtempl.h', 00H
	ORG $+3
$SG181919 DB	0aH, 00H
	ORG $+2
$SG181564 DB	'c:\program files (x86)\microsoft visual studio 10.0\vc\a'
	DB	'tlmfc\include\afxtempl.h', 00H
	ORG $+3
$SG182029 DB	'with ', 00H
	ORG $+2
$SG182030 DB	' elements', 00H
	ORG $+2
$SG181566 DB	'c:\program files (x86)\microsoft visual studio 10.0\vc\a'
	DB	'tlmfc\include\afxtempl.h', 00H
	ORG $+3
$SG182038 DB	0aH, 09H, '[', 00H
$SG181569 DB	'c:\program files (x86)\microsoft visual studio 10.0\vc\a'
	DB	'tlmfc\include\afxtempl.h', 00H
	ORG $+3
$SG182048 DB	0aH, 00H
	ORG $+2
$SG181582 DB	'c:\program files (x86)\microsoft visual studio 10.0\vc\a'
	DB	'tlmfc\include\afxtempl.h', 00H
	ORG $+3
$SG182158 DB	'with ', 00H
	ORG $+2
$SG182159 DB	' elements', 00H
	ORG $+2
$SG181595 DB	'c:\program files (x86)\microsoft visual studio 10.0\vc\a'
	DB	'tlmfc\include\afxtempl.h', 00H
	ORG $+3
$SG182167 DB	0aH, 09H, '[', 00H
$SG181599 DB	'c:\program files (x86)\microsoft visual studio 10.0\vc\a'
	DB	'tlmfc\include\afxtempl.h', 00H
	ORG $+3
$SG181687 DB	'] = ', 00H
	ORG $+3
$SG182177 DB	0aH, 00H
	ORG $+2
$SG181708 DB	'c:\program files (x86)\microsoft visual studio 10.0\vc\a'
	DB	'tlmfc\include\afxtempl.h', 00H
	ORG $+3
$SG182287 DB	'with ', 00H
	ORG $+2
$SG182288 DB	' elements', 00H
	ORG $+2
$SG181710 DB	'c:\program files (x86)\microsoft visual studio 10.0\vc\a'
	DB	'tlmfc\include\afxtempl.h', 00H
	ORG $+3
$SG182296 DB	0aH, 09H, '[', 00H
$SG181725 DB	'c:\program files (x86)\microsoft visual studio 10.0\vc\a'
	DB	'tlmfc\include\afxtempl.h', 00H
	ORG $+3
$SG182306 DB	0aH, 00H
	ORG $+2
$SG181741 DB	'c:\program files (x86)\microsoft visual studio 10.0\vc\a'
	DB	'tlmfc\include\afxtempl.h', 00H
	ORG $+3
$SG182421 DB	'with ', 00H
	ORG $+2
$SG182422 DB	' elements', 00H
	ORG $+2
$SG181781 DB	'c:\program files (x86)\microsoft visual studio 10.0\vc\a'
	DB	'tlmfc\include\afxtempl.h', 00H
	ORG $+3
$SG182430 DB	0aH, 09H, '[', 00H
$SG181783 DB	'c:\program files (x86)\microsoft visual studio 10.0\vc\a'
	DB	'tlmfc\include\afxtempl.h', 00H
	ORG $+3
$SG182434 DB	0aH, 00H
	ORG $+2
$SG181786 DB	'c:\program files (x86)\microsoft visual studio 10.0\vc\a'
	DB	'tlmfc\include\afxtempl.h', 00H
	ORG $+3
$SG182603 DB	'with ', 00H
	ORG $+2
$SG182604 DB	' elements', 00H
	ORG $+2
$SG181788 DB	'c:\program files (x86)\microsoft visual studio 10.0\vc\a'
	DB	'tlmfc\include\afxtempl.h', 00H
	ORG $+3
$SG182618 DB	0aH, 09H, '[', 00H
$SG181790 DB	'c:\program files (x86)\microsoft visual studio 10.0\vc\a'
	DB	'tlmfc\include\afxtempl.h', 00H
	ORG $+3
$SG182634 DB	0aH, 00H
	ORG $+2
$SG181793 DB	'c:\program files (x86)\microsoft visual studio 10.0\vc\a'
	DB	'tlmfc\include\afxtempl.h', 00H
	ORG $+3
$SG182692 DB	'with ', 00H
	ORG $+2
$SG182693 DB	' elements', 00H
	ORG $+2
$SG181806 DB	'c:\program files (x86)\microsoft visual studio 10.0\vc\a'
	DB	'tlmfc\include\afxtempl.h', 00H
	ORG $+3
$SG182695 DB	0aH, 00H
	ORG $+2
$SG181819 DB	'c:\program files (x86)\microsoft visual studio 10.0\vc\a'
	DB	'tlmfc\include\afxtempl.h', 00H
	ORG $+3
$SG182703 DB	0aH, 00H
	ORG $+2
$SG181823 DB	'c:\program files (x86)\microsoft visual studio 10.0\vc\a'
	DB	'tlmfc\include\afxtempl.h', 00H
	ORG $+3
$SG181911 DB	'] = ', 00H
	ORG $+3
$SG182820 DB	'with ', 00H
	ORG $+2
$SG182821 DB	' elements', 00H
	ORG $+2
$SG181932 DB	'c:\program files (x86)\microsoft visual studio 10.0\vc\a'
	DB	'tlmfc\include\afxtempl.h', 00H
	ORG $+3
$SG182829 DB	0aH, 09H, '[', 00H
$SG181934 DB	'c:\program files (x86)\microsoft visual studio 10.0\vc\a'
	DB	'tlmfc\include\afxtempl.h', 00H
	ORG $+3
$SG182839 DB	0aH, 00H
	ORG $+2
$SG181947 DB	'c:\program files (x86)\microsoft visual studio 10.0\vc\a'
	DB	'tlmfc\include\afxtempl.h', 00H
	ORG $+3
$SG182916 DB	'with ', 00H
	ORG $+2
$SG182917 DB	' elements', 00H
	ORG $+2
$SG181960 DB	'c:\program files (x86)\microsoft visual studio 10.0\vc\a'
	DB	'tlmfc\include\afxtempl.h', 00H
	ORG $+3
$SG182925 DB	0aH, 00H
	ORG $+2
$SG181964 DB	'c:\program files (x86)\microsoft visual studio 10.0\vc\a'
	DB	'tlmfc\include\afxtempl.h', 00H
	ORG $+3
$SG182040 DB	'] = ', 00H
	ORG $+3
$SG182933 DB	0aH, 00H
	ORG $+2
$SG182061 DB	'c:\program files (x86)\microsoft visual studio 10.0\vc\a'
	DB	'tlmfc\include\afxtempl.h', 00H
	ORG $+7
$SG182063 DB	'c:\program files (x86)\microsoft visual studio 10.0\vc\a'
	DB	'tlmfc\include\afxtempl.h', 00H
	ORG $+7
$SG182076 DB	'c:\program files (x86)\microsoft visual studio 10.0\vc\a'
	DB	'tlmfc\include\afxtempl.h', 00H
	ORG $+7
$SG182089 DB	'c:\program files (x86)\microsoft visual studio 10.0\vc\a'
	DB	'tlmfc\include\afxtempl.h', 00H
	ORG $+7
$SG182093 DB	'c:\program files (x86)\microsoft visual studio 10.0\vc\a'
	DB	'tlmfc\include\afxtempl.h', 00H
	ORG $+3
$SG182169 DB	'] = ', 00H
	ORG $+7
$SG182190 DB	'c:\program files (x86)\microsoft visual studio 10.0\vc\a'
	DB	'tlmfc\include\afxtempl.h', 00H
	ORG $+7
$SG182192 DB	'c:\program files (x86)\microsoft visual studio 10.0\vc\a'
	DB	'tlmfc\include\afxtempl.h', 00H
	ORG $+7
$SG182205 DB	'c:\program files (x86)\microsoft visual studio 10.0\vc\a'
	DB	'tlmfc\include\afxtempl.h', 00H
	ORG $+7
$SG182218 DB	'c:\program files (x86)\microsoft visual studio 10.0\vc\a'
	DB	'tlmfc\include\afxtempl.h', 00H
	ORG $+7
$SG182222 DB	'c:\program files (x86)\microsoft visual studio 10.0\vc\a'
	DB	'tlmfc\include\afxtempl.h', 00H
	ORG $+3
$SG182304 DB	'] = ', 00H
	ORG $+7
$SG182319 DB	'c:\program files (x86)\microsoft visual studio 10.0\vc\a'
	DB	'tlmfc\include\afxtempl.h', 00H
	ORG $+7
$SG182321 DB	'c:\program files (x86)\microsoft visual studio 10.0\vc\a'
	DB	'tlmfc\include\afxtempl.h', 00H
	ORG $+7
$SG182345 DB	'c:\program files (x86)\microsoft visual studio 10.0\vc\a'
	DB	'tlmfc\include\afxtempl.h', 00H
	ORG $+7
$SG182358 DB	'c:\program files (x86)\microsoft visual studio 10.0\vc\a'
	DB	'tlmfc\include\afxtempl.h', 00H
	ORG $+7
$SG182362 DB	'c:\program files (x86)\microsoft visual studio 10.0\vc\a'
	DB	'tlmfc\include\afxtempl.h', 00H
	ORG $+3
$SG182432 DB	'] = ', 00H
	ORG $+7
$SG182447 DB	'c:\program files (x86)\microsoft visual studio 10.0\vc\a'
	DB	'tlmfc\include\afxtempl.h', 00H
	ORG $+7
$SG182449 DB	'c:\program files (x86)\microsoft visual studio 10.0\vc\a'
	DB	'tlmfc\include\afxtempl.h', 00H
	ORG $+7
$SG182463 DB	'c:\program files (x86)\microsoft visual studio 10.0\vc\a'
	DB	'tlmfc\include\afxtempl.h', 00H
	ORG $+7
$SG182477 DB	'c:\program files (x86)\microsoft visual studio 10.0\vc\a'
	DB	'tlmfc\include\afxtempl.h', 00H
	ORG $+7
$SG182479 DB	'c:\program files (x86)\microsoft visual studio 10.0\vc\a'
	DB	'tlmfc\include\afxtempl.h', 00H
	ORG $+7
$SG182481 DB	'c:\program files (x86)\microsoft visual studio 10.0\vc\a'
	DB	'tlmfc\include\afxtempl.h', 00H
	ORG $+7
$SG182492 DB	'c:\program files (x86)\microsoft visual studio 10.0\vc\a'
	DB	'tlmfc\include\afxtempl.h', 00H
	ORG $+7
$SG182533 DB	'c:\program files (x86)\microsoft visual studio 10.0\vc\a'
	DB	'tlmfc\include\afxtempl.h', 00H
	ORG $+7
$SG182546 DB	'c:\program files (x86)\microsoft visual studio 10.0\vc\a'
	DB	'tlmfc\include\afxtempl.h', 00H
	ORG $+7
$SG182550 DB	'c:\program files (x86)\microsoft visual studio 10.0\vc\a'
	DB	'tlmfc\include\afxtempl.h', 00H
	ORG $+3
$SG182626 DB	'] = ', 00H
	ORG $+7
$SG182647 DB	'c:\program files (x86)\microsoft visual studio 10.0\vc\a'
	DB	'tlmfc\include\afxtempl.h', 00H
	ORG $+7
$SG182649 DB	'c:\program files (x86)\microsoft visual studio 10.0\vc\a'
	DB	'tlmfc\include\afxtempl.h', 00H
	ORG $+7
$SG182657 DB	'c:\program files (x86)\microsoft visual studio 10.0\vc\a'
	DB	'tlmfc\include\afxtempl.h', 00H
	ORG $+7
$SG182673 DB	'c:\program files (x86)\microsoft visual studio 10.0\vc\a'
	DB	'tlmfc\include\afxtempl.h', 00H
	ORG $+7
$SG182713 DB	'c:\program files (x86)\microsoft visual studio 10.0\vc\a'
	DB	'tlmfc\include\afxtempl.h', 00H
	ORG $+7
$SG182715 DB	'c:\program files (x86)\microsoft visual studio 10.0\vc\a'
	DB	'tlmfc\include\afxtempl.h', 00H
	ORG $+7
$SG182718 DB	'c:\program files (x86)\microsoft visual studio 10.0\vc\a'
	DB	'tlmfc\include\afxtempl.h', 00H
	ORG $+7
$SG182720 DB	'c:\program files (x86)\microsoft visual studio 10.0\vc\a'
	DB	'tlmfc\include\afxtempl.h', 00H
	ORG $+7
$SG182722 DB	'c:\program files (x86)\microsoft visual studio 10.0\vc\a'
	DB	'tlmfc\include\afxtempl.h', 00H
	ORG $+7
$SG182725 DB	'c:\program files (x86)\microsoft visual studio 10.0\vc\a'
	DB	'tlmfc\include\afxtempl.h', 00H
	ORG $+7
$SG182738 DB	'c:\program files (x86)\microsoft visual studio 10.0\vc\a'
	DB	'tlmfc\include\afxtempl.h', 00H
	ORG $+7
$SG182751 DB	'c:\program files (x86)\microsoft visual studio 10.0\vc\a'
	DB	'tlmfc\include\afxtempl.h', 00H
	ORG $+7
$SG182755 DB	'c:\program files (x86)\microsoft visual studio 10.0\vc\a'
	DB	'tlmfc\include\afxtempl.h', 00H
	ORG $+3
$SG182831 DB	'] = ', 00H
	ORG $+7
$SG182852 DB	'c:\program files (x86)\microsoft visual studio 10.0\vc\a'
	DB	'tlmfc\include\afxtempl.h', 00H
	ORG $+7
$SG182854 DB	'c:\program files (x86)\microsoft visual studio 10.0\vc\a'
	DB	'tlmfc\include\afxtempl.h', 00H
	ORG $+7
$SG182863 DB	'c:\program files (x86)\microsoft visual studio 10.0\vc\a'
	DB	'tlmfc\include\afxtempl.h', 00H
	ORG $+7
$SG182872 DB	'c:\program files (x86)\microsoft visual studio 10.0\vc\a'
	DB	'tlmfc\include\afxtempl.h', 00H
	ORG $+7
$SG182889 DB	'c:\program files (x86)\microsoft visual studio 10.0\vc\a'
	DB	'tlmfc\include\afxtempl.h', 00H
	ORG $+7
$SG182943 DB	'c:\program files (x86)\microsoft visual studio 10.0\vc\a'
	DB	'tlmfc\include\afxtempl.h', 00H
	ORG $+7
$SG182945 DB	'c:\program files (x86)\microsoft visual studio 10.0\vc\a'
	DB	'tlmfc\include\afxtempl.h', 00H
	ORG $+7
$SG182949 DB	'c:\program files (x86)\microsoft visual studio 10.0\vc\a'
	DB	'tlmfc\include\afxtempl.h', 00H
	ORG $+7
$SG182952 DB	'c:\program files (x86)\microsoft visual studio 10.0\vc\a'
	DB	'tlmfc\include\afxtempl.h', 00H
	ORG $+7
$SG183052 DB	'c:\program files (x86)\microsoft visual studio 10.0\vc\a'
	DB	'tlmfc\include\afxtempl.h', 00H
	ORG $+7
$SG183054 DB	'c:\program files (x86)\microsoft visual studio 10.0\vc\a'
	DB	'tlmfc\include\afxtempl.h', 00H
	ORG $+7
$SG183069 DB	'c:\program files (x86)\microsoft visual studio 10.0\vc\a'
	DB	'tlmfc\include\afxtempl.h', 00H
	ORG $+7
$SG183076 DB	'c:\program files (x86)\microsoft visual studio 10.0\vc\a'
	DB	'tlmfc\include\afxtempl.h', 00H
	ORG $+7
$SG183112 DB	'c:\program files (x86)\microsoft visual studio 10.0\vc\a'
	DB	'tlmfc\include\afxtempl.h', 00H
	ORG $+7
$SG183116 DB	'c:\program files (x86)\microsoft visual studio 10.0\vc\a'
	DB	'tlmfc\include\afxtempl.h', 00H
	ORG $+7
$SG183128 DB	'c:\program files (x86)\microsoft visual studio 10.0\vc\a'
	DB	'tlmfc\include\afxtempl.h', 00H
	ORG $+7
$SG183147 DB	'c:\program files (x86)\microsoft visual studio 10.0\vc\a'
	DB	'tlmfc\include\afxtempl.h', 00H
	ORG $+7
$SG183152 DB	'c:\program files (x86)\microsoft visual studio 10.0\vc\a'
	DB	'tlmfc\include\afxtempl.h', 00H
	ORG $+7
$SG183179 DB	'c:\program files (x86)\microsoft visual studio 10.0\vc\a'
	DB	'tlmfc\include\afxtempl.h', 00H
	ORG $+7
$SG183184 DB	'c:\program files (x86)\microsoft visual studio 10.0\vc\a'
	DB	'tlmfc\include\afxtempl.h', 00H
	ORG $+7
$SG183194 DB	'c:\program files (x86)\microsoft visual studio 10.0\vc\a'
	DB	'tlmfc\include\afxtempl.h', 00H
	ORG $+7
$SG183196 DB	'c:\program files (x86)\microsoft visual studio 10.0\vc\a'
	DB	'tlmfc\include\afxtempl.h', 00H
	ORG $+7
$SG183211 DB	'c:\program files (x86)\microsoft visual studio 10.0\vc\a'
	DB	'tlmfc\include\afxtempl.h', 00H
	ORG $+7
$SG183218 DB	'c:\program files (x86)\microsoft visual studio 10.0\vc\a'
	DB	'tlmfc\include\afxtempl.h', 00H
	ORG $+7
$SG183260 DB	'c:\program files (x86)\microsoft visual studio 10.0\vc\a'
	DB	'tlmfc\include\afxtempl.h', 00H
	ORG $+7
$SG183264 DB	'c:\program files (x86)\microsoft visual studio 10.0\vc\a'
	DB	'tlmfc\include\afxtempl.h', 00H
	ORG $+7
$SG183276 DB	'c:\program files (x86)\microsoft visual studio 10.0\vc\a'
	DB	'tlmfc\include\afxtempl.h', 00H
	ORG $+7
$SG183298 DB	'c:\program files (x86)\microsoft visual studio 10.0\vc\a'
	DB	'tlmfc\include\afxtempl.h', 00H
	ORG $+7
$SG183303 DB	'c:\program files (x86)\microsoft visual studio 10.0\vc\a'
	DB	'tlmfc\include\afxtempl.h', 00H
	ORG $+7
$SG183330 DB	'c:\program files (x86)\microsoft visual studio 10.0\vc\a'
	DB	'tlmfc\include\afxtempl.h', 00H
	ORG $+7
$SG183335 DB	'c:\program files (x86)\microsoft visual studio 10.0\vc\a'
	DB	'tlmfc\include\afxtempl.h', 00H
	ORG $+7
$SG183360 DB	'c:\program files (x86)\microsoft visual studio 10.0\vc\a'
	DB	'tlmfc\include\afxtempl.h', 00H
	ORG $+7
$SG183397 DB	'c:\program files (x86)\microsoft visual studio 10.0\vc\a'
	DB	'tlmfc\include\afxtempl.h', 00H
	ORG $+7
$SG183403 DB	'c:\program files (x86)\microsoft visual studio 10.0\vc\a'
	DB	'tlmfc\include\afxtempl.h', 00H
	ORG $+7
$SG183412 DB	'c:\program files (x86)\microsoft visual studio 10.0\vc\a'
	DB	'tlmfc\include\afxtempl.h', 00H
	ORG $+7
$SG183427 DB	'c:\program files (x86)\microsoft visual studio 10.0\vc\a'
	DB	'tlmfc\include\afxtempl.h', 00H
	ORG $+7
$SG183431 DB	'c:\program files (x86)\microsoft visual studio 10.0\vc\a'
	DB	'tlmfc\include\afxtempl.h', 00H
	ORG $+7
$SG183446 DB	'c:\program files (x86)\microsoft visual studio 10.0\vc\a'
	DB	'tlmfc\include\afxtempl.h', 00H
	ORG $+7
$SG183451 DB	'c:\program files (x86)\microsoft visual studio 10.0\vc\a'
	DB	'tlmfc\include\afxtempl.h', 00H
	ORG $+7
$SG183478 DB	'c:\program files (x86)\microsoft visual studio 10.0\vc\a'
	DB	'tlmfc\include\afxtempl.h', 00H
	ORG $+7
$SG183483 DB	'c:\program files (x86)\microsoft visual studio 10.0\vc\a'
	DB	'tlmfc\include\afxtempl.h', 00H
	ORG $+7
$SG183510 DB	'c:\program files (x86)\microsoft visual studio 10.0\vc\a'
	DB	'tlmfc\include\afxtempl.h', 00H
	ORG $+7
$SG183515 DB	'c:\program files (x86)\microsoft visual studio 10.0\vc\a'
	DB	'tlmfc\include\afxtempl.h', 00H
	ORG $+7
$SG183522 DB	'c:\program files (x86)\microsoft visual studio 10.0\vc\a'
	DB	'tlmfc\include\afxtempl.h', 00H
	ORG $+7
$SG183527 DB	'c:\program files (x86)\microsoft visual studio 10.0\vc\a'
	DB	'tlmfc\include\afxtempl.h', 00H
	ORG $+7
$SG183537 DB	'c:\program files (x86)\microsoft visual studio 10.0\vc\a'
	DB	'tlmfc\include\afxtempl.h', 00H
	ORG $+7
$SG183539 DB	'c:\program files (x86)\microsoft visual studio 10.0\vc\a'
	DB	'tlmfc\include\afxtempl.h', 00H
	ORG $+7
$SG183554 DB	'c:\program files (x86)\microsoft visual studio 10.0\vc\a'
	DB	'tlmfc\include\afxtempl.h', 00H
	ORG $+7
$SG183561 DB	'c:\program files (x86)\microsoft visual studio 10.0\vc\a'
	DB	'tlmfc\include\afxtempl.h', 00H
	ORG $+7
$SG183603 DB	'c:\program files (x86)\microsoft visual studio 10.0\vc\a'
	DB	'tlmfc\include\afxtempl.h', 00H
	ORG $+7
$SG183607 DB	'c:\program files (x86)\microsoft visual studio 10.0\vc\a'
	DB	'tlmfc\include\afxtempl.h', 00H
	ORG $+7
$SG183619 DB	'c:\program files (x86)\microsoft visual studio 10.0\vc\a'
	DB	'tlmfc\include\afxtempl.h', 00H
	ORG $+7
$SG183641 DB	'c:\program files (x86)\microsoft visual studio 10.0\vc\a'
	DB	'tlmfc\include\afxtempl.h', 00H
	ORG $+7
$SG183646 DB	'c:\program files (x86)\microsoft visual studio 10.0\vc\a'
	DB	'tlmfc\include\afxtempl.h', 00H
	ORG $+7
$SG183673 DB	'c:\program files (x86)\microsoft visual studio 10.0\vc\a'
	DB	'tlmfc\include\afxtempl.h', 00H
	ORG $+7
$SG183678 DB	'c:\program files (x86)\microsoft visual studio 10.0\vc\a'
	DB	'tlmfc\include\afxtempl.h', 00H
	ORG $+7
$SG183703 DB	'c:\program files (x86)\microsoft visual studio 10.0\vc\a'
	DB	'tlmfc\include\afxtempl.h', 00H
	ORG $+7
$SG183740 DB	'c:\program files (x86)\microsoft visual studio 10.0\vc\a'
	DB	'tlmfc\include\afxtempl.h', 00H
	ORG $+7
$SG183746 DB	'c:\program files (x86)\microsoft visual studio 10.0\vc\a'
	DB	'tlmfc\include\afxtempl.h', 00H
	ORG $+7
$SG183755 DB	'c:\program files (x86)\microsoft visual studio 10.0\vc\a'
	DB	'tlmfc\include\afxtempl.h', 00H
	ORG $+7
$SG183770 DB	'c:\program files (x86)\microsoft visual studio 10.0\vc\a'
	DB	'tlmfc\include\afxtempl.h', 00H
	ORG $+7
$SG183774 DB	'c:\program files (x86)\microsoft visual studio 10.0\vc\a'
	DB	'tlmfc\include\afxtempl.h', 00H
	ORG $+7
$SG183789 DB	'c:\program files (x86)\microsoft visual studio 10.0\vc\a'
	DB	'tlmfc\include\afxtempl.h', 00H
	ORG $+7
$SG183794 DB	'c:\program files (x86)\microsoft visual studio 10.0\vc\a'
	DB	'tlmfc\include\afxtempl.h', 00H
	ORG $+7
$SG183821 DB	'c:\program files (x86)\microsoft visual studio 10.0\vc\a'
	DB	'tlmfc\include\afxtempl.h', 00H
	ORG $+7
$SG183826 DB	'c:\program files (x86)\microsoft visual studio 10.0\vc\a'
	DB	'tlmfc\include\afxtempl.h', 00H
	ORG $+7
$SG183853 DB	'c:\program files (x86)\microsoft visual studio 10.0\vc\a'
	DB	'tlmfc\include\afxtempl.h', 00H
	ORG $+7
$SG183858 DB	'c:\program files (x86)\microsoft visual studio 10.0\vc\a'
	DB	'tlmfc\include\afxtempl.h', 00H
	ORG $+7
$SG183865 DB	'c:\program files (x86)\microsoft visual studio 10.0\vc\a'
	DB	'tlmfc\include\afxtempl.h', 00H
	ORG $+7
$SG183870 DB	'c:\program files (x86)\microsoft visual studio 10.0\vc\a'
	DB	'tlmfc\include\afxtempl.h', 00H
	ORG $+7
$SG183895 DB	'c:\program files (x86)\microsoft visual studio 10.0\vc\a'
	DB	'tlmfc\include\afxtempl.h', 00H
	ORG $+7
$SG183932 DB	'c:\program files (x86)\microsoft visual studio 10.0\vc\a'
	DB	'tlmfc\include\afxtempl.h', 00H
	ORG $+7
$SG183938 DB	'c:\program files (x86)\microsoft visual studio 10.0\vc\a'
	DB	'tlmfc\include\afxtempl.h', 00H
	ORG $+7
$SG183947 DB	'c:\program files (x86)\microsoft visual studio 10.0\vc\a'
	DB	'tlmfc\include\afxtempl.h', 00H
	ORG $+7
$SG183962 DB	'c:\program files (x86)\microsoft visual studio 10.0\vc\a'
	DB	'tlmfc\include\afxtempl.h', 00H
	ORG $+7
$SG183966 DB	'c:\program files (x86)\microsoft visual studio 10.0\vc\a'
	DB	'tlmfc\include\afxtempl.h', 00H
	ORG $+7
$SG183981 DB	'c:\program files (x86)\microsoft visual studio 10.0\vc\a'
	DB	'tlmfc\include\afxtempl.h', 00H
	ORG $+7
$SG183986 DB	'c:\program files (x86)\microsoft visual studio 10.0\vc\a'
	DB	'tlmfc\include\afxtempl.h', 00H
	ORG $+7
$SG184013 DB	'c:\program files (x86)\microsoft visual studio 10.0\vc\a'
	DB	'tlmfc\include\afxtempl.h', 00H
	ORG $+7
$SG184018 DB	'c:\program files (x86)\microsoft visual studio 10.0\vc\a'
	DB	'tlmfc\include\afxtempl.h', 00H
	ORG $+7
$SG184043 DB	'c:\program files (x86)\microsoft visual studio 10.0\vc\a'
	DB	'tlmfc\include\afxtempl.h', 00H
	ORG $+7
$SG184080 DB	'c:\program files (x86)\microsoft visual studio 10.0\vc\a'
	DB	'tlmfc\include\afxtempl.h', 00H
	ORG $+7
$SG184086 DB	'c:\program files (x86)\microsoft visual studio 10.0\vc\a'
	DB	'tlmfc\include\afxtempl.h', 00H
	ORG $+7
$SG184095 DB	'c:\program files (x86)\microsoft visual studio 10.0\vc\a'
	DB	'tlmfc\include\afxtempl.h', 00H
	ORG $+7
$SG184110 DB	'c:\program files (x86)\microsoft visual studio 10.0\vc\a'
	DB	'tlmfc\include\afxtempl.h', 00H
	ORG $+7
$SG184114 DB	'c:\program files (x86)\microsoft visual studio 10.0\vc\a'
	DB	'tlmfc\include\afxtempl.h', 00H
	ORG $+7
$SG184129 DB	'c:\program files (x86)\microsoft visual studio 10.0\vc\a'
	DB	'tlmfc\include\afxtempl.h', 00H
	ORG $+7
$SG184134 DB	'c:\program files (x86)\microsoft visual studio 10.0\vc\a'
	DB	'tlmfc\include\afxtempl.h', 00H
	ORG $+7
$SG184161 DB	'c:\program files (x86)\microsoft visual studio 10.0\vc\a'
	DB	'tlmfc\include\afxtempl.h', 00H
	ORG $+7
$SG184166 DB	'c:\program files (x86)\microsoft visual studio 10.0\vc\a'
	DB	'tlmfc\include\afxtempl.h', 00H
	ORG $+7
$SG184191 DB	'c:\program files (x86)\microsoft visual studio 10.0\vc\a'
	DB	'tlmfc\include\afxtempl.h', 00H
	ORG $+7
$SG184228 DB	'c:\program files (x86)\microsoft visual studio 10.0\vc\a'
	DB	'tlmfc\include\afxtempl.h', 00H
	ORG $+7
$SG184234 DB	'c:\program files (x86)\microsoft visual studio 10.0\vc\a'
	DB	'tlmfc\include\afxtempl.h', 00H
	ORG $+7
$SG184243 DB	'c:\program files (x86)\microsoft visual studio 10.0\vc\a'
	DB	'tlmfc\include\afxtempl.h', 00H
	ORG $+7
$SG184258 DB	'c:\program files (x86)\microsoft visual studio 10.0\vc\a'
	DB	'tlmfc\include\afxtempl.h', 00H
	ORG $+7
$SG184262 DB	'c:\program files (x86)\microsoft visual studio 10.0\vc\a'
	DB	'tlmfc\include\afxtempl.h', 00H
	ORG $+7
$SG184277 DB	'c:\program files (x86)\microsoft visual studio 10.0\vc\a'
	DB	'tlmfc\include\afxtempl.h', 00H
	ORG $+7
$SG184282 DB	'c:\program files (x86)\microsoft visual studio 10.0\vc\a'
	DB	'tlmfc\include\afxtempl.h', 00H
	ORG $+7
$SG184309 DB	'c:\program files (x86)\microsoft visual studio 10.0\vc\a'
	DB	'tlmfc\include\afxtempl.h', 00H
	ORG $+7
$SG184314 DB	'c:\program files (x86)\microsoft visual studio 10.0\vc\a'
	DB	'tlmfc\include\afxtempl.h', 00H
	ORG $+7
$SG184339 DB	'c:\program files (x86)\microsoft visual studio 10.0\vc\a'
	DB	'tlmfc\include\afxtempl.h', 00H
	ORG $+7
$SG184376 DB	'c:\program files (x86)\microsoft visual studio 10.0\vc\a'
	DB	'tlmfc\include\afxtempl.h', 00H
	ORG $+7
$SG184382 DB	'c:\program files (x86)\microsoft visual studio 10.0\vc\a'
	DB	'tlmfc\include\afxtempl.h', 00H
	ORG $+7
$SG184391 DB	'c:\program files (x86)\microsoft visual studio 10.0\vc\a'
	DB	'tlmfc\include\afxtempl.h', 00H
	ORG $+7
$SG184406 DB	'c:\program files (x86)\microsoft visual studio 10.0\vc\a'
	DB	'tlmfc\include\afxtempl.h', 00H
	ORG $+7
$SG184410 DB	'c:\program files (x86)\microsoft visual studio 10.0\vc\a'
	DB	'tlmfc\include\afxtempl.h', 00H
	ORG $+7
$SG184443 DB	'c:\program files (x86)\microsoft visual studio 10.0\vc\a'
	DB	'tlmfc\include\afxtempl.h', 00H
	ORG $+7
$SG184480 DB	'c:\program files (x86)\microsoft visual studio 10.0\vc\a'
	DB	'tlmfc\include\afxtempl.h', 00H
	ORG $+7
$SG184486 DB	'c:\program files (x86)\microsoft visual studio 10.0\vc\a'
	DB	'tlmfc\include\afxtempl.h', 00H
	ORG $+7
$SG184495 DB	'c:\program files (x86)\microsoft visual studio 10.0\vc\a'
	DB	'tlmfc\include\afxtempl.h', 00H
	ORG $+7
$SG184510 DB	'c:\program files (x86)\microsoft visual studio 10.0\vc\a'
	DB	'tlmfc\include\afxtempl.h', 00H
	ORG $+7
$SG184514 DB	'c:\program files (x86)\microsoft visual studio 10.0\vc\a'
	DB	'tlmfc\include\afxtempl.h', 00H
	ORG $+7
$SG184529 DB	'c:\program files (x86)\microsoft visual studio 10.0\vc\a'
	DB	'tlmfc\include\afxtempl.h', 00H
	ORG $+7
$SG184534 DB	'c:\program files (x86)\microsoft visual studio 10.0\vc\a'
	DB	'tlmfc\include\afxtempl.h', 00H
	ORG $+7
$SG184561 DB	'c:\program files (x86)\microsoft visual studio 10.0\vc\a'
	DB	'tlmfc\include\afxtempl.h', 00H
	ORG $+7
$SG184566 DB	'c:\program files (x86)\microsoft visual studio 10.0\vc\a'
	DB	'tlmfc\include\afxtempl.h', 00H
	ORG $+7
$SG184573 DB	'c:\program files (x86)\microsoft visual studio 10.0\vc\a'
	DB	'tlmfc\include\afxtempl.h', 00H
	ORG $+7
$SG184578 DB	'c:\program files (x86)\microsoft visual studio 10.0\vc\a'
	DB	'tlmfc\include\afxtempl.h', 00H
	ORG $+7
$SG184588 DB	'c:\program files (x86)\microsoft visual studio 10.0\vc\a'
	DB	'tlmfc\include\afxtempl.h', 00H
	ORG $+7
$SG184590 DB	'c:\program files (x86)\microsoft visual studio 10.0\vc\a'
	DB	'tlmfc\include\afxtempl.h', 00H
	ORG $+7
$SG184605 DB	'c:\program files (x86)\microsoft visual studio 10.0\vc\a'
	DB	'tlmfc\include\afxtempl.h', 00H
	ORG $+7
$SG184612 DB	'c:\program files (x86)\microsoft visual studio 10.0\vc\a'
	DB	'tlmfc\include\afxtempl.h', 00H
	ORG $+7
$SG184648 DB	'c:\program files (x86)\microsoft visual studio 10.0\vc\a'
	DB	'tlmfc\include\afxtempl.h', 00H
	ORG $+7
$SG184652 DB	'c:\program files (x86)\microsoft visual studio 10.0\vc\a'
	DB	'tlmfc\include\afxtempl.h', 00H
	ORG $+7
$SG184664 DB	'c:\program files (x86)\microsoft visual studio 10.0\vc\a'
	DB	'tlmfc\include\afxtempl.h', 00H
	ORG $+7
$SG184683 DB	'c:\program files (x86)\microsoft visual studio 10.0\vc\a'
	DB	'tlmfc\include\afxtempl.h', 00H
	ORG $+7
$SG184688 DB	'c:\program files (x86)\microsoft visual studio 10.0\vc\a'
	DB	'tlmfc\include\afxtempl.h', 00H
	ORG $+7
$SG184715 DB	'c:\program files (x86)\microsoft visual studio 10.0\vc\a'
	DB	'tlmfc\include\afxtempl.h', 00H
	ORG $+7
$SG184720 DB	'c:\program files (x86)\microsoft visual studio 10.0\vc\a'
	DB	'tlmfc\include\afxtempl.h', 00H
	ORG $+7
$SG184745 DB	'c:\program files (x86)\microsoft visual studio 10.0\vc\a'
	DB	'tlmfc\include\afxtempl.h', 00H
	ORG $+7
$SG184782 DB	'c:\program files (x86)\microsoft visual studio 10.0\vc\a'
	DB	'tlmfc\include\afxtempl.h', 00H
	ORG $+7
$SG184788 DB	'c:\program files (x86)\microsoft visual studio 10.0\vc\a'
	DB	'tlmfc\include\afxtempl.h', 00H
	ORG $+7
$SG184797 DB	'c:\program files (x86)\microsoft visual studio 10.0\vc\a'
	DB	'tlmfc\include\afxtempl.h', 00H
	ORG $+7
$SG184812 DB	'c:\program files (x86)\microsoft visual studio 10.0\vc\a'
	DB	'tlmfc\include\afxtempl.h', 00H
	ORG $+7
$SG184816 DB	'c:\program files (x86)\microsoft visual studio 10.0\vc\a'
	DB	'tlmfc\include\afxtempl.h', 00H
	ORG $+7
$SG184831 DB	'c:\program files (x86)\microsoft visual studio 10.0\vc\a'
	DB	'tlmfc\include\afxtempl.h', 00H
	ORG $+7
$SG184836 DB	'c:\program files (x86)\microsoft visual studio 10.0\vc\a'
	DB	'tlmfc\include\afxtempl.h', 00H
	ORG $+7
$SG184863 DB	'c:\program files (x86)\microsoft visual studio 10.0\vc\a'
	DB	'tlmfc\include\afxtempl.h', 00H
	ORG $+7
$SG184868 DB	'c:\program files (x86)\microsoft visual studio 10.0\vc\a'
	DB	'tlmfc\include\afxtempl.h', 00H
	ORG $+7
$SG184877 DB	'c:\program files (x86)\microsoft visual studio 10.0\vc\a'
	DB	'tlmfc\include\afxtempl.h', 00H
	ORG $+7
$SG184889 DB	'c:\program files (x86)\microsoft visual studio 10.0\vc\a'
	DB	'tlmfc\include\afxtempl.h', 00H
	ORG $+7
$SG184921 DB	'c:\program files (x86)\microsoft visual studio 10.0\vc\a'
	DB	'tlmfc\include\afxtempl.h', 00H
	ORG $+7
$SG184926 DB	'c:\program files (x86)\microsoft visual studio 10.0\vc\a'
	DB	'tlmfc\include\afxtempl.h', 00H
	ORG $+7
$SG184953 DB	'c:\program files (x86)\microsoft visual studio 10.0\vc\a'
	DB	'tlmfc\include\afxtempl.h', 00H
	ORG $+7
$SG184958 DB	'c:\program files (x86)\microsoft visual studio 10.0\vc\a'
	DB	'tlmfc\include\afxtempl.h', 00H
	ORG $+7
$SG184984 DB	'c:\program files (x86)\microsoft visual studio 10.0\vc\a'
	DB	'tlmfc\include\afxtempl.h', 00H
	ORG $+7
$SG184995 DB	'c:\program files (x86)\microsoft visual studio 10.0\vc\a'
	DB	'tlmfc\include\afxtempl.h', 00H
	ORG $+7
$SG185009 DB	'c:\program files (x86)\microsoft visual studio 10.0\vc\a'
	DB	'tlmfc\include\afxtempl.h', 00H
	ORG $+7
$SG185020 DB	'c:\program files (x86)\microsoft visual studio 10.0\vc\a'
	DB	'tlmfc\include\afxtempl.h', 00H
	ORG $+7
$SG185034 DB	'c:\program files (x86)\microsoft visual studio 10.0\vc\a'
	DB	'tlmfc\include\afxtempl.h', 00H
	ORG $+7
$SG185045 DB	'c:\program files (x86)\microsoft visual studio 10.0\vc\a'
	DB	'tlmfc\include\afxtempl.h', 00H
	ORG $+7
$SG185059 DB	'c:\program files (x86)\microsoft visual studio 10.0\vc\a'
	DB	'tlmfc\include\afxtempl.h', 00H
	ORG $+7
$SG185070 DB	'c:\program files (x86)\microsoft visual studio 10.0\vc\a'
	DB	'tlmfc\include\afxtempl.h', 00H
	ORG $+7
$SG185084 DB	'c:\program files (x86)\microsoft visual studio 10.0\vc\a'
	DB	'tlmfc\include\afxtempl.h', 00H
	ORG $+7
$SG185095 DB	'c:\program files (x86)\microsoft visual studio 10.0\vc\a'
	DB	'tlmfc\include\afxtempl.h', 00H
	ORG $+7
$SG185109 DB	'c:\program files (x86)\microsoft visual studio 10.0\vc\a'
	DB	'tlmfc\include\afxtempl.h', 00H
	ORG $+7
$SG185120 DB	'c:\program files (x86)\microsoft visual studio 10.0\vc\a'
	DB	'tlmfc\include\afxtempl.h', 00H
	ORG $+7
$SG185134 DB	'c:\program files (x86)\microsoft visual studio 10.0\vc\a'
	DB	'tlmfc\include\afxtempl.h', 00H
	ORG $+7
$SG185145 DB	'c:\program files (x86)\microsoft visual studio 10.0\vc\a'
	DB	'tlmfc\include\afxtempl.h', 00H
	ORG $+7
$SG185159 DB	'c:\program files (x86)\microsoft visual studio 10.0\vc\a'
	DB	'tlmfc\include\afxtempl.h', 00H
	ORG $+7
$SG185170 DB	'c:\program files (x86)\microsoft visual studio 10.0\vc\a'
	DB	'tlmfc\include\afxtempl.h', 00H
	ORG $+7
$SG185197 DB	'c:\program files (x86)\microsoft visual studio 10.0\vc\a'
	DB	'tlmfc\include\afxtempl.h', 00H
	ORG $+7
$SG185201 DB	'c:\program files (x86)\microsoft visual studio 10.0\vc\a'
	DB	'tlmfc\include\afxtempl.h', 00H
	ORG $+7
$SG185218 DB	'c:\program files (x86)\microsoft visual studio 10.0\vc\a'
	DB	'tlmfc\include\afxtempl.h', 00H
	ORG $+7
$SG185220 DB	'c:\program files (x86)\microsoft visual studio 10.0\vc\a'
	DB	'tlmfc\include\afxtempl.h', 00H
	ORG $+7
$SG185222 DB	'c:\program files (x86)\microsoft visual studio 10.0\vc\a'
	DB	'tlmfc\include\afxtempl.h', 00H
	ORG $+7
$SG185233 DB	'c:\program files (x86)\microsoft visual studio 10.0\vc\a'
	DB	'tlmfc\include\afxtempl.h', 00H
	ORG $+7
$SG185266 DB	'c:\program files (x86)\microsoft visual studio 10.0\vc\a'
	DB	'tlmfc\include\afxtempl.h', 00H
	ORG $+7
$SG185272 DB	'c:\program files (x86)\microsoft visual studio 10.0\vc\a'
	DB	'tlmfc\include\afxtempl.h', 00H
	ORG $+7
$SG185326 DB	'c:\program files (x86)\microsoft visual studio 10.0\vc\a'
	DB	'tlmfc\include\afxtempl.h', 00H
	ORG $+7
$SG185328 DB	'c:\program files (x86)\microsoft visual studio 10.0\vc\a'
	DB	'tlmfc\include\afxtempl.h', 00H
	ORG $+7
$SG185330 DB	'c:\program files (x86)\microsoft visual studio 10.0\vc\a'
	DB	'tlmfc\include\afxtempl.h', 00H
	ORG $+7
$SG185341 DB	'c:\program files (x86)\microsoft visual studio 10.0\vc\a'
	DB	'tlmfc\include\afxtempl.h', 00H
	ORG $+7
$SG185374 DB	'c:\program files (x86)\microsoft visual studio 10.0\vc\a'
	DB	'tlmfc\include\afxtempl.h', 00H
	ORG $+7
$SG185380 DB	'c:\program files (x86)\microsoft visual studio 10.0\vc\a'
	DB	'tlmfc\include\afxtempl.h', 00H
	ORG $+7
$SG185434 DB	'c:\program files (x86)\microsoft visual studio 10.0\vc\a'
	DB	'tlmfc\include\afxtempl.h', 00H
	ORG $+7
$SG185436 DB	'c:\program files (x86)\microsoft visual studio 10.0\vc\a'
	DB	'tlmfc\include\afxtempl.h', 00H
	ORG $+7
$SG185438 DB	'c:\program files (x86)\microsoft visual studio 10.0\vc\a'
	DB	'tlmfc\include\afxtempl.h', 00H
	ORG $+7
$SG185449 DB	'c:\program files (x86)\microsoft visual studio 10.0\vc\a'
	DB	'tlmfc\include\afxtempl.h', 00H
	ORG $+7
$SG185482 DB	'c:\program files (x86)\microsoft visual studio 10.0\vc\a'
	DB	'tlmfc\include\afxtempl.h', 00H
	ORG $+7
$SG185488 DB	'c:\program files (x86)\microsoft visual studio 10.0\vc\a'
	DB	'tlmfc\include\afxtempl.h', 00H
	ORG $+7
$SG185532 DB	'c:\program files (x86)\microsoft visual studio 10.0\vc\a'
	DB	'tlmfc\include\afxtempl.h', 00H
	ORG $+7
$SG185534 DB	'c:\program files (x86)\microsoft visual studio 10.0\vc\a'
	DB	'tlmfc\include\afxtempl.h', 00H
	ORG $+7
$SG185536 DB	'c:\program files (x86)\microsoft visual studio 10.0\vc\a'
	DB	'tlmfc\include\afxtempl.h', 00H
	ORG $+7
$SG185547 DB	'c:\program files (x86)\microsoft visual studio 10.0\vc\a'
	DB	'tlmfc\include\afxtempl.h', 00H
	ORG $+7
$SG185580 DB	'c:\program files (x86)\microsoft visual studio 10.0\vc\a'
	DB	'tlmfc\include\afxtempl.h', 00H
	ORG $+7
$SG185586 DB	'c:\program files (x86)\microsoft visual studio 10.0\vc\a'
	DB	'tlmfc\include\afxtempl.h', 00H
	ORG $+7
$SG185640 DB	'c:\program files (x86)\microsoft visual studio 10.0\vc\a'
	DB	'tlmfc\include\afxtempl.h', 00H
	ORG $+7
$SG185642 DB	'c:\program files (x86)\microsoft visual studio 10.0\vc\a'
	DB	'tlmfc\include\afxtempl.h', 00H
	ORG $+7
$SG185644 DB	'c:\program files (x86)\microsoft visual studio 10.0\vc\a'
	DB	'tlmfc\include\afxtempl.h', 00H
	ORG $+7
$SG185655 DB	'c:\program files (x86)\microsoft visual studio 10.0\vc\a'
	DB	'tlmfc\include\afxtempl.h', 00H
	ORG $+7
$SG185688 DB	'c:\program files (x86)\microsoft visual studio 10.0\vc\a'
	DB	'tlmfc\include\afxtempl.h', 00H
	ORG $+7
$SG185694 DB	'c:\program files (x86)\microsoft visual studio 10.0\vc\a'
	DB	'tlmfc\include\afxtempl.h', 00H
	ORG $+7
$SG185744 DB	'c:\program files (x86)\microsoft visual studio 10.0\vc\a'
	DB	'tlmfc\include\afxtempl.h', 00H
	ORG $+7
$SG185746 DB	'c:\program files (x86)\microsoft visual studio 10.0\vc\a'
	DB	'tlmfc\include\afxtempl.h', 00H
	ORG $+7
$SG185748 DB	'c:\program files (x86)\microsoft visual studio 10.0\vc\a'
	DB	'tlmfc\include\afxtempl.h', 00H
	ORG $+7
$SG185759 DB	'c:\program files (x86)\microsoft visual studio 10.0\vc\a'
	DB	'tlmfc\include\afxtempl.h', 00H
	ORG $+7
$SG185792 DB	'c:\program files (x86)\microsoft visual studio 10.0\vc\a'
	DB	'tlmfc\include\afxtempl.h', 00H
	ORG $+7
$SG185798 DB	'c:\program files (x86)\microsoft visual studio 10.0\vc\a'
	DB	'tlmfc\include\afxtempl.h', 00H
	ORG $+7
$SG185859 DB	'c:\program files (x86)\microsoft visual studio 10.0\vc\a'
	DB	'tlmfc\include\afxtempl.h', 00H
	ORG $+7
$SG185865 DB	'c:\program files (x86)\microsoft visual studio 10.0\vc\a'
	DB	'tlmfc\include\afxtempl.h', 00H
	ORG $+7
$SG185915 DB	'c:\program files (x86)\microsoft visual studio 10.0\vc\a'
	DB	'tlmfc\include\afxtempl.h', 00H
	ORG $+7
$SG185917 DB	'c:\program files (x86)\microsoft visual studio 10.0\vc\a'
	DB	'tlmfc\include\afxtempl.h', 00H
	ORG $+7
$SG185919 DB	'c:\program files (x86)\microsoft visual studio 10.0\vc\a'
	DB	'tlmfc\include\afxtempl.h', 00H
	ORG $+7
$SG185930 DB	'c:\program files (x86)\microsoft visual studio 10.0\vc\a'
	DB	'tlmfc\include\afxtempl.h', 00H
	ORG $+7
$SG185963 DB	'c:\program files (x86)\microsoft visual studio 10.0\vc\a'
	DB	'tlmfc\include\afxtempl.h', 00H
	ORG $+7
$SG185969 DB	'c:\program files (x86)\microsoft visual studio 10.0\vc\a'
	DB	'tlmfc\include\afxtempl.h', 00H
	ORG $+7
$SG186045 DB	'c:\program files (x86)\microsoft visual studio 10.0\vc\a'
	DB	'tlmfc\include\afxtempl.h', 00H
	ORG $+7
$SG186049 DB	'c:\program files (x86)\microsoft visual studio 10.0\vc\a'
	DB	'tlmfc\include\afxtempl.h', 00H
	ORG $+7
$SG186052 DB	'c:\program files (x86)\microsoft visual studio 10.0\vc\a'
	DB	'tlmfc\include\afxtempl.h', 00H
	ORG $+7
$SG186066 DB	'c:\program files (x86)\microsoft visual studio 10.0\vc\a'
	DB	'tlmfc\include\afxtempl.h', 00H
	ORG $+7
$SG186070 DB	'c:\program files (x86)\microsoft visual studio 10.0\vc\a'
	DB	'tlmfc\include\afxtempl.h', 00H
	ORG $+7
$SG186073 DB	'c:\program files (x86)\microsoft visual studio 10.0\vc\a'
	DB	'tlmfc\include\afxtempl.h', 00H
	ORG $+7
$SG186087 DB	'c:\program files (x86)\microsoft visual studio 10.0\vc\a'
	DB	'tlmfc\include\afxtempl.h', 00H
	ORG $+7
$SG186091 DB	'c:\program files (x86)\microsoft visual studio 10.0\vc\a'
	DB	'tlmfc\include\afxtempl.h', 00H
	ORG $+7
$SG186094 DB	'c:\program files (x86)\microsoft visual studio 10.0\vc\a'
	DB	'tlmfc\include\afxtempl.h', 00H
	ORG $+7
$SG186101 DB	'c:\program files (x86)\microsoft visual studio 10.0\vc\a'
	DB	'tlmfc\include\afxtempl.h', 00H
	ORG $+7
$SG186105 DB	'c:\program files (x86)\microsoft visual studio 10.0\vc\a'
	DB	'tlmfc\include\afxtempl.h', 00H
	ORG $+7
$SG186108 DB	'c:\program files (x86)\microsoft visual studio 10.0\vc\a'
	DB	'tlmfc\include\afxtempl.h', 00H
	ORG $+7
$SG186115 DB	'c:\program files (x86)\microsoft visual studio 10.0\vc\a'
	DB	'tlmfc\include\afxtempl.h', 00H
	ORG $+7
$SG186119 DB	'c:\program files (x86)\microsoft visual studio 10.0\vc\a'
	DB	'tlmfc\include\afxtempl.h', 00H
	ORG $+7
$SG186122 DB	'c:\program files (x86)\microsoft visual studio 10.0\vc\a'
	DB	'tlmfc\include\afxtempl.h', 00H
CONST	ENDS
PUBLIC	??1CRTFPreferencesDlg@@UAE@XZ			; CRTFPreferencesDlg::~CRTFPreferencesDlg
PUBLIC	??0CharFormat@@QAE@K@Z				; CharFormat::CharFormat
PUBLIC	??_7CRTFContentControl@@6BIContentControl@@@	; CRTFContentControl::`vftable'
PUBLIC	??_7CRTFContentControl@@6BCRulerRichEditCtrl@@@	; CRTFContentControl::`vftable'
PUBLIC	??0IContentControl@@QAE@XZ			; IContentControl::IContentControl
PUBLIC	??0CRTFContentControl@@QAE@AAVCRtfHtmlConverter@@@Z ; CRTFContentControl::CRTFContentControl
PUBLIC	??_R4CRTFContentControl@@6BCRulerRichEditCtrl@@@ ; CRTFContentControl::`RTTI Complete Object Locator'
PUBLIC	??_R0?AVCRTFContentControl@@@8			; CRTFContentControl `RTTI Type Descriptor'
PUBLIC	??_R3CRTFContentControl@@8			; CRTFContentControl::`RTTI Class Hierarchy Descriptor'
PUBLIC	??_R2CRTFContentControl@@8			; CRTFContentControl::`RTTI Base Class Array'
PUBLIC	??_R1A@?0A@EA@CRTFContentControl@@8		; CRTFContentControl::`RTTI Base Class Descriptor at (0,-1,0,64)'
PUBLIC	??_R1A@?0A@EA@CRulerRichEditCtrl@@8		; CRulerRichEditCtrl::`RTTI Base Class Descriptor at (0,-1,0,64)'
PUBLIC	??_R0?AVCRulerRichEditCtrl@@@8			; CRulerRichEditCtrl `RTTI Type Descriptor'
PUBLIC	??_R3CRulerRichEditCtrl@@8			; CRulerRichEditCtrl::`RTTI Class Hierarchy Descriptor'
PUBLIC	??_R2CRulerRichEditCtrl@@8			; CRulerRichEditCtrl::`RTTI Base Class Array'
PUBLIC	??_R1A@?0A@EA@CWnd@@8				; CWnd::`RTTI Base Class Descriptor at (0,-1,0,64)'
PUBLIC	??_R0?AVCWnd@@@8				; CWnd `RTTI Type Descriptor'
PUBLIC	??_R3CWnd@@8					; CWnd::`RTTI Class Hierarchy Descriptor'
PUBLIC	??_R2CWnd@@8					; CWnd::`RTTI Base Class Array'
PUBLIC	??_R1A@?0A@EA@CCmdTarget@@8			; CCmdTarget::`RTTI Base Class Descriptor at (0,-1,0,64)'
PUBLIC	??_R0?AVCCmdTarget@@@8				; CCmdTarget `RTTI Type Descriptor'
PUBLIC	??_R3CCmdTarget@@8				; CCmdTarget::`RTTI Class Hierarchy Descriptor'
PUBLIC	??_R2CCmdTarget@@8				; CCmdTarget::`RTTI Base Class Array'
PUBLIC	??_R1A@?0A@EA@CObject@@8			; CObject::`RTTI Base Class Descriptor at (0,-1,0,64)'
PUBLIC	??_R0?AVCObject@@@8				; CObject `RTTI Type Descriptor'
PUBLIC	??_R3CObject@@8					; CObject::`RTTI Class Hierarchy Descriptor'
PUBLIC	??_R2CObject@@8					; CObject::`RTTI Base Class Array'
PUBLIC	??_R1FAE@?0A@EA@IContentControl@@8		; IContentControl::`RTTI Base Class Descriptor at (1284,-1,0,64)'
PUBLIC	??_R0?AVIContentControl@@@8			; IContentControl `RTTI Type Descriptor'
PUBLIC	??_R3IContentControl@@8				; IContentControl::`RTTI Class Hierarchy Descriptor'
PUBLIC	??_R2IContentControl@@8				; IContentControl::`RTTI Base Class Array'
PUBLIC	??_R1A@?0A@EA@IContentControl@@8		; IContentControl::`RTTI Base Class Descriptor at (0,-1,0,64)'
PUBLIC	?GetMessageMap@CRTFContentControl@@MBEPBUAFX_MSGMAP@@XZ ; CRTFContentControl::GetMessageMap
PUBLIC	??_R4CRTFContentControl@@6BIContentControl@@@	; CRTFContentControl::`RTTI Complete Object Locator'
PUBLIC	?GetContent@CRTFContentControl@@UBEHPAE@Z	; CRTFContentControl::GetContent
PUBLIC	?SetContent@CRTFContentControl@@UAE_NPBEH_N@Z	; CRTFContentControl::SetContent
PUBLIC	?GetTypeID@CRTFContentControl@@UBEPB_WXZ	; CRTFContentControl::GetTypeID
PUBLIC	?GetTextContent@CRTFContentControl@@UBEHPA_WH@Z	; CRTFContentControl::GetTextContent
PUBLIC	?SetTextContent@CRTFContentControl@@UAE_NPB_W_N@Z ; CRTFContentControl::SetTextContent
PUBLIC	?SetReadOnly@CRTFContentControl@@UAEX_N@Z	; CRTFContentControl::SetReadOnly
PUBLIC	?GetHwnd@CRTFContentControl@@UBEPAUHWND__@@XZ	; CRTFContentControl::GetHwnd
PUBLIC	?Release@CRTFContentControl@@UAEXXZ		; CRTFContentControl::Release
PUBLIC	?ProcessMessage@CRTFContentControl@@UAE_NPAUtagMSG@@@Z ; CRTFContentControl::ProcessMessage
PUBLIC	?GetSpellCheckInterface@CRTFContentControl@@UAEPAVISpellCheck@@XZ ; CRTFContentControl::GetSpellCheckInterface
PUBLIC	?Undo@CRTFContentControl@@UAE_NXZ		; CRTFContentControl::Undo
PUBLIC	?Redo@CRTFContentControl@@UAE_NXZ		; CRTFContentControl::Redo
PUBLIC	?SetUITheme@CRTFContentControl@@UAEXPBUUITHEME@@@Z ; CRTFContentControl::SetUITheme
PUBLIC	?SavePreferences@CRTFContentControl@@UBEXPAVIPreferences@@PB_W@Z ; CRTFContentControl::SavePreferences
PUBLIC	?LoadPreferences@CRTFContentControl@@UAEXPBVIPreferences@@PB_W@Z ; CRTFContentControl::LoadPreferences
EXTRN	??1CShortcutManager@@UAE@XZ:PROC		; CShortcutManager::~CShortcutManager
EXTRN	??1CMenuIconMgr@@UAE@XZ:PROC			; CMenuIconMgr::~CMenuIconMgr
EXTRN	??1CRichEditSpellCheck@@UAE@XZ:PROC		; CRichEditSpellCheck::~CRichEditSpellCheck
EXTRN	??1CToolbarHelper@@UAE@XZ:PROC			; CToolbarHelper::~CToolbarHelper
EXTRN	??1CRulerRichEditCtrl@@UAE@XZ:PROC		; CRulerRichEditCtrl::~CRulerRichEditCtrl
EXTRN	?AddProtocol@CUrlRichEditCtrl@@QAEHPB_WH@Z:PROC	; CUrlRichEditCtrl::AddProtocol
EXTRN	_memset:PROC
EXTRN	??0CRTFPreferencesDlg@@QAE@PAVCWnd@@@Z:PROC	; CRTFPreferencesDlg::CRTFPreferencesDlg
EXTRN	??0CShortcutManager@@QAE@H@Z:PROC		; CShortcutManager::CShortcutManager
EXTRN	??0CMenuIconMgr@@QAE@XZ:PROC			; CMenuIconMgr::CMenuIconMgr
EXTRN	??0CRichEditSpellCheck@@QAE@AAVCRichEditBaseCtrl@@@Z:PROC ; CRichEditSpellCheck::CRichEditSpellCheck
EXTRN	??0CToolbarHelper@@QAE@XZ:PROC			; CToolbarHelper::CToolbarHelper
EXTRN	??0CRulerRichEditCtrl@@QAE@XZ:PROC		; CRulerRichEditCtrl::CRulerRichEditCtrl
EXTRN	___security_cookie:DWORD
EXTRN	___CxxFrameHandler3:PROC
EXTRN	@__security_check_cookie@4:PROC
EXTRN	__RTC_CheckEsp:PROC
EXTRN	__RTC_Shutdown:PROC
EXTRN	__RTC_InitBase:PROC
EXTRN	??_7type_info@@6B@:QWORD			; type_info::`vftable'
EXTRN	?GetRuntimeClass@CWnd@@UBEPAUCRuntimeClass@@XZ:PROC ; CWnd::GetRuntimeClass
EXTRN	??_ECRTFContentControl@@UAEPAXI@Z:PROC		; CRTFContentControl::`vector deleting destructor'
EXTRN	?Serialize@CObject@@UAEXAAVCArchive@@@Z:PROC	; CObject::Serialize
EXTRN	?AssertValid@CWnd@@UBEXXZ:PROC			; CWnd::AssertValid
EXTRN	?Dump@CWnd@@UBEXAAVCDumpContext@@@Z:PROC	; CWnd::Dump
EXTRN	?OnCmdMsg@CCmdTarget@@UAEHIHPAXPAUAFX_CMDHANDLERINFO@@@Z:PROC ; CCmdTarget::OnCmdMsg
EXTRN	?OnFinalRelease@CWnd@@UAEXXZ:PROC		; CWnd::OnFinalRelease
EXTRN	?IsInvokeAllowed@CCmdTarget@@UAEHJ@Z:PROC	; CCmdTarget::IsInvokeAllowed
EXTRN	?GetDispatchIID@CCmdTarget@@UAEHPAU_GUID@@@Z:PROC ; CCmdTarget::GetDispatchIID
EXTRN	?GetTypeInfoCount@CCmdTarget@@UAEIXZ:PROC	; CCmdTarget::GetTypeInfoCount
EXTRN	?GetTypeLibCache@CCmdTarget@@UAEPAVCTypeLibCache@@XZ:PROC ; CCmdTarget::GetTypeLibCache
EXTRN	?GetTypeLib@CCmdTarget@@UAEJKPAPAUITypeLib@@@Z:PROC ; CCmdTarget::GetTypeLib
EXTRN	?GetCommandMap@CCmdTarget@@MBEPBUAFX_OLECMDMAP@@XZ:PROC ; CCmdTarget::GetCommandMap
EXTRN	?GetDispatchMap@CCmdTarget@@MBEPBUAFX_DISPMAP@@XZ:PROC ; CCmdTarget::GetDispatchMap
EXTRN	?GetConnectionMap@CCmdTarget@@MBEPBUAFX_CONNECTIONMAP@@XZ:PROC ; CCmdTarget::GetConnectionMap
EXTRN	?GetInterfaceMap@CWnd@@MBEPBUAFX_INTERFACEMAP@@XZ:PROC ; CWnd::GetInterfaceMap
EXTRN	?GetEventSinkMap@CCmdTarget@@MBEPBUAFX_EVENTSINKMAP@@XZ:PROC ; CCmdTarget::GetEventSinkMap
EXTRN	?OnCreateAggregates@CCmdTarget@@UAEHXZ:PROC	; CCmdTarget::OnCreateAggregates
EXTRN	?GetInterfaceHook@CCmdTarget@@UAEPAUIUnknown@@PBX@Z:PROC ; CCmdTarget::GetInterfaceHook
EXTRN	?GetExtraConnectionPoints@CCmdTarget@@MAEHPAVCPtrArray@@@Z:PROC ; CCmdTarget::GetExtraConnectionPoints
EXTRN	?GetConnectionHook@CCmdTarget@@MAEPAUIConnectionPoint@@ABU_GUID@@@Z:PROC ; CCmdTarget::GetConnectionHook
EXTRN	?PreSubclassWindow@CWnd@@UAEXXZ:PROC		; CWnd::PreSubclassWindow
EXTRN	?Create@CWnd@@UAEHPB_W0KABUtagRECT@@PAV1@IPAUCCreateContext@@@Z:PROC ; CWnd::Create
EXTRN	?CreateEx@CWnd@@UAEHKPB_W0KABUtagRECT@@PAV1@IPAX@Z:PROC ; CWnd::CreateEx
EXTRN	?CreateEx@CWnd@@UAEHKPB_W0KHHHHPAUHWND__@@PAUHMENU__@@PAX@Z:PROC ; CWnd::CreateEx
EXTRN	?DestroyWindow@CWnd@@UAEHXZ:PROC		; CWnd::DestroyWindow
EXTRN	?PreCreateWindow@CWnd@@UAEHAAUtagCREATESTRUCTW@@@Z:PROC ; CWnd::PreCreateWindow
EXTRN	?CalcWindowRect@CWnd@@UAEXPAUtagRECT@@I@Z:PROC	; CWnd::CalcWindowRect
EXTRN	?GetMenu@CWnd@@UBEPAVCMenu@@XZ:PROC		; CWnd::GetMenu
EXTRN	?SetMenu@CWnd@@UAEHPAVCMenu@@@Z:PROC		; CWnd::SetMenu
EXTRN	?OnToolHitTest@CWnd@@UBEHVCPoint@@PAUtagTOOLINFOW@@@Z:PROC ; CWnd::OnToolHitTest
EXTRN	?GetScrollBarCtrl@CWnd@@UBEPAVCScrollBar@@H@Z:PROC ; CWnd::GetScrollBarCtrl
EXTRN	?WinHelpW@CWnd@@UAEXKI@Z:PROC			; CWnd::WinHelpW
EXTRN	?HtmlHelpW@CWnd@@UAEXKI@Z:PROC			; CWnd::HtmlHelpW
EXTRN	?WinHelpInternal@CWnd@@UAEXKI@Z:PROC		; CWnd::WinHelpInternal
EXTRN	?ContinueModal@CWnd@@UAEHXZ:PROC		; CWnd::ContinueModal
EXTRN	?EndModalLoop@CWnd@@UAEXH@Z:PROC		; CWnd::EndModalLoop
EXTRN	?OnDrawIconicThumbnailOrLivePreview@CWnd@@UAEXAAVCDC@@VCRect@@VCSize@@HAAH@Z:PROC ; CWnd::OnDrawIconicThumbnailOrLivePreview
EXTRN	?EnsureStdObj@CWnd@@UAEJXZ:PROC			; CWnd::EnsureStdObj
EXTRN	?get_accParent@CWnd@@UAEJPAPAUIDispatch@@@Z:PROC ; CWnd::get_accParent
EXTRN	?get_accChildCount@CWnd@@UAEJPAJ@Z:PROC		; CWnd::get_accChildCount
EXTRN	?get_accChild@CWnd@@UAEJUtagVARIANT@@PAPAUIDispatch@@@Z:PROC ; CWnd::get_accChild
EXTRN	?get_accName@CWnd@@UAEJUtagVARIANT@@PAPA_W@Z:PROC ; CWnd::get_accName
EXTRN	?get_accValue@CWnd@@UAEJUtagVARIANT@@PAPA_W@Z:PROC ; CWnd::get_accValue
EXTRN	?get_accDescription@CWnd@@UAEJUtagVARIANT@@PAPA_W@Z:PROC ; CWnd::get_accDescription
EXTRN	?get_accRole@CWnd@@UAEJUtagVARIANT@@PAU2@@Z:PROC ; CWnd::get_accRole
EXTRN	?get_accState@CWnd@@UAEJUtagVARIANT@@PAU2@@Z:PROC ; CWnd::get_accState
EXTRN	?get_accHelp@CWnd@@UAEJUtagVARIANT@@PAPA_W@Z:PROC ; CWnd::get_accHelp
EXTRN	?get_accHelpTopic@CWnd@@UAEJPAPA_WUtagVARIANT@@PAJ@Z:PROC ; CWnd::get_accHelpTopic
EXTRN	?get_accKeyboardShortcut@CWnd@@UAEJUtagVARIANT@@PAPA_W@Z:PROC ; CWnd::get_accKeyboardShortcut
EXTRN	?get_accFocus@CWnd@@UAEJPAUtagVARIANT@@@Z:PROC	; CWnd::get_accFocus
EXTRN	?get_accSelection@CWnd@@UAEJPAUtagVARIANT@@@Z:PROC ; CWnd::get_accSelection
EXTRN	?get_accDefaultAction@CWnd@@UAEJUtagVARIANT@@PAPA_W@Z:PROC ; CWnd::get_accDefaultAction
EXTRN	?accSelect@CWnd@@UAEJJUtagVARIANT@@@Z:PROC	; CWnd::accSelect
EXTRN	?accLocation@CWnd@@UAEJPAJ000UtagVARIANT@@@Z:PROC ; CWnd::accLocation
EXTRN	?accNavigate@CWnd@@UAEJJUtagVARIANT@@PAU2@@Z:PROC ; CWnd::accNavigate
EXTRN	?accHitTest@CWnd@@UAEJJJPAUtagVARIANT@@@Z:PROC	; CWnd::accHitTest
EXTRN	?accDoDefaultAction@CWnd@@UAEJUtagVARIANT@@@Z:PROC ; CWnd::accDoDefaultAction
EXTRN	?put_accName@CWnd@@UAEJUtagVARIANT@@PA_W@Z:PROC	; CWnd::put_accName
EXTRN	?put_accValue@CWnd@@UAEJUtagVARIANT@@PA_W@Z:PROC ; CWnd::put_accValue
EXTRN	?SetProxy@CWnd@@UAEJPAUIAccessibleProxy@@@Z:PROC ; CWnd::SetProxy
EXTRN	?CreateAccessibleProxy@CWnd@@UAEJIJPAJ@Z:PROC	; CWnd::CreateAccessibleProxy
EXTRN	?OnCommand@CRulerRichEditCtrl@@MAEHIJ@Z:PROC	; CRulerRichEditCtrl::OnCommand
EXTRN	?OnNotify@CRulerRichEditCtrl@@MAEHIJPAJ@Z:PROC	; CRulerRichEditCtrl::OnNotify
EXTRN	?GetSuperWndProcAddr@CWnd@@MAEPAP6GJPAUHWND__@@IIJ@ZXZ:PROC ; CWnd::GetSuperWndProcAddr
EXTRN	?DoDataExchange@CWnd@@MAEXPAVCDataExchange@@@Z:PROC ; CWnd::DoDataExchange
EXTRN	?BeginModalState@CWnd@@UAEXXZ:PROC		; CWnd::BeginModalState
EXTRN	?EndModalState@CWnd@@UAEXXZ:PROC		; CWnd::EndModalState
EXTRN	?PreTranslateMessage@CWnd@@UAEHPAUtagMSG@@@Z:PROC ; CWnd::PreTranslateMessage
EXTRN	?OnAmbientProperty@CWnd@@UAEHPAVCOleControlSite@@JPAUtagVARIANT@@@Z:PROC ; CWnd::OnAmbientProperty
EXTRN	?WindowProc@CWnd@@MAEJIIJ@Z:PROC		; CWnd::WindowProc
EXTRN	?OnWndMsg@CWnd@@MAEHIIJPAJ@Z:PROC		; CWnd::OnWndMsg
EXTRN	?DefWindowProcW@CWnd@@MAEJIIJ@Z:PROC		; CWnd::DefWindowProcW
EXTRN	?PostNcDestroy@CWnd@@MAEXXZ:PROC		; CWnd::PostNcDestroy
EXTRN	?OnChildNotify@CWnd@@MAEHIIJPAJ@Z:PROC		; CWnd::OnChildNotify
EXTRN	?OnTouchInputs@CWnd@@MAEHIPAUtagTOUCHINPUT@@@Z:PROC ; CWnd::OnTouchInputs
EXTRN	?OnTouchInput@CWnd@@MAEHVCPoint@@HHPAUtagTOUCHINPUT@@@Z:PROC ; CWnd::OnTouchInput
EXTRN	?GetGestureStatus@CWnd@@MAEKVCPoint@@@Z:PROC	; CWnd::GetGestureStatus
EXTRN	?OnGestureZoom@CWnd@@MAEHVCPoint@@J@Z:PROC	; CWnd::OnGestureZoom
EXTRN	?OnGesturePan@CWnd@@MAEHVCPoint@@0@Z:PROC	; CWnd::OnGesturePan
EXTRN	?OnGestureRotate@CWnd@@MAEHVCPoint@@N@Z:PROC	; CWnd::OnGestureRotate
EXTRN	?OnGestureTwoFingerTap@CWnd@@MAEHVCPoint@@@Z:PROC ; CWnd::OnGestureTwoFingerTap
EXTRN	?OnGesturePressAndTap@CWnd@@MAEHVCPoint@@J@Z:PROC ; CWnd::OnGesturePressAndTap
EXTRN	?CheckAutoCenter@CWnd@@UAEHXZ:PROC		; CWnd::CheckAutoCenter
EXTRN	?IsFrameWnd@CWnd@@UBEHXZ:PROC			; CWnd::IsFrameWnd
EXTRN	?CreateControlContainer@CWnd@@MAEHPAPAVCOleControlContainer@@@Z:PROC ; CWnd::CreateControlContainer
EXTRN	?CreateControlSite@CWnd@@MAEHPAVCOleControlContainer@@PAPAVCOleControlSite@@IABU_GUID@@@Z:PROC ; CWnd::CreateControlSite
EXTRN	?SetOccDialogInfo@CWnd@@MAEHPAU_AFX_OCC_DIALOG_INFO@@@Z:PROC ; CWnd::SetOccDialogInfo
EXTRN	?GetOccDialogInfo@CWnd@@MAEPAU_AFX_OCC_DIALOG_INFO@@XZ:PROC ; CWnd::GetOccDialogInfo
EXTRN	?Create@CRulerRichEditCtrl@@UAEHKABUtagRECT@@PAVCWnd@@IH@Z:PROC ; CRulerRichEditCtrl::Create
;	COMDAT ??_R4CRTFContentControl@@6BIContentControl@@@
; File d:\_code\rtfcontentctrl\rtfcontentcontrol.cpp
rdata$r	SEGMENT
??_R4CRTFContentControl@@6BIContentControl@@@ DD 00H	; CRTFContentControl::`RTTI Complete Object Locator'
	DD	0504H
	DD	00H
	DD	FLAT:??_R0?AVCRTFContentControl@@@8
	DD	FLAT:??_R3CRTFContentControl@@8
rdata$r	ENDS
;	COMDAT ??_R1A@?0A@EA@IContentControl@@8
rdata$r	SEGMENT
??_R1A@?0A@EA@IContentControl@@8 DD FLAT:??_R0?AVIContentControl@@@8 ; IContentControl::`RTTI Base Class Descriptor at (0,-1,0,64)'
	DD	00H
	DD	00H
	DD	0ffffffffH
	DD	00H
	DD	040H
	DD	FLAT:??_R3IContentControl@@8
rdata$r	ENDS
;	COMDAT ??_R2IContentControl@@8
rdata$r	SEGMENT
??_R2IContentControl@@8 DD FLAT:??_R1A@?0A@EA@IContentControl@@8 ; IContentControl::`RTTI Base Class Array'
rdata$r	ENDS
;	COMDAT ??_R3IContentControl@@8
rdata$r	SEGMENT
??_R3IContentControl@@8 DD 00H				; IContentControl::`RTTI Class Hierarchy Descriptor'
	DD	00H
	DD	01H
	DD	FLAT:??_R2IContentControl@@8
rdata$r	ENDS
;	COMDAT ??_R0?AVIContentControl@@@8
_DATA	SEGMENT
??_R0?AVIContentControl@@@8 DD FLAT:??_7type_info@@6B@	; IContentControl `RTTI Type Descriptor'
	DD	00H
	DB	'.?AVIContentControl@@', 00H
_DATA	ENDS
;	COMDAT ??_R1FAE@?0A@EA@IContentControl@@8
rdata$r	SEGMENT
??_R1FAE@?0A@EA@IContentControl@@8 DD FLAT:??_R0?AVIContentControl@@@8 ; IContentControl::`RTTI Base Class Descriptor at (1284,-1,0,64)'
	DD	00H
	DD	0504H
	DD	0ffffffffH
	DD	00H
	DD	040H
	DD	FLAT:??_R3IContentControl@@8
rdata$r	ENDS
;	COMDAT ??_R2CObject@@8
rdata$r	SEGMENT
??_R2CObject@@8 DD FLAT:??_R1A@?0A@EA@CObject@@8	; CObject::`RTTI Base Class Array'
rdata$r	ENDS
;	COMDAT ??_R3CObject@@8
rdata$r	SEGMENT
??_R3CObject@@8 DD 00H					; CObject::`RTTI Class Hierarchy Descriptor'
	DD	00H
	DD	01H
	DD	FLAT:??_R2CObject@@8
rdata$r	ENDS
;	COMDAT ??_R0?AVCObject@@@8
_DATA	SEGMENT
??_R0?AVCObject@@@8 DD FLAT:??_7type_info@@6B@		; CObject `RTTI Type Descriptor'
	DD	00H
	DB	'.?AVCObject@@', 00H
_DATA	ENDS
;	COMDAT ??_R1A@?0A@EA@CObject@@8
rdata$r	SEGMENT
??_R1A@?0A@EA@CObject@@8 DD FLAT:??_R0?AVCObject@@@8	; CObject::`RTTI Base Class Descriptor at (0,-1,0,64)'
	DD	00H
	DD	00H
	DD	0ffffffffH
	DD	00H
	DD	040H
	DD	FLAT:??_R3CObject@@8
rdata$r	ENDS
;	COMDAT ??_R2CCmdTarget@@8
rdata$r	SEGMENT
??_R2CCmdTarget@@8 DD FLAT:??_R1A@?0A@EA@CCmdTarget@@8	; CCmdTarget::`RTTI Base Class Array'
	DD	FLAT:??_R1A@?0A@EA@CObject@@8
rdata$r	ENDS
;	COMDAT ??_R3CCmdTarget@@8
rdata$r	SEGMENT
??_R3CCmdTarget@@8 DD 00H				; CCmdTarget::`RTTI Class Hierarchy Descriptor'
	DD	00H
	DD	02H
	DD	FLAT:??_R2CCmdTarget@@8
rdata$r	ENDS
;	COMDAT ??_R0?AVCCmdTarget@@@8
_DATA	SEGMENT
??_R0?AVCCmdTarget@@@8 DD FLAT:??_7type_info@@6B@	; CCmdTarget `RTTI Type Descriptor'
	DD	00H
	DB	'.?AVCCmdTarget@@', 00H
_DATA	ENDS
;	COMDAT ??_R1A@?0A@EA@CCmdTarget@@8
rdata$r	SEGMENT
??_R1A@?0A@EA@CCmdTarget@@8 DD FLAT:??_R0?AVCCmdTarget@@@8 ; CCmdTarget::`RTTI Base Class Descriptor at (0,-1,0,64)'
	DD	01H
	DD	00H
	DD	0ffffffffH
	DD	00H
	DD	040H
	DD	FLAT:??_R3CCmdTarget@@8
rdata$r	ENDS
;	COMDAT ??_R2CWnd@@8
rdata$r	SEGMENT
??_R2CWnd@@8 DD	FLAT:??_R1A@?0A@EA@CWnd@@8		; CWnd::`RTTI Base Class Array'
	DD	FLAT:??_R1A@?0A@EA@CCmdTarget@@8
	DD	FLAT:??_R1A@?0A@EA@CObject@@8
rdata$r	ENDS
;	COMDAT ??_R3CWnd@@8
rdata$r	SEGMENT
??_R3CWnd@@8 DD	00H					; CWnd::`RTTI Class Hierarchy Descriptor'
	DD	00H
	DD	03H
	DD	FLAT:??_R2CWnd@@8
rdata$r	ENDS
;	COMDAT ??_R0?AVCWnd@@@8
_DATA	SEGMENT
??_R0?AVCWnd@@@8 DD FLAT:??_7type_info@@6B@		; CWnd `RTTI Type Descriptor'
	DD	00H
	DB	'.?AVCWnd@@', 00H
_DATA	ENDS
;	COMDAT ??_R1A@?0A@EA@CWnd@@8
rdata$r	SEGMENT
??_R1A@?0A@EA@CWnd@@8 DD FLAT:??_R0?AVCWnd@@@8		; CWnd::`RTTI Base Class Descriptor at (0,-1,0,64)'
	DD	02H
	DD	00H
	DD	0ffffffffH
	DD	00H
	DD	040H
	DD	FLAT:??_R3CWnd@@8
rdata$r	ENDS
;	COMDAT ??_R2CRulerRichEditCtrl@@8
rdata$r	SEGMENT
??_R2CRulerRichEditCtrl@@8 DD FLAT:??_R1A@?0A@EA@CRulerRichEditCtrl@@8 ; CRulerRichEditCtrl::`RTTI Base Class Array'
	DD	FLAT:??_R1A@?0A@EA@CWnd@@8
	DD	FLAT:??_R1A@?0A@EA@CCmdTarget@@8
	DD	FLAT:??_R1A@?0A@EA@CObject@@8
rdata$r	ENDS
;	COMDAT ??_R3CRulerRichEditCtrl@@8
rdata$r	SEGMENT
??_R3CRulerRichEditCtrl@@8 DD 00H			; CRulerRichEditCtrl::`RTTI Class Hierarchy Descriptor'
	DD	00H
	DD	04H
	DD	FLAT:??_R2CRulerRichEditCtrl@@8
rdata$r	ENDS
;	COMDAT ??_R0?AVCRulerRichEditCtrl@@@8
_DATA	SEGMENT
??_R0?AVCRulerRichEditCtrl@@@8 DD FLAT:??_7type_info@@6B@ ; CRulerRichEditCtrl `RTTI Type Descriptor'
	DD	00H
	DB	'.?AVCRulerRichEditCtrl@@', 00H
_DATA	ENDS
;	COMDAT ??_R1A@?0A@EA@CRulerRichEditCtrl@@8
rdata$r	SEGMENT
??_R1A@?0A@EA@CRulerRichEditCtrl@@8 DD FLAT:??_R0?AVCRulerRichEditCtrl@@@8 ; CRulerRichEditCtrl::`RTTI Base Class Descriptor at (0,-1,0,64)'
	DD	03H
	DD	00H
	DD	0ffffffffH
	DD	00H
	DD	040H
	DD	FLAT:??_R3CRulerRichEditCtrl@@8
rdata$r	ENDS
;	COMDAT ??_R1A@?0A@EA@CRTFContentControl@@8
rdata$r	SEGMENT
??_R1A@?0A@EA@CRTFContentControl@@8 DD FLAT:??_R0?AVCRTFContentControl@@@8 ; CRTFContentControl::`RTTI Base Class Descriptor at (0,-1,0,64)'
	DD	05H
	DD	00H
	DD	0ffffffffH
	DD	00H
	DD	040H
	DD	FLAT:??_R3CRTFContentControl@@8
rdata$r	ENDS
;	COMDAT ??_R2CRTFContentControl@@8
rdata$r	SEGMENT
??_R2CRTFContentControl@@8 DD FLAT:??_R1A@?0A@EA@CRTFContentControl@@8 ; CRTFContentControl::`RTTI Base Class Array'
	DD	FLAT:??_R1A@?0A@EA@CRulerRichEditCtrl@@8
	DD	FLAT:??_R1A@?0A@EA@CWnd@@8
	DD	FLAT:??_R1A@?0A@EA@CCmdTarget@@8
	DD	FLAT:??_R1A@?0A@EA@CObject@@8
	DD	FLAT:??_R1FAE@?0A@EA@IContentControl@@8
rdata$r	ENDS
;	COMDAT ??_R3CRTFContentControl@@8
rdata$r	SEGMENT
??_R3CRTFContentControl@@8 DD 00H			; CRTFContentControl::`RTTI Class Hierarchy Descriptor'
	DD	01H
	DD	06H
	DD	FLAT:??_R2CRTFContentControl@@8
rdata$r	ENDS
;	COMDAT ??_R0?AVCRTFContentControl@@@8
_DATA	SEGMENT
??_R0?AVCRTFContentControl@@@8 DD FLAT:??_7type_info@@6B@ ; CRTFContentControl `RTTI Type Descriptor'
	DD	00H
	DB	'.?AVCRTFContentControl@@', 00H
_DATA	ENDS
;	COMDAT ??_R4CRTFContentControl@@6BCRulerRichEditCtrl@@@
rdata$r	SEGMENT
??_R4CRTFContentControl@@6BCRulerRichEditCtrl@@@ DD 00H	; CRTFContentControl::`RTTI Complete Object Locator'
	DD	00H
	DD	00H
	DD	FLAT:??_R0?AVCRTFContentControl@@@8
	DD	FLAT:??_R3CRTFContentControl@@8
rdata$r	ENDS
;	COMDAT ??_7CRTFContentControl@@6BIContentControl@@@
CONST	SEGMENT
??_7CRTFContentControl@@6BIContentControl@@@ DD FLAT:??_R4CRTFContentControl@@6BIContentControl@@@ ; CRTFContentControl::`vftable'
	DD	FLAT:?GetContent@CRTFContentControl@@UBEHPAE@Z
	DD	FLAT:?SetContent@CRTFContentControl@@UAE_NPBEH_N@Z
	DD	FLAT:?GetTypeID@CRTFContentControl@@UBEPB_WXZ
	DD	FLAT:?GetTextContent@CRTFContentControl@@UBEHPA_WH@Z
	DD	FLAT:?SetTextContent@CRTFContentControl@@UAE_NPB_W_N@Z
	DD	FLAT:?SetReadOnly@CRTFContentControl@@UAEX_N@Z
	DD	FLAT:?GetHwnd@CRTFContentControl@@UBEPAUHWND__@@XZ
	DD	FLAT:?Release@CRTFContentControl@@UAEXXZ
	DD	FLAT:?ProcessMessage@CRTFContentControl@@UAE_NPAUtagMSG@@@Z
	DD	FLAT:?GetSpellCheckInterface@CRTFContentControl@@UAEPAVISpellCheck@@XZ
	DD	FLAT:?Undo@CRTFContentControl@@UAE_NXZ
	DD	FLAT:?Redo@CRTFContentControl@@UAE_NXZ
	DD	FLAT:?SetUITheme@CRTFContentControl@@UAEXPBUUITHEME@@@Z
	DD	FLAT:?SavePreferences@CRTFContentControl@@UBEXPAVIPreferences@@PB_W@Z
	DD	FLAT:?LoadPreferences@CRTFContentControl@@UAEXPBVIPreferences@@PB_W@Z
CONST	ENDS
;	COMDAT ??_7CRTFContentControl@@6BCRulerRichEditCtrl@@@
CONST	SEGMENT
??_7CRTFContentControl@@6BCRulerRichEditCtrl@@@ DD FLAT:??_R4CRTFContentControl@@6BCRulerRichEditCtrl@@@ ; CRTFContentControl::`vftable'
	DD	FLAT:?GetRuntimeClass@CWnd@@UBEPAUCRuntimeClass@@XZ
	DD	FLAT:??_ECRTFContentControl@@UAEPAXI@Z
	DD	FLAT:?Serialize@CObject@@UAEXAAVCArchive@@@Z
	DD	FLAT:?AssertValid@CWnd@@UBEXXZ
	DD	FLAT:?Dump@CWnd@@UBEXAAVCDumpContext@@@Z
	DD	FLAT:?OnCmdMsg@CCmdTarget@@UAEHIHPAXPAUAFX_CMDHANDLERINFO@@@Z
	DD	FLAT:?OnFinalRelease@CWnd@@UAEXXZ
	DD	FLAT:?IsInvokeAllowed@CCmdTarget@@UAEHJ@Z
	DD	FLAT:?GetDispatchIID@CCmdTarget@@UAEHPAU_GUID@@@Z
	DD	FLAT:?GetTypeInfoCount@CCmdTarget@@UAEIXZ
	DD	FLAT:?GetTypeLibCache@CCmdTarget@@UAEPAVCTypeLibCache@@XZ
	DD	FLAT:?GetTypeLib@CCmdTarget@@UAEJKPAPAUITypeLib@@@Z
	DD	FLAT:?GetMessageMap@CRTFContentControl@@MBEPBUAFX_MSGMAP@@XZ
	DD	FLAT:?GetCommandMap@CCmdTarget@@MBEPBUAFX_OLECMDMAP@@XZ
	DD	FLAT:?GetDispatchMap@CCmdTarget@@MBEPBUAFX_DISPMAP@@XZ
	DD	FLAT:?GetConnectionMap@CCmdTarget@@MBEPBUAFX_CONNECTIONMAP@@XZ
	DD	FLAT:?GetInterfaceMap@CWnd@@MBEPBUAFX_INTERFACEMAP@@XZ
	DD	FLAT:?GetEventSinkMap@CCmdTarget@@MBEPBUAFX_EVENTSINKMAP@@XZ
	DD	FLAT:?OnCreateAggregates@CCmdTarget@@UAEHXZ
	DD	FLAT:?GetInterfaceHook@CCmdTarget@@UAEPAUIUnknown@@PBX@Z
	DD	FLAT:?GetExtraConnectionPoints@CCmdTarget@@MAEHPAVCPtrArray@@@Z
	DD	FLAT:?GetConnectionHook@CCmdTarget@@MAEPAUIConnectionPoint@@ABU_GUID@@@Z
	DD	FLAT:?PreSubclassWindow@CWnd@@UAEXXZ
	DD	FLAT:?Create@CWnd@@UAEHPB_W0KABUtagRECT@@PAV1@IPAUCCreateContext@@@Z
	DD	FLAT:?CreateEx@CWnd@@UAEHKPB_W0KABUtagRECT@@PAV1@IPAX@Z
	DD	FLAT:?CreateEx@CWnd@@UAEHKPB_W0KHHHHPAUHWND__@@PAUHMENU__@@PAX@Z
	DD	FLAT:?DestroyWindow@CWnd@@UAEHXZ
	DD	FLAT:?PreCreateWindow@CWnd@@UAEHAAUtagCREATESTRUCTW@@@Z
	DD	FLAT:?CalcWindowRect@CWnd@@UAEXPAUtagRECT@@I@Z
	DD	FLAT:?GetMenu@CWnd@@UBEPAVCMenu@@XZ
	DD	FLAT:?SetMenu@CWnd@@UAEHPAVCMenu@@@Z
	DD	FLAT:?OnToolHitTest@CWnd@@UBEHVCPoint@@PAUtagTOOLINFOW@@@Z
	DD	FLAT:?GetScrollBarCtrl@CWnd@@UBEPAVCScrollBar@@H@Z
	DD	FLAT:?WinHelpW@CWnd@@UAEXKI@Z
	DD	FLAT:?HtmlHelpW@CWnd@@UAEXKI@Z
	DD	FLAT:?WinHelpInternal@CWnd@@UAEXKI@Z
	DD	FLAT:?ContinueModal@CWnd@@UAEHXZ
	DD	FLAT:?EndModalLoop@CWnd@@UAEXH@Z
	DD	FLAT:?OnDrawIconicThumbnailOrLivePreview@CWnd@@UAEXAAVCDC@@VCRect@@VCSize@@HAAH@Z
	DD	FLAT:?EnsureStdObj@CWnd@@UAEJXZ
	DD	FLAT:?get_accParent@CWnd@@UAEJPAPAUIDispatch@@@Z
	DD	FLAT:?get_accChildCount@CWnd@@UAEJPAJ@Z
	DD	FLAT:?get_accChild@CWnd@@UAEJUtagVARIANT@@PAPAUIDispatch@@@Z
	DD	FLAT:?get_accName@CWnd@@UAEJUtagVARIANT@@PAPA_W@Z
	DD	FLAT:?get_accValue@CWnd@@UAEJUtagVARIANT@@PAPA_W@Z
	DD	FLAT:?get_accDescription@CWnd@@UAEJUtagVARIANT@@PAPA_W@Z
	DD	FLAT:?get_accRole@CWnd@@UAEJUtagVARIANT@@PAU2@@Z
	DD	FLAT:?get_accState@CWnd@@UAEJUtagVARIANT@@PAU2@@Z
	DD	FLAT:?get_accHelp@CWnd@@UAEJUtagVARIANT@@PAPA_W@Z
	DD	FLAT:?get_accHelpTopic@CWnd@@UAEJPAPA_WUtagVARIANT@@PAJ@Z
	DD	FLAT:?get_accKeyboardShortcut@CWnd@@UAEJUtagVARIANT@@PAPA_W@Z
	DD	FLAT:?get_accFocus@CWnd@@UAEJPAUtagVARIANT@@@Z
	DD	FLAT:?get_accSelection@CWnd@@UAEJPAUtagVARIANT@@@Z
	DD	FLAT:?get_accDefaultAction@CWnd@@UAEJUtagVARIANT@@PAPA_W@Z
	DD	FLAT:?accSelect@CWnd@@UAEJJUtagVARIANT@@@Z
	DD	FLAT:?accLocation@CWnd@@UAEJPAJ000UtagVARIANT@@@Z
	DD	FLAT:?accNavigate@CWnd@@UAEJJUtagVARIANT@@PAU2@@Z
	DD	FLAT:?accHitTest@CWnd@@UAEJJJPAUtagVARIANT@@@Z
	DD	FLAT:?accDoDefaultAction@CWnd@@UAEJUtagVARIANT@@@Z
	DD	FLAT:?put_accName@CWnd@@UAEJUtagVARIANT@@PA_W@Z
	DD	FLAT:?put_accValue@CWnd@@UAEJUtagVARIANT@@PA_W@Z
	DD	FLAT:?SetProxy@CWnd@@UAEJPAUIAccessibleProxy@@@Z
	DD	FLAT:?CreateAccessibleProxy@CWnd@@UAEJIJPAJ@Z
	DD	FLAT:?OnCommand@CRulerRichEditCtrl@@MAEHIJ@Z
	DD	FLAT:?OnNotify@CRulerRichEditCtrl@@MAEHIJPAJ@Z
	DD	FLAT:?GetSuperWndProcAddr@CWnd@@MAEPAP6GJPAUHWND__@@IIJ@ZXZ
	DD	FLAT:?DoDataExchange@CWnd@@MAEXPAVCDataExchange@@@Z
	DD	FLAT:?BeginModalState@CWnd@@UAEXXZ
	DD	FLAT:?EndModalState@CWnd@@UAEXXZ
	DD	FLAT:?PreTranslateMessage@CWnd@@UAEHPAUtagMSG@@@Z
	DD	FLAT:?OnAmbientProperty@CWnd@@UAEHPAVCOleControlSite@@JPAUtagVARIANT@@@Z
	DD	FLAT:?WindowProc@CWnd@@MAEJIIJ@Z
	DD	FLAT:?OnWndMsg@CWnd@@MAEHIIJPAJ@Z
	DD	FLAT:?DefWindowProcW@CWnd@@MAEJIIJ@Z
	DD	FLAT:?PostNcDestroy@CWnd@@MAEXXZ
	DD	FLAT:?OnChildNotify@CWnd@@MAEHIIJPAJ@Z
	DD	FLAT:?OnTouchInputs@CWnd@@MAEHIPAUtagTOUCHINPUT@@@Z
	DD	FLAT:?OnTouchInput@CWnd@@MAEHVCPoint@@HHPAUtagTOUCHINPUT@@@Z
	DD	FLAT:?GetGestureStatus@CWnd@@MAEKVCPoint@@@Z
	DD	FLAT:?OnGestureZoom@CWnd@@MAEHVCPoint@@J@Z
	DD	FLAT:?OnGesturePan@CWnd@@MAEHVCPoint@@0@Z
	DD	FLAT:?OnGestureRotate@CWnd@@MAEHVCPoint@@N@Z
	DD	FLAT:?OnGestureTwoFingerTap@CWnd@@MAEHVCPoint@@@Z
	DD	FLAT:?OnGesturePressAndTap@CWnd@@MAEHVCPoint@@J@Z
	DD	FLAT:?CheckAutoCenter@CWnd@@UAEHXZ
	DD	FLAT:?IsFrameWnd@CWnd@@UBEHXZ
	DD	FLAT:?CreateControlContainer@CWnd@@MAEHPAPAVCOleControlContainer@@@Z
	DD	FLAT:?CreateControlSite@CWnd@@MAEHPAVCOleControlContainer@@PAPAVCOleControlSite@@IABU_GUID@@@Z
	DD	FLAT:?SetOccDialogInfo@CWnd@@MAEHPAU_AFX_OCC_DIALOG_INFO@@@Z
	DD	FLAT:?GetOccDialogInfo@CWnd@@MAEPAU_AFX_OCC_DIALOG_INFO@@XZ
	DD	FLAT:?Create@CRulerRichEditCtrl@@UAEHKABUtagRECT@@PAVCWnd@@IH@Z
CONST	ENDS
;	COMDAT xdata$x
xdata$x	SEGMENT
__ehfuncinfo$??0CRTFContentControl@@QAE@AAVCRtfHtmlConverter@@@Z DD 019930522H
	DD	06H
	DD	FLAT:__unwindtable$??0CRTFContentControl@@QAE@AAVCRtfHtmlConverter@@@Z
	DD	2 DUP(00H)
	DD	2 DUP(00H)
	DD	00H
	DD	01H
__unwindtable$??0CRTFContentControl@@QAE@AAVCRtfHtmlConverter@@@Z DD 0ffffffffH
	DD	FLAT:__unwindfunclet$??0CRTFContentControl@@QAE@AAVCRtfHtmlConverter@@@Z$0
	DD	00H
	DD	FLAT:__unwindfunclet$??0CRTFContentControl@@QAE@AAVCRtfHtmlConverter@@@Z$1
	DD	01H
	DD	FLAT:__unwindfunclet$??0CRTFContentControl@@QAE@AAVCRtfHtmlConverter@@@Z$2
	DD	02H
	DD	FLAT:__unwindfunclet$??0CRTFContentControl@@QAE@AAVCRtfHtmlConverter@@@Z$3
	DD	03H
	DD	FLAT:__unwindfunclet$??0CRTFContentControl@@QAE@AAVCRtfHtmlConverter@@@Z$4
	DD	04H
	DD	FLAT:__unwindfunclet$??0CRTFContentControl@@QAE@AAVCRtfHtmlConverter@@@Z$5
xdata$x	ENDS
;	COMDAT rtc$TMZ
rtc$TMZ	SEGMENT
__RTC_Shutdown.rtc$TMZ DD FLAT:__RTC_Shutdown
rtc$TMZ	ENDS
;	COMDAT rtc$IMZ
rtc$IMZ	SEGMENT
__RTC_InitBase.rtc$IMZ DD FLAT:__RTC_InitBase
; Function compile flags: /Odtp /RTCsu
rtc$IMZ	ENDS
;	COMDAT ??0CRTFContentControl@@QAE@AAVCRtfHtmlConverter@@@Z
_TEXT	SEGMENT
_this$ = -16						; size = 4
__$EHRec$ = -12						; size = 12
_rtfHtml$ = 8						; size = 4
??0CRTFContentControl@@QAE@AAVCRtfHtmlConverter@@@Z PROC ; CRTFContentControl::CRTFContentControl, COMDAT
; _this$ = ecx

; 76   : {

	push	ebp
	mov	ebp, esp
	push	-1
	push	__ehhandler$??0CRTFContentControl@@QAE@AAVCRtfHtmlConverter@@@Z
	mov	eax, DWORD PTR fs:0
	push	eax
	push	ecx
	mov	DWORD PTR [ebp-16], -858993460		; ccccccccH
	mov	eax, DWORD PTR ___security_cookie
	xor	eax, ebp
	push	eax
	lea	eax, DWORD PTR __$EHRec$[ebp]
	mov	DWORD PTR fs:0, eax
	mov	DWORD PTR _this$[ebp], ecx
	mov	ecx, DWORD PTR _this$[ebp]
	call	??0CRulerRichEditCtrl@@QAE@XZ		; CRulerRichEditCtrl::CRulerRichEditCtrl
	mov	DWORD PTR __$EHRec$[ebp+8], 0
	mov	ecx, DWORD PTR _this$[ebp]
	add	ecx, 1284				; 00000504H
	call	??0IContentControl@@QAE@XZ
	mov	eax, DWORD PTR _this$[ebp]
	mov	DWORD PTR [eax], OFFSET ??_7CRTFContentControl@@6BCRulerRichEditCtrl@@@
	mov	ecx, DWORD PTR _this$[ebp]
	mov	DWORD PTR [ecx+1284], OFFSET ??_7CRTFContentControl@@6BIContentControl@@@
	mov	edx, DWORD PTR _this$[ebp]
	mov	DWORD PTR [edx+1288], 1
	mov	ecx, DWORD PTR _this$[ebp]
	add	ecx, 1292				; 0000050cH
	call	??0CToolbarHelper@@QAE@XZ		; CToolbarHelper::CToolbarHelper
	mov	BYTE PTR __$EHRec$[ebp+8], 1
	mov	eax, DWORD PTR _this$[ebp]
	add	eax, 304				; 00000130H
	push	eax
	mov	ecx, DWORD PTR _this$[ebp]
	add	ecx, 1548				; 0000060cH
	call	??0CRichEditSpellCheck@@QAE@AAVCRichEditBaseCtrl@@@Z ; CRichEditSpellCheck::CRichEditSpellCheck
	mov	BYTE PTR __$EHRec$[ebp+8], 2
	mov	ecx, DWORD PTR _this$[ebp]
	add	ecx, 1576				; 00000628H
	call	??0CMenuIconMgr@@QAE@XZ			; CMenuIconMgr::CMenuIconMgr
	mov	BYTE PTR __$EHRec$[ebp+8], 3
	push	0
	mov	ecx, DWORD PTR _this$[ebp]
	add	ecx, 1696				; 000006a0H
	call	??0CharFormat@@QAE@K@Z			; CharFormat::CharFormat
	push	1
	mov	ecx, DWORD PTR _this$[ebp]
	add	ecx, 1812				; 00000714H
	call	??0CShortcutManager@@QAE@H@Z		; CShortcutManager::CShortcutManager
	mov	BYTE PTR __$EHRec$[ebp+8], 4
	mov	ecx, DWORD PTR _this$[ebp]
	mov	edx, DWORD PTR _rtfHtml$[ebp]
	mov	DWORD PTR [ecx+1908], edx
	push	0
	mov	ecx, DWORD PTR _this$[ebp]
	add	ecx, 2004				; 000007d4H
	call	??0CRTFPreferencesDlg@@QAE@PAVCWnd@@@Z	; CRTFPreferencesDlg::CRTFPreferencesDlg
	mov	BYTE PTR __$EHRec$[ebp+8], 5

; 77   : 	ZeroMemory(&m_lfCurrent, sizeof(LOGFONT));

	push	92					; 0000005cH
	push	0
	mov	eax, DWORD PTR _this$[ebp]
	add	eax, 1912				; 00000778H
	push	eax
	call	_memset
	add	esp, 12					; 0000000cH

; 78   : 
; 79   : 	// add custom protocol to comments field for linking to task IDs
; 80   : 	m_rtf.AddProtocol(TDL_PROTOCOL, TRUE);

	push	1
	mov	ecx, DWORD PTR _TDL_PROTOCOL
	push	ecx
	mov	ecx, DWORD PTR _this$[ebp]
	add	ecx, 304				; 00000130H
	call	?AddProtocol@CUrlRichEditCtrl@@QAEHPB_WH@Z ; CUrlRichEditCtrl::AddProtocol

; 81   : }

	mov	DWORD PTR __$EHRec$[ebp+8], -1
	mov	eax, DWORD PTR _this$[ebp]
	mov	ecx, DWORD PTR __$EHRec$[ebp]
	mov	DWORD PTR fs:0, ecx
	pop	ecx
	add	esp, 16					; 00000010H
	cmp	ebp, esp
	call	__RTC_CheckEsp
	mov	esp, ebp
	pop	ebp
	ret	4
_TEXT	ENDS
;	COMDAT text$x
text$x	SEGMENT
__unwindfunclet$??0CRTFContentControl@@QAE@AAVCRtfHtmlConverter@@@Z$0:
	mov	ecx, DWORD PTR _this$[ebp]
	jmp	??1CRulerRichEditCtrl@@UAE@XZ		; CRulerRichEditCtrl::~CRulerRichEditCtrl
__unwindfunclet$??0CRTFContentControl@@QAE@AAVCRtfHtmlConverter@@@Z$1:
	mov	ecx, DWORD PTR _this$[ebp]
	add	ecx, 1292				; 0000050cH
	jmp	??1CToolbarHelper@@UAE@XZ		; CToolbarHelper::~CToolbarHelper
__unwindfunclet$??0CRTFContentControl@@QAE@AAVCRtfHtmlConverter@@@Z$2:
	mov	ecx, DWORD PTR _this$[ebp]
	add	ecx, 1548				; 0000060cH
	jmp	??1CRichEditSpellCheck@@UAE@XZ		; CRichEditSpellCheck::~CRichEditSpellCheck
__unwindfunclet$??0CRTFContentControl@@QAE@AAVCRtfHtmlConverter@@@Z$3:
	mov	ecx, DWORD PTR _this$[ebp]
	add	ecx, 1576				; 00000628H
	jmp	??1CMenuIconMgr@@UAE@XZ			; CMenuIconMgr::~CMenuIconMgr
__unwindfunclet$??0CRTFContentControl@@QAE@AAVCRtfHtmlConverter@@@Z$4:
	mov	ecx, DWORD PTR _this$[ebp]
	add	ecx, 1812				; 00000714H
	jmp	??1CShortcutManager@@UAE@XZ		; CShortcutManager::~CShortcutManager
__unwindfunclet$??0CRTFContentControl@@QAE@AAVCRtfHtmlConverter@@@Z$5:
	mov	ecx, DWORD PTR _this$[ebp]
	add	ecx, 2004				; 000007d4H
	jmp	??1CRTFPreferencesDlg@@UAE@XZ
__ehhandler$??0CRTFContentControl@@QAE@AAVCRtfHtmlConverter@@@Z:
	mov	edx, DWORD PTR [esp+8]
	lea	eax, DWORD PTR [edx+12]
	mov	ecx, DWORD PTR [edx-8]
	xor	ecx, eax
	call	@__security_check_cookie@4
	mov	eax, OFFSET __ehfuncinfo$??0CRTFContentControl@@QAE@AAVCRtfHtmlConverter@@@Z
	jmp	___CxxFrameHandler3
text$x	ENDS
??0CRTFContentControl@@QAE@AAVCRtfHtmlConverter@@@Z ENDP ; CRTFContentControl::CRTFContentControl
PUBLIC	?Reset@CharFormat@@QAEXK@Z			; CharFormat::Reset
; Function compile flags: /Odtp /RTCsu
; File d:\_code\rtfcontentctrl\rulerrichedit.h
;	COMDAT ??0CharFormat@@QAE@K@Z
_TEXT	SEGMENT
_this$ = -4						; size = 4
_mask$ = 8						; size = 4
??0CharFormat@@QAE@K@Z PROC				; CharFormat::CharFormat, COMDAT
; _this$ = ecx

; 18   : 	CharFormat(DWORD mask = 0)

	push	ebp
	mov	ebp, esp
	push	ecx
	mov	DWORD PTR [ebp-4], -858993460		; ccccccccH
	mov	DWORD PTR _this$[ebp], ecx

; 19   : 	{
; 20   : 		Reset(mask);

	mov	eax, DWORD PTR _mask$[ebp]
	push	eax
	mov	ecx, DWORD PTR _this$[ebp]
	call	?Reset@CharFormat@@QAEXK@Z		; CharFormat::Reset

; 21   : 	};

	mov	eax, DWORD PTR _this$[ebp]
	add	esp, 4
	cmp	ebp, esp
	call	__RTC_CheckEsp
	mov	esp, ebp
	pop	ebp
	ret	4
??0CharFormat@@QAE@K@Z ENDP				; CharFormat::CharFormat
; Function compile flags: /Odtp /RTCsu
_TEXT	ENDS
;	COMDAT ?Reset@CharFormat@@QAEXK@Z
_TEXT	SEGMENT
_this$ = -4						; size = 4
_mask$ = 8						; size = 4
?Reset@CharFormat@@QAEXK@Z PROC				; CharFormat::Reset, COMDAT
; _this$ = ecx

; 24   : 	{

	push	ebp
	mov	ebp, esp
	push	ecx
	mov	DWORD PTR [ebp-4], -858993460		; ccccccccH
	mov	DWORD PTR _this$[ebp], ecx

; 25   : 		memset(this, 0, sizeof (CharFormat));

	push	116					; 00000074H
	push	0
	mov	eax, DWORD PTR _this$[ebp]
	push	eax
	call	_memset
	add	esp, 12					; 0000000cH

; 26   : 		cbSize = sizeof(CharFormat);

	mov	ecx, DWORD PTR _this$[ebp]
	mov	DWORD PTR [ecx], 116			; 00000074H

; 27   : 		dwMask = mask;

	mov	edx, DWORD PTR _this$[ebp]
	mov	eax, DWORD PTR _mask$[ebp]
	mov	DWORD PTR [edx+4], eax

; 28   : 	};

	add	esp, 4
	cmp	ebp, esp
	call	__RTC_CheckEsp
	mov	esp, ebp
	pop	ebp
	ret	4
?Reset@CharFormat@@QAEXK@Z ENDP				; CharFormat::Reset
; Function compile flags: /Odtp /RTCsu
; File d:\_code\rtfcontentctrl\rtfcontentcontrol.h
_TEXT	ENDS
;	COMDAT ?GetTypeID@CRTFContentControl@@UBEPB_WXZ
_TEXT	SEGMENT
_this$ = -4						; size = 4
?GetTypeID@CRTFContentControl@@UBEPB_WXZ PROC		; CRTFContentControl::GetTypeID, COMDAT
; _this$ = ecx

; 40   : 	LPCTSTR GetTypeID() const { return RTF_TYPEID; }

	push	ebp
	mov	ebp, esp
	push	ecx
	mov	DWORD PTR [ebp-4], -858993460		; ccccccccH
	mov	DWORD PTR _this$[ebp], ecx
	mov	eax, DWORD PTR _RTF_TYPEID
	mov	esp, ebp
	pop	ebp
	ret	0
?GetTypeID@CRTFContentControl@@UBEPB_WXZ ENDP		; CRTFContentControl::GetTypeID
; Function compile flags: /Odtp /RTCsu
_TEXT	ENDS
;	COMDAT ?GetSpellCheckInterface@CRTFContentControl@@UAEPAVISpellCheck@@XZ
_TEXT	SEGMENT
_this$ = -4						; size = 4
?GetSpellCheckInterface@CRTFContentControl@@UAEPAVISpellCheck@@XZ PROC ; CRTFContentControl::GetSpellCheckInterface, COMDAT
; _this$ = ecx

; 43   : 	ISpellCheck* GetSpellCheckInterface() { return &m_reSpellCheck; }

	push	ebp
	mov	ebp, esp
	push	ecx
	mov	DWORD PTR [ebp-4], -858993460		; ccccccccH
	mov	DWORD PTR _this$[ebp], ecx
	mov	eax, DWORD PTR _this$[ebp]
	add	eax, 264				; 00000108H
	mov	esp, ebp
	pop	ebp
	ret	0
?GetSpellCheckInterface@CRTFContentControl@@UAEPAVISpellCheck@@XZ ENDP ; CRTFContentControl::GetSpellCheckInterface
_TEXT	ENDS
PUBLIC	??1CRTFContentControl@@UAE@XZ			; CRTFContentControl::~CRTFContentControl
EXTRN	??3CObject@@SGXPAX@Z:PROC			; CObject::operator delete
; Function compile flags: /Odtp /RTCsu
;	COMDAT ??_GCRTFContentControl@@UAEPAXI@Z
_TEXT	SEGMENT
_this$ = -4						; size = 4
___flags$ = 8						; size = 4
??_GCRTFContentControl@@UAEPAXI@Z PROC			; CRTFContentControl::`scalar deleting destructor', COMDAT
; _this$ = ecx
	push	ebp
	mov	ebp, esp
	push	ecx
	mov	DWORD PTR [ebp-4], -858993460		; ccccccccH
	mov	DWORD PTR _this$[ebp], ecx
	mov	ecx, DWORD PTR _this$[ebp]
	call	??1CRTFContentControl@@UAE@XZ		; CRTFContentControl::~CRTFContentControl
	mov	eax, DWORD PTR ___flags$[ebp]
	and	eax, 1
	je	SHORT $LN1@scalar
	mov	ecx, DWORD PTR _this$[ebp]
	push	ecx
	call	??3CObject@@SGXPAX@Z			; CObject::operator delete
$LN1@scalar:
	mov	eax, DWORD PTR _this$[ebp]
	add	esp, 4
	cmp	ebp, esp
	call	__RTC_CheckEsp
	mov	esp, ebp
	pop	ebp
	ret	4
??_GCRTFContentControl@@UAEPAXI@Z ENDP			; CRTFContentControl::`scalar deleting destructor'
_TEXT	ENDS
PUBLIC	??_7IContentControl@@6B@			; IContentControl::`vftable'
PUBLIC	??_R4IContentControl@@6B@			; IContentControl::`RTTI Complete Object Locator'
EXTRN	__purecall:PROC
;	COMDAT ??_R4IContentControl@@6B@
rdata$r	SEGMENT
??_R4IContentControl@@6B@ DD 00H			; IContentControl::`RTTI Complete Object Locator'
	DD	00H
	DD	00H
	DD	FLAT:??_R0?AVIContentControl@@@8
	DD	FLAT:??_R3IContentControl@@8
rdata$r	ENDS
;	COMDAT ??_7IContentControl@@6B@
CONST	SEGMENT
??_7IContentControl@@6B@ DD FLAT:??_R4IContentControl@@6B@ ; IContentControl::`vftable'
	DD	FLAT:__purecall
	DD	FLAT:__purecall
	DD	FLAT:__purecall
	DD	FLAT:__purecall
	DD	FLAT:__purecall
	DD	FLAT:__purecall
	DD	FLAT:__purecall
	DD	FLAT:__purecall
	DD	FLAT:__purecall
	DD	FLAT:__purecall
	DD	FLAT:__purecall
	DD	FLAT:__purecall
	DD	FLAT:__purecall
	DD	FLAT:__purecall
	DD	FLAT:__purecall
; Function compile flags: /Odtp /RTCsu
CONST	ENDS
;	COMDAT ??0IContentControl@@QAE@XZ
_TEXT	SEGMENT
_this$ = -4						; size = 4
??0IContentControl@@QAE@XZ PROC				; IContentControl::IContentControl, COMDAT
; _this$ = ecx
	push	ebp
	mov	ebp, esp
	push	ecx
	mov	DWORD PTR [ebp-4], -858993460		; ccccccccH
	mov	DWORD PTR _this$[ebp], ecx
	mov	eax, DWORD PTR _this$[ebp]
	mov	DWORD PTR [eax], OFFSET ??_7IContentControl@@6B@
	mov	eax, DWORD PTR _this$[ebp]
	mov	esp, ebp
	pop	ebp
	ret	0
??0IContentControl@@QAE@XZ ENDP				; IContentControl::IContentControl
_TEXT	ENDS
PUBLIC	??1CRTFPreferencesPage@@UAE@XZ			; CRTFPreferencesPage::~CRTFPreferencesPage
EXTRN	??1CDialog@@UAE@XZ:PROC				; CDialog::~CDialog
EXTRN	??1CScrollingPropertyPageHost@@UAE@XZ:PROC	; CScrollingPropertyPageHost::~CScrollingPropertyPageHost
;	COMDAT xdata$x
xdata$x	SEGMENT
__unwindtable$??1CRTFPreferencesDlg@@UAE@XZ DD 0ffffffffH
	DD	FLAT:__unwindfunclet$??1CRTFPreferencesDlg@@UAE@XZ$0
	DD	00H
	DD	FLAT:__unwindfunclet$??1CRTFPreferencesDlg@@UAE@XZ$1
__ehfuncinfo$??1CRTFPreferencesDlg@@UAE@XZ DD 019930522H
	DD	02H
	DD	FLAT:__unwindtable$??1CRTFPreferencesDlg@@UAE@XZ
	DD	2 DUP(00H)
	DD	2 DUP(00H)
	DD	00H
	DD	01H
; Function compile flags: /Odtp /RTCsu
xdata$x	ENDS
;	COMDAT ??1CRTFPreferencesDlg@@UAE@XZ
_TEXT	SEGMENT
_this$ = -16						; size = 4
__$EHRec$ = -12						; size = 12
??1CRTFPreferencesDlg@@UAE@XZ PROC			; CRTFPreferencesDlg::~CRTFPreferencesDlg, COMDAT
; _this$ = ecx
	push	ebp
	mov	ebp, esp
	push	-1
	push	__ehhandler$??1CRTFPreferencesDlg@@UAE@XZ
	mov	eax, DWORD PTR fs:0
	push	eax
	push	ecx
	mov	DWORD PTR [ebp-16], -858993460		; ccccccccH
	mov	eax, DWORD PTR ___security_cookie
	xor	eax, ebp
	push	eax
	lea	eax, DWORD PTR __$EHRec$[ebp]
	mov	DWORD PTR fs:0, eax
	mov	DWORD PTR _this$[ebp], ecx
	mov	DWORD PTR __$EHRec$[ebp+8], 1
	mov	ecx, DWORD PTR _this$[ebp]
	add	ecx, 360				; 00000168H
	call	??1CScrollingPropertyPageHost@@UAE@XZ	; CScrollingPropertyPageHost::~CScrollingPropertyPageHost
	mov	BYTE PTR __$EHRec$[ebp+8], 0
	mov	ecx, DWORD PTR _this$[ebp]
	add	ecx, 148				; 00000094H
	call	??1CRTFPreferencesPage@@UAE@XZ
	mov	DWORD PTR __$EHRec$[ebp+8], -1
	mov	ecx, DWORD PTR _this$[ebp]
	call	??1CDialog@@UAE@XZ			; CDialog::~CDialog
	mov	ecx, DWORD PTR __$EHRec$[ebp]
	mov	DWORD PTR fs:0, ecx
	pop	ecx
	add	esp, 16					; 00000010H
	cmp	ebp, esp
	call	__RTC_CheckEsp
	mov	esp, ebp
	pop	ebp
	ret	0
_TEXT	ENDS
;	COMDAT text$x
text$x	SEGMENT
__unwindfunclet$??1CRTFPreferencesDlg@@UAE@XZ$0:
	mov	ecx, DWORD PTR _this$[ebp]
	jmp	??1CDialog@@UAE@XZ			; CDialog::~CDialog
__unwindfunclet$??1CRTFPreferencesDlg@@UAE@XZ$1:
	mov	ecx, DWORD PTR _this$[ebp]
	add	ecx, 148				; 00000094H
	jmp	??1CRTFPreferencesPage@@UAE@XZ
__ehhandler$??1CRTFPreferencesDlg@@UAE@XZ:
	mov	edx, DWORD PTR [esp+8]
	lea	eax, DWORD PTR [edx+12]
	mov	ecx, DWORD PTR [edx-8]
	xor	ecx, eax
	call	@__security_check_cookie@4
	mov	eax, OFFSET __ehfuncinfo$??1CRTFPreferencesDlg@@UAE@XZ
	jmp	___CxxFrameHandler3
text$x	ENDS
??1CRTFPreferencesDlg@@UAE@XZ ENDP			; CRTFPreferencesDlg::~CRTFPreferencesDlg
EXTRN	??1CPropertyPage@@UAE@XZ:PROC			; CPropertyPage::~CPropertyPage
EXTRN	??1CGroupLineManager@@UAE@XZ:PROC		; CGroupLineManager::~CGroupLineManager
;	COMDAT xdata$x
xdata$x	SEGMENT
__unwindtable$??1CRTFPreferencesPage@@UAE@XZ DD 0ffffffffH
	DD	FLAT:__unwindfunclet$??1CRTFPreferencesPage@@UAE@XZ$0
__ehfuncinfo$??1CRTFPreferencesPage@@UAE@XZ DD 019930522H
	DD	01H
	DD	FLAT:__unwindtable$??1CRTFPreferencesPage@@UAE@XZ
	DD	2 DUP(00H)
	DD	2 DUP(00H)
	DD	00H
	DD	01H
; Function compile flags: /Odtp /RTCsu
xdata$x	ENDS
;	COMDAT ??1CRTFPreferencesPage@@UAE@XZ
_TEXT	SEGMENT
_this$ = -16						; size = 4
__$EHRec$ = -12						; size = 12
??1CRTFPreferencesPage@@UAE@XZ PROC			; CRTFPreferencesPage::~CRTFPreferencesPage, COMDAT
; _this$ = ecx
	push	ebp
	mov	ebp, esp
	push	-1
	push	__ehhandler$??1CRTFPreferencesPage@@UAE@XZ
	mov	eax, DWORD PTR fs:0
	push	eax
	push	ecx
	mov	DWORD PTR [ebp-16], -858993460		; ccccccccH
	mov	eax, DWORD PTR ___security_cookie
	xor	eax, ebp
	push	eax
	lea	eax, DWORD PTR __$EHRec$[ebp]
	mov	DWORD PTR fs:0, eax
	mov	DWORD PTR _this$[ebp], ecx
	mov	DWORD PTR __$EHRec$[ebp+8], 0
	mov	ecx, DWORD PTR _this$[ebp]
	add	ecx, 168				; 000000a8H
	call	??1CGroupLineManager@@UAE@XZ		; CGroupLineManager::~CGroupLineManager
	mov	DWORD PTR __$EHRec$[ebp+8], -1
	mov	ecx, DWORD PTR _this$[ebp]
	call	??1CPropertyPage@@UAE@XZ		; CPropertyPage::~CPropertyPage
	mov	ecx, DWORD PTR __$EHRec$[ebp]
	mov	DWORD PTR fs:0, ecx
	pop	ecx
	add	esp, 16					; 00000010H
	cmp	ebp, esp
	call	__RTC_CheckEsp
	mov	esp, ebp
	pop	ebp
	ret	0
_TEXT	ENDS
;	COMDAT text$x
text$x	SEGMENT
__unwindfunclet$??1CRTFPreferencesPage@@UAE@XZ$0:
	mov	ecx, DWORD PTR _this$[ebp]
	jmp	??1CPropertyPage@@UAE@XZ		; CPropertyPage::~CPropertyPage
__ehhandler$??1CRTFPreferencesPage@@UAE@XZ:
	mov	edx, DWORD PTR [esp+8]
	lea	eax, DWORD PTR [edx+12]
	mov	ecx, DWORD PTR [edx-8]
	xor	ecx, eax
	call	@__security_check_cookie@4
	mov	eax, OFFSET __ehfuncinfo$??1CRTFPreferencesPage@@UAE@XZ
	jmp	___CxxFrameHandler3
text$x	ENDS
??1CRTFPreferencesPage@@UAE@XZ ENDP			; CRTFPreferencesPage::~CRTFPreferencesPage
;	COMDAT xdata$x
; File d:\_code\rtfcontentctrl\rtfcontentcontrol.cpp
xdata$x	SEGMENT
__ehfuncinfo$??1CRTFContentControl@@UAE@XZ DD 019930522H
	DD	05H
	DD	FLAT:__unwindtable$??1CRTFContentControl@@UAE@XZ
	DD	2 DUP(00H)
	DD	2 DUP(00H)
	DD	00H
	DD	01H
__unwindtable$??1CRTFContentControl@@UAE@XZ DD 0ffffffffH
	DD	FLAT:__unwindfunclet$??1CRTFContentControl@@UAE@XZ$0
	DD	00H
	DD	FLAT:__unwindfunclet$??1CRTFContentControl@@UAE@XZ$1
	DD	01H
	DD	FLAT:__unwindfunclet$??1CRTFContentControl@@UAE@XZ$2
	DD	02H
	DD	FLAT:__unwindfunclet$??1CRTFContentControl@@UAE@XZ$3
	DD	03H
	DD	FLAT:__unwindfunclet$??1CRTFContentControl@@UAE@XZ$4
; Function compile flags: /Odtp /RTCsu
xdata$x	ENDS
;	COMDAT ??1CRTFContentControl@@UAE@XZ
_TEXT	SEGMENT
_this$ = -16						; size = 4
__$EHRec$ = -12						; size = 12
??1CRTFContentControl@@UAE@XZ PROC			; CRTFContentControl::~CRTFContentControl, COMDAT
; _this$ = ecx

; 84   : {

	push	ebp
	mov	ebp, esp
	push	-1
	push	__ehhandler$??1CRTFContentControl@@UAE@XZ
	mov	eax, DWORD PTR fs:0
	push	eax
	push	ecx
	mov	DWORD PTR [ebp-16], -858993460		; ccccccccH
	mov	eax, DWORD PTR ___security_cookie
	xor	eax, ebp
	push	eax
	lea	eax, DWORD PTR __$EHRec$[ebp]
	mov	DWORD PTR fs:0, eax
	mov	DWORD PTR _this$[ebp], ecx
	mov	eax, DWORD PTR _this$[ebp]
	mov	DWORD PTR [eax], OFFSET ??_7CRTFContentControl@@6BCRulerRichEditCtrl@@@
	mov	ecx, DWORD PTR _this$[ebp]
	mov	DWORD PTR [ecx+1284], OFFSET ??_7CRTFContentControl@@6BIContentControl@@@
	mov	DWORD PTR __$EHRec$[ebp+8], 4

; 85   : }

	mov	ecx, DWORD PTR _this$[ebp]
	add	ecx, 2004				; 000007d4H
	call	??1CRTFPreferencesDlg@@UAE@XZ
	mov	BYTE PTR __$EHRec$[ebp+8], 3
	mov	ecx, DWORD PTR _this$[ebp]
	add	ecx, 1812				; 00000714H
	call	??1CShortcutManager@@UAE@XZ		; CShortcutManager::~CShortcutManager
	mov	BYTE PTR __$EHRec$[ebp+8], 2
	mov	ecx, DWORD PTR _this$[ebp]
	add	ecx, 1576				; 00000628H
	call	??1CMenuIconMgr@@UAE@XZ			; CMenuIconMgr::~CMenuIconMgr
	mov	BYTE PTR __$EHRec$[ebp+8], 1
	mov	ecx, DWORD PTR _this$[ebp]
	add	ecx, 1548				; 0000060cH
	call	??1CRichEditSpellCheck@@UAE@XZ		; CRichEditSpellCheck::~CRichEditSpellCheck
	mov	BYTE PTR __$EHRec$[ebp+8], 0
	mov	ecx, DWORD PTR _this$[ebp]
	add	ecx, 1292				; 0000050cH
	call	??1CToolbarHelper@@UAE@XZ		; CToolbarHelper::~CToolbarHelper
	mov	DWORD PTR __$EHRec$[ebp+8], -1
	mov	ecx, DWORD PTR _this$[ebp]
	call	??1CRulerRichEditCtrl@@UAE@XZ		; CRulerRichEditCtrl::~CRulerRichEditCtrl
	mov	ecx, DWORD PTR __$EHRec$[ebp]
	mov	DWORD PTR fs:0, ecx
	pop	ecx
	add	esp, 16					; 00000010H
	cmp	ebp, esp
	call	__RTC_CheckEsp
	mov	esp, ebp
	pop	ebp
	ret	0
_TEXT	ENDS
;	COMDAT text$x
text$x	SEGMENT
__unwindfunclet$??1CRTFContentControl@@UAE@XZ$0:
	mov	ecx, DWORD PTR _this$[ebp]
	jmp	??1CRulerRichEditCtrl@@UAE@XZ		; CRulerRichEditCtrl::~CRulerRichEditCtrl
__unwindfunclet$??1CRTFContentControl@@UAE@XZ$1:
	mov	ecx, DWORD PTR _this$[ebp]
	add	ecx, 1292				; 0000050cH
	jmp	??1CToolbarHelper@@UAE@XZ		; CToolbarHelper::~CToolbarHelper
__unwindfunclet$??1CRTFContentControl@@UAE@XZ$2:
	mov	ecx, DWORD PTR _this$[ebp]
	add	ecx, 1548				; 0000060cH
	jmp	??1CRichEditSpellCheck@@UAE@XZ		; CRichEditSpellCheck::~CRichEditSpellCheck
__unwindfunclet$??1CRTFContentControl@@UAE@XZ$3:
	mov	ecx, DWORD PTR _this$[ebp]
	add	ecx, 1576				; 00000628H
	jmp	??1CMenuIconMgr@@UAE@XZ			; CMenuIconMgr::~CMenuIconMgr
__unwindfunclet$??1CRTFContentControl@@UAE@XZ$4:
	mov	ecx, DWORD PTR _this$[ebp]
	add	ecx, 1812				; 00000714H
	jmp	??1CShortcutManager@@UAE@XZ		; CShortcutManager::~CShortcutManager
__ehhandler$??1CRTFContentControl@@UAE@XZ:
	mov	edx, DWORD PTR [esp+8]
	lea	eax, DWORD PTR [edx+12]
	mov	ecx, DWORD PTR [edx-8]
	xor	ecx, eax
	call	@__security_check_cookie@4
	mov	eax, OFFSET __ehfuncinfo$??1CRTFContentControl@@UAE@XZ
	jmp	___CxxFrameHandler3
text$x	ENDS
??1CRTFContentControl@@UAE@XZ ENDP			; CRTFContentControl::~CRTFContentControl
PUBLIC	?GetThisMessageMap@CRTFContentControl@@KGPBUAFX_MSGMAP@@XZ ; CRTFContentControl::GetThisMessageMap
; Function compile flags: /Odtp /RTCsu
;	COMDAT ?GetMessageMap@CRTFContentControl@@MBEPBUAFX_MSGMAP@@XZ
_TEXT	SEGMENT
_this$ = -4						; size = 4
?GetMessageMap@CRTFContentControl@@MBEPBUAFX_MSGMAP@@XZ PROC ; CRTFContentControl::GetMessageMap, COMDAT
; _this$ = ecx

; 88   : BEGIN_MESSAGE_MAP(CRTFContentControl, CRulerRichEditCtrl)

	push	ebp
	mov	ebp, esp
	push	ecx
	mov	DWORD PTR [ebp-4], -858993460		; ccccccccH
	mov	DWORD PTR _this$[ebp], ecx
	call	?GetThisMessageMap@CRTFContentControl@@KGPBUAFX_MSGMAP@@XZ ; CRTFContentControl::GetThisMessageMap
	add	esp, 4
	cmp	ebp, esp
	call	__RTC_CheckEsp
	mov	esp, ebp
	pop	ebp
	ret	0
?GetMessageMap@CRTFContentControl@@MBEPBUAFX_MSGMAP@@XZ ENDP ; CRTFContentControl::GetMessageMap
_TEXT	ENDS
PUBLIC	?OnContextMenu@CRTFContentControl@@IAEXPAVCWnd@@VCPoint@@@Z ; CRTFContentControl::OnContextMenu
PUBLIC	?OnCreate@CRTFContentControl@@IAEHPAUtagCREATESTRUCTW@@@Z ; CRTFContentControl::OnCreate
PUBLIC	?OnEditCopy@CRTFContentControl@@IAEXXZ		; CRTFContentControl::OnEditCopy
PUBLIC	?OnEditCopyFormatting@CRTFContentControl@@IAEXXZ ; CRTFContentControl::OnEditCopyFormatting
PUBLIC	?OnEditCopyAsHtml@CRTFContentControl@@IAEXXZ	; CRTFContentControl::OnEditCopyAsHtml
PUBLIC	?OnEditCut@CRTFContentControl@@IAEXXZ		; CRTFContentControl::OnEditCut
PUBLIC	?OnEditDelete@CRTFContentControl@@IAEXXZ	; CRTFContentControl::OnEditDelete
PUBLIC	?OnEditFileBrowse@CRTFContentControl@@IAEXXZ	; CRTFContentControl::OnEditFileBrowse
PUBLIC	?OnEditFind@CRTFContentControl@@IAEXXZ		; CRTFContentControl::OnEditFind
PUBLIC	?OnEditFindReplace@CRTFContentControl@@IAEXXZ	; CRTFContentControl::OnEditFindReplace
PUBLIC	?OnEditHorzRule@CRTFContentControl@@IAEXXZ	; CRTFContentControl::OnEditHorzRule
PUBLIC	?OnEditOpenUrl@CRTFContentControl@@IAEXXZ	; CRTFContentControl::OnEditOpenUrl
PUBLIC	?OnEditCopyUrl@CRTFContentControl@@IAEXXZ	; CRTFContentControl::OnEditCopyUrl
PUBLIC	?OnEditPaste@CRTFContentControl@@IAEXXZ		; CRTFContentControl::OnEditPaste
PUBLIC	?OnEditPasteasRef@CRTFContentControl@@IAEXXZ	; CRTFContentControl::OnEditPasteasRef
PUBLIC	?OnEditPasteFormatting@CRTFContentControl@@IAEXXZ ; CRTFContentControl::OnEditPasteFormatting
PUBLIC	?OnEditPasteSimple@CRTFContentControl@@IAEXXZ	; CRTFContentControl::OnEditPasteSimple
PUBLIC	?OnEditSelectAll@CRTFContentControl@@IAEXXZ	; CRTFContentControl::OnEditSelectAll
PUBLIC	?OnEditShowRuler@CRTFContentControl@@IAEXXZ	; CRTFContentControl::OnEditShowRuler
PUBLIC	?OnEditShowToolbar@CRTFContentControl@@IAEXXZ	; CRTFContentControl::OnEditShowToolbar
PUBLIC	?OnEditSpellcheck@CRTFContentControl@@IAEXXZ	; CRTFContentControl::OnEditSpellcheck
PUBLIC	?OnEditSubscript@CRTFContentControl@@IAEXXZ	; CRTFContentControl::OnEditSubscript
PUBLIC	?OnEditSuperscript@CRTFContentControl@@IAEXXZ	; CRTFContentControl::OnEditSuperscript
PUBLIC	?OnEditInlineSpellcheck@CRTFContentControl@@IAEXXZ ; CRTFContentControl::OnEditInlineSpellcheck
PUBLIC	?OnPreferences@CRTFContentControl@@IAEXXZ	; CRTFContentControl::OnPreferences
PUBLIC	?OnUpdateEditCopy@CRTFContentControl@@IAEXPAVCCmdUI@@@Z ; CRTFContentControl::OnUpdateEditCopy
PUBLIC	?OnUpdateEditCopyFormatting@CRTFContentControl@@IAEXPAVCCmdUI@@@Z ; CRTFContentControl::OnUpdateEditCopyFormatting
PUBLIC	?OnUpdateEditCut@CRTFContentControl@@IAEXPAVCCmdUI@@@Z ; CRTFContentControl::OnUpdateEditCut
PUBLIC	?OnUpdateEditDelete@CRTFContentControl@@IAEXPAVCCmdUI@@@Z ; CRTFContentControl::OnUpdateEditDelete
PUBLIC	?OnUpdateEditFileBrowse@CRTFContentControl@@IAEXPAVCCmdUI@@@Z ; CRTFContentControl::OnUpdateEditFileBrowse
PUBLIC	?OnUpdateEditFind@CRTFContentControl@@IAEXPAVCCmdUI@@@Z ; CRTFContentControl::OnUpdateEditFind
PUBLIC	?OnUpdateEditFindReplace@CRTFContentControl@@IAEXPAVCCmdUI@@@Z ; CRTFContentControl::OnUpdateEditFindReplace
PUBLIC	?OnUpdateEditHorzRule@CRTFContentControl@@IAEXPAVCCmdUI@@@Z ; CRTFContentControl::OnUpdateEditHorzRule
PUBLIC	?OnUpdateEditOpenCopyUrl@CRTFContentControl@@IAEXPAVCCmdUI@@@Z ; CRTFContentControl::OnUpdateEditOpenCopyUrl
PUBLIC	?OnUpdateEditPaste@CRTFContentControl@@IAEXPAVCCmdUI@@@Z ; CRTFContentControl::OnUpdateEditPaste
PUBLIC	?OnUpdateEditPasteasRef@CRTFContentControl@@IAEXPAVCCmdUI@@@Z ; CRTFContentControl::OnUpdateEditPasteasRef
PUBLIC	?OnUpdateEditPasteFormatting@CRTFContentControl@@IAEXPAVCCmdUI@@@Z ; CRTFContentControl::OnUpdateEditPasteFormatting
PUBLIC	?OnUpdateEditPasteSimple@CRTFContentControl@@IAEXPAVCCmdUI@@@Z ; CRTFContentControl::OnUpdateEditPasteSimple
PUBLIC	?OnUpdateEditSelectAll@CRTFContentControl@@IAEXPAVCCmdUI@@@Z ; CRTFContentControl::OnUpdateEditSelectAll
PUBLIC	?OnUpdateEditShowRuler@CRTFContentControl@@IAEXPAVCCmdUI@@@Z ; CRTFContentControl::OnUpdateEditShowRuler
PUBLIC	?OnUpdateEditShowToolbar@CRTFContentControl@@IAEXPAVCCmdUI@@@Z ; CRTFContentControl::OnUpdateEditShowToolbar
PUBLIC	?OnUpdateEditSpellcheck@CRTFContentControl@@IAEXPAVCCmdUI@@@Z ; CRTFContentControl::OnUpdateEditSpellcheck
PUBLIC	?OnUpdateEditSubscript@CRTFContentControl@@IAEXPAVCCmdUI@@@Z ; CRTFContentControl::OnUpdateEditSubscript
PUBLIC	?OnUpdateEditSuperscript@CRTFContentControl@@IAEXPAVCCmdUI@@@Z ; CRTFContentControl::OnUpdateEditSuperscript
PUBLIC	?OnUpdateEditInlineSpellcheck@CRTFContentControl@@IAEXPAVCCmdUI@@@Z ; CRTFContentControl::OnUpdateEditInlineSpellcheck
PUBLIC	?OnChangeText@CRTFContentControl@@IAEXXZ	; CRTFContentControl::OnChangeText
PUBLIC	?OnKillFocus@CRTFContentControl@@IAEXXZ		; CRTFContentControl::OnKillFocus
PUBLIC	?OnSetFont@CRTFContentControl@@IAEJIJ@Z		; CRTFContentControl::OnSetFont
PUBLIC	?OnStyleChanging@CRTFContentControl@@IAEXHPAUtagSTYLESTRUCT@@@Z ; CRTFContentControl::OnStyleChanging
PUBLIC	?OnCustomUrl@CRTFContentControl@@IAEJIJ@Z	; CRTFContentControl::OnCustomUrl
PUBLIC	?OnFailedUrl@CRTFContentControl@@IAEJIJ@Z	; CRTFContentControl::OnFailedUrl
EXTRN	?GetThisMessageMap@CRulerRichEditCtrl@@KGPBUAFX_MSGMAP@@XZ:PROC ; CRulerRichEditCtrl::GetThisMessageMap
EXTRN	?OnEditRightAlign@CRulerRichEditCtrl@@IAEXXZ:PROC ; CRulerRichEditCtrl::OnEditRightAlign
;	COMDAT ?_messageEntries@?1??GetThisMessageMap@CRTFContentControl@@KGPBUAFX_MSGMAP@@XZ@4QBUAFX_MSGMAP_ENTRY@@B
CONST	SEGMENT
?_messageEntries@?1??GetThisMessageMap@CRTFContentControl@@KGPBUAFX_MSGMAP@@XZ@4QBUAFX_MSGMAP_ENTRY@@B DD 07bH ; `CRTFContentControl::GetThisMessageMap'::`2'::_messageEntries
	DD	00H
	DD	00H
	DD	00H
	DD	026H
	DD	FLAT:?OnContextMenu@CRTFContentControl@@IAEXPAVCWnd@@VCPoint@@@Z
	DD	01H
	DD	00H
	DD	00H
	DD	00H
	DD	0dH
	DD	FLAT:?OnCreate@CRTFContentControl@@IAEHPAUtagCREATESTRUCTW@@@Z
	DD	0111H
	DD	00H
	DD	0e122H
	DD	0e122H
	DD	039H
	DD	FLAT:?OnEditCopy@CRTFContentControl@@IAEXXZ
	DD	0111H
	DD	00H
	DD	08029H
	DD	08029H
	DD	039H
	DD	FLAT:?OnEditCopyFormatting@CRTFContentControl@@IAEXXZ
	DD	0111H
	DD	00H
	DD	0802dH
	DD	0802dH
	DD	039H
	DD	FLAT:?OnEditCopyAsHtml@CRTFContentControl@@IAEXXZ
	DD	0111H
	DD	00H
	DD	0e123H
	DD	0e123H
	DD	039H
	DD	FLAT:?OnEditCut@CRTFContentControl@@IAEXXZ
	DD	0111H
	DD	00H
	DD	08006H
	DD	08006H
	DD	039H
	DD	FLAT:?OnEditDelete@CRTFContentControl@@IAEXXZ
	DD	0111H
	DD	00H
	DD	0800dH
	DD	0800dH
	DD	039H
	DD	FLAT:?OnEditFileBrowse@CRTFContentControl@@IAEXXZ
	DD	0111H
	DD	00H
	DD	0e124H
	DD	0e124H
	DD	039H
	DD	FLAT:?OnEditFind@CRTFContentControl@@IAEXXZ
	DD	0111H
	DD	00H
	DD	08024H
	DD	08024H
	DD	039H
	DD	FLAT:?OnEditFindReplace@CRTFContentControl@@IAEXXZ
	DD	0111H
	DD	00H
	DD	08017H
	DD	08017H
	DD	039H
	DD	FLAT:?OnEditHorzRule@CRTFContentControl@@IAEXXZ
	DD	0111H
	DD	00H
	DD	0800cH
	DD	0800cH
	DD	039H
	DD	FLAT:?OnEditOpenUrl@CRTFContentControl@@IAEXXZ
	DD	0111H
	DD	00H
	DD	0802fH
	DD	0802fH
	DD	039H
	DD	FLAT:?OnEditCopyUrl@CRTFContentControl@@IAEXXZ
	DD	0111H
	DD	00H
	DD	0e125H
	DD	0e125H
	DD	039H
	DD	FLAT:?OnEditPaste@CRTFContentControl@@IAEXXZ
	DD	0111H
	DD	00H
	DD	0800eH
	DD	0800eH
	DD	039H
	DD	FLAT:?OnEditPasteasRef@CRTFContentControl@@IAEXXZ
	DD	0111H
	DD	00H
	DD	0802aH
	DD	0802aH
	DD	039H
	DD	FLAT:?OnEditPasteFormatting@CRTFContentControl@@IAEXXZ
	DD	0111H
	DD	00H
	DD	08012H
	DD	08012H
	DD	039H
	DD	FLAT:?OnEditPasteSimple@CRTFContentControl@@IAEXXZ
	DD	0111H
	DD	00H
	DD	08014H
	DD	08014H
	DD	039H
	DD	FLAT:?OnEditRightAlign@CRulerRichEditCtrl@@IAEXXZ
	DD	0111H
	DD	00H
	DD	0e12aH
	DD	0e12aH
	DD	039H
	DD	FLAT:?OnEditSelectAll@CRTFContentControl@@IAEXXZ
	DD	0111H
	DD	00H
	DD	08009H
	DD	08009H
	DD	039H
	DD	FLAT:?OnEditShowRuler@CRTFContentControl@@IAEXXZ
	DD	0111H
	DD	00H
	DD	08008H
	DD	08008H
	DD	039H
	DD	FLAT:?OnEditShowToolbar@CRTFContentControl@@IAEXXZ
	DD	0111H
	DD	00H
	DD	08021H
	DD	08021H
	DD	039H
	DD	FLAT:?OnEditSpellcheck@CRTFContentControl@@IAEXXZ
	DD	0111H
	DD	00H
	DD	08011H
	DD	08011H
	DD	039H
	DD	FLAT:?OnEditSubscript@CRTFContentControl@@IAEXXZ
	DD	0111H
	DD	00H
	DD	08010H
	DD	08010H
	DD	039H
	DD	FLAT:?OnEditSuperscript@CRTFContentControl@@IAEXXZ
	DD	0111H
	DD	00H
	DD	086f1H
	DD	086f1H
	DD	039H
	DD	FLAT:?OnEditInlineSpellcheck@CRTFContentControl@@IAEXXZ
	DD	0111H
	DD	00H
	DD	0801eH
	DD	0801eH
	DD	039H
	DD	FLAT:?OnPreferences@CRTFContentControl@@IAEXXZ
	DD	0111H
	DD	0ffffffffH
	DD	0e122H
	DD	0e122H
	DD	041H
	DD	FLAT:?OnUpdateEditCopy@CRTFContentControl@@IAEXPAVCCmdUI@@@Z
	DD	0111H
	DD	0ffffffffH
	DD	08029H
	DD	08029H
	DD	041H
	DD	FLAT:?OnUpdateEditCopyFormatting@CRTFContentControl@@IAEXPAVCCmdUI@@@Z
	DD	0111H
	DD	0ffffffffH
	DD	0e123H
	DD	0e123H
	DD	041H
	DD	FLAT:?OnUpdateEditCut@CRTFContentControl@@IAEXPAVCCmdUI@@@Z
	DD	0111H
	DD	0ffffffffH
	DD	08006H
	DD	08006H
	DD	041H
	DD	FLAT:?OnUpdateEditDelete@CRTFContentControl@@IAEXPAVCCmdUI@@@Z
	DD	0111H
	DD	0ffffffffH
	DD	0800dH
	DD	0800dH
	DD	041H
	DD	FLAT:?OnUpdateEditFileBrowse@CRTFContentControl@@IAEXPAVCCmdUI@@@Z
	DD	0111H
	DD	0ffffffffH
	DD	0e124H
	DD	0e124H
	DD	041H
	DD	FLAT:?OnUpdateEditFind@CRTFContentControl@@IAEXPAVCCmdUI@@@Z
	DD	0111H
	DD	0ffffffffH
	DD	08024H
	DD	08024H
	DD	041H
	DD	FLAT:?OnUpdateEditFindReplace@CRTFContentControl@@IAEXPAVCCmdUI@@@Z
	DD	0111H
	DD	0ffffffffH
	DD	08017H
	DD	08017H
	DD	041H
	DD	FLAT:?OnUpdateEditHorzRule@CRTFContentControl@@IAEXPAVCCmdUI@@@Z
	DD	0111H
	DD	0ffffffffH
	DD	0800cH
	DD	0800cH
	DD	041H
	DD	FLAT:?OnUpdateEditOpenCopyUrl@CRTFContentControl@@IAEXPAVCCmdUI@@@Z
	DD	0111H
	DD	0ffffffffH
	DD	0802fH
	DD	0802fH
	DD	041H
	DD	FLAT:?OnUpdateEditOpenCopyUrl@CRTFContentControl@@IAEXPAVCCmdUI@@@Z
	DD	0111H
	DD	0ffffffffH
	DD	0e125H
	DD	0e125H
	DD	041H
	DD	FLAT:?OnUpdateEditPaste@CRTFContentControl@@IAEXPAVCCmdUI@@@Z
	DD	0111H
	DD	0ffffffffH
	DD	0800eH
	DD	0800eH
	DD	041H
	DD	FLAT:?OnUpdateEditPasteasRef@CRTFContentControl@@IAEXPAVCCmdUI@@@Z
	DD	0111H
	DD	0ffffffffH
	DD	0802aH
	DD	0802aH
	DD	041H
	DD	FLAT:?OnUpdateEditPasteFormatting@CRTFContentControl@@IAEXPAVCCmdUI@@@Z
	DD	0111H
	DD	0ffffffffH
	DD	08012H
	DD	08012H
	DD	041H
	DD	FLAT:?OnUpdateEditPasteSimple@CRTFContentControl@@IAEXPAVCCmdUI@@@Z
	DD	0111H
	DD	0ffffffffH
	DD	0e12aH
	DD	0e12aH
	DD	041H
	DD	FLAT:?OnUpdateEditSelectAll@CRTFContentControl@@IAEXPAVCCmdUI@@@Z
	DD	0111H
	DD	0ffffffffH
	DD	08009H
	DD	08009H
	DD	041H
	DD	FLAT:?OnUpdateEditShowRuler@CRTFContentControl@@IAEXPAVCCmdUI@@@Z
	DD	0111H
	DD	0ffffffffH
	DD	08008H
	DD	08008H
	DD	041H
	DD	FLAT:?OnUpdateEditShowToolbar@CRTFContentControl@@IAEXPAVCCmdUI@@@Z
	DD	0111H
	DD	0ffffffffH
	DD	08021H
	DD	08021H
	DD	041H
	DD	FLAT:?OnUpdateEditSpellcheck@CRTFContentControl@@IAEXPAVCCmdUI@@@Z
	DD	0111H
	DD	0ffffffffH
	DD	08011H
	DD	08011H
	DD	041H
	DD	FLAT:?OnUpdateEditSubscript@CRTFContentControl@@IAEXPAVCCmdUI@@@Z
	DD	0111H
	DD	0ffffffffH
	DD	08010H
	DD	08010H
	DD	041H
	DD	FLAT:?OnUpdateEditSuperscript@CRTFContentControl@@IAEXPAVCCmdUI@@@Z
	DD	0111H
	DD	0ffffffffH
	DD	086f1H
	DD	086f1H
	DD	041H
	DD	FLAT:?OnUpdateEditInlineSpellcheck@CRTFContentControl@@IAEXPAVCCmdUI@@@Z
	DD	0111H
	DD	0300H
	DD	0cH
	DD	0cH
	DD	039H
	DD	FLAT:?OnChangeText@CRTFContentControl@@IAEXXZ
	DD	0111H
	DD	0200H
	DD	0cH
	DD	0cH
	DD	039H
	DD	FLAT:?OnKillFocus@CRTFContentControl@@IAEXXZ
	DD	030H
	DD	00H
	DD	00H
	DD	00H
	DD	0eH
	DD	FLAT:?OnSetFont@CRTFContentControl@@IAEJIJ@Z
	DD	07cH
	DD	00H
	DD	00H
	DD	00H
	DD	01eH
	DD	FLAT:?OnStyleChanging@CRTFContentControl@@IAEXHPAUtagSTYLESTRUCT@@@Z
	DD	0c000H
	DD	00H
	DD	00H
	DD	00H
	DD	FLAT:_WM_UREN_CUSTOMURL
	DD	FLAT:?OnCustomUrl@CRTFContentControl@@IAEJIJ@Z
	DD	0c000H
	DD	00H
	DD	00H
	DD	00H
	DD	FLAT:_WM_UREN_FAILEDURL
	DD	FLAT:?OnFailedUrl@CRTFContentControl@@IAEJIJ@Z
	DD	00H
	DD	00H
	DD	00H
	DD	00H
	DD	00H
	DD	00H
CONST	ENDS
;	COMDAT ?messageMap@?1??GetThisMessageMap@CRTFContentControl@@KGPBUAFX_MSGMAP@@XZ@4U3@B
CONST	SEGMENT
?messageMap@?1??GetThisMessageMap@CRTFContentControl@@KGPBUAFX_MSGMAP@@XZ@4U3@B DD FLAT:?GetThisMessageMap@CRulerRichEditCtrl@@KGPBUAFX_MSGMAP@@XZ ; `CRTFContentControl::GetThisMessageMap'::`2'::messageMap
	DD	FLAT:?_messageEntries@?1??GetThisMessageMap@CRTFContentControl@@KGPBUAFX_MSGMAP@@XZ@4QBUAFX_MSGMAP_ENTRY@@B
; Function compile flags: /Odtp /RTCsu
CONST	ENDS
;	COMDAT ?GetThisMessageMap@CRTFContentControl@@KGPBUAFX_MSGMAP@@XZ
_TEXT	SEGMENT
?GetThisMessageMap@CRTFContentControl@@KGPBUAFX_MSGMAP@@XZ PROC ; CRTFContentControl::GetThisMessageMap, COMDAT

; 88   : BEGIN_MESSAGE_MAP(CRTFContentControl, CRulerRichEditCtrl)

	push	ebp
	mov	ebp, esp

; 89   : 	//{{AFX_MSG_MAP(CRTFContentControl)
; 90   : 	ON_WM_CONTEXTMENU()
; 91   : 	ON_WM_CREATE()
; 92   : 	//}}AFX_MSG_
; 93   : 	ON_COMMAND(ID_EDIT_COPY, OnEditCopy)
; 94   : 	ON_COMMAND(ID_EDIT_COPYFORMATTING, OnEditCopyFormatting)
; 95   : 	ON_COMMAND(ID_EDIT_COPYASHTML, OnEditCopyAsHtml)
; 96   : 	ON_COMMAND(ID_EDIT_CUT, OnEditCut)
; 97   : 	ON_COMMAND(ID_EDIT_DELETE, OnEditDelete)
; 98   : 	ON_COMMAND(ID_EDIT_FILEBROWSE, OnEditFileBrowse)
; 99   : 	ON_COMMAND(ID_EDIT_FIND, OnEditFind)
; 100  : 	ON_COMMAND(ID_EDIT_FINDREPLACE, OnEditFindReplace)
; 101  : 	ON_COMMAND(ID_EDIT_HORZRULE, OnEditHorzRule)
; 102  : 	ON_COMMAND(ID_EDIT_OPENURL, OnEditOpenUrl)
; 103  : 	ON_COMMAND(ID_EDIT_COPYURL, OnEditCopyUrl)
; 104  : 	ON_COMMAND(ID_EDIT_PASTE, OnEditPaste)
; 105  : 	ON_COMMAND(ID_EDIT_PASTEASREF, OnEditPasteasRef)
; 106  : 	ON_COMMAND(ID_EDIT_PASTEFORMATTING, OnEditPasteFormatting)
; 107  : 	ON_COMMAND(ID_EDIT_PASTESIMPLE, OnEditPasteSimple)
; 108  : 	ON_COMMAND(ID_EDIT_RIGHTALIGN, OnEditRightAlign)
; 109  : 	ON_COMMAND(ID_EDIT_SELECT_ALL, OnEditSelectAll)
; 110  : 	ON_COMMAND(ID_EDIT_SHOWRULER, OnEditShowRuler)
; 111  : 	ON_COMMAND(ID_EDIT_SHOWTOOLBAR, OnEditShowToolbar)
; 112  : 	ON_COMMAND(ID_EDIT_SPELLCHECK, OnEditSpellcheck)
; 113  : 	ON_COMMAND(ID_EDIT_SUBSCRIPT, OnEditSubscript)
; 114  : 	ON_COMMAND(ID_EDIT_SUPERSCRIPT, OnEditSuperscript)
; 115  : 	ON_COMMAND(ID_EDIT_INLINESPELLCHECK, OnEditInlineSpellcheck)
; 116  : 	ON_COMMAND(ID_PREFERENCES, OnPreferences)
; 117  : 	ON_UPDATE_COMMAND_UI(ID_EDIT_COPY, OnUpdateEditCopy)
; 118  : 	ON_UPDATE_COMMAND_UI(ID_EDIT_COPYFORMATTING, OnUpdateEditCopyFormatting)
; 119  : 	ON_UPDATE_COMMAND_UI(ID_EDIT_CUT, OnUpdateEditCut)
; 120  : 	ON_UPDATE_COMMAND_UI(ID_EDIT_DELETE, OnUpdateEditDelete)
; 121  : 	ON_UPDATE_COMMAND_UI(ID_EDIT_FILEBROWSE, OnUpdateEditFileBrowse)
; 122  : 	ON_UPDATE_COMMAND_UI(ID_EDIT_FIND, OnUpdateEditFind)
; 123  : 	ON_UPDATE_COMMAND_UI(ID_EDIT_FINDREPLACE, OnUpdateEditFindReplace)
; 124  : 	ON_UPDATE_COMMAND_UI(ID_EDIT_HORZRULE, OnUpdateEditHorzRule)
; 125  : 	ON_UPDATE_COMMAND_UI(ID_EDIT_OPENURL, OnUpdateEditOpenCopyUrl)
; 126  : 	ON_UPDATE_COMMAND_UI(ID_EDIT_COPYURL, OnUpdateEditOpenCopyUrl)
; 127  : 	ON_UPDATE_COMMAND_UI(ID_EDIT_PASTE, OnUpdateEditPaste)
; 128  : 	ON_UPDATE_COMMAND_UI(ID_EDIT_PASTEASREF, OnUpdateEditPasteasRef)
; 129  : 	ON_UPDATE_COMMAND_UI(ID_EDIT_PASTEFORMATTING, OnUpdateEditPasteFormatting)
; 130  : 	ON_UPDATE_COMMAND_UI(ID_EDIT_PASTESIMPLE, OnUpdateEditPasteSimple)
; 131  : 	ON_UPDATE_COMMAND_UI(ID_EDIT_SELECT_ALL, OnUpdateEditSelectAll)
; 132  : 	ON_UPDATE_COMMAND_UI(ID_EDIT_SHOWRULER, OnUpdateEditShowRuler)
; 133  : 	ON_UPDATE_COMMAND_UI(ID_EDIT_SHOWTOOLBAR, OnUpdateEditShowToolbar)
; 134  : 	ON_UPDATE_COMMAND_UI(ID_EDIT_SPELLCHECK, OnUpdateEditSpellcheck)
; 135  : 	ON_UPDATE_COMMAND_UI(ID_EDIT_SUBSCRIPT, OnUpdateEditSubscript)
; 136  : 	ON_UPDATE_COMMAND_UI(ID_EDIT_SUPERSCRIPT, OnUpdateEditSuperscript)
; 137  : 	ON_UPDATE_COMMAND_UI(ID_EDIT_INLINESPELLCHECK, OnUpdateEditInlineSpellcheck)
; 138  : 	ON_EN_CHANGE(RTF_CONTROL, OnChangeText)
; 139  : 	ON_EN_KILLFOCUS(RTF_CONTROL, OnKillFocus)
; 140  : 	ON_MESSAGE(WM_SETFONT, OnSetFont)
; 141  : 	ON_WM_STYLECHANGING()
; 142  : 	ON_REGISTERED_MESSAGE(WM_UREN_CUSTOMURL, OnCustomUrl)
; 143  : 	ON_REGISTERED_MESSAGE(WM_UREN_FAILEDURL, OnFailedUrl)
; 144  : END_MESSAGE_MAP()

	mov	eax, OFFSET ?messageMap@?1??GetThisMessageMap@CRTFContentControl@@KGPBUAFX_MSGMAP@@XZ@4U3@B
	pop	ebp
	ret	0
?GetThisMessageMap@CRTFContentControl@@KGPBUAFX_MSGMAP@@XZ ENDP ; CRTFContentControl::GetThisMessageMap
_TEXT	ENDS
PUBLIC	?SetFileLinkOption@CRTFPreferencesDlg@@QAEXW4RE_PASTE@@H@Z ; CRTFPreferencesDlg::SetFileLinkOption
PUBLIC	?GetFileLinkOption@CRulerRichEdit@@QBE?AW4RE_PASTE@@XZ ; CRulerRichEdit::GetFileLinkOption
PUBLIC	?IsFileLinkOptionDefault@CRulerRichEdit@@QBEHXZ	; CRulerRichEdit::IsFileLinkOptionDefault
PUBLIC	?IsIMEComposing@CRulerRichEdit@@QBEHXZ		; CRulerRichEdit::IsIMEComposing
EXTRN	?SendMessageW@CWnd@@QBEJIIJ@Z:PROC		; CWnd::SendMessageW
EXTRN	?GetParent@CWnd@@QBEPAV1@XZ:PROC		; CWnd::GetParent
; Function compile flags: /Odtp /RTCsu
;	COMDAT ?OnChangeText@CRTFContentControl@@IAEXXZ
_TEXT	SEGMENT
_this$ = -4						; size = 4
?OnChangeText@CRTFContentControl@@IAEXXZ PROC		; CRTFContentControl::OnChangeText, COMDAT
; _this$ = ecx

; 150  : {

	push	ebp
	mov	ebp, esp
	push	ecx
	mov	DWORD PTR [ebp-4], -858993460		; ccccccccH
	mov	DWORD PTR _this$[ebp], ecx

; 151  : 	if (m_bAllowNotify && !m_rtf.IsIMEComposing())

	mov	eax, DWORD PTR _this$[ebp]
	cmp	DWORD PTR [eax+1288], 0
	je	SHORT $LN1@OnChangeTe
	mov	ecx, DWORD PTR _this$[ebp]
	add	ecx, 304				; 00000130H
	call	?IsIMEComposing@CRulerRichEdit@@QBEHXZ	; CRulerRichEdit::IsIMEComposing
	test	eax, eax
	jne	SHORT $LN1@OnChangeTe

; 152  : 		GetParent()->SendMessage(WM_ICC_COMMENTSCHANGE);

	push	0
	push	0
	mov	ecx, DWORD PTR _WM_ICC_COMMENTSCHANGE
	push	ecx
	mov	ecx, DWORD PTR _this$[ebp]
	call	?GetParent@CWnd@@QBEPAV1@XZ		; CWnd::GetParent
	mov	ecx, eax
	call	?SendMessageW@CWnd@@QBEJIIJ@Z		; CWnd::SendMessageW
$LN1@OnChangeTe:

; 153  : 
; 154  : 	m_prefsDlg.SetFileLinkOption(m_rtf.GetFileLinkOption(), !m_rtf.IsFileLinkOptionDefault());

	mov	ecx, DWORD PTR _this$[ebp]
	add	ecx, 304				; 00000130H
	call	?IsFileLinkOptionDefault@CRulerRichEdit@@QBEHXZ ; CRulerRichEdit::IsFileLinkOptionDefault
	neg	eax
	sbb	eax, eax
	add	eax, 1
	push	eax
	mov	ecx, DWORD PTR _this$[ebp]
	add	ecx, 304				; 00000130H
	call	?GetFileLinkOption@CRulerRichEdit@@QBE?AW4RE_PASTE@@XZ ; CRulerRichEdit::GetFileLinkOption
	push	eax
	mov	ecx, DWORD PTR _this$[ebp]
	add	ecx, 2004				; 000007d4H
	call	?SetFileLinkOption@CRTFPreferencesDlg@@QAEXW4RE_PASTE@@H@Z ; CRTFPreferencesDlg::SetFileLinkOption

; 155  : }

	add	esp, 4
	cmp	ebp, esp
	call	__RTC_CheckEsp
	mov	esp, ebp
	pop	ebp
	ret	0
?OnChangeText@CRTFContentControl@@IAEXXZ ENDP		; CRTFContentControl::OnChangeText
; Function compile flags: /Odtp /RTCsu
; File d:\_code\rtfcontentctrl\rulerrichedit.h
_TEXT	ENDS
;	COMDAT ?IsIMEComposing@CRulerRichEdit@@QBEHXZ
_TEXT	SEGMENT
_this$ = -4						; size = 4
?IsIMEComposing@CRulerRichEdit@@QBEHXZ PROC		; CRulerRichEdit::IsIMEComposing, COMDAT
; _this$ = ecx

; 105  : 	BOOL IsIMEComposing() const { return m_bIMEComposing; }

	push	ebp
	mov	ebp, esp
	push	ecx
	mov	DWORD PTR [ebp-4], -858993460		; ccccccccH
	mov	DWORD PTR _this$[ebp], ecx
	mov	eax, DWORD PTR _this$[ebp]
	mov	eax, DWORD PTR [eax+300]
	mov	esp, ebp
	pop	ebp
	ret	0
?IsIMEComposing@CRulerRichEdit@@QBEHXZ ENDP		; CRulerRichEdit::IsIMEComposing
; Function compile flags: /Odtp /RTCsu
_TEXT	ENDS
;	COMDAT ?GetFileLinkOption@CRulerRichEdit@@QBE?AW4RE_PASTE@@XZ
_TEXT	SEGMENT
_this$ = -4						; size = 4
?GetFileLinkOption@CRulerRichEdit@@QBE?AW4RE_PASTE@@XZ PROC ; CRulerRichEdit::GetFileLinkOption, COMDAT
; _this$ = ecx

; 108  : 	RE_PASTE GetFileLinkOption() const { return m_nFileLinkOption; }

	push	ebp
	mov	ebp, esp
	push	ecx
	mov	DWORD PTR [ebp-4], -858993460		; ccccccccH
	mov	DWORD PTR _this$[ebp], ecx
	mov	eax, DWORD PTR _this$[ebp]
	mov	eax, DWORD PTR [eax+304]
	mov	esp, ebp
	pop	ebp
	ret	0
?GetFileLinkOption@CRulerRichEdit@@QBE?AW4RE_PASTE@@XZ ENDP ; CRulerRichEdit::GetFileLinkOption
; Function compile flags: /Odtp /RTCsu
_TEXT	ENDS
;	COMDAT ?IsFileLinkOptionDefault@CRulerRichEdit@@QBEHXZ
_TEXT	SEGMENT
_this$ = -4						; size = 4
?IsFileLinkOptionDefault@CRulerRichEdit@@QBEHXZ PROC	; CRulerRichEdit::IsFileLinkOptionDefault, COMDAT
; _this$ = ecx

; 109  : 	BOOL IsFileLinkOptionDefault() const { return m_bLinkOptionIsDefault; }

	push	ebp
	mov	ebp, esp
	push	ecx
	mov	DWORD PTR [ebp-4], -858993460		; ccccccccH
	mov	DWORD PTR _this$[ebp], ecx
	mov	eax, DWORD PTR _this$[ebp]
	mov	eax, DWORD PTR [eax+308]
	mov	esp, ebp
	pop	ebp
	ret	0
?IsFileLinkOptionDefault@CRulerRichEdit@@QBEHXZ ENDP	; CRulerRichEdit::IsFileLinkOptionDefault
_TEXT	ENDS
EXTRN	?SetFileLinkOption@CRTFPreferencesPage@@QAEXW4RE_PASTE@@H@Z:PROC ; CRTFPreferencesPage::SetFileLinkOption
; Function compile flags: /Odtp /RTCsu
; File d:\_code\rtfcontentctrl\rtfpreferencesdlg.h
;	COMDAT ?SetFileLinkOption@CRTFPreferencesDlg@@QAEXW4RE_PASTE@@H@Z
_TEXT	SEGMENT
_this$ = -4						; size = 4
_nLinkOption$ = 8					; size = 4
_bPrompt$ = 12						; size = 4
?SetFileLinkOption@CRTFPreferencesDlg@@QAEXW4RE_PASTE@@H@Z PROC ; CRTFPreferencesDlg::SetFileLinkOption, COMDAT
; _this$ = ecx

; 76   : 	void SetFileLinkOption(RE_PASTE nLinkOption, BOOL bPrompt) { m_page.SetFileLinkOption(nLinkOption, bPrompt); }

	push	ebp
	mov	ebp, esp
	push	ecx
	mov	DWORD PTR [ebp-4], -858993460		; ccccccccH
	mov	DWORD PTR _this$[ebp], ecx
	mov	eax, DWORD PTR _bPrompt$[ebp]
	push	eax
	mov	ecx, DWORD PTR _nLinkOption$[ebp]
	push	ecx
	mov	ecx, DWORD PTR _this$[ebp]
	add	ecx, 148				; 00000094H
	call	?SetFileLinkOption@CRTFPreferencesPage@@QAEXW4RE_PASTE@@H@Z ; CRTFPreferencesPage::SetFileLinkOption
	add	esp, 4
	cmp	ebp, esp
	call	__RTC_CheckEsp
	mov	esp, ebp
	pop	ebp
	ret	8
?SetFileLinkOption@CRTFPreferencesDlg@@QAEXW4RE_PASTE@@H@Z ENDP ; CRTFPreferencesDlg::SetFileLinkOption
; Function compile flags: /Odtp /RTCsu
; File d:\_code\rtfcontentctrl\rtfcontentcontrol.cpp
_TEXT	ENDS
;	COMDAT ?OnKillFocus@CRTFContentControl@@IAEXXZ
_TEXT	SEGMENT
_this$ = -4						; size = 4
?OnKillFocus@CRTFContentControl@@IAEXXZ PROC		; CRTFContentControl::OnKillFocus, COMDAT
; _this$ = ecx

; 158  : {

	push	ebp
	mov	ebp, esp
	push	ecx
	mov	DWORD PTR [ebp-4], -858993460		; ccccccccH
	mov	DWORD PTR _this$[ebp], ecx

; 159  : 	if (m_bAllowNotify)

	mov	eax, DWORD PTR _this$[ebp]
	cmp	DWORD PTR [eax+1288], 0
	je	SHORT $LN2@OnKillFocu

; 160  : 		GetParent()->SendMessage(WM_ICC_COMMENTSKILLFOCUS);

	push	0
	push	0
	mov	ecx, DWORD PTR _WM_ICC_COMMENTSKILLFOCUS
	push	ecx
	mov	ecx, DWORD PTR _this$[ebp]
	call	?GetParent@CWnd@@QBEPAV1@XZ		; CWnd::GetParent
	mov	ecx, eax
	call	?SendMessageW@CWnd@@QBEJIIJ@Z		; CWnd::SendMessageW
$LN2@OnKillFocu:

; 161  : }

	add	esp, 4
	cmp	ebp, esp
	call	__RTC_CheckEsp
	mov	esp, ebp
	pop	ebp
	ret	0
?OnKillFocus@CRTFContentControl@@IAEXXZ ENDP		; CRTFContentControl::OnKillFocus
_TEXT	ENDS
EXTRN	??1CAutoFlag@@UAE@XZ:PROC			; CAutoFlag::~CAutoFlag
EXTRN	?OnSetFont@CRulerRichEditCtrl@@IAEJIJ@Z:PROC	; CRulerRichEditCtrl::OnSetFont
EXTRN	__imp__GetObjectW@12:PROC
EXTRN	??0CAutoFlag@@QAE@AAHH@Z:PROC			; CAutoFlag::CAutoFlag
EXTRN	@_RTC_CheckStackVars@8:PROC
;	COMDAT xdata$x
xdata$x	SEGMENT
__unwindtable$?OnSetFont@CRTFContentControl@@IAEJIJ@Z DD 0ffffffffH
	DD	FLAT:__unwindfunclet$?OnSetFont@CRTFContentControl@@IAEJIJ@Z$0
__ehfuncinfo$?OnSetFont@CRTFContentControl@@IAEJIJ@Z DD 019930522H
	DD	01H
	DD	FLAT:__unwindtable$?OnSetFont@CRTFContentControl@@IAEJIJ@Z
	DD	2 DUP(00H)
	DD	2 DUP(00H)
	DD	00H
	DD	01H
; Function compile flags: /Odtp /RTCsu
xdata$x	ENDS
;	COMDAT ?OnSetFont@CRTFContentControl@@IAEJIJ@Z
_TEXT	SEGMENT
$T187291 = -40						; size = 4
_af$ = -32						; size = 12
_this$ = -16						; size = 4
__$EHRec$ = -12						; size = 12
_wp$ = 8						; size = 4
_lp$ = 12						; size = 4
?OnSetFont@CRTFContentControl@@IAEJIJ@Z PROC		; CRTFContentControl::OnSetFont, COMDAT
; _this$ = ecx

; 164  : {

	push	ebp
	mov	ebp, esp
	push	-1
	push	__ehhandler$?OnSetFont@CRTFContentControl@@IAEJIJ@Z
	mov	eax, DWORD PTR fs:0
	push	eax
	sub	esp, 28					; 0000001cH
	push	esi
	mov	eax, -858993460				; ccccccccH
	mov	DWORD PTR [ebp-40], eax
	mov	DWORD PTR [ebp-36], eax
	mov	DWORD PTR [ebp-32], eax
	mov	DWORD PTR [ebp-28], eax
	mov	DWORD PTR [ebp-24], eax
	mov	DWORD PTR [ebp-20], eax
	mov	DWORD PTR [ebp-16], eax
	mov	eax, DWORD PTR ___security_cookie
	xor	eax, ebp
	push	eax
	lea	eax, DWORD PTR __$EHRec$[ebp]
	mov	DWORD PTR fs:0, eax
	mov	DWORD PTR _this$[ebp], ecx

; 165  : 	// richedit2.0 sends a EN_CHANGE notification if it contains
; 166  : 	// text when it receives a font change.
; 167  : 	// to us though this is a bogus change so we prevent a notification
; 168  : 	// being sent
; 169  : 	CAutoFlag af(m_bAllowNotify, FALSE);

	push	0
	mov	eax, DWORD PTR _this$[ebp]
	add	eax, 1288				; 00000508H
	push	eax
	lea	ecx, DWORD PTR _af$[ebp]
	call	??0CAutoFlag@@QAE@AAHH@Z		; CAutoFlag::CAutoFlag
	mov	DWORD PTR __$EHRec$[ebp+8], 0

; 170  : 
; 171  : 	// save off font info
; 172  : 	if (wp)

	cmp	DWORD PTR _wp$[ebp], 0
	je	SHORT $LN2@OnSetFont

; 173  : 		::GetObject((HFONT)wp, sizeof(LOGFONT), &m_lfCurrent);

	mov	ecx, DWORD PTR _this$[ebp]
	add	ecx, 1912				; 00000778H
	mov	esi, esp
	push	ecx
	push	92					; 0000005cH
	mov	edx, DWORD PTR _wp$[ebp]
	push	edx
	call	DWORD PTR __imp__GetObjectW@12
	cmp	esi, esp
	call	__RTC_CheckEsp

; 174  : 	else

	jmp	SHORT $LN1@OnSetFont
$LN2@OnSetFont:

; 175  : 		ZeroMemory(&m_lfCurrent, sizeof(LOGFONT));

	push	92					; 0000005cH
	push	0
	mov	eax, DWORD PTR _this$[ebp]
	add	eax, 1912				; 00000778H
	push	eax
	call	_memset
	add	esp, 12					; 0000000cH
$LN1@OnSetFont:

; 176  : 
; 177  : 	return CRulerRichEditCtrl::OnSetFont(wp, lp);

	mov	ecx, DWORD PTR _lp$[ebp]
	push	ecx
	mov	edx, DWORD PTR _wp$[ebp]
	push	edx
	mov	ecx, DWORD PTR _this$[ebp]
	call	?OnSetFont@CRulerRichEditCtrl@@IAEJIJ@Z	; CRulerRichEditCtrl::OnSetFont
	mov	DWORD PTR $T187291[ebp], eax
	mov	DWORD PTR __$EHRec$[ebp+8], -1
	lea	ecx, DWORD PTR _af$[ebp]
	call	??1CAutoFlag@@UAE@XZ			; CAutoFlag::~CAutoFlag
	mov	eax, DWORD PTR $T187291[ebp]

; 178  : }

	push	edx
	mov	ecx, ebp
	push	eax
	lea	edx, DWORD PTR $LN9@OnSetFont
	call	@_RTC_CheckStackVars@8
	pop	eax
	pop	edx
	mov	ecx, DWORD PTR __$EHRec$[ebp]
	mov	DWORD PTR fs:0, ecx
	pop	ecx
	pop	esi
	add	esp, 40					; 00000028H
	cmp	ebp, esp
	call	__RTC_CheckEsp
	mov	esp, ebp
	pop	ebp
	ret	8
	npad	1
$LN9@OnSetFont:
	DD	1
	DD	$LN8@OnSetFont
$LN8@OnSetFont:
	DD	-32					; ffffffe0H
	DD	12					; 0000000cH
	DD	$LN6@OnSetFont
$LN6@OnSetFont:
	DB	97					; 00000061H
	DB	102					; 00000066H
	DB	0
_TEXT	ENDS
;	COMDAT text$x
text$x	SEGMENT
__unwindfunclet$?OnSetFont@CRTFContentControl@@IAEJIJ@Z$0:
	lea	ecx, DWORD PTR _af$[ebp]
	jmp	??1CAutoFlag@@UAE@XZ			; CAutoFlag::~CAutoFlag
__ehhandler$?OnSetFont@CRTFContentControl@@IAEJIJ@Z:
	mov	edx, DWORD PTR [esp+8]
	lea	eax, DWORD PTR [edx+12]
	mov	ecx, DWORD PTR [edx-36]
	xor	ecx, eax
	call	@__security_check_cookie@4
	mov	eax, OFFSET __ehfuncinfo$?OnSetFont@CRTFContentControl@@IAEJIJ@Z
	jmp	___CxxFrameHandler3
text$x	ENDS
?OnSetFont@CRTFContentControl@@IAEJIJ@Z ENDP		; CRTFContentControl::OnSetFont
EXTRN	?GetRTFLength@CRichEditBaseCtrl@@QBEHXZ:PROC	; CRichEditBaseCtrl::GetRTFLength
EXTRN	??_V@YAXPAX@Z:PROC				; operator delete[]
EXTRN	_memcpy:PROC
EXTRN	?Compress@Compression@@YAHPBEHAAPAEAAH@Z:PROC	; Compression::Compress
EXTRN	__imp_??B?$CSimpleStringT@_W$00@ATL@@QBEPB_WXZ:PROC
EXTRN	__imp_??1?$CStringT@_WV?$StrTraitMFC_DLL@_WV?$ChTraitsCRT@_W@ATL@@@@@ATL@@QAE@XZ:PROC
EXTRN	__imp_?GetLength@?$CSimpleStringT@_W$00@ATL@@QBEHXZ:PROC
EXTRN	?GetRTF@CRichEditBaseCtrl@@QBE?AV?$CStringT@_WV?$StrTraitMFC_DLL@_WV?$ChTraitsCRT@_W@ATL@@@@@ATL@@XZ:PROC ; CRichEditBaseCtrl::GetRTF
;	COMDAT xdata$x
xdata$x	SEGMENT
__unwindtable$?GetContent@CRTFContentControl@@UBEHPAE@Z DD 0ffffffffH
	DD	FLAT:__unwindfunclet$?GetContent@CRTFContentControl@@UBEHPAE@Z$0
__ehfuncinfo$?GetContent@CRTFContentControl@@UBEHPAE@Z DD 019930522H
	DD	01H
	DD	FLAT:__unwindtable$?GetContent@CRTFContentControl@@UBEHPAE@Z
	DD	2 DUP(00H)
	DD	2 DUP(00H)
	DD	00H
	DD	01H
; Function compile flags: /Odtp /RTCsu
xdata$x	ENDS
;	COMDAT ?GetContent@CRTFContentControl@@UBEHPAE@Z
_TEXT	SEGMENT
$T187306 = -64						; size = 4
$T187305 = -60						; size = 4
_nLenCompressed$180653 = -52				; size = 4
_pCompressed$180652 = -40				; size = 4
_sContent$180648 = -28					; size = 4
_nLen$ = -20						; size = 4
_this$ = -16						; size = 4
__$EHRec$ = -12						; size = 12
_pContent$ = 8						; size = 4
?GetContent@CRTFContentControl@@UBEHPAE@Z PROC		; CRTFContentControl::GetContent, COMDAT
; _this$ = ecx

; 182  : {

	push	ebp
	mov	ebp, esp
	push	-1
	push	__ehhandler$?GetContent@CRTFContentControl@@UBEHPAE@Z
	mov	eax, DWORD PTR fs:0
	push	eax
	sub	esp, 52					; 00000034H
	push	esi
	push	edi
	push	ecx
	lea	edi, DWORD PTR [ebp-64]
	mov	ecx, 13					; 0000000dH
	mov	eax, -858993460				; ccccccccH
	rep stosd
	pop	ecx
	mov	eax, DWORD PTR ___security_cookie
	xor	eax, ebp
	push	eax
	lea	eax, DWORD PTR __$EHRec$[ebp]
	mov	DWORD PTR fs:0, eax
	mov	DWORD PTR _this$[ebp], ecx

; 183  : 	int nLen = 0;

	mov	DWORD PTR _nLen$[ebp], 0

; 184  : 	
; 185  : 	if (pContent)

	cmp	DWORD PTR _pContent$[ebp], 0
	je	$LN5@GetContent

; 186  : 	{
; 187  : 		CString sContent = m_rtf.GetRTF();

	lea	eax, DWORD PTR _sContent$180648[ebp]
	push	eax
	mov	ecx, DWORD PTR _this$[ebp]
	sub	ecx, 980				; 000003d4H
	call	?GetRTF@CRichEditBaseCtrl@@QBE?AV?$CStringT@_WV?$StrTraitMFC_DLL@_WV?$ChTraitsCRT@_W@ATL@@@@@ATL@@XZ ; CRichEditBaseCtrl::GetRTF
	mov	DWORD PTR __$EHRec$[ebp+8], 0

; 188  : 		nLen = sContent.GetLength();

	mov	esi, esp
	lea	ecx, DWORD PTR _sContent$180648[ebp]
	call	DWORD PTR __imp_?GetLength@?$CSimpleStringT@_W$00@ATL@@QBEHXZ
	cmp	esi, esp
	call	__RTC_CheckEsp
	mov	DWORD PTR _nLen$[ebp], eax

; 189  : 		
; 190  : 		// compress it
; 191  : 		if (!nLen)

	cmp	DWORD PTR _nLen$[ebp], 0
	jne	SHORT $LN4@GetContent

; 192  : 			return 0;

	mov	DWORD PTR $T187305[ebp], 0
	mov	DWORD PTR __$EHRec$[ebp+8], -1
	mov	esi, esp
	lea	ecx, DWORD PTR _sContent$180648[ebp]
	call	DWORD PTR __imp_??1?$CStringT@_WV?$StrTraitMFC_DLL@_WV?$ChTraitsCRT@_W@ATL@@@@@ATL@@QAE@XZ
	cmp	esi, esp
	call	__RTC_CheckEsp
	mov	eax, DWORD PTR $T187305[ebp]
	jmp	$LN6@GetContent
$LN4@GetContent:

; 193  : 		
; 194  : 		unsigned char* pCompressed = NULL;

	mov	DWORD PTR _pCompressed$180652[ebp], 0

; 195  : 		int nLenCompressed = 0;

	mov	DWORD PTR _nLenCompressed$180653[ebp], 0

; 196  : 		
; 197  : 		if (Compression::Compress((unsigned char*)(LPSTR)(LPCTSTR)sContent, nLen, pCompressed, nLenCompressed) && nLenCompressed)

	lea	ecx, DWORD PTR _nLenCompressed$180653[ebp]
	push	ecx
	lea	edx, DWORD PTR _pCompressed$180652[ebp]
	push	edx
	mov	eax, DWORD PTR _nLen$[ebp]
	push	eax
	mov	esi, esp
	lea	ecx, DWORD PTR _sContent$180648[ebp]
	call	DWORD PTR __imp_??B?$CSimpleStringT@_W$00@ATL@@QBEPB_WXZ
	cmp	esi, esp
	call	__RTC_CheckEsp
	push	eax
	call	?Compress@Compression@@YAHPBEHAAPAEAAH@Z ; Compression::Compress
	add	esp, 16					; 00000010H
	test	eax, eax
	je	SHORT $LN3@GetContent
	cmp	DWORD PTR _nLenCompressed$180653[ebp], 0
	je	SHORT $LN3@GetContent

; 198  : 		{
; 199  : 			CopyMemory(pContent, pCompressed, nLenCompressed);

	mov	ecx, DWORD PTR _nLenCompressed$180653[ebp]
	push	ecx
	mov	edx, DWORD PTR _pCompressed$180652[ebp]
	push	edx
	mov	eax, DWORD PTR _pContent$[ebp]
	push	eax
	call	_memcpy
	add	esp, 12					; 0000000cH

; 200  : 			nLen = nLenCompressed;

	mov	ecx, DWORD PTR _nLenCompressed$180653[ebp]
	mov	DWORD PTR _nLen$[ebp], ecx

; 201  : 			delete [] pCompressed;

	mov	edx, DWORD PTR _pCompressed$180652[ebp]
	mov	DWORD PTR $T187306[ebp], edx
	mov	eax, DWORD PTR $T187306[ebp]
	push	eax
	call	??_V@YAXPAX@Z				; operator delete[]
	add	esp, 4

; 202  : 		}
; 203  : 		else

	jmp	SHORT $LN2@GetContent
$LN3@GetContent:

; 204  : 			nLen = 0;

	mov	DWORD PTR _nLen$[ebp], 0
$LN2@GetContent:

; 205  : 	}

	mov	DWORD PTR __$EHRec$[ebp+8], -1
	mov	esi, esp
	lea	ecx, DWORD PTR _sContent$180648[ebp]
	call	DWORD PTR __imp_??1?$CStringT@_WV?$StrTraitMFC_DLL@_WV?$ChTraitsCRT@_W@ATL@@@@@ATL@@QAE@XZ
	cmp	esi, esp
	call	__RTC_CheckEsp

; 206  : 	else

	jmp	SHORT $LN1@GetContent
$LN5@GetContent:

; 207  : 	{
; 208  : 		nLen = m_rtf.GetRTFLength();

	mov	ecx, DWORD PTR _this$[ebp]
	sub	ecx, 980				; 000003d4H
	call	?GetRTFLength@CRichEditBaseCtrl@@QBEHXZ	; CRichEditBaseCtrl::GetRTFLength
	mov	DWORD PTR _nLen$[ebp], eax
$LN1@GetContent:

; 209  : 	}
; 210  : 	
; 211  : 	return nLen;

	mov	eax, DWORD PTR _nLen$[ebp]
$LN6@GetContent:

; 212  : }

	push	edx
	mov	ecx, ebp
	push	eax
	lea	edx, DWORD PTR $LN14@GetContent
	call	@_RTC_CheckStackVars@8
	pop	eax
	pop	edx
	mov	ecx, DWORD PTR __$EHRec$[ebp]
	mov	DWORD PTR fs:0, ecx
	pop	ecx
	pop	edi
	pop	esi
	add	esp, 64					; 00000040H
	cmp	ebp, esp
	call	__RTC_CheckEsp
	mov	esp, ebp
	pop	ebp
	ret	4
	npad	3
$LN14@GetContent:
	DD	3
	DD	$LN13@GetContent
$LN13@GetContent:
	DD	-28					; ffffffe4H
	DD	4
	DD	$LN9@GetContent
	DD	-40					; ffffffd8H
	DD	4
	DD	$LN10@GetContent
	DD	-52					; ffffffccH
	DD	4
	DD	$LN11@GetContent
$LN11@GetContent:
	DB	110					; 0000006eH
	DB	76					; 0000004cH
	DB	101					; 00000065H
	DB	110					; 0000006eH
	DB	67					; 00000043H
	DB	111					; 0000006fH
	DB	109					; 0000006dH
	DB	112					; 00000070H
	DB	114					; 00000072H
	DB	101					; 00000065H
	DB	115					; 00000073H
	DB	115					; 00000073H
	DB	101					; 00000065H
	DB	100					; 00000064H
	DB	0
$LN10@GetContent:
	DB	112					; 00000070H
	DB	67					; 00000043H
	DB	111					; 0000006fH
	DB	109					; 0000006dH
	DB	112					; 00000070H
	DB	114					; 00000072H
	DB	101					; 00000065H
	DB	115					; 00000073H
	DB	115					; 00000073H
	DB	101					; 00000065H
	DB	100					; 00000064H
	DB	0
$LN9@GetContent:
	DB	115					; 00000073H
	DB	67					; 00000043H
	DB	111					; 0000006fH
	DB	110					; 0000006eH
	DB	116					; 00000074H
	DB	101					; 00000065H
	DB	110					; 0000006eH
	DB	116					; 00000074H
	DB	0
_TEXT	ENDS
;	COMDAT text$x
text$x	SEGMENT
__unwindfunclet$?GetContent@CRTFContentControl@@UBEHPAE@Z$0:
	mov	esi, esp
	lea	ecx, DWORD PTR _sContent$180648[ebp]
	call	DWORD PTR __imp_??1?$CStringT@_WV?$StrTraitMFC_DLL@_WV?$ChTraitsCRT@_W@ATL@@@@@ATL@@QAE@XZ
	cmp	esi, esp
	jmp	__RTC_CheckEsp
__ehhandler$?GetContent@CRTFContentControl@@UBEHPAE@Z:
	mov	edx, DWORD PTR [esp+8]
	lea	eax, DWORD PTR [edx+12]
	mov	ecx, DWORD PTR [edx-64]
	xor	ecx, eax
	call	@__security_check_cookie@4
	mov	eax, OFFSET __ehfuncinfo$?GetContent@CRTFContentControl@@UBEHPAE@Z
	jmp	___CxxFrameHandler3
text$x	ENDS
?GetContent@CRTFContentControl@@UBEHPAE@Z ENDP		; CRTFContentControl::GetContent
PUBLIC	??1CBinaryData@@QAE@XZ				; CBinaryData::~CBinaryData
PUBLIC	?_AfxInitManaged@@YAHXZ				; _AfxInitManaged
EXTRN	??1CReSaveCaret@@UAE@XZ:PROC			; CReSaveCaret::~CReSaveCaret
EXTRN	?SetSel@CRichEditCtrl@@QAEXJJ@Z:PROC		; CRichEditCtrl::SetSel
EXTRN	?SetRTF@CRulerRichEditCtrl@@QAEXABV?$CStringT@_WV?$StrTraitMFC_DLL@_WV?$ChTraitsCRT@_W@ATL@@@@@ATL@@@Z:PROC ; CRulerRichEditCtrl::SetRTF
EXTRN	?Get@CBinaryData@@QBEHAAV?$CStringT@_WV?$StrTraitMFC_DLL@_WV?$ChTraitsCRT@_W@ATL@@@@@ATL@@@Z:PROC ; CBinaryData::Get
EXTRN	??0CBinaryData@@QAE@PBEH@Z:PROC			; CBinaryData::CBinaryData
EXTRN	__imp_??0?$CStringT@_WV?$StrTraitMFC_DLL@_WV?$ChTraitsCRT@_W@ATL@@@@@ATL@@QAE@XZ:PROC
EXTRN	??0CReSaveCaret@@QAE@PAUHWND__@@@Z:PROC		; CReSaveCaret::CReSaveCaret
EXTRN	?GetSafeHwnd@CWnd@@QBEPAUHWND__@@XZ:PROC	; CWnd::GetSafeHwnd
EXTRN	??1AFX_MAINTAIN_STATE2@@QAE@XZ:PROC		; AFX_MAINTAIN_STATE2::~AFX_MAINTAIN_STATE2
EXTRN	?Decompress@Compression@@YAHPBEHAAPAEAAH@Z:PROC	; Compression::Decompress
EXTRN	?IsRTF@CRtfHtmlConverter@@SAHPBD@Z:PROC		; CRtfHtmlConverter::IsRTF
EXTRN	??0AFX_MAINTAIN_STATE2@@QAE@PAVAFX_MODULE_STATE@@@Z:PROC ; AFX_MAINTAIN_STATE2::AFX_MAINTAIN_STATE2
EXTRN	?AfxGetStaticModuleState@@YGPAVAFX_MODULE_STATE@@XZ:PROC ; AfxGetStaticModuleState
;	COMDAT xdata$x
xdata$x	SEGMENT
__ehfuncinfo$?SetContent@CRTFContentControl@@UAE_NPBEH_N@Z DD 019930522H
	DD	05H
	DD	FLAT:__unwindtable$?SetContent@CRTFContentControl@@UAE_NPBEH_N@Z
	DD	2 DUP(00H)
	DD	2 DUP(00H)
	DD	00H
	DD	01H
__unwindtable$?SetContent@CRTFContentControl@@UAE_NPBEH_N@Z DD 0ffffffffH
	DD	FLAT:__unwindfunclet$?SetContent@CRTFContentControl@@UAE_NPBEH_N@Z$0
	DD	00H
	DD	FLAT:__unwindfunclet$?SetContent@CRTFContentControl@@UAE_NPBEH_N@Z$1
	DD	01H
	DD	FLAT:__unwindfunclet$?SetContent@CRTFContentControl@@UAE_NPBEH_N@Z$2
	DD	02H
	DD	FLAT:__unwindfunclet$?SetContent@CRTFContentControl@@UAE_NPBEH_N@Z$3
	DD	03H
	DD	FLAT:__unwindfunclet$?SetContent@CRTFContentControl@@UAE_NPBEH_N@Z$4
; Function compile flags: /Odtp /RTCsu
xdata$x	ENDS
;	COMDAT ?SetContent@CRTFContentControl@@UAE_NPBEH_N@Z
_TEXT	SEGMENT
tv182 = -144						; size = 4
tv84 = -140						; size = 4
tv138 = -136						; size = 4
$T187327 = -129						; size = 1
$T187326 = -128						; size = 4
$T187325 = -124						; size = 4
$T187322 = -118						; size = 1
$T187321 = -117						; size = 1
_sContent$ = -112					; size = 4
_resc$ = -100						; size = 12
_af$ = -80						; size = 12
_nLenDecompressed$180671 = -60				; size = 4
_pDecompressed$ = -48					; size = 4
__ctlState$ = -36					; size = 16
_this$ = -16						; size = 4
__$EHRec$ = -12						; size = 12
_pContent$ = 8						; size = 4
_nLength$ = 12						; size = 4
_bResetSelection$ = 16					; size = 1
?SetContent@CRTFContentControl@@UAE_NPBEH_N@Z PROC	; CRTFContentControl::SetContent, COMDAT
; _this$ = ecx

; 215  : {

	push	ebp
	mov	ebp, esp
	push	-1
	push	__ehhandler$?SetContent@CRTFContentControl@@UAE_NPBEH_N@Z
	mov	eax, DWORD PTR fs:0
	push	eax
	sub	esp, 132				; 00000084H
	push	esi
	push	edi
	push	ecx
	lea	edi, DWORD PTR [ebp-144]
	mov	ecx, 33					; 00000021H
	mov	eax, -858993460				; ccccccccH
	rep stosd
	pop	ecx
	mov	eax, DWORD PTR ___security_cookie
	xor	eax, ebp
	push	eax
	lea	eax, DWORD PTR __$EHRec$[ebp]
	mov	DWORD PTR fs:0, eax
	mov	DWORD PTR _this$[ebp], ecx

; 216  : 	AFX_MANAGE_STATE(AfxGetStaticModuleState());

	call	?_AfxInitManaged@@YAHXZ			; _AfxInitManaged
	call	?AfxGetStaticModuleState@@YGPAVAFX_MODULE_STATE@@XZ ; AfxGetStaticModuleState
	push	eax
	lea	ecx, DWORD PTR __ctlState$[ebp]
	call	??0AFX_MAINTAIN_STATE2@@QAE@PAVAFX_MODULE_STATE@@@Z ; AFX_MAINTAIN_STATE2::AFX_MAINTAIN_STATE2
	mov	DWORD PTR __$EHRec$[ebp+8], 0

; 217  : 	
; 218  : 	unsigned char* pDecompressed = NULL;

	mov	DWORD PTR _pDecompressed$[ebp], 0

; 219  : 
; 220  : 	// content may need decompressing 
; 221  : 	// always work in bytes
; 222  : 	if (nLength && !m_rtfHtml.IsRTF((const char*)pContent))

	cmp	DWORD PTR _nLength$[ebp], 0
	je	SHORT $LN5@SetContent
	mov	eax, DWORD PTR _pContent$[ebp]
	push	eax
	call	?IsRTF@CRtfHtmlConverter@@SAHPBD@Z	; CRtfHtmlConverter::IsRTF
	add	esp, 4
	test	eax, eax
	jne	SHORT $LN5@SetContent

; 223  : 	{
; 224  : 		int nLenDecompressed = 0;

	mov	DWORD PTR _nLenDecompressed$180671[ebp], 0

; 225  : 
; 226  : 		if (Compression::Decompress(pContent, nLength, pDecompressed, nLenDecompressed))

	lea	ecx, DWORD PTR _nLenDecompressed$180671[ebp]
	push	ecx
	lea	edx, DWORD PTR _pDecompressed$[ebp]
	push	edx
	mov	eax, DWORD PTR _nLength$[ebp]
	push	eax
	mov	ecx, DWORD PTR _pContent$[ebp]
	push	ecx
	call	?Decompress@Compression@@YAHPBEHAAPAEAAH@Z ; Compression::Decompress
	add	esp, 16					; 00000010H
	test	eax, eax
	je	SHORT $LN4@SetContent

; 227  : 		{
; 228  : 			pContent = pDecompressed;

	mov	edx, DWORD PTR _pDecompressed$[ebp]
	mov	DWORD PTR _pContent$[ebp], edx

; 229  : 			nLength = nLenDecompressed;

	mov	eax, DWORD PTR _nLenDecompressed$180671[ebp]
	mov	DWORD PTR _nLength$[ebp], eax

; 230  : 		}
; 231  : 		else

	jmp	SHORT $LN5@SetContent
$LN4@SetContent:

; 232  : 			return false;

	mov	BYTE PTR $T187321[ebp], 0
	mov	DWORD PTR __$EHRec$[ebp+8], -1
	lea	ecx, DWORD PTR __ctlState$[ebp]
	call	??1AFX_MAINTAIN_STATE2@@QAE@XZ		; AFX_MAINTAIN_STATE2::~AFX_MAINTAIN_STATE2
	mov	al, BYTE PTR $T187321[ebp]
	jmp	$LN6@SetContent
$LN5@SetContent:

; 233  : 	}
; 234  : 
; 235  : 	// content must begin with rtf tag or be empty
; 236  : 	if (nLength && !m_rtfHtml.IsRTF((const char*)pContent))

	cmp	DWORD PTR _nLength$[ebp], 0
	je	SHORT $LN2@SetContent
	mov	ecx, DWORD PTR _pContent$[ebp]
	push	ecx
	call	?IsRTF@CRtfHtmlConverter@@SAHPBD@Z	; CRtfHtmlConverter::IsRTF
	add	esp, 4
	test	eax, eax
	jne	SHORT $LN2@SetContent

; 237  : 		return false;

	mov	BYTE PTR $T187322[ebp], 0
	mov	DWORD PTR __$EHRec$[ebp+8], -1
	lea	ecx, DWORD PTR __ctlState$[ebp]
	call	??1AFX_MAINTAIN_STATE2@@QAE@XZ		; AFX_MAINTAIN_STATE2::~AFX_MAINTAIN_STATE2
	mov	al, BYTE PTR $T187322[ebp]
	jmp	$LN6@SetContent
$LN2@SetContent:

; 238  : 
; 239  : 	CAutoFlag af(m_bAllowNotify, FALSE);

	push	0
	mov	edx, DWORD PTR _this$[ebp]
	add	edx, 4
	push	edx
	lea	ecx, DWORD PTR _af$[ebp]
	call	??0CAutoFlag@@QAE@AAHH@Z		; CAutoFlag::CAutoFlag
	mov	BYTE PTR __$EHRec$[ebp+8], 1

; 240  : 	CReSaveCaret resc(bResetSelection ? NULL : m_rtf.GetSafeHwnd());

	movzx	eax, BYTE PTR _bResetSelection$[ebp]
	test	eax, eax
	je	SHORT $LN8@SetContent
	mov	DWORD PTR tv138[ebp], 0
	jmp	SHORT $LN9@SetContent
$LN8@SetContent:
	mov	ecx, DWORD PTR _this$[ebp]
	sub	ecx, 980				; 000003d4H
	call	?GetSafeHwnd@CWnd@@QBEPAUHWND__@@XZ	; CWnd::GetSafeHwnd
	mov	DWORD PTR tv138[ebp], eax
$LN9@SetContent:
	mov	ecx, DWORD PTR tv138[ebp]
	push	ecx
	lea	ecx, DWORD PTR _resc$[ebp]
	call	??0CReSaveCaret@@QAE@PAUHWND__@@@Z	; CReSaveCaret::CReSaveCaret
	mov	BYTE PTR __$EHRec$[ebp+8], 2

; 241  : 	CString sContent;

	mov	esi, esp
	lea	ecx, DWORD PTR _sContent$[ebp]
	call	DWORD PTR __imp_??0?$CStringT@_WV?$StrTraitMFC_DLL@_WV?$ChTraitsCRT@_W@ATL@@@@@ATL@@QAE@XZ
	cmp	esi, esp
	call	__RTC_CheckEsp
	mov	BYTE PTR __$EHRec$[ebp+8], 3

; 242  : 
; 243  : #ifdef _UNICODE
; 244  : 	CBinaryData(pContent, nLength).Get(sContent);

	lea	edx, DWORD PTR _sContent$[ebp]
	push	edx
	mov	eax, DWORD PTR _nLength$[ebp]
	push	eax
	mov	ecx, DWORD PTR _pContent$[ebp]
	push	ecx
	lea	ecx, DWORD PTR $T187325[ebp]
	call	??0CBinaryData@@QAE@PBEH@Z		; CBinaryData::CBinaryData
	mov	DWORD PTR tv84[ebp], eax
	mov	edx, DWORD PTR tv84[ebp]
	mov	DWORD PTR tv182[ebp], edx
	mov	BYTE PTR __$EHRec$[ebp+8], 4
	mov	ecx, DWORD PTR tv182[ebp]
	call	?Get@CBinaryData@@QBEHAAV?$CStringT@_WV?$StrTraitMFC_DLL@_WV?$ChTraitsCRT@_W@ATL@@@@@ATL@@@Z ; CBinaryData::Get
	mov	BYTE PTR __$EHRec$[ebp+8], 3
	lea	ecx, DWORD PTR $T187325[ebp]
	call	??1CBinaryData@@QAE@XZ			; CBinaryData::~CBinaryData

; 245  : #else
; 246  : 	memcpy(sContent.GetBufferSetLength(nLength), pContent, nLength);
; 247  : #endif
; 248  : 
; 249  : 	SetRTF(sContent);

	lea	eax, DWORD PTR _sContent$[ebp]
	push	eax
	mov	ecx, DWORD PTR _this$[ebp]
	sub	ecx, 1284				; 00000504H
	call	?SetRTF@CRulerRichEditCtrl@@QAEXABV?$CStringT@_WV?$StrTraitMFC_DLL@_WV?$ChTraitsCRT@_W@ATL@@@@@ATL@@@Z ; CRulerRichEditCtrl::SetRTF

; 250  : 
; 251  : 	delete [] pDecompressed;

	mov	ecx, DWORD PTR _pDecompressed$[ebp]
	mov	DWORD PTR $T187326[ebp], ecx
	mov	edx, DWORD PTR $T187326[ebp]
	push	edx
	call	??_V@YAXPAX@Z				; operator delete[]
	add	esp, 4

; 252  : 	
; 253  : 	// reset caret
; 254  : 	if (bResetSelection)

	movzx	eax, BYTE PTR _bResetSelection$[ebp]
	test	eax, eax
	je	SHORT $LN1@SetContent

; 255  : 		m_rtf.SetSel(0, 0);

	push	0
	push	0
	mov	ecx, DWORD PTR _this$[ebp]
	sub	ecx, 980				; 000003d4H
	call	?SetSel@CRichEditCtrl@@QAEXJJ@Z		; CRichEditCtrl::SetSel
$LN1@SetContent:

; 256  : 
; 257  : 	return true; 

	mov	BYTE PTR $T187327[ebp], 1
	mov	BYTE PTR __$EHRec$[ebp+8], 2
	mov	esi, esp
	lea	ecx, DWORD PTR _sContent$[ebp]
	call	DWORD PTR __imp_??1?$CStringT@_WV?$StrTraitMFC_DLL@_WV?$ChTraitsCRT@_W@ATL@@@@@ATL@@QAE@XZ
	cmp	esi, esp
	call	__RTC_CheckEsp
	mov	BYTE PTR __$EHRec$[ebp+8], 1
	lea	ecx, DWORD PTR _resc$[ebp]
	call	??1CReSaveCaret@@UAE@XZ			; CReSaveCaret::~CReSaveCaret
	mov	BYTE PTR __$EHRec$[ebp+8], 0
	lea	ecx, DWORD PTR _af$[ebp]
	call	??1CAutoFlag@@UAE@XZ			; CAutoFlag::~CAutoFlag
	mov	DWORD PTR __$EHRec$[ebp+8], -1
	lea	ecx, DWORD PTR __ctlState$[ebp]
	call	??1AFX_MAINTAIN_STATE2@@QAE@XZ		; AFX_MAINTAIN_STATE2::~AFX_MAINTAIN_STATE2
	mov	al, BYTE PTR $T187327[ebp]
$LN6@SetContent:

; 258  : }

	push	edx
	mov	ecx, ebp
	push	eax
	lea	edx, DWORD PTR $LN23@SetContent
	call	@_RTC_CheckStackVars@8
	pop	eax
	pop	edx
	mov	ecx, DWORD PTR __$EHRec$[ebp]
	mov	DWORD PTR fs:0, ecx
	pop	ecx
	pop	edi
	pop	esi
	add	esp, 144				; 00000090H
	cmp	ebp, esp
	call	__RTC_CheckEsp
	mov	esp, ebp
	pop	ebp
	ret	12					; 0000000cH
	npad	3
$LN23@SetContent:
	DD	6
	DD	$LN22@SetContent
$LN22@SetContent:
	DD	-36					; ffffffdcH
	DD	16					; 00000010H
	DD	$LN15@SetContent
	DD	-48					; ffffffd0H
	DD	4
	DD	$LN16@SetContent
	DD	-60					; ffffffc4H
	DD	4
	DD	$LN17@SetContent
	DD	-80					; ffffffb0H
	DD	12					; 0000000cH
	DD	$LN18@SetContent
	DD	-100					; ffffff9cH
	DD	12					; 0000000cH
	DD	$LN19@SetContent
	DD	-112					; ffffff90H
	DD	4
	DD	$LN20@SetContent
$LN20@SetContent:
	DB	115					; 00000073H
	DB	67					; 00000043H
	DB	111					; 0000006fH
	DB	110					; 0000006eH
	DB	116					; 00000074H
	DB	101					; 00000065H
	DB	110					; 0000006eH
	DB	116					; 00000074H
	DB	0
$LN19@SetContent:
	DB	114					; 00000072H
	DB	101					; 00000065H
	DB	115					; 00000073H
	DB	99					; 00000063H
	DB	0
$LN18@SetContent:
	DB	97					; 00000061H
	DB	102					; 00000066H
	DB	0
$LN17@SetContent:
	DB	110					; 0000006eH
	DB	76					; 0000004cH
	DB	101					; 00000065H
	DB	110					; 0000006eH
	DB	68					; 00000044H
	DB	101					; 00000065H
	DB	99					; 00000063H
	DB	111					; 0000006fH
	DB	109					; 0000006dH
	DB	112					; 00000070H
	DB	114					; 00000072H
	DB	101					; 00000065H
	DB	115					; 00000073H
	DB	115					; 00000073H
	DB	101					; 00000065H
	DB	100					; 00000064H
	DB	0
$LN16@SetContent:
	DB	112					; 00000070H
	DB	68					; 00000044H
	DB	101					; 00000065H
	DB	99					; 00000063H
	DB	111					; 0000006fH
	DB	109					; 0000006dH
	DB	112					; 00000070H
	DB	114					; 00000072H
	DB	101					; 00000065H
	DB	115					; 00000073H
	DB	115					; 00000073H
	DB	101					; 00000065H
	DB	100					; 00000064H
	DB	0
$LN15@SetContent:
	DB	95					; 0000005fH
	DB	99					; 00000063H
	DB	116					; 00000074H
	DB	108					; 0000006cH
	DB	83					; 00000053H
	DB	116					; 00000074H
	DB	97					; 00000061H
	DB	116					; 00000074H
	DB	101					; 00000065H
	DB	0
_TEXT	ENDS
;	COMDAT text$x
text$x	SEGMENT
__unwindfunclet$?SetContent@CRTFContentControl@@UAE_NPBEH_N@Z$0:
	lea	ecx, DWORD PTR __ctlState$[ebp]
	jmp	??1AFX_MAINTAIN_STATE2@@QAE@XZ		; AFX_MAINTAIN_STATE2::~AFX_MAINTAIN_STATE2
__unwindfunclet$?SetContent@CRTFContentControl@@UAE_NPBEH_N@Z$1:
	lea	ecx, DWORD PTR _af$[ebp]
	jmp	??1CAutoFlag@@UAE@XZ			; CAutoFlag::~CAutoFlag
__unwindfunclet$?SetContent@CRTFContentControl@@UAE_NPBEH_N@Z$2:
	lea	ecx, DWORD PTR _resc$[ebp]
	jmp	??1CReSaveCaret@@UAE@XZ			; CReSaveCaret::~CReSaveCaret
__unwindfunclet$?SetContent@CRTFContentControl@@UAE_NPBEH_N@Z$3:
	mov	esi, esp
	lea	ecx, DWORD PTR _sContent$[ebp]
	call	DWORD PTR __imp_??1?$CStringT@_WV?$StrTraitMFC_DLL@_WV?$ChTraitsCRT@_W@ATL@@@@@ATL@@QAE@XZ
	cmp	esi, esp
	jmp	__RTC_CheckEsp
__unwindfunclet$?SetContent@CRTFContentControl@@UAE_NPBEH_N@Z$4:
	lea	ecx, DWORD PTR $T187325[ebp]
	jmp	??1CBinaryData@@QAE@XZ			; CBinaryData::~CBinaryData
__ehhandler$?SetContent@CRTFContentControl@@UAE_NPBEH_N@Z:
	mov	edx, DWORD PTR [esp+8]
	lea	eax, DWORD PTR [edx+12]
	mov	ecx, DWORD PTR [edx-144]
	xor	ecx, eax
	call	@__security_check_cookie@4
	mov	eax, OFFSET __ehfuncinfo$?SetContent@CRTFContentControl@@UAE_NPBEH_N@Z
	jmp	___CxxFrameHandler3
text$x	ENDS
?SetContent@CRTFContentControl@@UAE_NPBEH_N@Z ENDP	; CRTFContentControl::SetContent
; Function compile flags: /Odtp /RTCsu
; File d:\_code\shared\binarydata.h
;	COMDAT ??1CBinaryData@@QAE@XZ
_TEXT	SEGMENT
_this$ = -4						; size = 4
??1CBinaryData@@QAE@XZ PROC				; CBinaryData::~CBinaryData, COMDAT
; _this$ = ecx

; 20   :   ~CBinaryData() {}

	push	ebp
	mov	ebp, esp
	push	ecx
	push	esi
	mov	DWORD PTR [ebp-4], -858993460		; ccccccccH
	mov	DWORD PTR _this$[ebp], ecx
	mov	esi, esp
	mov	ecx, DWORD PTR _this$[ebp]
	call	DWORD PTR __imp_??1?$CStringT@_WV?$StrTraitMFC_DLL@_WV?$ChTraitsCRT@_W@ATL@@@@@ATL@@QAE@XZ
	cmp	esi, esp
	call	__RTC_CheckEsp
	pop	esi
	add	esp, 4
	cmp	ebp, esp
	call	__RTC_CheckEsp
	mov	esp, ebp
	pop	ebp
	ret	0
??1CBinaryData@@QAE@XZ ENDP				; CBinaryData::~CBinaryData
_TEXT	ENDS
EXTRN	?GetWindowTextW@CWnd@@QBEHPA_WH@Z:PROC		; CWnd::GetWindowTextW
EXTRN	?AfxAssertFailedLine@@YGHPBDH@Z:PROC		; AfxAssertFailedLine
EXTRN	?GetWindowTextLengthW@CWnd@@QBEHXZ:PROC		; CWnd::GetWindowTextLengthW
;	COMDAT xdata$x
; File d:\_code\rtfcontentctrl\rtfcontentcontrol.cpp
xdata$x	SEGMENT
__unwindtable$?GetTextContent@CRTFContentControl@@UBEHPA_WH@Z DD 0ffffffffH
	DD	FLAT:__unwindfunclet$?GetTextContent@CRTFContentControl@@UBEHPA_WH@Z$0
__ehfuncinfo$?GetTextContent@CRTFContentControl@@UBEHPA_WH@Z DD 019930522H
	DD	01H
	DD	FLAT:__unwindtable$?GetTextContent@CRTFContentControl@@UBEHPA_WH@Z
	DD	2 DUP(00H)
	DD	2 DUP(00H)
	DD	00H
	DD	01H
; Function compile flags: /Odtp /RTCsu
xdata$x	ENDS
;	COMDAT ?GetTextContent@CRTFContentControl@@UBEHPA_WH@Z
_TEXT	SEGMENT
$T187354 = -48						; size = 4
$T187352 = -44						; size = 4
__ctlState$ = -36					; size = 16
_this$ = -16						; size = 4
__$EHRec$ = -12						; size = 12
_szContent$ = 8						; size = 4
_nLength$ = 12						; size = 4
?GetTextContent@CRTFContentControl@@UBEHPA_WH@Z PROC	; CRTFContentControl::GetTextContent, COMDAT
; _this$ = ecx

; 261  : {

	push	ebp
	mov	ebp, esp
	push	-1
	push	__ehhandler$?GetTextContent@CRTFContentControl@@UBEHPA_WH@Z
	mov	eax, DWORD PTR fs:0
	push	eax
	sub	esp, 36					; 00000024H
	mov	eax, -858993460				; ccccccccH
	mov	DWORD PTR [ebp-48], eax
	mov	DWORD PTR [ebp-44], eax
	mov	DWORD PTR [ebp-40], eax
	mov	DWORD PTR [ebp-36], eax
	mov	DWORD PTR [ebp-32], eax
	mov	DWORD PTR [ebp-28], eax
	mov	DWORD PTR [ebp-24], eax
	mov	DWORD PTR [ebp-20], eax
	mov	DWORD PTR [ebp-16], eax
	mov	eax, DWORD PTR ___security_cookie
	xor	eax, ebp
	push	eax
	lea	eax, DWORD PTR __$EHRec$[ebp]
	mov	DWORD PTR fs:0, eax
	mov	DWORD PTR _this$[ebp], ecx

; 262  : 	AFX_MANAGE_STATE(AfxGetStaticModuleState());

	call	?_AfxInitManaged@@YAHXZ			; _AfxInitManaged
	call	?AfxGetStaticModuleState@@YGPAVAFX_MODULE_STATE@@XZ ; AfxGetStaticModuleState
	push	eax
	lea	ecx, DWORD PTR __ctlState$[ebp]
	call	??0AFX_MAINTAIN_STATE2@@QAE@PAVAFX_MODULE_STATE@@@Z ; AFX_MAINTAIN_STATE2::AFX_MAINTAIN_STATE2
	mov	DWORD PTR __$EHRec$[ebp+8], 0

; 263  : 	
; 264  : 	if (!szContent)

	cmp	DWORD PTR _szContent$[ebp], 0
	jne	SHORT $LN1@GetTextCon

; 265  : 		return m_rtf.GetWindowTextLength();

	mov	ecx, DWORD PTR _this$[ebp]
	sub	ecx, 980				; 000003d4H
	call	?GetWindowTextLengthW@CWnd@@QBEHXZ	; CWnd::GetWindowTextLengthW
	mov	DWORD PTR $T187352[ebp], eax
	mov	DWORD PTR __$EHRec$[ebp+8], -1
	lea	ecx, DWORD PTR __ctlState$[ebp]
	call	??1AFX_MAINTAIN_STATE2@@QAE@XZ		; AFX_MAINTAIN_STATE2::~AFX_MAINTAIN_STATE2
	mov	eax, DWORD PTR $T187352[ebp]
	jmp	SHORT $LN2@GetTextCon
$LN1@GetTextCon:

; 266  : 
; 267  : 	ASSERT(nLength > 0);

	cmp	DWORD PTR _nLength$[ebp], 0
	jg	SHORT $LN4@GetTextCon
	push	267					; 0000010bH
	push	OFFSET _THIS_FILE
	call	?AfxAssertFailedLine@@YGHPBDH@Z		; AfxAssertFailedLine
	test	eax, eax
	je	SHORT $LN4@GetTextCon
	int	3
$LN4@GetTextCon:

; 268  : 	
; 269  : 	return m_rtf.GetWindowText(szContent, nLength);

	mov	ecx, DWORD PTR _nLength$[ebp]
	push	ecx
	mov	edx, DWORD PTR _szContent$[ebp]
	push	edx
	mov	ecx, DWORD PTR _this$[ebp]
	sub	ecx, 980				; 000003d4H
	call	?GetWindowTextW@CWnd@@QBEHPA_WH@Z	; CWnd::GetWindowTextW
	mov	DWORD PTR $T187354[ebp], eax
	mov	DWORD PTR __$EHRec$[ebp+8], -1
	lea	ecx, DWORD PTR __ctlState$[ebp]
	call	??1AFX_MAINTAIN_STATE2@@QAE@XZ		; AFX_MAINTAIN_STATE2::~AFX_MAINTAIN_STATE2
	mov	eax, DWORD PTR $T187354[ebp]
$LN2@GetTextCon:

; 270  : }

	push	edx
	mov	ecx, ebp
	push	eax
	lea	edx, DWORD PTR $LN9@GetTextCon
	call	@_RTC_CheckStackVars@8
	pop	eax
	pop	edx
	mov	ecx, DWORD PTR __$EHRec$[ebp]
	mov	DWORD PTR fs:0, ecx
	pop	ecx
	add	esp, 48					; 00000030H
	cmp	ebp, esp
	call	__RTC_CheckEsp
	mov	esp, ebp
	pop	ebp
	ret	8
	npad	2
$LN9@GetTextCon:
	DD	1
	DD	$LN8@GetTextCon
$LN8@GetTextCon:
	DD	-36					; ffffffdcH
	DD	16					; 00000010H
	DD	$LN6@GetTextCon
$LN6@GetTextCon:
	DB	95					; 0000005fH
	DB	99					; 00000063H
	DB	116					; 00000074H
	DB	108					; 0000006cH
	DB	83					; 00000053H
	DB	116					; 00000074H
	DB	97					; 00000061H
	DB	116					; 00000074H
	DB	101					; 00000065H
	DB	0
_TEXT	ENDS
;	COMDAT text$x
text$x	SEGMENT
__unwindfunclet$?GetTextContent@CRTFContentControl@@UBEHPA_WH@Z$0:
	lea	ecx, DWORD PTR __ctlState$[ebp]
	jmp	??1AFX_MAINTAIN_STATE2@@QAE@XZ		; AFX_MAINTAIN_STATE2::~AFX_MAINTAIN_STATE2
__ehhandler$?GetTextContent@CRTFContentControl@@UBEHPA_WH@Z:
	mov	edx, DWORD PTR [esp+8]
	lea	eax, DWORD PTR [edx+12]
	mov	ecx, DWORD PTR [edx-40]
	xor	ecx, eax
	call	@__security_check_cookie@4
	mov	eax, OFFSET __ehfuncinfo$?GetTextContent@CRTFContentControl@@UBEHPA_WH@Z
	jmp	___CxxFrameHandler3
text$x	ENDS
?GetTextContent@CRTFContentControl@@UBEHPA_WH@Z ENDP	; CRTFContentControl::GetTextContent
;	COMDAT xdata$x
xdata$x	SEGMENT
__unwindtable$?SetTextContent@CRTFContentControl@@UAE_NPB_W_N@Z DD 0ffffffffH
	DD	FLAT:__unwindfunclet$?SetTextContent@CRTFContentControl@@UAE_NPB_W_N@Z$0
	DD	00H
	DD	FLAT:__unwindfunclet$?SetTextContent@CRTFContentControl@@UAE_NPB_W_N@Z$1
	DD	01H
	DD	FLAT:__unwindfunclet$?SetTextContent@CRTFContentControl@@UAE_NPB_W_N@Z$2
__ehfuncinfo$?SetTextContent@CRTFContentControl@@UAE_NPB_W_N@Z DD 019930522H
	DD	03H
	DD	FLAT:__unwindtable$?SetTextContent@CRTFContentControl@@UAE_NPB_W_N@Z
	DD	2 DUP(00H)
	DD	2 DUP(00H)
	DD	00H
	DD	01H
; Function compile flags: /Odtp /RTCsu
xdata$x	ENDS
;	COMDAT ?SetTextContent@CRTFContentControl@@UAE_NPB_W_N@Z
_TEXT	SEGMENT
tv92 = -88						; size = 4
$T187369 = -81						; size = 1
_resc$ = -76						; size = 12
_af$ = -56						; size = 12
__ctlState$ = -36					; size = 16
_this$ = -16						; size = 4
__$EHRec$ = -12						; size = 12
_szContent$ = 8						; size = 4
_bResetSelection$ = 12					; size = 1
?SetTextContent@CRTFContentControl@@UAE_NPB_W_N@Z PROC	; CRTFContentControl::SetTextContent, COMDAT
; _this$ = ecx

; 273  : {

	push	ebp
	mov	ebp, esp
	push	-1
	push	__ehhandler$?SetTextContent@CRTFContentControl@@UAE_NPB_W_N@Z
	mov	eax, DWORD PTR fs:0
	push	eax
	sub	esp, 76					; 0000004cH
	push	edi
	push	ecx
	lea	edi, DWORD PTR [ebp-88]
	mov	ecx, 19					; 00000013H
	mov	eax, -858993460				; ccccccccH
	rep stosd
	pop	ecx
	mov	eax, DWORD PTR ___security_cookie
	xor	eax, ebp
	push	eax
	lea	eax, DWORD PTR __$EHRec$[ebp]
	mov	DWORD PTR fs:0, eax
	mov	DWORD PTR _this$[ebp], ecx

; 274  : 	AFX_MANAGE_STATE(AfxGetStaticModuleState());

	call	?_AfxInitManaged@@YAHXZ			; _AfxInitManaged
	call	?AfxGetStaticModuleState@@YGPAVAFX_MODULE_STATE@@XZ ; AfxGetStaticModuleState
	push	eax
	lea	ecx, DWORD PTR __ctlState$[ebp]
	call	??0AFX_MAINTAIN_STATE2@@QAE@PAVAFX_MODULE_STATE@@@Z ; AFX_MAINTAIN_STATE2::AFX_MAINTAIN_STATE2
	mov	DWORD PTR __$EHRec$[ebp+8], 0

; 275  : 	
; 276  : 	CAutoFlag af(m_bAllowNotify, TRUE);

	push	1
	mov	eax, DWORD PTR _this$[ebp]
	add	eax, 4
	push	eax
	lea	ecx, DWORD PTR _af$[ebp]
	call	??0CAutoFlag@@QAE@AAHH@Z		; CAutoFlag::CAutoFlag
	mov	BYTE PTR __$EHRec$[ebp+8], 1

; 277  : 	CReSaveCaret resc(bResetSelection ? NULL : m_rtf.GetSafeHwnd());

	movzx	ecx, BYTE PTR _bResetSelection$[ebp]
	test	ecx, ecx
	je	SHORT $LN4@SetTextCon
	mov	DWORD PTR tv92[ebp], 0
	jmp	SHORT $LN5@SetTextCon
$LN4@SetTextCon:
	mov	ecx, DWORD PTR _this$[ebp]
	sub	ecx, 980				; 000003d4H
	call	?GetSafeHwnd@CWnd@@QBEPAUHWND__@@XZ	; CWnd::GetSafeHwnd
	mov	DWORD PTR tv92[ebp], eax
$LN5@SetTextCon:
	mov	edx, DWORD PTR tv92[ebp]
	push	edx
	lea	ecx, DWORD PTR _resc$[ebp]
	call	??0CReSaveCaret@@QAE@PAUHWND__@@@Z	; CReSaveCaret::CReSaveCaret
	mov	BYTE PTR __$EHRec$[ebp+8], 2

; 278  : 
; 279  : 	m_rtf.SendMessage(WM_SETTEXT, 0, (LPARAM)szContent);

	mov	eax, DWORD PTR _szContent$[ebp]
	push	eax
	push	0
	push	12					; 0000000cH
	mov	ecx, DWORD PTR _this$[ebp]
	sub	ecx, 980				; 000003d4H
	call	?SendMessageW@CWnd@@QBEJIIJ@Z		; CWnd::SendMessageW

; 280  : 
; 281  : 	// reset caret
; 282  : 	if (bResetSelection)

	movzx	ecx, BYTE PTR _bResetSelection$[ebp]
	test	ecx, ecx
	je	SHORT $LN1@SetTextCon

; 283  : 		m_rtf.SetSel(0, 0);

	push	0
	push	0
	mov	ecx, DWORD PTR _this$[ebp]
	sub	ecx, 980				; 000003d4H
	call	?SetSel@CRichEditCtrl@@QAEXJJ@Z		; CRichEditCtrl::SetSel
$LN1@SetTextCon:

; 284  : 
; 285  : 	return true; 

	mov	BYTE PTR $T187369[ebp], 1
	mov	BYTE PTR __$EHRec$[ebp+8], 1
	lea	ecx, DWORD PTR _resc$[ebp]
	call	??1CReSaveCaret@@UAE@XZ			; CReSaveCaret::~CReSaveCaret
	mov	BYTE PTR __$EHRec$[ebp+8], 0
	lea	ecx, DWORD PTR _af$[ebp]
	call	??1CAutoFlag@@UAE@XZ			; CAutoFlag::~CAutoFlag
	mov	DWORD PTR __$EHRec$[ebp+8], -1
	lea	ecx, DWORD PTR __ctlState$[ebp]
	call	??1AFX_MAINTAIN_STATE2@@QAE@XZ		; AFX_MAINTAIN_STATE2::~AFX_MAINTAIN_STATE2
	mov	al, BYTE PTR $T187369[ebp]

; 286  : }

	push	edx
	mov	ecx, ebp
	push	eax
	lea	edx, DWORD PTR $LN14@SetTextCon
	call	@_RTC_CheckStackVars@8
	pop	eax
	pop	edx
	mov	ecx, DWORD PTR __$EHRec$[ebp]
	mov	DWORD PTR fs:0, ecx
	pop	ecx
	pop	edi
	add	esp, 88					; 00000058H
	cmp	ebp, esp
	call	__RTC_CheckEsp
	mov	esp, ebp
	pop	ebp
	ret	8
	npad	2
$LN14@SetTextCon:
	DD	3
	DD	$LN13@SetTextCon
$LN13@SetTextCon:
	DD	-36					; ffffffdcH
	DD	16					; 00000010H
	DD	$LN9@SetTextCon
	DD	-56					; ffffffc8H
	DD	12					; 0000000cH
	DD	$LN10@SetTextCon
	DD	-76					; ffffffb4H
	DD	12					; 0000000cH
	DD	$LN11@SetTextCon
$LN11@SetTextCon:
	DB	114					; 00000072H
	DB	101					; 00000065H
	DB	115					; 00000073H
	DB	99					; 00000063H
	DB	0
$LN10@SetTextCon:
	DB	97					; 00000061H
	DB	102					; 00000066H
	DB	0
$LN9@SetTextCon:
	DB	95					; 0000005fH
	DB	99					; 00000063H
	DB	116					; 00000074H
	DB	108					; 0000006cH
	DB	83					; 00000053H
	DB	116					; 00000074H
	DB	97					; 00000061H
	DB	116					; 00000074H
	DB	101					; 00000065H
	DB	0
_TEXT	ENDS
;	COMDAT text$x
text$x	SEGMENT
__unwindfunclet$?SetTextContent@CRTFContentControl@@UAE_NPB_W_N@Z$0:
	lea	ecx, DWORD PTR __ctlState$[ebp]
	jmp	??1AFX_MAINTAIN_STATE2@@QAE@XZ		; AFX_MAINTAIN_STATE2::~AFX_MAINTAIN_STATE2
__unwindfunclet$?SetTextContent@CRTFContentControl@@UAE_NPB_W_N@Z$1:
	lea	ecx, DWORD PTR _af$[ebp]
	jmp	??1CAutoFlag@@UAE@XZ			; CAutoFlag::~CAutoFlag
__unwindfunclet$?SetTextContent@CRTFContentControl@@UAE_NPB_W_N@Z$2:
	lea	ecx, DWORD PTR _resc$[ebp]
	jmp	??1CReSaveCaret@@UAE@XZ			; CReSaveCaret::~CReSaveCaret
__ehhandler$?SetTextContent@CRTFContentControl@@UAE_NPB_W_N@Z:
	mov	edx, DWORD PTR [esp+8]
	lea	eax, DWORD PTR [edx+12]
	mov	ecx, DWORD PTR [edx-84]
	xor	ecx, eax
	call	@__security_check_cookie@4
	mov	eax, OFFSET __ehfuncinfo$?SetTextContent@CRTFContentControl@@UAE_NPB_W_N@Z
	jmp	___CxxFrameHandler3
text$x	ENDS
?SetTextContent@CRTFContentControl@@UAE_NPB_W_N@Z ENDP	; CRTFContentControl::SetTextContent
EXTRN	?Undo@CRichEditBaseCtrl@@QAEHXZ:PROC		; CRichEditBaseCtrl::Undo
; Function compile flags: /Odtp /RTCsu
;	COMDAT ?Undo@CRTFContentControl@@UAE_NXZ
_TEXT	SEGMENT
_this$ = -4						; size = 4
?Undo@CRTFContentControl@@UAE_NXZ PROC			; CRTFContentControl::Undo, COMDAT
; _this$ = ecx

; 289  : { 

	push	ebp
	mov	ebp, esp
	push	ecx
	mov	DWORD PTR [ebp-4], -858993460		; ccccccccH
	mov	DWORD PTR _this$[ebp], ecx

; 290  : 	return (m_rtf.Undo() != FALSE); 

	mov	ecx, DWORD PTR _this$[ebp]
	sub	ecx, 980				; 000003d4H
	call	?Undo@CRichEditBaseCtrl@@QAEHXZ		; CRichEditBaseCtrl::Undo
	neg	eax
	sbb	eax, eax
	neg	eax

; 291  : }

	add	esp, 4
	cmp	ebp, esp
	call	__RTC_CheckEsp
	mov	esp, ebp
	pop	ebp
	ret	0
?Undo@CRTFContentControl@@UAE_NXZ ENDP			; CRTFContentControl::Undo
_TEXT	ENDS
EXTRN	?Redo@CRichEditBaseCtrl@@QAEHXZ:PROC		; CRichEditBaseCtrl::Redo
; Function compile flags: /Odtp /RTCsu
;	COMDAT ?Redo@CRTFContentControl@@UAE_NXZ
_TEXT	SEGMENT
_this$ = -4						; size = 4
?Redo@CRTFContentControl@@UAE_NXZ PROC			; CRTFContentControl::Redo, COMDAT
; _this$ = ecx

; 294  : { 

	push	ebp
	mov	ebp, esp
	push	ecx
	mov	DWORD PTR [ebp-4], -858993460		; ccccccccH
	mov	DWORD PTR _this$[ebp], ecx

; 295  : 	return (m_rtf.Redo() != FALSE); 

	mov	ecx, DWORD PTR _this$[ebp]
	sub	ecx, 980				; 000003d4H
	call	?Redo@CRichEditBaseCtrl@@QAEHXZ		; CRichEditBaseCtrl::Redo
	neg	eax
	sbb	eax, eax
	neg	eax

; 296  : }

	add	esp, 4
	cmp	ebp, esp
	call	__RTC_CheckEsp
	mov	esp, ebp
	pop	ebp
	ret	0
?Redo@CRTFContentControl@@UAE_NXZ ENDP			; CRTFContentControl::Redo
_TEXT	ENDS
PUBLIC	?SetBackgroundColor@CRRECRuler@@QAEXK@Z		; CRRECRuler::SetBackgroundColor
EXTRN	?SetBackgroundColors@CEnToolBar@@QAEXKKHH@Z:PROC ; CEnToolBar::SetBackgroundColors
EXTRN	?Create@CRRECToolBar@@QAEHPAVCWnd@@PB_WK@Z:PROC	; CRRECToolBar::Create
EXTRN	?FileExists@FileMisc@@YAHPB_W@Z:PROC		; FileMisc::FileExists
;	COMDAT xdata$x
xdata$x	SEGMENT
__unwindtable$?SetUITheme@CRTFContentControl@@UAEXPBUUITHEME@@@Z DD 0ffffffffH
	DD	FLAT:__unwindfunclet$?SetUITheme@CRTFContentControl@@UAEXPBUUITHEME@@@Z$0
__ehfuncinfo$?SetUITheme@CRTFContentControl@@UAEXPBUUITHEME@@@Z DD 019930522H
	DD	01H
	DD	FLAT:__unwindtable$?SetUITheme@CRTFContentControl@@UAEXPBUUITHEME@@@Z
	DD	2 DUP(00H)
	DD	2 DUP(00H)
	DD	00H
	DD	01H
; Function compile flags: /Odtp /RTCsu
xdata$x	ENDS
;	COMDAT ?SetUITheme@CRTFContentControl@@UAEXPBUUITHEME@@@Z
_TEXT	SEGMENT
__ctlState$ = -36					; size = 16
_this$ = -16						; size = 4
__$EHRec$ = -12						; size = 12
_pTheme$ = 8						; size = 4
?SetUITheme@CRTFContentControl@@UAEXPBUUITHEME@@@Z PROC	; CRTFContentControl::SetUITheme, COMDAT
; _this$ = ecx

; 299  : {

	push	ebp
	mov	ebp, esp
	push	-1
	push	__ehhandler$?SetUITheme@CRTFContentControl@@UAEXPBUUITHEME@@@Z
	mov	eax, DWORD PTR fs:0
	push	eax
	sub	esp, 28					; 0000001cH
	push	esi
	mov	eax, -858993460				; ccccccccH
	mov	DWORD PTR [ebp-40], eax
	mov	DWORD PTR [ebp-36], eax
	mov	DWORD PTR [ebp-32], eax
	mov	DWORD PTR [ebp-28], eax
	mov	DWORD PTR [ebp-24], eax
	mov	DWORD PTR [ebp-20], eax
	mov	DWORD PTR [ebp-16], eax
	mov	eax, DWORD PTR ___security_cookie
	xor	eax, ebp
	push	eax
	lea	eax, DWORD PTR __$EHRec$[ebp]
	mov	DWORD PTR fs:0, eax
	mov	DWORD PTR _this$[ebp], ecx

; 300  : 	AFX_MANAGE_STATE(AfxGetStaticModuleState());

	call	?_AfxInitManaged@@YAHXZ			; _AfxInitManaged
	call	?AfxGetStaticModuleState@@YGPAVAFX_MODULE_STATE@@XZ ; AfxGetStaticModuleState
	push	eax
	lea	ecx, DWORD PTR __ctlState$[ebp]
	call	??0AFX_MAINTAIN_STATE2@@QAE@PAVAFX_MODULE_STATE@@@Z ; AFX_MAINTAIN_STATE2::AFX_MAINTAIN_STATE2
	mov	DWORD PTR __$EHRec$[ebp+8], 0

; 301  : 	
; 302  :  	if (FileMisc::FileExists(pTheme->szToolbarImage))

	mov	eax, DWORD PTR _pTheme$[ebp]
	add	eax, 48					; 00000030H
	push	eax
	call	?FileExists@FileMisc@@YAHPB_W@Z		; FileMisc::FileExists
	add	esp, 4
	test	eax, eax
	je	SHORT $LN1@SetUITheme

; 303  :  	{
; 304  :  		m_toolbar.DestroyWindow();

	mov	ecx, DWORD PTR _this$[ebp]
	sub	ecx, 668				; 0000029cH
	mov	edx, DWORD PTR _this$[ebp]
	mov	eax, DWORD PTR [edx-668]
	mov	esi, esp
	mov	edx, DWORD PTR [eax+104]
	call	edx
	cmp	esi, esp
	call	__RTC_CheckEsp

; 305  :  		m_toolbar.Create(this, pTheme->szToolbarImage, pTheme->crToolbarTransparency);

	mov	eax, DWORD PTR _pTheme$[ebp]
	mov	ecx, DWORD PTR [eax+568]
	push	ecx
	mov	edx, DWORD PTR _pTheme$[ebp]
	add	edx, 48					; 00000030H
	push	edx
	mov	eax, DWORD PTR _this$[ebp]
	sub	eax, 1284				; 00000504H
	push	eax
	mov	ecx, DWORD PTR _this$[ebp]
	sub	ecx, 668				; 0000029cH
	call	?Create@CRRECToolBar@@QAEHPAVCWnd@@PB_WK@Z ; CRRECToolBar::Create
$LN1@SetUITheme:

; 306  :  	}
; 307  : 
; 308  : 	m_toolbar.SetBackgroundColors(pTheme->crToolbarLight, pTheme->crToolbarDark, pTheme->nRenderStyle != UIRS_GLASS, pTheme->nRenderStyle != UIRS_GRADIENT);

	mov	ecx, DWORD PTR _pTheme$[ebp]
	xor	edx, edx
	cmp	DWORD PTR [ecx], 0
	setne	dl
	push	edx
	mov	eax, DWORD PTR _pTheme$[ebp]
	xor	ecx, ecx
	cmp	DWORD PTR [eax], 1
	setne	cl
	push	ecx
	mov	edx, DWORD PTR _pTheme$[ebp]
	mov	eax, DWORD PTR [edx+28]
	push	eax
	mov	ecx, DWORD PTR _pTheme$[ebp]
	mov	edx, DWORD PTR [ecx+32]
	push	edx
	mov	ecx, DWORD PTR _this$[ebp]
	sub	ecx, 668				; 0000029cH
	call	?SetBackgroundColors@CEnToolBar@@QAEXKKHH@Z ; CEnToolBar::SetBackgroundColors

; 309  : 	m_ruler.SetBackgroundColor(pTheme->crToolbarLight);

	mov	eax, DWORD PTR _pTheme$[ebp]
	mov	ecx, DWORD PTR [eax+32]
	push	ecx
	mov	ecx, DWORD PTR _this$[ebp]
	sub	ecx, 152				; 00000098H
	call	?SetBackgroundColor@CRRECRuler@@QAEXK@Z	; CRRECRuler::SetBackgroundColor

; 310  : }

	mov	DWORD PTR __$EHRec$[ebp+8], -1
	lea	ecx, DWORD PTR __ctlState$[ebp]
	call	??1AFX_MAINTAIN_STATE2@@QAE@XZ		; AFX_MAINTAIN_STATE2::~AFX_MAINTAIN_STATE2
	push	edx
	mov	ecx, ebp
	push	eax
	lea	edx, DWORD PTR $LN8@SetUITheme
	call	@_RTC_CheckStackVars@8
	pop	eax
	pop	edx
	mov	ecx, DWORD PTR __$EHRec$[ebp]
	mov	DWORD PTR fs:0, ecx
	pop	ecx
	pop	esi
	add	esp, 40					; 00000028H
	cmp	ebp, esp
	call	__RTC_CheckEsp
	mov	esp, ebp
	pop	ebp
	ret	4
	npad	3
$LN8@SetUITheme:
	DD	1
	DD	$LN7@SetUITheme
$LN7@SetUITheme:
	DD	-36					; ffffffdcH
	DD	16					; 00000010H
	DD	$LN5@SetUITheme
$LN5@SetUITheme:
	DB	95					; 0000005fH
	DB	99					; 00000063H
	DB	116					; 00000074H
	DB	108					; 0000006cH
	DB	83					; 00000053H
	DB	116					; 00000074H
	DB	97					; 00000061H
	DB	116					; 00000074H
	DB	101					; 00000065H
	DB	0
_TEXT	ENDS
;	COMDAT text$x
text$x	SEGMENT
__unwindfunclet$?SetUITheme@CRTFContentControl@@UAEXPBUUITHEME@@@Z$0:
	lea	ecx, DWORD PTR __ctlState$[ebp]
	jmp	??1AFX_MAINTAIN_STATE2@@QAE@XZ		; AFX_MAINTAIN_STATE2::~AFX_MAINTAIN_STATE2
__ehhandler$?SetUITheme@CRTFContentControl@@UAEXPBUUITHEME@@@Z:
	mov	edx, DWORD PTR [esp+8]
	lea	eax, DWORD PTR [edx+12]
	mov	ecx, DWORD PTR [edx-36]
	xor	ecx, eax
	call	@__security_check_cookie@4
	mov	eax, OFFSET __ehfuncinfo$?SetUITheme@CRTFContentControl@@UAEXPBUUITHEME@@@Z
	jmp	___CxxFrameHandler3
text$x	ENDS
?SetUITheme@CRTFContentControl@@UAEXPBUUITHEME@@@Z ENDP	; CRTFContentControl::SetUITheme
EXTRN	?Invalidate@CWnd@@QAEXH@Z:PROC			; CWnd::Invalidate
; Function compile flags: /Odtp /RTCsu
; File d:\_code\rtfcontentctrl\rrecruler.h
;	COMDAT ?SetBackgroundColor@CRRECRuler@@QAEXK@Z
_TEXT	SEGMENT
_this$ = -4						; size = 4
_color$ = 8						; size = 4
?SetBackgroundColor@CRRECRuler@@QAEXK@Z PROC		; CRRECRuler::SetBackgroundColor, COMDAT
; _this$ = ecx

; 18   : 	void    SetBackgroundColor(COLORREF color) { m_crBack = color; Invalidate(); }

	push	ebp
	mov	ebp, esp
	push	ecx
	mov	DWORD PTR [ebp-4], -858993460		; ccccccccH
	mov	DWORD PTR _this$[ebp], ecx
	mov	eax, DWORD PTR _this$[ebp]
	mov	ecx, DWORD PTR _color$[ebp]
	mov	DWORD PTR [eax+148], ecx
	push	1
	mov	ecx, DWORD PTR _this$[ebp]
	call	?Invalidate@CWnd@@QAEXH@Z		; CWnd::Invalidate
	add	esp, 4
	cmp	ebp, esp
	call	__RTC_CheckEsp
	mov	esp, ebp
	pop	ebp
	ret	4
?SetBackgroundColor@CRRECRuler@@QAEXK@Z ENDP		; CRRECRuler::SetBackgroundColor
_TEXT	ENDS
;	COMDAT xdata$x
; File d:\_code\rtfcontentctrl\rtfcontentcontrol.cpp
xdata$x	SEGMENT
__unwindtable$?GetHwnd@CRTFContentControl@@UBEPAUHWND__@@XZ DD 0ffffffffH
	DD	FLAT:__unwindfunclet$?GetHwnd@CRTFContentControl@@UBEPAUHWND__@@XZ$0
__ehfuncinfo$?GetHwnd@CRTFContentControl@@UBEPAUHWND__@@XZ DD 019930522H
	DD	01H
	DD	FLAT:__unwindtable$?GetHwnd@CRTFContentControl@@UBEPAUHWND__@@XZ
	DD	2 DUP(00H)
	DD	2 DUP(00H)
	DD	00H
	DD	01H
; Function compile flags: /Odtp /RTCsu
xdata$x	ENDS
;	COMDAT ?GetHwnd@CRTFContentControl@@UBEPAUHWND__@@XZ
_TEXT	SEGMENT
$T187404 = -44						; size = 4
__ctlState$ = -36					; size = 16
_this$ = -16						; size = 4
__$EHRec$ = -12						; size = 12
?GetHwnd@CRTFContentControl@@UBEPAUHWND__@@XZ PROC	; CRTFContentControl::GetHwnd, COMDAT
; _this$ = ecx

; 313  : {

	push	ebp
	mov	ebp, esp
	push	-1
	push	__ehhandler$?GetHwnd@CRTFContentControl@@UBEPAUHWND__@@XZ
	mov	eax, DWORD PTR fs:0
	push	eax
	sub	esp, 32					; 00000020H
	mov	eax, -858993460				; ccccccccH
	mov	DWORD PTR [ebp-44], eax
	mov	DWORD PTR [ebp-40], eax
	mov	DWORD PTR [ebp-36], eax
	mov	DWORD PTR [ebp-32], eax
	mov	DWORD PTR [ebp-28], eax
	mov	DWORD PTR [ebp-24], eax
	mov	DWORD PTR [ebp-20], eax
	mov	DWORD PTR [ebp-16], eax
	mov	eax, DWORD PTR ___security_cookie
	xor	eax, ebp
	push	eax
	lea	eax, DWORD PTR __$EHRec$[ebp]
	mov	DWORD PTR fs:0, eax
	mov	DWORD PTR _this$[ebp], ecx

; 314  : 	AFX_MANAGE_STATE(AfxGetStaticModuleState());

	call	?_AfxInitManaged@@YAHXZ			; _AfxInitManaged
	call	?AfxGetStaticModuleState@@YGPAVAFX_MODULE_STATE@@XZ ; AfxGetStaticModuleState
	push	eax
	lea	ecx, DWORD PTR __ctlState$[ebp]
	call	??0AFX_MAINTAIN_STATE2@@QAE@PAVAFX_MODULE_STATE@@@Z ; AFX_MAINTAIN_STATE2::AFX_MAINTAIN_STATE2
	mov	DWORD PTR __$EHRec$[ebp+8], 0

; 315  : 	
; 316  : 	return GetSafeHwnd();

	mov	ecx, DWORD PTR _this$[ebp]
	sub	ecx, 1284				; 00000504H
	call	?GetSafeHwnd@CWnd@@QBEPAUHWND__@@XZ	; CWnd::GetSafeHwnd
	mov	DWORD PTR $T187404[ebp], eax
	mov	DWORD PTR __$EHRec$[ebp+8], -1
	lea	ecx, DWORD PTR __ctlState$[ebp]
	call	??1AFX_MAINTAIN_STATE2@@QAE@XZ		; AFX_MAINTAIN_STATE2::~AFX_MAINTAIN_STATE2
	mov	eax, DWORD PTR $T187404[ebp]

; 317  : }

	push	edx
	mov	ecx, ebp
	push	eax
	lea	edx, DWORD PTR $LN7@GetHwnd
	call	@_RTC_CheckStackVars@8
	pop	eax
	pop	edx
	mov	ecx, DWORD PTR __$EHRec$[ebp]
	mov	DWORD PTR fs:0, ecx
	pop	ecx
	add	esp, 44					; 0000002cH
	cmp	ebp, esp
	call	__RTC_CheckEsp
	mov	esp, ebp
	pop	ebp
	ret	0
$LN7@GetHwnd:
	DD	1
	DD	$LN6@GetHwnd
$LN6@GetHwnd:
	DD	-36					; ffffffdcH
	DD	16					; 00000010H
	DD	$LN4@GetHwnd
$LN4@GetHwnd:
	DB	95					; 0000005fH
	DB	99					; 00000063H
	DB	116					; 00000074H
	DB	108					; 0000006cH
	DB	83					; 00000053H
	DB	116					; 00000074H
	DB	97					; 00000061H
	DB	116					; 00000074H
	DB	101					; 00000065H
	DB	0
_TEXT	ENDS
;	COMDAT text$x
text$x	SEGMENT
__unwindfunclet$?GetHwnd@CRTFContentControl@@UBEPAUHWND__@@XZ$0:
	lea	ecx, DWORD PTR __ctlState$[ebp]
	jmp	??1AFX_MAINTAIN_STATE2@@QAE@XZ		; AFX_MAINTAIN_STATE2::~AFX_MAINTAIN_STATE2
__ehhandler$?GetHwnd@CRTFContentControl@@UBEPAUHWND__@@XZ:
	mov	edx, DWORD PTR [esp+8]
	lea	eax, DWORD PTR [edx+12]
	mov	ecx, DWORD PTR [edx-36]
	xor	ecx, eax
	call	@__security_check_cookie@4
	mov	eax, OFFSET __ehfuncinfo$?GetHwnd@CRTFContentControl@@UBEPAUHWND__@@XZ
	jmp	___CxxFrameHandler3
text$x	ENDS
?GetHwnd@CRTFContentControl@@UBEPAUHWND__@@XZ ENDP	; CRTFContentControl::GetHwnd
EXTRN	?SetReadOnly@CRulerRichEditCtrl@@QAEXH@Z:PROC	; CRulerRichEditCtrl::SetReadOnly
;	COMDAT xdata$x
xdata$x	SEGMENT
__unwindtable$?SetReadOnly@CRTFContentControl@@UAEX_N@Z DD 0ffffffffH
	DD	FLAT:__unwindfunclet$?SetReadOnly@CRTFContentControl@@UAEX_N@Z$0
__ehfuncinfo$?SetReadOnly@CRTFContentControl@@UAEX_N@Z DD 019930522H
	DD	01H
	DD	FLAT:__unwindtable$?SetReadOnly@CRTFContentControl@@UAEX_N@Z
	DD	2 DUP(00H)
	DD	2 DUP(00H)
	DD	00H
	DD	01H
; Function compile flags: /Odtp /RTCsu
xdata$x	ENDS
;	COMDAT ?SetReadOnly@CRTFContentControl@@UAEX_N@Z
_TEXT	SEGMENT
__ctlState$ = -36					; size = 16
_this$ = -16						; size = 4
__$EHRec$ = -12						; size = 12
_bReadOnly$ = 8						; size = 1
?SetReadOnly@CRTFContentControl@@UAEX_N@Z PROC		; CRTFContentControl::SetReadOnly, COMDAT
; _this$ = ecx

; 320  : {

	push	ebp
	mov	ebp, esp
	push	-1
	push	__ehhandler$?SetReadOnly@CRTFContentControl@@UAEX_N@Z
	mov	eax, DWORD PTR fs:0
	push	eax
	sub	esp, 28					; 0000001cH
	mov	eax, -858993460				; ccccccccH
	mov	DWORD PTR [ebp-40], eax
	mov	DWORD PTR [ebp-36], eax
	mov	DWORD PTR [ebp-32], eax
	mov	DWORD PTR [ebp-28], eax
	mov	DWORD PTR [ebp-24], eax
	mov	DWORD PTR [ebp-20], eax
	mov	DWORD PTR [ebp-16], eax
	mov	eax, DWORD PTR ___security_cookie
	xor	eax, ebp
	push	eax
	lea	eax, DWORD PTR __$EHRec$[ebp]
	mov	DWORD PTR fs:0, eax
	mov	DWORD PTR _this$[ebp], ecx

; 321  : 	AFX_MANAGE_STATE(AfxGetStaticModuleState());

	call	?_AfxInitManaged@@YAHXZ			; _AfxInitManaged
	call	?AfxGetStaticModuleState@@YGPAVAFX_MODULE_STATE@@XZ ; AfxGetStaticModuleState
	push	eax
	lea	ecx, DWORD PTR __ctlState$[ebp]
	call	??0AFX_MAINTAIN_STATE2@@QAE@PAVAFX_MODULE_STATE@@@Z ; AFX_MAINTAIN_STATE2::AFX_MAINTAIN_STATE2
	mov	DWORD PTR __$EHRec$[ebp+8], 0

; 322  : 
; 323  : 	CRulerRichEditCtrl::SetReadOnly((BOOL)bReadOnly);

	movzx	eax, BYTE PTR _bReadOnly$[ebp]
	push	eax
	mov	ecx, DWORD PTR _this$[ebp]
	sub	ecx, 1284				; 00000504H
	call	?SetReadOnly@CRulerRichEditCtrl@@QAEXH@Z ; CRulerRichEditCtrl::SetReadOnly

; 324  : }

	mov	DWORD PTR __$EHRec$[ebp+8], -1
	lea	ecx, DWORD PTR __ctlState$[ebp]
	call	??1AFX_MAINTAIN_STATE2@@QAE@XZ		; AFX_MAINTAIN_STATE2::~AFX_MAINTAIN_STATE2
	push	edx
	mov	ecx, ebp
	push	eax
	lea	edx, DWORD PTR $LN7@SetReadOnl
	call	@_RTC_CheckStackVars@8
	pop	eax
	pop	edx
	mov	ecx, DWORD PTR __$EHRec$[ebp]
	mov	DWORD PTR fs:0, ecx
	pop	ecx
	add	esp, 40					; 00000028H
	cmp	ebp, esp
	call	__RTC_CheckEsp
	mov	esp, ebp
	pop	ebp
	ret	4
	npad	2
$LN7@SetReadOnl:
	DD	1
	DD	$LN6@SetReadOnl
$LN6@SetReadOnl:
	DD	-36					; ffffffdcH
	DD	16					; 00000010H
	DD	$LN4@SetReadOnl
$LN4@SetReadOnl:
	DB	95					; 0000005fH
	DB	99					; 00000063H
	DB	116					; 00000074H
	DB	108					; 0000006cH
	DB	83					; 00000053H
	DB	116					; 00000074H
	DB	97					; 00000061H
	DB	116					; 00000074H
	DB	101					; 00000065H
	DB	0
_TEXT	ENDS
;	COMDAT text$x
text$x	SEGMENT
__unwindfunclet$?SetReadOnly@CRTFContentControl@@UAEX_N@Z$0:
	lea	ecx, DWORD PTR __ctlState$[ebp]
	jmp	??1AFX_MAINTAIN_STATE2@@QAE@XZ		; AFX_MAINTAIN_STATE2::~AFX_MAINTAIN_STATE2
__ehhandler$?SetReadOnly@CRTFContentControl@@UAEX_N@Z:
	mov	edx, DWORD PTR [esp+8]
	lea	eax, DWORD PTR [edx+12]
	mov	ecx, DWORD PTR [edx-32]
	xor	ecx, eax
	call	@__security_check_cookie@4
	mov	eax, OFFSET __ehfuncinfo$?SetReadOnly@CRTFContentControl@@UAEX_N@Z
	jmp	___CxxFrameHandler3
text$x	ENDS
?SetReadOnly@CRTFContentControl@@UAEX_N@Z ENDP		; CRTFContentControl::SetReadOnly
;	COMDAT xdata$x
xdata$x	SEGMENT
__unwindtable$?Release@CRTFContentControl@@UAEXXZ DD 0ffffffffH
	DD	FLAT:__unwindfunclet$?Release@CRTFContentControl@@UAEXXZ$0
__ehfuncinfo$?Release@CRTFContentControl@@UAEXXZ DD 019930522H
	DD	01H
	DD	FLAT:__unwindtable$?Release@CRTFContentControl@@UAEXXZ
	DD	2 DUP(00H)
	DD	2 DUP(00H)
	DD	00H
	DD	01H
; Function compile flags: /Odtp /RTCsu
xdata$x	ENDS
;	COMDAT ?Release@CRTFContentControl@@UAEXXZ
_TEXT	SEGMENT
tv89 = -52						; size = 4
$T187430 = -48						; size = 4
$T187429 = -44						; size = 4
__ctlState$ = -36					; size = 16
_this$ = -16						; size = 4
__$EHRec$ = -12						; size = 12
?Release@CRTFContentControl@@UAEXXZ PROC		; CRTFContentControl::Release, COMDAT
; _this$ = ecx

; 327  : {

	push	ebp
	mov	ebp, esp
	push	-1
	push	__ehhandler$?Release@CRTFContentControl@@UAEXXZ
	mov	eax, DWORD PTR fs:0
	push	eax
	sub	esp, 40					; 00000028H
	push	esi
	push	edi
	push	ecx
	lea	edi, DWORD PTR [ebp-52]
	mov	ecx, 10					; 0000000aH
	mov	eax, -858993460				; ccccccccH
	rep stosd
	pop	ecx
	mov	eax, DWORD PTR ___security_cookie
	xor	eax, ebp
	push	eax
	lea	eax, DWORD PTR __$EHRec$[ebp]
	mov	DWORD PTR fs:0, eax
	mov	DWORD PTR _this$[ebp], ecx

; 328  : 	AFX_MANAGE_STATE(AfxGetStaticModuleState());

	call	?_AfxInitManaged@@YAHXZ			; _AfxInitManaged
	call	?AfxGetStaticModuleState@@YGPAVAFX_MODULE_STATE@@XZ ; AfxGetStaticModuleState
	push	eax
	lea	ecx, DWORD PTR __ctlState$[ebp]
	call	??0AFX_MAINTAIN_STATE2@@QAE@PAVAFX_MODULE_STATE@@@Z ; AFX_MAINTAIN_STATE2::AFX_MAINTAIN_STATE2
	mov	DWORD PTR __$EHRec$[ebp+8], 0

; 329  : 
; 330  : 	DestroyWindow();

	mov	ecx, DWORD PTR _this$[ebp]
	sub	ecx, 1284				; 00000504H
	mov	eax, DWORD PTR _this$[ebp]
	mov	edx, DWORD PTR [eax-1284]
	mov	esi, esp
	mov	eax, DWORD PTR [edx+104]
	call	eax
	cmp	esi, esp
	call	__RTC_CheckEsp

; 331  : 	delete this;

	mov	ecx, DWORD PTR _this$[ebp]
	sub	ecx, 1284				; 00000504H
	mov	DWORD PTR $T187430[ebp], ecx
	mov	edx, DWORD PTR $T187430[ebp]
	mov	DWORD PTR $T187429[ebp], edx
	cmp	DWORD PTR $T187429[ebp], 0
	je	SHORT $LN3@Release
	mov	esi, esp
	push	1
	mov	eax, DWORD PTR $T187429[ebp]
	mov	edx, DWORD PTR [eax]
	mov	ecx, DWORD PTR $T187429[ebp]
	mov	eax, DWORD PTR [edx+4]
	call	eax
	cmp	esi, esp
	call	__RTC_CheckEsp
	mov	DWORD PTR tv89[ebp], eax
	jmp	SHORT $LN4@Release
$LN3@Release:
	mov	DWORD PTR tv89[ebp], 0
$LN4@Release:

; 332  : }

	mov	DWORD PTR __$EHRec$[ebp+8], -1
	lea	ecx, DWORD PTR __ctlState$[ebp]
	call	??1AFX_MAINTAIN_STATE2@@QAE@XZ		; AFX_MAINTAIN_STATE2::~AFX_MAINTAIN_STATE2
	push	edx
	mov	ecx, ebp
	push	eax
	lea	edx, DWORD PTR $LN9@Release
	call	@_RTC_CheckStackVars@8
	pop	eax
	pop	edx
	mov	ecx, DWORD PTR __$EHRec$[ebp]
	mov	DWORD PTR fs:0, ecx
	pop	ecx
	pop	edi
	pop	esi
	add	esp, 52					; 00000034H
	cmp	ebp, esp
	call	__RTC_CheckEsp
	mov	esp, ebp
	pop	ebp
	ret	0
$LN9@Release:
	DD	1
	DD	$LN8@Release
$LN8@Release:
	DD	-36					; ffffffdcH
	DD	16					; 00000010H
	DD	$LN6@Release
$LN6@Release:
	DB	95					; 0000005fH
	DB	99					; 00000063H
	DB	116					; 00000074H
	DB	108					; 0000006cH
	DB	83					; 00000053H
	DB	116					; 00000074H
	DB	97					; 00000061H
	DB	116					; 00000074H
	DB	101					; 00000065H
	DB	0
_TEXT	ENDS
;	COMDAT text$x
text$x	SEGMENT
__unwindfunclet$?Release@CRTFContentControl@@UAEXXZ$0:
	lea	ecx, DWORD PTR __ctlState$[ebp]
	jmp	??1AFX_MAINTAIN_STATE2@@QAE@XZ		; AFX_MAINTAIN_STATE2::~AFX_MAINTAIN_STATE2
__ehhandler$?Release@CRTFContentControl@@UAEXXZ:
	mov	edx, DWORD PTR [esp+8]
	lea	eax, DWORD PTR [edx+12]
	mov	ecx, DWORD PTR [edx-52]
	xor	ecx, eax
	call	@__security_check_cookie@4
	mov	eax, OFFSET __ehfuncinfo$?Release@CRTFContentControl@@UAEXXZ
	jmp	___CxxFrameHandler3
text$x	ENDS
?Release@CRTFContentControl@@UAEXXZ ENDP		; CRTFContentControl::Release
PUBLIC	?EnableMenuItem@CRTFContentControl@@KAXPAVCMenu@@IH@Z ; CRTFContentControl::EnableMenuItem
EXTRN	?EnableMenuItem@CMenu@@QAEIII@Z:PROC		; CMenu::EnableMenuItem
; Function compile flags: /Odtp /RTCsu
;	COMDAT ?EnableMenuItem@CRTFContentControl@@KAXPAVCMenu@@IH@Z
_TEXT	SEGMENT
_pMenu$ = 8						; size = 4
_nCmdID$ = 12						; size = 4
_bEnable$ = 16						; size = 4
?EnableMenuItem@CRTFContentControl@@KAXPAVCMenu@@IH@Z PROC ; CRTFContentControl::EnableMenuItem, COMDAT

; 335  : {

	push	ebp
	mov	ebp, esp

; 336  : 	pMenu->EnableMenuItem(nCmdID, MF_BYCOMMAND | (bEnable ? MF_ENABLED : MF_GRAYED));

	xor	eax, eax
	cmp	DWORD PTR _bEnable$[ebp], 0
	sete	al
	push	eax
	mov	ecx, DWORD PTR _nCmdID$[ebp]
	push	ecx
	mov	ecx, DWORD PTR _pMenu$[ebp]
	call	?EnableMenuItem@CMenu@@QAEIII@Z		; CMenu::EnableMenuItem

; 337  : }

	cmp	ebp, esp
	call	__RTC_CheckEsp
	pop	ebp
	ret	0
?EnableMenuItem@CRTFContentControl@@KAXPAVCMenu@@IH@Z ENDP ; CRTFContentControl::EnableMenuItem
_TEXT	ENDS
PUBLIC	?CheckMenuItem@CRTFContentControl@@KAXPAVCMenu@@IH@Z ; CRTFContentControl::CheckMenuItem
EXTRN	?CheckMenuItem@CMenu@@QAEIII@Z:PROC		; CMenu::CheckMenuItem
; Function compile flags: /Odtp /RTCsu
;	COMDAT ?CheckMenuItem@CRTFContentControl@@KAXPAVCMenu@@IH@Z
_TEXT	SEGMENT
_pMenu$ = 8						; size = 4
_nCmdID$ = 12						; size = 4
_bCheck$ = 16						; size = 4
?CheckMenuItem@CRTFContentControl@@KAXPAVCMenu@@IH@Z PROC ; CRTFContentControl::CheckMenuItem, COMDAT

; 340  : {

	push	ebp
	mov	ebp, esp

; 341  : 	pMenu->CheckMenuItem(nCmdID, MF_BYCOMMAND | (bCheck ? MF_CHECKED  : MF_UNCHECKED));

	mov	eax, DWORD PTR _bCheck$[ebp]
	neg	eax
	sbb	eax, eax
	and	eax, 8
	push	eax
	mov	ecx, DWORD PTR _nCmdID$[ebp]
	push	ecx
	mov	ecx, DWORD PTR _pMenu$[ebp]
	call	?CheckMenuItem@CMenu@@QAEIII@Z		; CMenu::CheckMenuItem

; 342  : }

	cmp	ebp, esp
	call	__RTC_CheckEsp
	pop	ebp
	ret	0
?CheckMenuItem@CRTFContentControl@@KAXPAVCMenu@@IH@Z ENDP ; CRTFContentControl::CheckMenuItem
_TEXT	ENDS
PUBLIC	?RemoveAdvancedFeatures@CRTFContentControl@@IBEXPAVCMenu@@@Z ; CRTFContentControl::RemoveAdvancedFeatures
; Function compile flags: /Odtp /RTCsu
;	COMDAT ?RemoveAdvancedFeatures@CRTFContentControl@@IBEXPAVCMenu@@@Z
_TEXT	SEGMENT
_this$ = -4						; size = 4
_pMenu$ = 8						; size = 4
?RemoveAdvancedFeatures@CRTFContentControl@@IBEXPAVCMenu@@@Z PROC ; CRTFContentControl::RemoveAdvancedFeatures, COMDAT
; _this$ = ecx

; 345  : {

	push	ebp
	mov	ebp, esp
	push	ecx
	mov	DWORD PTR [ebp-4], -858993460		; ccccccccH
	mov	DWORD PTR _this$[ebp], ecx

; 346  : #ifdef _DEBUG
; 347  : 	UNREFERENCED_PARAMETER(pMenu);
; 348  : #else
; 349  : 	BOOL bRemoveAdvancedFeatures = ((FileMisc::GetModuleDriveType() == DRIVE_FIXED) && 
; 350  : 									!CMSWordHelper::IsWordInstalled(12));
; 351  : 	
; 352  : 	if (bRemoveAdvancedFeatures)
; 353  : 	{
; 354  : 		CEnMenu::DeleteMenu(*pMenu, ID_EDIT_SUPERSCRIPT, MF_BYCOMMAND, TRUE);
; 355  : 		CEnMenu::DeleteMenu(*pMenu, ID_EDIT_SUBSCRIPT, MF_BYCOMMAND, TRUE);
; 356  : 		CEnMenu::DeleteMenu(*pMenu, ID_EDIT_INSERTTABLE, MF_BYCOMMAND, TRUE);
; 357  : 		CEnMenu::DeleteMenu(*pMenu, ID_EDIT_HORZRULE, MF_BYCOMMAND, TRUE);
; 358  : 	}
; 359  : 	
; 360  : 	if (!m_rtf.SupportsInlineSpellChecking())
; 361  : 		pMenu->DeleteMenu(ID_EDIT_INLINESPELLCHECK, MF_BYCOMMAND);
; 362  : #endif
; 363  : }

	mov	esp, ebp
	pop	ebp
	ret	4
?RemoveAdvancedFeatures@CRTFContentControl@@IBEXPAVCMenu@@@Z ENDP ; CRTFContentControl::RemoveAdvancedFeatures
_TEXT	ENDS
PUBLIC	?GetContextUrl@CUrlRichEditCtrl@@QAEHXZ		; CUrlRichEditCtrl::GetContextUrl
EXTRN	??1CMenu@@UAE@XZ:PROC				; CMenu::~CMenu
EXTRN	?TrackPopupMenu@CMenu@@QAEHIHHPAVCWnd@@PBUtagRECT@@@Z:PROC ; CMenu::TrackPopupMenu
EXTRN	?PrepareMenuItems@CToolbarHelper@@SAXPAVCMenu@@PAVCWnd@@@Z:PROC ; CToolbarHelper::PrepareMenuItems
EXTRN	?DeleteMenu@CMenu@@QAEHII@Z:PROC		; CMenu::DeleteMenu
EXTRN	__imp__ClientToScreen@8:PROC
EXTRN	??BCWnd@@QBEPAUHWND__@@XZ:PROC			; CWnd::operator HWND__ *
EXTRN	?GetCaretPos@CWnd@@SG?AVCPoint@@XZ:PROC		; CWnd::GetCaretPos
EXTRN	?GetSubMenu@CMenu@@QBEPAV1@H@Z:PROC		; CMenu::GetSubMenu
EXTRN	?LoadMenuW@CMenu@@QAEHI@Z:PROC			; CMenu::LoadMenuW
EXTRN	??0CMenu@@QAE@XZ:PROC				; CMenu::CMenu
;	COMDAT xdata$x
xdata$x	SEGMENT
__unwindtable$?OnContextMenu@CRTFContentControl@@IAEXPAVCWnd@@VCPoint@@@Z DD 0ffffffffH
	DD	FLAT:__unwindfunclet$?OnContextMenu@CRTFContentControl@@IAEXPAVCWnd@@VCPoint@@@Z$0
__ehfuncinfo$?OnContextMenu@CRTFContentControl@@IAEXPAVCWnd@@VCPoint@@@Z DD 019930522H
	DD	01H
	DD	FLAT:__unwindtable$?OnContextMenu@CRTFContentControl@@IAEXPAVCWnd@@VCPoint@@@Z
	DD	2 DUP(00H)
	DD	2 DUP(00H)
	DD	00H
	DD	01H
; Function compile flags: /Odtp /RTCsu
xdata$x	ENDS
;	COMDAT ?OnContextMenu@CRTFContentControl@@IAEXPAVCWnd@@VCPoint@@@Z
_TEXT	SEGMENT
$T187451 = -44						; size = 8
_pPopup$180757 = -36					; size = 4
_menu$180755 = -28					; size = 8
_this$ = -16						; size = 4
__$EHRec$ = -12						; size = 12
_pWnd$ = 8						; size = 4
_point$ = 12						; size = 8
?OnContextMenu@CRTFContentControl@@IAEXPAVCWnd@@VCPoint@@@Z PROC ; CRTFContentControl::OnContextMenu, COMDAT
; _this$ = ecx

; 366  : {

	push	ebp
	mov	ebp, esp
	push	-1
	push	__ehhandler$?OnContextMenu@CRTFContentControl@@IAEXPAVCWnd@@VCPoint@@@Z
	mov	eax, DWORD PTR fs:0
	push	eax
	sub	esp, 32					; 00000020H
	push	esi
	mov	eax, -858993460				; ccccccccH
	mov	DWORD PTR [ebp-44], eax
	mov	DWORD PTR [ebp-40], eax
	mov	DWORD PTR [ebp-36], eax
	mov	DWORD PTR [ebp-32], eax
	mov	DWORD PTR [ebp-28], eax
	mov	DWORD PTR [ebp-24], eax
	mov	DWORD PTR [ebp-20], eax
	mov	DWORD PTR [ebp-16], eax
	mov	eax, DWORD PTR ___security_cookie
	xor	eax, ebp
	push	eax
	lea	eax, DWORD PTR __$EHRec$[ebp]
	mov	DWORD PTR fs:0, eax
	mov	DWORD PTR _this$[ebp], ecx

; 367  : 	if (pWnd == &m_rtf)

	mov	eax, DWORD PTR _this$[ebp]
	add	eax, 304				; 00000130H
	cmp	DWORD PTR _pWnd$[ebp], eax
	jne	$LN6@OnContextM

; 368  : 	{
; 369  : 		// prepare a simple edit menu
; 370  : 		CMenu menu;

	lea	ecx, DWORD PTR _menu$180755[ebp]
	call	??0CMenu@@QAE@XZ			; CMenu::CMenu
	mov	DWORD PTR __$EHRec$[ebp+8], 0

; 371  : 
; 372  : 		if (menu.LoadMenu(IDR_POPUP))

	push	16000					; 00003e80H
	lea	ecx, DWORD PTR _menu$180755[ebp]
	call	?LoadMenuW@CMenu@@QAEHI@Z		; CMenu::LoadMenuW
	test	eax, eax
	je	$LN4@OnContextM

; 373  : 		{
; 374  : 			CMenu* pPopup = menu.GetSubMenu(0);

	push	0
	lea	ecx, DWORD PTR _menu$180755[ebp]
	call	?GetSubMenu@CMenu@@QBEPAV1@H@Z		; CMenu::GetSubMenu
	mov	DWORD PTR _pPopup$180757[ebp], eax

; 375  : 
; 376  : 			if (pPopup)

	cmp	DWORD PTR _pPopup$180757[ebp], 0
	je	$LN4@OnContextM

; 377  : 			{
; 378  : 				RemoveAdvancedFeatures(pPopup);

	mov	ecx, DWORD PTR _pPopup$180757[ebp]
	push	ecx
	mov	ecx, DWORD PTR _this$[ebp]
	call	?RemoveAdvancedFeatures@CRTFContentControl@@IBEXPAVCMenu@@@Z ; CRTFContentControl::RemoveAdvancedFeatures

; 379  : 
; 380  : 				// check pos
; 381  : 				if (point.x == -1 && point.y == -1)

	cmp	DWORD PTR _point$[ebp], -1
	jne	SHORT $LN2@OnContextM
	cmp	DWORD PTR _point$[ebp+4], -1
	jne	SHORT $LN2@OnContextM

; 382  : 				{
; 383  : 					point = GetCaretPos();

	lea	edx, DWORD PTR $T187451[ebp]
	push	edx
	call	?GetCaretPos@CWnd@@SG?AVCPoint@@XZ	; CWnd::GetCaretPos
	mov	ecx, DWORD PTR [eax]
	mov	edx, DWORD PTR [eax+4]
	mov	DWORD PTR _point$[ebp], ecx
	mov	DWORD PTR _point$[ebp+4], edx

; 384  : 					::ClientToScreen(m_rtf, &point);

	mov	esi, esp
	lea	eax, DWORD PTR _point$[ebp]
	push	eax
	mov	ecx, DWORD PTR _this$[ebp]
	add	ecx, 304				; 00000130H
	call	??BCWnd@@QBEPAUHWND__@@XZ		; CWnd::operator HWND__ *
	push	eax
	call	DWORD PTR __imp__ClientToScreen@8
	cmp	esi, esp
	call	__RTC_CheckEsp
$LN2@OnContextM:

; 385  : 				}
; 386  : 
; 387  : 				// Remove URL commands if URL not clicked on
; 388  : 				if (m_rtf.GetContextUrl() == -1)

	mov	ecx, DWORD PTR _this$[ebp]
	add	ecx, 304				; 00000130H
	call	?GetContextUrl@CUrlRichEditCtrl@@QAEHXZ	; CUrlRichEditCtrl::GetContextUrl
	cmp	eax, -1
	jne	SHORT $LN1@OnContextM

; 389  : 				{
; 390  : 					pPopup->DeleteMenu(ID_EDIT_OPENURL, MF_BYCOMMAND);

	push	0
	push	32780					; 0000800cH
	mov	ecx, DWORD PTR _pPopup$180757[ebp]
	call	?DeleteMenu@CMenu@@QAEHII@Z		; CMenu::DeleteMenu

; 391  : 					pPopup->DeleteMenu(ID_EDIT_COPYURL, MF_BYCOMMAND);

	push	0
	push	32815					; 0000802fH
	mov	ecx, DWORD PTR _pPopup$180757[ebp]
	call	?DeleteMenu@CMenu@@QAEHII@Z		; CMenu::DeleteMenu
$LN1@OnContextM:

; 392  : 				}
; 393  : 
; 394  : 				CToolbarHelper::PrepareMenuItems(pPopup, this);

	mov	ecx, DWORD PTR _this$[ebp]
	push	ecx
	mov	edx, DWORD PTR _pPopup$180757[ebp]
	push	edx
	call	?PrepareMenuItems@CToolbarHelper@@SAXPAVCMenu@@PAVCWnd@@@Z ; CToolbarHelper::PrepareMenuItems
	add	esp, 8

; 395  : 				pPopup->TrackPopupMenu(TPM_LEFTALIGN | TPM_LEFTBUTTON, point.x, point.y, this);

	push	0
	mov	eax, DWORD PTR _this$[ebp]
	push	eax
	mov	ecx, DWORD PTR _point$[ebp+4]
	push	ecx
	mov	edx, DWORD PTR _point$[ebp]
	push	edx
	push	0
	mov	ecx, DWORD PTR _pPopup$180757[ebp]
	call	?TrackPopupMenu@CMenu@@QAEHIHHPAVCWnd@@PBUtagRECT@@@Z ; CMenu::TrackPopupMenu
$LN4@OnContextM:

; 396  : 			}
; 397  : 		}
; 398  : 	}

	mov	DWORD PTR __$EHRec$[ebp+8], -1
	lea	ecx, DWORD PTR _menu$180755[ebp]
	call	??1CMenu@@UAE@XZ			; CMenu::~CMenu
$LN6@OnContextM:

; 399  : }

	push	edx
	mov	ecx, ebp
	push	eax
	lea	edx, DWORD PTR $LN12@OnContextM
	call	@_RTC_CheckStackVars@8
	pop	eax
	pop	edx
	mov	ecx, DWORD PTR __$EHRec$[ebp]
	mov	DWORD PTR fs:0, ecx
	pop	ecx
	pop	esi
	add	esp, 44					; 0000002cH
	cmp	ebp, esp
	call	__RTC_CheckEsp
	mov	esp, ebp
	pop	ebp
	ret	12					; 0000000cH
	npad	3
$LN12@OnContextM:
	DD	1
	DD	$LN11@OnContextM
$LN11@OnContextM:
	DD	-28					; ffffffe4H
	DD	8
	DD	$LN9@OnContextM
$LN9@OnContextM:
	DB	109					; 0000006dH
	DB	101					; 00000065H
	DB	110					; 0000006eH
	DB	117					; 00000075H
	DB	0
_TEXT	ENDS
;	COMDAT text$x
text$x	SEGMENT
__unwindfunclet$?OnContextMenu@CRTFContentControl@@IAEXPAVCWnd@@VCPoint@@@Z$0:
	lea	ecx, DWORD PTR _menu$180755[ebp]
	jmp	??1CMenu@@UAE@XZ			; CMenu::~CMenu
__ehhandler$?OnContextMenu@CRTFContentControl@@IAEXPAVCWnd@@VCPoint@@@Z:
	mov	edx, DWORD PTR [esp+8]
	lea	eax, DWORD PTR [edx+12]
	mov	ecx, DWORD PTR [edx-40]
	xor	ecx, eax
	call	@__security_check_cookie@4
	mov	eax, OFFSET __ehfuncinfo$?OnContextMenu@CRTFContentControl@@IAEXPAVCWnd@@VCPoint@@@Z
	jmp	___CxxFrameHandler3
text$x	ENDS
?OnContextMenu@CRTFContentControl@@IAEXPAVCWnd@@VCPoint@@@Z ENDP ; CRTFContentControl::OnContextMenu
; Function compile flags: /Odtp /RTCsu
; File d:\_code\shared\urlricheditctrl.h
;	COMDAT ?GetContextUrl@CUrlRichEditCtrl@@QAEHXZ
_TEXT	SEGMENT
_this$ = -4						; size = 4
?GetContextUrl@CUrlRichEditCtrl@@QAEHXZ PROC		; CUrlRichEditCtrl::GetContextUrl, COMDAT
; _this$ = ecx

; 53   : 	int GetContextUrl() { return m_nContextUrl; }

	push	ebp
	mov	ebp, esp
	push	ecx
	mov	DWORD PTR [ebp-4], -858993460		; ccccccccH
	mov	DWORD PTR _this$[ebp], ecx
	mov	eax, DWORD PTR _this$[ebp]
	mov	eax, DWORD PTR [eax+276]
	mov	esp, ebp
	pop	ebp
	ret	0
?GetContextUrl@CUrlRichEditCtrl@@QAEHXZ ENDP		; CUrlRichEditCtrl::GetContextUrl
_TEXT	ENDS
PUBLIC	?InitShortcutManager@CRTFContentControl@@IAEXXZ	; CRTFContentControl::InitShortcutManager
EXTRN	?AddShortcut@CShortcutManager@@QAEHIGG@Z:PROC	; CShortcutManager::AddShortcut
EXTRN	?Initialize@CShortcutManager@@QAEHPAVCWnd@@PBVIPreferences@@GG@Z:PROC ; CShortcutManager::Initialize
; Function compile flags: /Odtp /RTCsu
; File d:\_code\rtfcontentctrl\rtfcontentcontrol.cpp
;	COMDAT ?InitShortcutManager@CRTFContentControl@@IAEXXZ
_TEXT	SEGMENT
_this$ = -4						; size = 4
?InitShortcutManager@CRTFContentControl@@IAEXXZ PROC	; CRTFContentControl::InitShortcutManager, COMDAT
; _this$ = ecx

; 402  : {

	push	ebp
	mov	ebp, esp
	push	ecx
	mov	DWORD PTR [ebp-4], -858993460		; ccccccccH
	mov	DWORD PTR _this$[ebp], ecx

; 403  : 	if (!m_mgrShortcuts.Initialize(this, NULL, 0))

	push	0
	push	0
	push	0
	mov	eax, DWORD PTR _this$[ebp]
	push	eax
	mov	ecx, DWORD PTR _this$[ebp]
	add	ecx, 1812				; 00000714H
	call	?Initialize@CShortcutManager@@QAEHPAVCWnd@@PBVIPreferences@@GG@Z ; CShortcutManager::Initialize
	test	eax, eax
	jne	SHORT $LN1@InitShortc

; 404  : 		return;

	jmp	$LN2@InitShortc
$LN1@InitShortc:

; 405  : 
; 406  : 	m_mgrShortcuts.AddShortcut(ID_EDIT_COPYFORMATTING,	'C',		HOTKEYF_CONTROL | HOTKEYF_SHIFT);

	push	3
	push	67					; 00000043H
	push	32809					; 00008029H
	mov	ecx, DWORD PTR _this$[ebp]
	add	ecx, 1812				; 00000714H
	call	?AddShortcut@CShortcutManager@@QAEHIGG@Z ; CShortcutManager::AddShortcut

; 407  : 	m_mgrShortcuts.AddShortcut(ID_EDIT_PASTEFORMATTING,	'V',		HOTKEYF_CONTROL | HOTKEYF_SHIFT);

	push	3
	push	86					; 00000056H
	push	32810					; 0000802aH
	mov	ecx, DWORD PTR _this$[ebp]
	add	ecx, 1812				; 00000714H
	call	?AddShortcut@CShortcutManager@@QAEHIGG@Z ; CShortcutManager::AddShortcut

; 408  : 	m_mgrShortcuts.AddShortcut(ID_EDIT_PASTESIMPLE,		'P',		HOTKEYF_CONTROL | HOTKEYF_SHIFT);

	push	3
	push	80					; 00000050H
	push	32786					; 00008012H
	mov	ecx, DWORD PTR _this$[ebp]
	add	ecx, 1812				; 00000714H
	call	?AddShortcut@CShortcutManager@@QAEHIGG@Z ; CShortcutManager::AddShortcut

; 409  : 	m_mgrShortcuts.AddShortcut(ID_EDIT_OUTDENT,			'J',		HOTKEYF_CONTROL | HOTKEYF_SHIFT); 

	push	3
	push	74					; 0000004aH
	push	32790					; 00008016H
	mov	ecx, DWORD PTR _this$[ebp]
	add	ecx, 1812				; 00000714H
	call	?AddShortcut@CShortcutManager@@QAEHIGG@Z ; CShortcutManager::AddShortcut

; 410  : 	m_mgrShortcuts.AddShortcut(ID_EDIT_COPY,			'C',		HOTKEYF_CONTROL); 

	push	2
	push	67					; 00000043H
	push	57634					; 0000e122H
	mov	ecx, DWORD PTR _this$[ebp]
	add	ecx, 1812				; 00000714H
	call	?AddShortcut@CShortcutManager@@QAEHIGG@Z ; CShortcutManager::AddShortcut

; 411  : 	m_mgrShortcuts.AddShortcut(ID_EDIT_COPYASHTML,		'C',		HOTKEYF_CONTROL | HOTKEYF_ALT); 

	push	6
	push	67					; 00000043H
	push	32813					; 0000802dH
	mov	ecx, DWORD PTR _this$[ebp]
	add	ecx, 1812				; 00000714H
	call	?AddShortcut@CShortcutManager@@QAEHIGG@Z ; CShortcutManager::AddShortcut

; 412  : 	m_mgrShortcuts.AddShortcut(ID_EDIT_PASTE,			'V',		HOTKEYF_CONTROL); 

	push	2
	push	86					; 00000056H
	push	57637					; 0000e125H
	mov	ecx, DWORD PTR _this$[ebp]
	add	ecx, 1812				; 00000714H
	call	?AddShortcut@CShortcutManager@@QAEHIGG@Z ; CShortcutManager::AddShortcut

; 413  : 	m_mgrShortcuts.AddShortcut(ID_EDIT_PASTESIMPLE,		VK_INSERT,	HOTKEYF_SHIFT | HOTKEYF_EXT); 

	push	9
	push	45					; 0000002dH
	push	32786					; 00008012H
	mov	ecx, DWORD PTR _this$[ebp]
	add	ecx, 1812				; 00000714H
	call	?AddShortcut@CShortcutManager@@QAEHIGG@Z ; CShortcutManager::AddShortcut

; 414  : 	m_mgrShortcuts.AddShortcut(ID_EDIT_CUT,				'X',		HOTKEYF_CONTROL); 

	push	2
	push	88					; 00000058H
	push	57635					; 0000e123H
	mov	ecx, DWORD PTR _this$[ebp]
	add	ecx, 1812				; 00000714H
	call	?AddShortcut@CShortcutManager@@QAEHIGG@Z ; CShortcutManager::AddShortcut

; 415  : 	m_mgrShortcuts.AddShortcut(ID_EDIT_SELECT_ALL,		'A',		HOTKEYF_CONTROL); 

	push	2
	push	65					; 00000041H
	push	57642					; 0000e12aH
	mov	ecx, DWORD PTR _this$[ebp]
	add	ecx, 1812				; 00000714H
	call	?AddShortcut@CShortcutManager@@QAEHIGG@Z ; CShortcutManager::AddShortcut

; 416  : 	m_mgrShortcuts.AddShortcut(ID_EDIT_BOLD,			'B',		HOTKEYF_CONTROL); 

	push	2
	push	66					; 00000042H
	push	32773					; 00008005H
	mov	ecx, DWORD PTR _this$[ebp]
	add	ecx, 1812				; 00000714H
	call	?AddShortcut@CShortcutManager@@QAEHIGG@Z ; CShortcutManager::AddShortcut

; 417  : 	m_mgrShortcuts.AddShortcut(ID_EDIT_ITALIC,			'I',		HOTKEYF_CONTROL); 

	push	2
	push	73					; 00000049H
	push	32775					; 00008007H
	mov	ecx, DWORD PTR _this$[ebp]
	add	ecx, 1812				; 00000714H
	call	?AddShortcut@CShortcutManager@@QAEHIGG@Z ; CShortcutManager::AddShortcut

; 418  : 	m_mgrShortcuts.AddShortcut(ID_EDIT_UNDERLINE,		'U',		HOTKEYF_CONTROL); 

	push	2
	push	85					; 00000055H
	push	32778					; 0000800aH
	mov	ecx, DWORD PTR _this$[ebp]
	add	ecx, 1812				; 00000714H
	call	?AddShortcut@CShortcutManager@@QAEHIGG@Z ; CShortcutManager::AddShortcut

; 419  : 	m_mgrShortcuts.AddShortcut(ID_EDIT_LEFTALIGN,		'L',		HOTKEYF_CONTROL); 

	push	2
	push	76					; 0000004cH
	push	32783					; 0000800fH
	mov	ecx, DWORD PTR _this$[ebp]
	add	ecx, 1812				; 00000714H
	call	?AddShortcut@CShortcutManager@@QAEHIGG@Z ; CShortcutManager::AddShortcut

; 420  : 	m_mgrShortcuts.AddShortcut(ID_EDIT_CENTERALIGN,		'E',		HOTKEYF_CONTROL); 

	push	2
	push	69					; 00000045H
	push	32787					; 00008013H
	mov	ecx, DWORD PTR _this$[ebp]
	add	ecx, 1812				; 00000714H
	call	?AddShortcut@CShortcutManager@@QAEHIGG@Z ; CShortcutManager::AddShortcut

; 421  : 	m_mgrShortcuts.AddShortcut(ID_EDIT_RIGHTALIGN,		'R',		HOTKEYF_CONTROL); 

	push	2
	push	82					; 00000052H
	push	32788					; 00008014H
	mov	ecx, DWORD PTR _this$[ebp]
	add	ecx, 1812				; 00000714H
	call	?AddShortcut@CShortcutManager@@QAEHIGG@Z ; CShortcutManager::AddShortcut

; 422  : 	m_mgrShortcuts.AddShortcut(ID_EDIT_STRIKETHRU,		0xBD,		HOTKEYF_CONTROL); 

	push	2
	push	189					; 000000bdH
	push	32793					; 00008019H
	mov	ecx, DWORD PTR _this$[ebp]
	add	ecx, 1812				; 00000714H
	call	?AddShortcut@CShortcutManager@@QAEHIGG@Z ; CShortcutManager::AddShortcut

; 423  : 	m_mgrShortcuts.AddShortcut(ID_EDIT_GROWFONT,		0xBE,		HOTKEYF_CONTROL | HOTKEYF_EXT); 

	push	10					; 0000000aH
	push	190					; 000000beH
	push	32806					; 00008026H
	mov	ecx, DWORD PTR _this$[ebp]
	add	ecx, 1812				; 00000714H
	call	?AddShortcut@CShortcutManager@@QAEHIGG@Z ; CShortcutManager::AddShortcut

; 424  : 	m_mgrShortcuts.AddShortcut(ID_EDIT_SHRINKFONT,		0xBC,		HOTKEYF_CONTROL | HOTKEYF_EXT); 

	push	10					; 0000000aH
	push	188					; 000000bcH
	push	32803					; 00008023H
	mov	ecx, DWORD PTR _this$[ebp]
	add	ecx, 1812				; 00000714H
	call	?AddShortcut@CShortcutManager@@QAEHIGG@Z ; CShortcutManager::AddShortcut

; 425  : 	m_mgrShortcuts.AddShortcut(ID_EDIT_FINDREPLACE,		'H',		HOTKEYF_CONTROL); 

	push	2
	push	72					; 00000048H
	push	32804					; 00008024H
	mov	ecx, DWORD PTR _this$[ebp]
	add	ecx, 1812				; 00000714H
	call	?AddShortcut@CShortcutManager@@QAEHIGG@Z ; CShortcutManager::AddShortcut

; 426  : 	m_mgrShortcuts.AddShortcut(ID_EDIT_FIND,			'F',		HOTKEYF_CONTROL); 

	push	2
	push	70					; 00000046H
	push	57636					; 0000e124H
	mov	ecx, DWORD PTR _this$[ebp]
	add	ecx, 1812				; 00000714H
	call	?AddShortcut@CShortcutManager@@QAEHIGG@Z ; CShortcutManager::AddShortcut

; 427  : 	m_mgrShortcuts.AddShortcut(ID_EDIT_INDENT,			'J',		HOTKEYF_CONTROL); 

	push	2
	push	74					; 0000004aH
	push	32789					; 00008015H
	mov	ecx, DWORD PTR _this$[ebp]
	add	ecx, 1812				; 00000714H
	call	?AddShortcut@CShortcutManager@@QAEHIGG@Z ; CShortcutManager::AddShortcut
$LN2@InitShortc:

; 428  : }

	add	esp, 4
	cmp	ebp, esp
	call	__RTC_CheckEsp
	mov	esp, ebp
	pop	ebp
	ret	0
?InitShortcutManager@CRTFContentControl@@IAEXXZ ENDP	; CRTFContentControl::InitShortcutManager
_TEXT	ENDS
PUBLIC	?InitMenuIconManager@CRTFContentControl@@IAEXXZ	; CRTFContentControl::InitMenuIconManager
EXTRN	??1CUIntArray@@UAE@XZ:PROC			; CUIntArray::~CUIntArray
EXTRN	?AddImages@CMenuIconMgr@@QAEHABVCUIntArray@@IK@Z:PROC ; CMenuIconMgr::AddImages
EXTRN	?Add@CUIntArray@@QAEHI@Z:PROC			; CUIntArray::Add
EXTRN	??0CUIntArray@@QAE@XZ:PROC			; CUIntArray::CUIntArray
EXTRN	?ClearImages@CMenuIconMgr@@QAEXXZ:PROC		; CMenuIconMgr::ClearImages
EXTRN	?Initialize@CMenuIconMgr@@QAEHPAVCWnd@@@Z:PROC	; CMenuIconMgr::Initialize
;	COMDAT xdata$x
xdata$x	SEGMENT
__unwindtable$?InitMenuIconManager@CRTFContentControl@@IAEXXZ DD 0ffffffffH
	DD	FLAT:__unwindfunclet$?InitMenuIconManager@CRTFContentControl@@IAEXXZ$0
__ehfuncinfo$?InitMenuIconManager@CRTFContentControl@@IAEXXZ DD 019930522H
	DD	01H
	DD	FLAT:__unwindtable$?InitMenuIconManager@CRTFContentControl@@IAEXXZ
	DD	2 DUP(00H)
	DD	2 DUP(00H)
	DD	00H
	DD	01H
; Function compile flags: /Odtp /RTCsu
xdata$x	ENDS
;	COMDAT ?InitMenuIconManager@CRTFContentControl@@IAEXXZ
_TEXT	SEGMENT
_aCmdIDs$ = -40						; size = 20
_this$ = -16						; size = 4
__$EHRec$ = -12						; size = 12
?InitMenuIconManager@CRTFContentControl@@IAEXXZ PROC	; CRTFContentControl::InitMenuIconManager, COMDAT
; _this$ = ecx

; 431  : {

	push	ebp
	mov	ebp, esp
	push	-1
	push	__ehhandler$?InitMenuIconManager@CRTFContentControl@@IAEXXZ
	mov	eax, DWORD PTR fs:0
	push	eax
	sub	esp, 32					; 00000020H
	mov	eax, -858993460				; ccccccccH
	mov	DWORD PTR [ebp-44], eax
	mov	DWORD PTR [ebp-40], eax
	mov	DWORD PTR [ebp-36], eax
	mov	DWORD PTR [ebp-32], eax
	mov	DWORD PTR [ebp-28], eax
	mov	DWORD PTR [ebp-24], eax
	mov	DWORD PTR [ebp-20], eax
	mov	DWORD PTR [ebp-16], eax
	mov	eax, DWORD PTR ___security_cookie
	xor	eax, ebp
	push	eax
	lea	eax, DWORD PTR __$EHRec$[ebp]
	mov	DWORD PTR fs:0, eax
	mov	DWORD PTR _this$[ebp], ecx

; 432  : 	if (!m_mgrMenuIcons.Initialize(this))

	mov	eax, DWORD PTR _this$[ebp]
	push	eax
	mov	ecx, DWORD PTR _this$[ebp]
	add	ecx, 1576				; 00000628H
	call	?Initialize@CMenuIconMgr@@QAEHPAVCWnd@@@Z ; CMenuIconMgr::Initialize
	test	eax, eax
	jne	SHORT $LN1@InitMenuIc

; 433  : 		return;

	jmp	$LN2@InitMenuIc
$LN1@InitMenuIc:

; 434  : 	
; 435  : 	m_mgrMenuIcons.ClearImages();

	mov	ecx, DWORD PTR _this$[ebp]
	add	ecx, 1576				; 00000628H
	call	?ClearImages@CMenuIconMgr@@QAEXXZ	; CMenuIconMgr::ClearImages

; 436  : 	
; 437  : 	CUIntArray aCmdIDs;

	lea	ecx, DWORD PTR _aCmdIDs$[ebp]
	call	??0CUIntArray@@QAE@XZ			; CUIntArray::CUIntArray
	mov	DWORD PTR __$EHRec$[ebp+8], 0

; 438  : 	
; 439  : 	aCmdIDs.Add(ID_EDIT_FONT);

	push	32771					; 00008003H
	lea	ecx, DWORD PTR _aCmdIDs$[ebp]
	call	?Add@CUIntArray@@QAEHI@Z		; CUIntArray::Add

; 440  : 	aCmdIDs.Add(ID_EDIT_BOLD);

	push	32773					; 00008005H
	lea	ecx, DWORD PTR _aCmdIDs$[ebp]
	call	?Add@CUIntArray@@QAEHI@Z		; CUIntArray::Add

; 441  : 	aCmdIDs.Add(ID_EDIT_ITALIC);

	push	32775					; 00008007H
	lea	ecx, DWORD PTR _aCmdIDs$[ebp]
	call	?Add@CUIntArray@@QAEHI@Z		; CUIntArray::Add

; 442  : 	aCmdIDs.Add(ID_EDIT_UNDERLINE);

	push	32778					; 0000800aH
	lea	ecx, DWORD PTR _aCmdIDs$[ebp]
	call	?Add@CUIntArray@@QAEHI@Z		; CUIntArray::Add

; 443  : 	aCmdIDs.Add(ID_EDIT_STRIKETHRU);

	push	32793					; 00008019H
	lea	ecx, DWORD PTR _aCmdIDs$[ebp]
	call	?Add@CUIntArray@@QAEHI@Z		; CUIntArray::Add

; 444  : 	aCmdIDs.Add(ID_EDIT_GROWFONT);

	push	32806					; 00008026H
	lea	ecx, DWORD PTR _aCmdIDs$[ebp]
	call	?Add@CUIntArray@@QAEHI@Z		; CUIntArray::Add

; 445  : 	aCmdIDs.Add(ID_EDIT_SHRINKFONT);

	push	32803					; 00008023H
	lea	ecx, DWORD PTR _aCmdIDs$[ebp]
	call	?Add@CUIntArray@@QAEHI@Z		; CUIntArray::Add

; 446  : 	aCmdIDs.Add(ID_EDIT_LEFTALIGN);

	push	32783					; 0000800fH
	lea	ecx, DWORD PTR _aCmdIDs$[ebp]
	call	?Add@CUIntArray@@QAEHI@Z		; CUIntArray::Add

; 447  : 	aCmdIDs.Add(ID_EDIT_CENTERALIGN);

	push	32787					; 00008013H
	lea	ecx, DWORD PTR _aCmdIDs$[ebp]
	call	?Add@CUIntArray@@QAEHI@Z		; CUIntArray::Add

; 448  : 	aCmdIDs.Add(ID_EDIT_RIGHTALIGN);

	push	32788					; 00008014H
	lea	ecx, DWORD PTR _aCmdIDs$[ebp]
	call	?Add@CUIntArray@@QAEHI@Z		; CUIntArray::Add

; 449  : 	aCmdIDs.Add(ID_EDIT_JUSTIFY);

	push	32802					; 00008022H
	lea	ecx, DWORD PTR _aCmdIDs$[ebp]
	call	?Add@CUIntArray@@QAEHI@Z		; CUIntArray::Add

; 450  : 	aCmdIDs.Add(ID_EDIT_BULLET);

	push	32792					; 00008018H
	lea	ecx, DWORD PTR _aCmdIDs$[ebp]
	call	?Add@CUIntArray@@QAEHI@Z		; CUIntArray::Add

; 451  : 	aCmdIDs.Add(ID_EDIT_NUMBER);

	push	32795					; 0000801bH
	lea	ecx, DWORD PTR _aCmdIDs$[ebp]
	call	?Add@CUIntArray@@QAEHI@Z		; CUIntArray::Add

; 452  : 	aCmdIDs.Add(ID_EDIT_OUTDENT);

	push	32790					; 00008016H
	lea	ecx, DWORD PTR _aCmdIDs$[ebp]
	call	?Add@CUIntArray@@QAEHI@Z		; CUIntArray::Add

; 453  : 	aCmdIDs.Add(ID_EDIT_INDENT);

	push	32789					; 00008015H
	lea	ecx, DWORD PTR _aCmdIDs$[ebp]
	call	?Add@CUIntArray@@QAEHI@Z		; CUIntArray::Add

; 454  : 	aCmdIDs.Add(ID_EDIT_INSERTTABLE);

	push	32799					; 0000801fH
	lea	ecx, DWORD PTR _aCmdIDs$[ebp]
	call	?Add@CUIntArray@@QAEHI@Z		; CUIntArray::Add

; 455  : 	aCmdIDs.Add(ID_EDIT_TEXTCOLOR);

	push	32797					; 0000801dH
	lea	ecx, DWORD PTR _aCmdIDs$[ebp]
	call	?Add@CUIntArray@@QAEHI@Z		; CUIntArray::Add

; 456  : 	aCmdIDs.Add(ID_EDIT_BACKCOLOR);

	push	32800					; 00008020H
	lea	ecx, DWORD PTR _aCmdIDs$[ebp]
	call	?Add@CUIntArray@@QAEHI@Z		; CUIntArray::Add

; 457  : 	aCmdIDs.Add(ID_EDIT_WORDWRAP);

	push	32794					; 0000801aH
	lea	ecx, DWORD PTR _aCmdIDs$[ebp]
	call	?Add@CUIntArray@@QAEHI@Z		; CUIntArray::Add

; 458  : 	aCmdIDs.Add(ID_EDIT_INLINESPELLCHECK);

	push	34545					; 000086f1H
	lea	ecx, DWORD PTR _aCmdIDs$[ebp]
	call	?Add@CUIntArray@@QAEHI@Z		; CUIntArray::Add

; 459  : 	aCmdIDs.Add(ID_PREFERENCES);

	push	32798					; 0000801eH
	lea	ecx, DWORD PTR _aCmdIDs$[ebp]
	call	?Add@CUIntArray@@QAEHI@Z		; CUIntArray::Add

; 460  : 		
; 461  : 	m_mgrMenuIcons.AddImages(aCmdIDs, IDB_TOOLBAR, RGB(255, 0, 255));

	push	16711935				; 00ff00ffH
	push	16003					; 00003e83H
	lea	ecx, DWORD PTR _aCmdIDs$[ebp]
	push	ecx
	mov	ecx, DWORD PTR _this$[ebp]
	add	ecx, 1576				; 00000628H
	call	?AddImages@CMenuIconMgr@@QAEHABVCUIntArray@@IK@Z ; CMenuIconMgr::AddImages

; 462  : }

	mov	DWORD PTR __$EHRec$[ebp+8], -1
	lea	ecx, DWORD PTR _aCmdIDs$[ebp]
	call	??1CUIntArray@@UAE@XZ			; CUIntArray::~CUIntArray
$LN2@InitMenuIc:
	push	edx
	mov	ecx, ebp
	push	eax
	lea	edx, DWORD PTR $LN8@InitMenuIc
	call	@_RTC_CheckStackVars@8
	pop	eax
	pop	edx
	mov	ecx, DWORD PTR __$EHRec$[ebp]
	mov	DWORD PTR fs:0, ecx
	pop	ecx
	add	esp, 44					; 0000002cH
	cmp	ebp, esp
	call	__RTC_CheckEsp
	mov	esp, ebp
	pop	ebp
	ret	0
	npad	1
$LN8@InitMenuIc:
	DD	1
	DD	$LN7@InitMenuIc
$LN7@InitMenuIc:
	DD	-40					; ffffffd8H
	DD	20					; 00000014H
	DD	$LN5@InitMenuIc
$LN5@InitMenuIc:
	DB	97					; 00000061H
	DB	67					; 00000043H
	DB	109					; 0000006dH
	DB	100					; 00000064H
	DB	73					; 00000049H
	DB	68					; 00000044H
	DB	115					; 00000073H
	DB	0
_TEXT	ENDS
;	COMDAT text$x
text$x	SEGMENT
__unwindfunclet$?InitMenuIconManager@CRTFContentControl@@IAEXXZ$0:
	lea	ecx, DWORD PTR _aCmdIDs$[ebp]
	jmp	??1CUIntArray@@UAE@XZ			; CUIntArray::~CUIntArray
__ehhandler$?InitMenuIconManager@CRTFContentControl@@IAEXXZ:
	mov	edx, DWORD PTR [esp+8]
	lea	eax, DWORD PTR [edx+12]
	mov	ecx, DWORD PTR [edx-36]
	xor	ecx, eax
	call	@__security_check_cookie@4
	mov	eax, OFFSET __ehfuncinfo$?InitMenuIconManager@CRTFContentControl@@IAEXXZ
	jmp	___CxxFrameHandler3
text$x	ENDS
?InitMenuIconManager@CRTFContentControl@@IAEXXZ ENDP	; CRTFContentControl::InitMenuIconManager
PUBLIC	??$GetITLInterface@VITaskList4@@@@YAPAVITaskList4@@PAVITaskList@@ABU_GUID@@@Z ; GetITLInterface<ITaskList4>
PUBLIC	?IsTDLClipboardEmpty@CRTFContentControl@@IBEHXZ	; CRTFContentControl::IsTDLClipboardEmpty
; Function compile flags: /Odtp /RTCsu
;	COMDAT ?IsTDLClipboardEmpty@CRTFContentControl@@IBEHXZ
_TEXT	SEGMENT
_pClip4$ = -12						; size = 4
_pClipboard$ = -8					; size = 4
_this$ = -4						; size = 4
?IsTDLClipboardEmpty@CRTFContentControl@@IBEHXZ PROC	; CRTFContentControl::IsTDLClipboardEmpty, COMDAT
; _this$ = ecx

; 465  : { 

	push	ebp
	mov	ebp, esp
	sub	esp, 12					; 0000000cH
	push	esi
	mov	DWORD PTR [ebp-12], -858993460		; ccccccccH
	mov	DWORD PTR [ebp-8], -858993460		; ccccccccH
	mov	DWORD PTR [ebp-4], -858993460		; ccccccccH
	mov	DWORD PTR _this$[ebp], ecx

; 466  : 	// try for any clipboard first
; 467  : 	ITaskList* pClipboard = (ITaskList*)GetParent()->SendMessage(WM_TDCM_GETCLIPBOARD, 0, FALSE);

	push	0
	push	0
	mov	eax, DWORD PTR _WM_TDCM_GETCLIPBOARD
	push	eax
	mov	ecx, DWORD PTR _this$[ebp]
	call	?GetParent@CWnd@@QBEPAV1@XZ		; CWnd::GetParent
	mov	ecx, eax
	call	?SendMessageW@CWnd@@QBEJIIJ@Z		; CWnd::SendMessageW
	mov	DWORD PTR _pClipboard$[ebp], eax

; 468  : 	ITaskList4* pClip4 = GetITLInterface<ITaskList4>(pClipboard, IID_TASKLIST4);

	push	OFFSET _IID_TASKLIST4
	mov	ecx, DWORD PTR _pClipboard$[ebp]
	push	ecx
	call	??$GetITLInterface@VITaskList4@@@@YAPAVITaskList4@@PAVITaskList@@ABU_GUID@@@Z ; GetITLInterface<ITaskList4>
	add	esp, 8
	mov	DWORD PTR _pClip4$[ebp], eax

; 469  : 
; 470  : 	if (pClip4)

	cmp	DWORD PTR _pClip4$[ebp], 0
	je	SHORT $LN1@IsTDLClipb

; 471  : 		return (pClipboard->GetFirstTask() == NULL);

	mov	esi, esp
	push	0
	mov	edx, DWORD PTR _pClipboard$[ebp]
	mov	eax, DWORD PTR [edx]
	mov	ecx, DWORD PTR _pClipboard$[ebp]
	mov	edx, DWORD PTR [eax+52]
	call	edx
	cmp	esi, esp
	call	__RTC_CheckEsp
	neg	eax
	sbb	eax, eax
	add	eax, 1
	jmp	SHORT $LN2@IsTDLClipb
$LN1@IsTDLClipb:

; 472  : 
; 473  : 	// else try for 'our' clipboard only
; 474  : 	return (!GetParent()->SendMessage(WM_TDCM_HASCLIPBOARD, 0, TRUE)); 

	push	1
	push	0
	mov	eax, DWORD PTR _WM_TDCM_HASCLIPBOARD
	push	eax
	mov	ecx, DWORD PTR _this$[ebp]
	call	?GetParent@CWnd@@QBEPAV1@XZ		; CWnd::GetParent
	mov	ecx, eax
	call	?SendMessageW@CWnd@@QBEJIIJ@Z		; CWnd::SendMessageW
	neg	eax
	sbb	eax, eax
	add	eax, 1
$LN2@IsTDLClipb:

; 475  : }

	pop	esi
	add	esp, 12					; 0000000cH
	cmp	ebp, esp
	call	__RTC_CheckEsp
	mov	esp, ebp
	pop	ebp
	ret	0
?IsTDLClipboardEmpty@CRTFContentControl@@IBEHXZ ENDP	; CRTFContentControl::IsTDLClipboardEmpty
_TEXT	ENDS
PUBLIC	?GetClipboardHtmlForPasting@CRTFContentControl@@KAHAAV?$CStringT@_WV?$StrTraitMFC_DLL@_WV?$ChTraitsCRT@_W@ATL@@@@@ATL@@0@Z ; CRTFContentControl::GetClipboardHtmlForPasting
EXTRN	??1CClipboard@@QAE@XZ:PROC			; CClipboard::~CClipboard
EXTRN	?EncodeAsMultiByte@Misc@@YAAAV?$CStringT@_WV?$StrTraitMFC_DLL@_WV?$ChTraitsCRT@_W@ATL@@@@@ATL@@AAV23@I@Z:PROC ; Misc::EncodeAsMultiByte
EXTRN	__imp_?IsEmpty@?$CSimpleStringT@_W$00@ATL@@QBE_NXZ:PROC
EXTRN	?Close@CClipboard@@QAEHXZ:PROC			; CClipboard::Close
EXTRN	?UnpackageHTMLFragment@CClipboard@@SAAAV?$CStringT@_WV?$StrTraitMFC_DLL@_WV?$ChTraitsCRT@_W@ATL@@@@@ATL@@AAV23@0@Z:PROC ; CClipboard::UnpackageHTMLFragment
EXTRN	?Trim@Misc@@YAAAV?$CStringT@_WV?$StrTraitMFC_DLL@_WV?$ChTraitsCRT@_W@ATL@@@@@ATL@@AAV23@PB_W@Z:PROC ; Misc::Trim
EXTRN	?EncodeAsUnicode@Misc@@YAAAV?$CStringT@_WV?$StrTraitMFC_DLL@_WV?$ChTraitsCRT@_W@ATL@@@@@ATL@@AAV23@I@Z:PROC ; Misc::EncodeAsUnicode
EXTRN	?GetText@CClipboard@@QBEHAAV?$CStringT@_WV?$StrTraitMFC_DLL@_WV?$ChTraitsCRT@_W@ATL@@@@@ATL@@I@Z:PROC ; CClipboard::GetText
EXTRN	?HasFormat@CClipboard@@SAHI@Z:PROC		; CClipboard::HasFormat
EXTRN	??0CClipboard@@QAE@XZ:PROC			; CClipboard::CClipboard
;	COMDAT xdata$x
xdata$x	SEGMENT
__unwindtable$?GetClipboardHtmlForPasting@CRTFContentControl@@KAHAAV?$CStringT@_WV?$StrTraitMFC_DLL@_WV?$ChTraitsCRT@_W@ATL@@@@@ATL@@0@Z DD 0ffffffffH
	DD	FLAT:__unwindfunclet$?GetClipboardHtmlForPasting@CRTFContentControl@@KAHAAV?$CStringT@_WV?$StrTraitMFC_DLL@_WV?$ChTraitsCRT@_W@ATL@@@@@ATL@@0@Z$0
__ehfuncinfo$?GetClipboardHtmlForPasting@CRTFContentControl@@KAHAAV?$CStringT@_WV?$StrTraitMFC_DLL@_WV?$ChTraitsCRT@_W@ATL@@@@@ATL@@0@Z DD 019930522H
	DD	01H
	DD	FLAT:__unwindtable$?GetClipboardHtmlForPasting@CRTFContentControl@@KAHAAV?$CStringT@_WV?$StrTraitMFC_DLL@_WV?$ChTraitsCRT@_W@ATL@@@@@ATL@@0@Z
	DD	2 DUP(00H)
	DD	2 DUP(00H)
	DD	00H
	DD	01H
; Function compile flags: /Odtp /RTCsu
xdata$x	ENDS
;	COMDAT ?GetClipboardHtmlForPasting@CRTFContentControl@@KAHAAV?$CStringT@_WV?$StrTraitMFC_DLL@_WV?$ChTraitsCRT@_W@ATL@@@@@ATL@@0@Z
_TEXT	SEGMENT
$T187483 = -36						; size = 4
$T187482 = -32						; size = 4
_cb$ = -24						; size = 8
__$EHRec$ = -12						; size = 12
_sHtml$ = 8						; size = 4
_sSourceUrl$ = 12					; size = 4
?GetClipboardHtmlForPasting@CRTFContentControl@@KAHAAV?$CStringT@_WV?$StrTraitMFC_DLL@_WV?$ChTraitsCRT@_W@ATL@@@@@ATL@@0@Z PROC ; CRTFContentControl::GetClipboardHtmlForPasting, COMDAT

; 478  : {

	push	ebp
	mov	ebp, esp
	push	-1
	push	__ehhandler$?GetClipboardHtmlForPasting@CRTFContentControl@@KAHAAV?$CStringT@_WV?$StrTraitMFC_DLL@_WV?$ChTraitsCRT@_W@ATL@@@@@ATL@@0@Z
	mov	eax, DWORD PTR fs:0
	push	eax
	sub	esp, 24					; 00000018H
	push	esi
	mov	eax, -858993460				; ccccccccH
	mov	DWORD PTR [ebp-36], eax
	mov	DWORD PTR [ebp-32], eax
	mov	DWORD PTR [ebp-28], eax
	mov	DWORD PTR [ebp-24], eax
	mov	DWORD PTR [ebp-20], eax
	mov	DWORD PTR [ebp-16], eax
	mov	eax, DWORD PTR ___security_cookie
	xor	eax, ebp
	push	eax
	lea	eax, DWORD PTR __$EHRec$[ebp]
	mov	DWORD PTR fs:0, eax

; 479  : 	CClipboard cb;

	lea	ecx, DWORD PTR _cb$[ebp]
	call	??0CClipboard@@QAE@XZ			; CClipboard::CClipboard
	mov	DWORD PTR __$EHRec$[ebp+8], 0

; 480  : 	
; 481  : 	if (!cb.HasFormat(CBF_RTF) && 
; 482  : 		!cb.HasFormat(CBF_RETEXTOBJ) && 
; 483  : 		!cb.HasFormat(CBF_EMBEDDEDOBJ) &&
; 484  : 		cb.GetText(sHtml, CBF_HTML))

	mov	eax, DWORD PTR _CBF_RTF
	push	eax
	call	?HasFormat@CClipboard@@SAHI@Z		; CClipboard::HasFormat
	add	esp, 4
	test	eax, eax
	jne	$LN2@GetClipboa
	mov	ecx, DWORD PTR _CBF_RETEXTOBJ
	push	ecx
	call	?HasFormat@CClipboard@@SAHI@Z		; CClipboard::HasFormat
	add	esp, 4
	test	eax, eax
	jne	$LN2@GetClipboa
	mov	edx, DWORD PTR _CBF_EMBEDDEDOBJ
	push	edx
	call	?HasFormat@CClipboard@@SAHI@Z		; CClipboard::HasFormat
	add	esp, 4
	test	eax, eax
	jne	$LN2@GetClipboa
	mov	eax, DWORD PTR _CBF_HTML
	push	eax
	mov	ecx, DWORD PTR _sHtml$[ebp]
	push	ecx
	lea	ecx, DWORD PTR _cb$[ebp]
	call	?GetText@CClipboard@@QBEHAAV?$CStringT@_WV?$StrTraitMFC_DLL@_WV?$ChTraitsCRT@_W@ATL@@@@@ATL@@I@Z ; CClipboard::GetText
	test	eax, eax
	je	SHORT $LN2@GetClipboa

; 485  : 	{
; 486  : #ifdef _UNICODE
; 487  : 		// convert to unicode for unpackaging because
; 488  : 		// CF_HTML is saved to the clipboard as UTF8
; 489  : 		Misc::EncodeAsUnicode(sHtml, CP_UTF8);

	push	65001					; 0000fde9H
	mov	edx, DWORD PTR _sHtml$[ebp]
	push	edx
	call	?EncodeAsUnicode@Misc@@YAAAV?$CStringT@_WV?$StrTraitMFC_DLL@_WV?$ChTraitsCRT@_W@ATL@@@@@ATL@@AAV23@I@Z ; Misc::EncodeAsUnicode
	add	esp, 8

; 490  : #endif
; 491  : 		Misc::Trim(sHtml);

	push	0
	mov	eax, DWORD PTR _sHtml$[ebp]
	push	eax
	call	?Trim@Misc@@YAAAV?$CStringT@_WV?$StrTraitMFC_DLL@_WV?$ChTraitsCRT@_W@ATL@@@@@ATL@@AAV23@PB_W@Z ; Misc::Trim
	add	esp, 8

; 492  : 
; 493  : 		cb.UnpackageHTMLFragment(sHtml, sSourceUrl);

	mov	ecx, DWORD PTR _sSourceUrl$[ebp]
	push	ecx
	mov	edx, DWORD PTR _sHtml$[ebp]
	push	edx
	call	?UnpackageHTMLFragment@CClipboard@@SAAAV?$CStringT@_WV?$StrTraitMFC_DLL@_WV?$ChTraitsCRT@_W@ATL@@@@@ATL@@AAV23@0@Z ; CClipboard::UnpackageHTMLFragment
	add	esp, 8

; 494  : 		cb.Close();

	lea	ecx, DWORD PTR _cb$[ebp]
	call	?Close@CClipboard@@QAEHXZ		; CClipboard::Close

; 495  : 		
; 496  : 		if (!sHtml.IsEmpty())

	mov	esi, esp
	mov	ecx, DWORD PTR _sHtml$[ebp]
	call	DWORD PTR __imp_?IsEmpty@?$CSimpleStringT@_W$00@ATL@@QBE_NXZ
	cmp	esi, esp
	call	__RTC_CheckEsp
	movzx	eax, al
	test	eax, eax
	jne	SHORT $LN2@GetClipboa

; 497  : 		{
; 498  : #ifdef _UNICODE
; 499  : 			// convert back to Ansi for translation
; 500  : 			Misc::EncodeAsMultiByte(sHtml);

	push	0
	mov	ecx, DWORD PTR _sHtml$[ebp]
	push	ecx
	call	?EncodeAsMultiByte@Misc@@YAAAV?$CStringT@_WV?$StrTraitMFC_DLL@_WV?$ChTraitsCRT@_W@ATL@@@@@ATL@@AAV23@I@Z ; Misc::EncodeAsMultiByte
	add	esp, 8

; 501  : #endif
; 502  : 			return TRUE;

	mov	DWORD PTR $T187482[ebp], 1
	mov	DWORD PTR __$EHRec$[ebp+8], -1
	lea	ecx, DWORD PTR _cb$[ebp]
	call	??1CClipboard@@QAE@XZ			; CClipboard::~CClipboard
	mov	eax, DWORD PTR $T187482[ebp]
	jmp	SHORT $LN3@GetClipboa
$LN2@GetClipboa:

; 503  : 		}
; 504  : 	}
; 505  : 
; 506  : 	// all else
; 507  : 	return FALSE;

	mov	DWORD PTR $T187483[ebp], 0
	mov	DWORD PTR __$EHRec$[ebp+8], -1
	lea	ecx, DWORD PTR _cb$[ebp]
	call	??1CClipboard@@QAE@XZ			; CClipboard::~CClipboard
	mov	eax, DWORD PTR $T187483[ebp]
$LN3@GetClipboa:

; 508  : }

	push	edx
	mov	ecx, ebp
	push	eax
	lea	edx, DWORD PTR $LN9@GetClipboa
	call	@_RTC_CheckStackVars@8
	pop	eax
	pop	edx
	mov	ecx, DWORD PTR __$EHRec$[ebp]
	mov	DWORD PTR fs:0, ecx
	pop	ecx
	pop	esi
	add	esp, 36					; 00000024H
	cmp	ebp, esp
	call	__RTC_CheckEsp
	mov	esp, ebp
	pop	ebp
	ret	0
	npad	1
$LN9@GetClipboa:
	DD	1
	DD	$LN8@GetClipboa
$LN8@GetClipboa:
	DD	-24					; ffffffe8H
	DD	8
	DD	$LN6@GetClipboa
$LN6@GetClipboa:
	DB	99					; 00000063H
	DB	98					; 00000062H
	DB	0
_TEXT	ENDS
;	COMDAT text$x
text$x	SEGMENT
__unwindfunclet$?GetClipboardHtmlForPasting@CRTFContentControl@@KAHAAV?$CStringT@_WV?$StrTraitMFC_DLL@_WV?$ChTraitsCRT@_W@ATL@@@@@ATL@@0@Z$0:
	lea	ecx, DWORD PTR _cb$[ebp]
	jmp	??1CClipboard@@QAE@XZ			; CClipboard::~CClipboard
__ehhandler$?GetClipboardHtmlForPasting@CRTFContentControl@@KAHAAV?$CStringT@_WV?$StrTraitMFC_DLL@_WV?$ChTraitsCRT@_W@ATL@@@@@ATL@@0@Z:
	mov	edx, DWORD PTR [esp+8]
	lea	eax, DWORD PTR [edx+12]
	mov	ecx, DWORD PTR [edx-32]
	xor	ecx, eax
	call	@__security_check_cookie@4
	mov	eax, OFFSET __ehfuncinfo$?GetClipboardHtmlForPasting@CRTFContentControl@@KAHAAV?$CStringT@_WV?$StrTraitMFC_DLL@_WV?$ChTraitsCRT@_W@ATL@@@@@ATL@@0@Z
	jmp	___CxxFrameHandler3
text$x	ENDS
?GetClipboardHtmlForPasting@CRTFContentControl@@KAHAAV?$CStringT@_WV?$StrTraitMFC_DLL@_WV?$ChTraitsCRT@_W@ATL@@@@@ATL@@0@Z ENDP ; CRTFContentControl::GetClipboardHtmlForPasting
PUBLIC	?GetMakeLinkOptionDefault@CCreateFileLinkDlg@@QBEHXZ ; CCreateFileLinkDlg::GetMakeLinkOptionDefault
PUBLIC	?GetLinkOption@CCreateFileLinkDlg@@QBE?AW4RE_PASTE@@XZ ; CCreateFileLinkDlg::GetLinkOption
PUBLIC	??1CCreateFileLinkDlg@@UAE@XZ			; CCreateFileLinkDlg::~CCreateFileLinkDlg
PUBLIC	?Paste@CRTFContentControl@@IAEHH@Z		; CRTFContentControl::Paste
EXTRN	?SetFileLinkOption@CRulerRichEdit@@QAEXW4RE_PASTE@@H@Z:PROC ; CRulerRichEdit::SetFileLinkOption
EXTRN	?DoModal@CDialog@@UAEHXZ:PROC			; CDialog::DoModal
EXTRN	??0CCreateFileLinkDlg@@QAE@PB_WW4RE_PASTE@@HPAVCWnd@@@Z:PROC ; CCreateFileLinkDlg::CCreateFileLinkDlg
EXTRN	??ACStringArray@@QAEAAV?$CStringT@_WV?$StrTraitMFC_DLL@_WV?$ChTraitsCRT@_W@ATL@@@@@ATL@@H@Z:PROC ; CStringArray::operator[]
EXTRN	?PasteFiles@CRichEditHelper@@SAHPAUHWND__@@ABVCStringArray@@W4RE_PASTE@@@Z:PROC ; CRichEditHelper::PasteFiles
EXTRN	??1CClipboardBackup@@QAE@XZ:PROC		; CClipboardBackup::~CClipboardBackup
EXTRN	?Restore@CClipboardBackup@@QAEHXZ:PROC		; CClipboardBackup::Restore
EXTRN	?AppendSourceUrls@CRulerRichEdit@@QAEHPB_W@Z:PROC ; CRulerRichEdit::AppendSourceUrls
EXTRN	?Paste@CUrlRichEditCtrl@@QAEXXZ:PROC		; CUrlRichEditCtrl::Paste
EXTRN	?SetText@CClipboard@@QBEHABV?$CStringT@_WV?$StrTraitMFC_DLL@_WV?$ChTraitsCRT@_W@ATL@@@@@ATL@@I@Z:PROC ; CClipboard::SetText
EXTRN	??0CClipboard@@QAE@PAUHWND__@@@Z:PROC		; CClipboard::CClipboard
EXTRN	?Backup@CClipboardBackup@@QAEHXZ:PROC		; CClipboardBackup::Backup
EXTRN	?ConvertHtmlToRtf@CRtfHtmlConverter@@QAEHPBDPB_WAAV?$CStringT@_WV?$StrTraitMFC_DLL@_WV?$ChTraitsCRT@_W@ATL@@@@@ATL@@1@Z:PROC ; CRtfHtmlConverter::ConvertHtmlToRtf
EXTRN	??0CClipboardBackup@@QAE@PAUHWND__@@@Z:PROC	; CClipboardBackup::CClipboardBackup
EXTRN	?PasteSimpleText@CUrlRichEditCtrl@@QAEHXZ:PROC	; CUrlRichEditCtrl::PasteSimpleText
EXTRN	??1CStringArray@@UAE@XZ:PROC			; CStringArray::~CStringArray
EXTRN	?AfxMessageBox@@YGHIII@Z:PROC			; AfxMessageBox
EXTRN	?GetDropFilePaths@CClipboard@@QBEHAAVCStringArray@@@Z:PROC ; CClipboard::GetDropFilePaths
EXTRN	??0CStringArray@@QAE@XZ:PROC			; CStringArray::CStringArray
;	COMDAT xdata$x
xdata$x	SEGMENT
__ehfuncinfo$?Paste@CRTFContentControl@@IAEHH@Z DD 019930522H
	DD	08H
	DD	FLAT:__unwindtable$?Paste@CRTFContentControl@@IAEHH@Z
	DD	2 DUP(00H)
	DD	2 DUP(00H)
	DD	00H
	DD	01H
__unwindtable$?Paste@CRTFContentControl@@IAEHH@Z DD 0ffffffffH
	DD	FLAT:__unwindfunclet$?Paste@CRTFContentControl@@IAEHH@Z$0
	DD	00H
	DD	FLAT:__unwindfunclet$?Paste@CRTFContentControl@@IAEHH@Z$1
	DD	00H
	DD	FLAT:__unwindfunclet$?Paste@CRTFContentControl@@IAEHH@Z$2
	DD	02H
	DD	FLAT:__unwindfunclet$?Paste@CRTFContentControl@@IAEHH@Z$3
	DD	03H
	DD	FLAT:__unwindfunclet$?Paste@CRTFContentControl@@IAEHH@Z$4
	DD	04H
	DD	FLAT:__unwindfunclet$?Paste@CRTFContentControl@@IAEHH@Z$5
	DD	05H
	DD	FLAT:__unwindfunclet$?Paste@CRTFContentControl@@IAEHH@Z$6
	DD	00H
	DD	FLAT:__unwindfunclet$?Paste@CRTFContentControl@@IAEHH@Z$7
; Function compile flags: /Odtp /RTCsu
xdata$x	ENDS
;	COMDAT ?Paste@CRTFContentControl@@IAEHH@Z
_TEXT	SEGMENT
tv321 = -364						; size = 4
tv330 = -360						; size = 4
tv74 = -356						; size = 4
tv314 = -352						; size = 4
tv65 = -348						; size = 4
$T187504 = -344						; size = 4
$T187503 = -340						; size = 4
$T187502 = -336						; size = 4
$T187501 = -332						; size = 4
$T187499 = -328						; size = 8
$T187497 = -320						; size = 4
$T187496 = -316						; size = 8
_bDefault$180844 = -308					; size = 4
_nLinkOption$180843 = -304				; size = 4
_dialog$180840 = -296					; size = 160
_sRTF$180825 = -128					; size = 4
_sSourceUrl$180823 = -116				; size = 4
_sHtml$180822 = -104					; size = 4
_bClipboardSaved$180821 = -96				; size = 4
_cbb$180820 = -88					; size = 36
_nNumFiles$ = -48					; size = 4
_aFiles$ = -40						; size = 20
_this$ = -16						; size = 4
__$EHRec$ = -12						; size = 12
_bSimple$ = 8						; size = 4
?Paste@CRTFContentControl@@IAEHH@Z PROC			; CRTFContentControl::Paste, COMDAT
; _this$ = ecx

; 511  : {

	push	ebp
	mov	ebp, esp
	push	-1
	push	__ehhandler$?Paste@CRTFContentControl@@IAEHH@Z
	mov	eax, DWORD PTR fs:0
	push	eax
	sub	esp, 352				; 00000160H
	push	esi
	push	edi
	push	ecx
	lea	edi, DWORD PTR [ebp-364]
	mov	ecx, 88					; 00000058H
	mov	eax, -858993460				; ccccccccH
	rep stosd
	pop	ecx
	mov	eax, DWORD PTR ___security_cookie
	xor	eax, ebp
	push	eax
	lea	eax, DWORD PTR __$EHRec$[ebp]
	mov	DWORD PTR fs:0, eax
	mov	DWORD PTR _this$[ebp], ecx

; 512  : 	CStringArray aFiles;

	lea	ecx, DWORD PTR _aFiles$[ebp]
	call	??0CStringArray@@QAE@XZ			; CStringArray::CStringArray
	mov	DWORD PTR __$EHRec$[ebp+8], 0

; 513  : 	int nNumFiles = CClipboard().GetDropFilePaths(aFiles);

	lea	eax, DWORD PTR _aFiles$[ebp]
	push	eax
	lea	ecx, DWORD PTR $T187496[ebp]
	call	??0CClipboard@@QAE@XZ			; CClipboard::CClipboard
	mov	DWORD PTR tv65[ebp], eax
	mov	ecx, DWORD PTR tv65[ebp]
	mov	DWORD PTR tv314[ebp], ecx
	mov	BYTE PTR __$EHRec$[ebp+8], 1
	mov	ecx, DWORD PTR tv314[ebp]
	call	?GetDropFilePaths@CClipboard@@QBEHAAVCStringArray@@@Z ; CClipboard::GetDropFilePaths
	mov	DWORD PTR _nNumFiles$[ebp], eax
	mov	BYTE PTR __$EHRec$[ebp+8], 0
	lea	ecx, DWORD PTR $T187496[ebp]
	call	??1CClipboard@@QAE@XZ			; CClipboard::~CClipboard

; 514  : 	
; 515  : 	switch (nNumFiles)

	mov	edx, DWORD PTR _nNumFiles$[ebp]
	mov	DWORD PTR tv74[ebp], edx
	cmp	DWORD PTR tv74[ebp], -1
	je	SHORT $LN13@Paste
	cmp	DWORD PTR tv74[ebp], 0
	je	SHORT $LN12@Paste
	jmp	$LN5@Paste
$LN13@Paste:

; 516  : 	{
; 517  : 	case -1:
; 518  : 		AfxMessageBox(IDS_PASTE_ERROR, MB_OK | MB_ICONERROR);

	push	-1
	push	16					; 00000010H
	push	5006					; 0000138eH
	call	?AfxMessageBox@@YGHIII@Z		; AfxMessageBox

; 519  : 		return FALSE;

	mov	DWORD PTR $T187497[ebp], 0
	mov	DWORD PTR __$EHRec$[ebp+8], -1
	lea	ecx, DWORD PTR _aFiles$[ebp]
	call	??1CStringArray@@UAE@XZ			; CStringArray::~CStringArray
	mov	eax, DWORD PTR $T187497[ebp]
	jmp	$LN16@Paste
$LN12@Paste:

; 520  : 		
; 521  : 	case 0:
; 522  : 		if (bSimple)

	cmp	DWORD PTR _bSimple$[ebp], 0
	je	SHORT $LN11@Paste

; 523  : 		{
; 524  : 			m_rtf.PasteSimpleText();

	mov	ecx, DWORD PTR _this$[ebp]
	add	ecx, 304				; 00000130H
	call	?PasteSimpleText@CUrlRichEditCtrl@@QAEHXZ ; CUrlRichEditCtrl::PasteSimpleText

; 525  : 		}
; 526  : 		else // may need conversion

	jmp	$LN10@Paste
$LN11@Paste:

; 527  : 		{
; 528  : 			// if there is HTML but not RTF then convert the HTML to RTF
; 529  : 			// and add it to the current clipboard contents
; 530  : 			CClipboardBackup cbb(*this);

	mov	ecx, DWORD PTR _this$[ebp]
	call	??BCWnd@@QBEPAUHWND__@@XZ		; CWnd::operator HWND__ *
	push	eax
	lea	ecx, DWORD PTR _cbb$180820[ebp]
	call	??0CClipboardBackup@@QAE@PAUHWND__@@@Z	; CClipboardBackup::CClipboardBackup
	mov	BYTE PTR __$EHRec$[ebp+8], 2

; 531  : 			BOOL bClipboardSaved = FALSE;

	mov	DWORD PTR _bClipboardSaved$180821[ebp], 0

; 532  : 
; 533  : 			CString sHtml, sSourceUrl;

	mov	esi, esp
	lea	ecx, DWORD PTR _sHtml$180822[ebp]
	call	DWORD PTR __imp_??0?$CStringT@_WV?$StrTraitMFC_DLL@_WV?$ChTraitsCRT@_W@ATL@@@@@ATL@@QAE@XZ
	cmp	esi, esp
	call	__RTC_CheckEsp
	mov	BYTE PTR __$EHRec$[ebp+8], 3
	mov	esi, esp
	lea	ecx, DWORD PTR _sSourceUrl$180823[ebp]
	call	DWORD PTR __imp_??0?$CStringT@_WV?$StrTraitMFC_DLL@_WV?$ChTraitsCRT@_W@ATL@@@@@ATL@@QAE@XZ
	cmp	esi, esp
	call	__RTC_CheckEsp
	mov	BYTE PTR __$EHRec$[ebp+8], 4

; 534  : 			
; 535  : 			if (GetClipboardHtmlForPasting(sHtml, sSourceUrl))

	lea	eax, DWORD PTR _sSourceUrl$180823[ebp]
	push	eax
	lea	ecx, DWORD PTR _sHtml$180822[ebp]
	push	ecx
	call	?GetClipboardHtmlForPasting@CRTFContentControl@@KAHAAV?$CStringT@_WV?$StrTraitMFC_DLL@_WV?$ChTraitsCRT@_W@ATL@@@@@ATL@@0@Z ; CRTFContentControl::GetClipboardHtmlForPasting
	add	esp, 8
	test	eax, eax
	je	$LN9@Paste

; 536  : 			{
; 537  : 				CString sRTF;

	mov	esi, esp
	lea	ecx, DWORD PTR _sRTF$180825[ebp]
	call	DWORD PTR __imp_??0?$CStringT@_WV?$StrTraitMFC_DLL@_WV?$ChTraitsCRT@_W@ATL@@@@@ATL@@QAE@XZ
	cmp	esi, esp
	call	__RTC_CheckEsp
	mov	BYTE PTR __$EHRec$[ebp+8], 5

; 538  : 				
; 539  : 				if (m_rtfHtml.ConvertHtmlToRtf((LPCSTR)(LPCTSTR)sHtml, NULL, sRTF, NULL))

	push	0
	lea	edx, DWORD PTR _sRTF$180825[ebp]
	push	edx
	push	0
	mov	esi, esp
	lea	ecx, DWORD PTR _sHtml$180822[ebp]
	call	DWORD PTR __imp_??B?$CSimpleStringT@_W$00@ATL@@QBEPB_WXZ
	cmp	esi, esp
	call	__RTC_CheckEsp
	push	eax
	mov	eax, DWORD PTR _this$[ebp]
	mov	ecx, DWORD PTR [eax+1908]
	call	?ConvertHtmlToRtf@CRtfHtmlConverter@@QAEHPBDPB_WAAV?$CStringT@_WV?$StrTraitMFC_DLL@_WV?$ChTraitsCRT@_W@ATL@@@@@ATL@@1@Z ; CRtfHtmlConverter::ConvertHtmlToRtf
	test	eax, eax
	je	$LN8@Paste

; 540  : 				{
; 541  : #ifdef _UNICODE
; 542  : 					// convert back to Ansi (not UTF8) for clipboard
; 543  : 					Misc::EncodeAsMultiByte(sRTF);

	push	0
	lea	ecx, DWORD PTR _sRTF$180825[ebp]
	push	ecx
	call	?EncodeAsMultiByte@Misc@@YAAAV?$CStringT@_WV?$StrTraitMFC_DLL@_WV?$ChTraitsCRT@_W@ATL@@@@@ATL@@AAV23@I@Z ; Misc::EncodeAsMultiByte
	add	esp, 8

; 544  : #endif
; 545  : 					// backup the current clipboard
; 546  : 					bClipboardSaved = cbb.Backup();

	lea	ecx, DWORD PTR _cbb$180820[ebp]
	call	?Backup@CClipboardBackup@@QAEHXZ	; CClipboardBackup::Backup
	mov	DWORD PTR _bClipboardSaved$180821[ebp], eax

; 547  : 					ASSERT(bClipboardSaved);

	cmp	DWORD PTR _bClipboardSaved$180821[ebp], 0
	jne	SHORT $LN18@Paste
	push	547					; 00000223H
	push	OFFSET _THIS_FILE
	call	?AfxAssertFailedLine@@YGHPBDH@Z		; AfxAssertFailedLine
	test	eax, eax
	je	SHORT $LN18@Paste
	int	3
$LN18@Paste:

; 548  : 					
; 549  : 					// overwrite with RTF
; 550  : 					CClipboard(*this).SetText(sRTF, CBF_RTF);

	mov	eax, DWORD PTR _CBF_RTF
	push	eax
	lea	ecx, DWORD PTR _sRTF$180825[ebp]
	push	ecx
	mov	ecx, DWORD PTR _this$[ebp]
	call	??BCWnd@@QBEPAUHWND__@@XZ		; CWnd::operator HWND__ *
	push	eax
	lea	ecx, DWORD PTR $T187499[ebp]
	call	??0CClipboard@@QAE@PAUHWND__@@@Z	; CClipboard::CClipboard
	mov	DWORD PTR tv330[ebp], eax
	mov	edx, DWORD PTR tv330[ebp]
	mov	DWORD PTR tv321[ebp], edx
	mov	BYTE PTR __$EHRec$[ebp+8], 6
	mov	ecx, DWORD PTR tv321[ebp]
	call	?SetText@CClipboard@@QBEHABV?$CStringT@_WV?$StrTraitMFC_DLL@_WV?$ChTraitsCRT@_W@ATL@@@@@ATL@@I@Z ; CClipboard::SetText
	mov	BYTE PTR __$EHRec$[ebp+8], 5
	lea	ecx, DWORD PTR $T187499[ebp]
	call	??1CClipboard@@QAE@XZ			; CClipboard::~CClipboard
$LN8@Paste:

; 551  : 				}
; 552  : 			}

	mov	BYTE PTR __$EHRec$[ebp+8], 4
	mov	esi, esp
	lea	ecx, DWORD PTR _sRTF$180825[ebp]
	call	DWORD PTR __imp_??1?$CStringT@_WV?$StrTraitMFC_DLL@_WV?$ChTraitsCRT@_W@ATL@@@@@ATL@@QAE@XZ
	cmp	esi, esp
	call	__RTC_CheckEsp
$LN9@Paste:

; 553  : 
; 554  : 			// do the actual paste
; 555  : 			m_rtf.Paste();

	mov	ecx, DWORD PTR _this$[ebp]
	add	ecx, 304				; 00000130H
	call	?Paste@CUrlRichEditCtrl@@QAEXXZ		; CUrlRichEditCtrl::Paste

; 556  : 
; 557  : 			// In the case where we overwrote the clipboard
; 558  : 			// we also need handle any source Url 
; 559  : 			if (!sSourceUrl.IsEmpty())

	mov	esi, esp
	lea	ecx, DWORD PTR _sSourceUrl$180823[ebp]
	call	DWORD PTR __imp_?IsEmpty@?$CSimpleStringT@_W$00@ATL@@QBE_NXZ
	cmp	esi, esp
	call	__RTC_CheckEsp
	movzx	eax, al
	test	eax, eax
	jne	SHORT $LN7@Paste

; 560  : 				m_rtf.AppendSourceUrls(sSourceUrl);

	mov	esi, esp
	lea	ecx, DWORD PTR _sSourceUrl$180823[ebp]
	call	DWORD PTR __imp_??B?$CSimpleStringT@_W$00@ATL@@QBEPB_WXZ
	cmp	esi, esp
	call	__RTC_CheckEsp
	push	eax
	mov	ecx, DWORD PTR _this$[ebp]
	add	ecx, 304				; 00000130H
	call	?AppendSourceUrls@CRulerRichEdit@@QAEHPB_W@Z ; CRulerRichEdit::AppendSourceUrls
$LN7@Paste:

; 561  : 			
; 562  : 			// restore the clipboard
; 563  : 			if (bClipboardSaved)

	cmp	DWORD PTR _bClipboardSaved$180821[ebp], 0
	je	SHORT $LN6@Paste

; 564  : 				VERIFY(cbb.Restore());

	lea	ecx, DWORD PTR _cbb$180820[ebp]
	call	?Restore@CClipboardBackup@@QAEHXZ	; CClipboardBackup::Restore
	test	eax, eax
	jne	SHORT $LN6@Paste
	push	564					; 00000234H
	push	OFFSET _THIS_FILE
	call	?AfxAssertFailedLine@@YGHPBDH@Z		; AfxAssertFailedLine
	test	eax, eax
	je	SHORT $LN6@Paste
	int	3
$LN6@Paste:

; 565  : 		}

	mov	BYTE PTR __$EHRec$[ebp+8], 3
	mov	esi, esp
	lea	ecx, DWORD PTR _sSourceUrl$180823[ebp]
	call	DWORD PTR __imp_??1?$CStringT@_WV?$StrTraitMFC_DLL@_WV?$ChTraitsCRT@_W@ATL@@@@@ATL@@QAE@XZ
	cmp	esi, esp
	call	__RTC_CheckEsp
	mov	BYTE PTR __$EHRec$[ebp+8], 2
	mov	esi, esp
	lea	ecx, DWORD PTR _sHtml$180822[ebp]
	call	DWORD PTR __imp_??1?$CStringT@_WV?$StrTraitMFC_DLL@_WV?$ChTraitsCRT@_W@ATL@@@@@ATL@@QAE@XZ
	cmp	esi, esp
	call	__RTC_CheckEsp
	mov	BYTE PTR __$EHRec$[ebp+8], 0
	lea	ecx, DWORD PTR _cbb$180820[ebp]
	call	??1CClipboardBackup@@QAE@XZ		; CClipboardBackup::~CClipboardBackup
$LN10@Paste:

; 566  : 		return TRUE;

	mov	DWORD PTR $T187501[ebp], 1
	mov	DWORD PTR __$EHRec$[ebp+8], -1
	lea	ecx, DWORD PTR _aFiles$[ebp]
	call	??1CStringArray@@UAE@XZ			; CStringArray::~CStringArray
	mov	eax, DWORD PTR $T187501[ebp]
	jmp	$LN16@Paste
$LN5@Paste:

; 567  : 		
; 568  : 	default: // 1 or more filenames 
; 569  : 		if (bSimple)

	cmp	DWORD PTR _bSimple$[ebp], 0
	je	SHORT $LN4@Paste

; 570  : 		{
; 571  : 			return CRichEditHelper::PasteFiles(m_rtf, aFiles, REP_ASFILEURL);

	push	0
	lea	edx, DWORD PTR _aFiles$[ebp]
	push	edx
	mov	ecx, DWORD PTR _this$[ebp]
	add	ecx, 304				; 00000130H
	call	??BCWnd@@QBEPAUHWND__@@XZ		; CWnd::operator HWND__ *
	push	eax
	call	?PasteFiles@CRichEditHelper@@SAHPAUHWND__@@ABVCStringArray@@W4RE_PASTE@@@Z ; CRichEditHelper::PasteFiles
	add	esp, 12					; 0000000cH
	mov	DWORD PTR $T187502[ebp], eax
	mov	DWORD PTR __$EHRec$[ebp+8], -1
	lea	ecx, DWORD PTR _aFiles$[ebp]
	call	??1CStringArray@@UAE@XZ			; CStringArray::~CStringArray
	mov	eax, DWORD PTR $T187502[ebp]
	jmp	$LN16@Paste

; 572  : 		}
; 573  : 		else

	jmp	$LN14@Paste
$LN4@Paste:

; 574  : 		{
; 575  : 			if (!m_rtf.IsFileLinkOptionDefault())

	mov	ecx, DWORD PTR _this$[ebp]
	add	ecx, 304				; 00000130H
	call	?IsFileLinkOptionDefault@CRulerRichEdit@@QBEHXZ ; CRulerRichEdit::IsFileLinkOptionDefault
	test	eax, eax
	jne	$LN2@Paste

; 576  : 			{
; 577  : 				CCreateFileLinkDlg dialog(aFiles[0], m_rtf.GetFileLinkOption(), FALSE);

	push	0
	push	0
	mov	ecx, DWORD PTR _this$[ebp]
	add	ecx, 304				; 00000130H
	call	?GetFileLinkOption@CRulerRichEdit@@QBE?AW4RE_PASTE@@XZ ; CRulerRichEdit::GetFileLinkOption
	push	eax
	push	0
	lea	ecx, DWORD PTR _aFiles$[ebp]
	call	??ACStringArray@@QAEAAV?$CStringT@_WV?$StrTraitMFC_DLL@_WV?$ChTraitsCRT@_W@ATL@@@@@ATL@@H@Z ; CStringArray::operator[]
	mov	esi, esp
	mov	ecx, eax
	call	DWORD PTR __imp_??B?$CSimpleStringT@_W$00@ATL@@QBEPB_WXZ
	cmp	esi, esp
	call	__RTC_CheckEsp
	push	eax
	lea	ecx, DWORD PTR _dialog$180840[ebp]
	call	??0CCreateFileLinkDlg@@QAE@PB_WW4RE_PASTE@@HPAVCWnd@@@Z ; CCreateFileLinkDlg::CCreateFileLinkDlg
	mov	BYTE PTR __$EHRec$[ebp+8], 7

; 578  : 				
; 579  : 				if (dialog.DoModal() != IDOK)

	lea	ecx, DWORD PTR _dialog$180840[ebp]
	call	?DoModal@CDialog@@UAEHXZ		; CDialog::DoModal
	cmp	eax, 1
	je	SHORT $LN1@Paste

; 580  : 					return FALSE; // cancelled

	mov	DWORD PTR $T187503[ebp], 0
	mov	BYTE PTR __$EHRec$[ebp+8], 0
	lea	ecx, DWORD PTR _dialog$180840[ebp]
	call	??1CCreateFileLinkDlg@@UAE@XZ
	mov	DWORD PTR __$EHRec$[ebp+8], -1
	lea	ecx, DWORD PTR _aFiles$[ebp]
	call	??1CStringArray@@UAE@XZ			; CStringArray::~CStringArray
	mov	eax, DWORD PTR $T187503[ebp]
	jmp	$LN16@Paste
$LN1@Paste:

; 581  : 
; 582  : 				// else
; 583  : 				RE_PASTE nLinkOption = dialog.GetLinkOption();

	lea	ecx, DWORD PTR _dialog$180840[ebp]
	call	?GetLinkOption@CCreateFileLinkDlg@@QBE?AW4RE_PASTE@@XZ ; CCreateFileLinkDlg::GetLinkOption
	mov	DWORD PTR _nLinkOption$180843[ebp], eax

; 584  : 				BOOL bDefault = dialog.GetMakeLinkOptionDefault();

	lea	ecx, DWORD PTR _dialog$180840[ebp]
	call	?GetMakeLinkOptionDefault@CCreateFileLinkDlg@@QBEHXZ ; CCreateFileLinkDlg::GetMakeLinkOptionDefault
	mov	DWORD PTR _bDefault$180844[ebp], eax

; 585  : 					
; 586  : 				m_rtf.SetFileLinkOption(nLinkOption, bDefault);

	mov	eax, DWORD PTR _bDefault$180844[ebp]
	push	eax
	mov	ecx, DWORD PTR _nLinkOption$180843[ebp]
	push	ecx
	mov	ecx, DWORD PTR _this$[ebp]
	add	ecx, 304				; 00000130H
	call	?SetFileLinkOption@CRulerRichEdit@@QAEXW4RE_PASTE@@H@Z ; CRulerRichEdit::SetFileLinkOption

; 587  : 			}

	mov	BYTE PTR __$EHRec$[ebp+8], 0
	lea	ecx, DWORD PTR _dialog$180840[ebp]
	call	??1CCreateFileLinkDlg@@UAE@XZ
$LN2@Paste:

; 588  : 			
; 589  : 			return CRichEditHelper::PasteFiles(m_rtf, aFiles, m_rtf.GetFileLinkOption());

	mov	ecx, DWORD PTR _this$[ebp]
	add	ecx, 304				; 00000130H
	call	?GetFileLinkOption@CRulerRichEdit@@QBE?AW4RE_PASTE@@XZ ; CRulerRichEdit::GetFileLinkOption
	push	eax
	lea	edx, DWORD PTR _aFiles$[ebp]
	push	edx
	mov	ecx, DWORD PTR _this$[ebp]
	add	ecx, 304				; 00000130H
	call	??BCWnd@@QBEPAUHWND__@@XZ		; CWnd::operator HWND__ *
	push	eax
	call	?PasteFiles@CRichEditHelper@@SAHPAUHWND__@@ABVCStringArray@@W4RE_PASTE@@@Z ; CRichEditHelper::PasteFiles
	add	esp, 12					; 0000000cH
	mov	DWORD PTR $T187504[ebp], eax
	mov	DWORD PTR __$EHRec$[ebp+8], -1
	lea	ecx, DWORD PTR _aFiles$[ebp]
	call	??1CStringArray@@UAE@XZ			; CStringArray::~CStringArray
	mov	eax, DWORD PTR $T187504[ebp]
	jmp	SHORT $LN16@Paste
$LN14@Paste:

; 590  : 		}
; 591  : 	}
; 592  : }

	mov	DWORD PTR __$EHRec$[ebp+8], -1
	lea	ecx, DWORD PTR _aFiles$[ebp]
	call	??1CStringArray@@UAE@XZ			; CStringArray::~CStringArray
$LN16@Paste:
	push	edx
	mov	ecx, ebp
	push	eax
	lea	edx, DWORD PTR $LN36@Paste
	call	@_RTC_CheckStackVars@8
	pop	eax
	pop	edx
	mov	ecx, DWORD PTR __$EHRec$[ebp]
	mov	DWORD PTR fs:0, ecx
	pop	ecx
	pop	edi
	pop	esi
	add	esp, 364				; 0000016cH
	cmp	ebp, esp
	call	__RTC_CheckEsp
	mov	esp, ebp
	pop	ebp
	ret	4
$LN36@Paste:
	DD	6
	DD	$LN35@Paste
$LN35@Paste:
	DD	-40					; ffffffd8H
	DD	20					; 00000014H
	DD	$LN28@Paste
	DD	-88					; ffffffa8H
	DD	36					; 00000024H
	DD	$LN29@Paste
	DD	-104					; ffffff98H
	DD	4
	DD	$LN30@Paste
	DD	-116					; ffffff8cH
	DD	4
	DD	$LN31@Paste
	DD	-128					; ffffff80H
	DD	4
	DD	$LN32@Paste
	DD	-296					; fffffed8H
	DD	160					; 000000a0H
	DD	$LN33@Paste
$LN33@Paste:
	DB	100					; 00000064H
	DB	105					; 00000069H
	DB	97					; 00000061H
	DB	108					; 0000006cH
	DB	111					; 0000006fH
	DB	103					; 00000067H
	DB	0
$LN32@Paste:
	DB	115					; 00000073H
	DB	82					; 00000052H
	DB	84					; 00000054H
	DB	70					; 00000046H
	DB	0
$LN31@Paste:
	DB	115					; 00000073H
	DB	83					; 00000053H
	DB	111					; 0000006fH
	DB	117					; 00000075H
	DB	114					; 00000072H
	DB	99					; 00000063H
	DB	101					; 00000065H
	DB	85					; 00000055H
	DB	114					; 00000072H
	DB	108					; 0000006cH
	DB	0
$LN30@Paste:
	DB	115					; 00000073H
	DB	72					; 00000048H
	DB	116					; 00000074H
	DB	109					; 0000006dH
	DB	108					; 0000006cH
	DB	0
$LN29@Paste:
	DB	99					; 00000063H
	DB	98					; 00000062H
	DB	98					; 00000062H
	DB	0
$LN28@Paste:
	DB	97					; 00000061H
	DB	70					; 00000046H
	DB	105					; 00000069H
	DB	108					; 0000006cH
	DB	101					; 00000065H
	DB	115					; 00000073H
	DB	0
_TEXT	ENDS
;	COMDAT text$x
text$x	SEGMENT
__unwindfunclet$?Paste@CRTFContentControl@@IAEHH@Z$0:
	lea	ecx, DWORD PTR _aFiles$[ebp]
	jmp	??1CStringArray@@UAE@XZ			; CStringArray::~CStringArray
__unwindfunclet$?Paste@CRTFContentControl@@IAEHH@Z$1:
	lea	ecx, DWORD PTR $T187496[ebp]
	jmp	??1CClipboard@@QAE@XZ			; CClipboard::~CClipboard
__unwindfunclet$?Paste@CRTFContentControl@@IAEHH@Z$2:
	lea	ecx, DWORD PTR _cbb$180820[ebp]
	jmp	??1CClipboardBackup@@QAE@XZ		; CClipboardBackup::~CClipboardBackup
__unwindfunclet$?Paste@CRTFContentControl@@IAEHH@Z$3:
	mov	esi, esp
	lea	ecx, DWORD PTR _sHtml$180822[ebp]
	call	DWORD PTR __imp_??1?$CStringT@_WV?$StrTraitMFC_DLL@_WV?$ChTraitsCRT@_W@ATL@@@@@ATL@@QAE@XZ
	cmp	esi, esp
	jmp	__RTC_CheckEsp
__unwindfunclet$?Paste@CRTFContentControl@@IAEHH@Z$4:
	mov	esi, esp
	lea	ecx, DWORD PTR _sSourceUrl$180823[ebp]
	call	DWORD PTR __imp_??1?$CStringT@_WV?$StrTraitMFC_DLL@_WV?$ChTraitsCRT@_W@ATL@@@@@ATL@@QAE@XZ
	cmp	esi, esp
	jmp	__RTC_CheckEsp
__unwindfunclet$?Paste@CRTFContentControl@@IAEHH@Z$5:
	mov	esi, esp
	lea	ecx, DWORD PTR _sRTF$180825[ebp]
	call	DWORD PTR __imp_??1?$CStringT@_WV?$StrTraitMFC_DLL@_WV?$ChTraitsCRT@_W@ATL@@@@@ATL@@QAE@XZ
	cmp	esi, esp
	jmp	__RTC_CheckEsp
__unwindfunclet$?Paste@CRTFContentControl@@IAEHH@Z$6:
	lea	ecx, DWORD PTR $T187499[ebp]
	jmp	??1CClipboard@@QAE@XZ			; CClipboard::~CClipboard
__unwindfunclet$?Paste@CRTFContentControl@@IAEHH@Z$7:
	lea	ecx, DWORD PTR _dialog$180840[ebp]
	jmp	??1CCreateFileLinkDlg@@UAE@XZ
__ehhandler$?Paste@CRTFContentControl@@IAEHH@Z:
	mov	edx, DWORD PTR [esp+8]
	lea	eax, DWORD PTR [edx+12]
	mov	ecx, DWORD PTR [edx-364]
	xor	ecx, eax
	call	@__security_check_cookie@4
	mov	eax, OFFSET __ehfuncinfo$?Paste@CRTFContentControl@@IAEHH@Z
	jmp	___CxxFrameHandler3
text$x	ENDS
?Paste@CRTFContentControl@@IAEHH@Z ENDP			; CRTFContentControl::Paste
; Function compile flags: /Odtp /RTCsu
; File d:\_code\rtfcontentctrl\createfilelinkdlg.h
;	COMDAT ?GetLinkOption@CCreateFileLinkDlg@@QBE?AW4RE_PASTE@@XZ
_TEXT	SEGMENT
_this$ = -4						; size = 4
?GetLinkOption@CCreateFileLinkDlg@@QBE?AW4RE_PASTE@@XZ PROC ; CCreateFileLinkDlg::GetLinkOption, COMDAT
; _this$ = ecx

; 21   : 	RE_PASTE GetLinkOption() const { return (RE_PASTE)m_nLinkOption; }

	push	ebp
	mov	ebp, esp
	push	ecx
	mov	DWORD PTR [ebp-4], -858993460		; ccccccccH
	mov	DWORD PTR _this$[ebp], ecx
	mov	eax, DWORD PTR _this$[ebp]
	mov	eax, DWORD PTR [eax+152]
	mov	esp, ebp
	pop	ebp
	ret	0
?GetLinkOption@CCreateFileLinkDlg@@QBE?AW4RE_PASTE@@XZ ENDP ; CCreateFileLinkDlg::GetLinkOption
; Function compile flags: /Odtp /RTCsu
_TEXT	ENDS
;	COMDAT ?GetMakeLinkOptionDefault@CCreateFileLinkDlg@@QBEHXZ
_TEXT	SEGMENT
_this$ = -4						; size = 4
?GetMakeLinkOptionDefault@CCreateFileLinkDlg@@QBEHXZ PROC ; CCreateFileLinkDlg::GetMakeLinkOptionDefault, COMDAT
; _this$ = ecx

; 22   : 	BOOL GetMakeLinkOptionDefault() const { return m_bMakeDefault; }

	push	ebp
	mov	ebp, esp
	push	ecx
	mov	DWORD PTR [ebp-4], -858993460		; ccccccccH
	mov	DWORD PTR _this$[ebp], ecx
	mov	eax, DWORD PTR _this$[ebp]
	mov	eax, DWORD PTR [eax+148]
	mov	esp, ebp
	pop	ebp
	ret	0
?GetMakeLinkOptionDefault@CCreateFileLinkDlg@@QBEHXZ ENDP ; CCreateFileLinkDlg::GetMakeLinkOptionDefault
; Function compile flags: /Odtp /RTCsu
_TEXT	ENDS
;	COMDAT ??1CCreateFileLinkDlg@@UAE@XZ
_TEXT	SEGMENT
_this$ = -4						; size = 4
??1CCreateFileLinkDlg@@UAE@XZ PROC			; CCreateFileLinkDlg::~CCreateFileLinkDlg, COMDAT
; _this$ = ecx
	push	ebp
	mov	ebp, esp
	push	ecx
	push	esi
	mov	DWORD PTR [ebp-4], -858993460		; ccccccccH
	mov	DWORD PTR _this$[ebp], ecx
	mov	ecx, DWORD PTR _this$[ebp]
	add	ecx, 156				; 0000009cH
	mov	esi, esp
	call	DWORD PTR __imp_??1?$CStringT@_WV?$StrTraitMFC_DLL@_WV?$ChTraitsCRT@_W@ATL@@@@@ATL@@QAE@XZ
	cmp	esi, esp
	call	__RTC_CheckEsp
	mov	ecx, DWORD PTR _this$[ebp]
	call	??1CDialog@@UAE@XZ			; CDialog::~CDialog
	pop	esi
	add	esp, 4
	cmp	ebp, esp
	call	__RTC_CheckEsp
	mov	esp, ebp
	pop	ebp
	ret	0
??1CCreateFileLinkDlg@@UAE@XZ ENDP			; CCreateFileLinkDlg::~CCreateFileLinkDlg
_TEXT	ENDS
PUBLIC	?CanPaste@CRTFContentControl@@IAEHXZ		; CRTFContentControl::CanPaste
EXTRN	?CanPaste@CRichEditCtrl@@QBEHI@Z:PROC		; CRichEditCtrl::CanPaste
; Function compile flags: /Odtp /RTCsu
; File d:\_code\rtfcontentctrl\rtfcontentcontrol.cpp
;	COMDAT ?CanPaste@CRTFContentControl@@IAEHXZ
_TEXT	SEGMENT
_i$180853 = -12						; size = 4
_bCanPaste$ = -8					; size = 4
_this$ = -4						; size = 4
?CanPaste@CRTFContentControl@@IAEHXZ PROC		; CRTFContentControl::CanPaste, COMDAT
; _this$ = ecx

; 595  : {

	push	ebp
	mov	ebp, esp
	sub	esp, 12					; 0000000cH
	mov	DWORD PTR [ebp-12], -858993460		; ccccccccH
	mov	DWORD PTR [ebp-8], -858993460		; ccccccccH
	mov	DWORD PTR [ebp-4], -858993460		; ccccccccH
	mov	DWORD PTR _this$[ebp], ecx

; 596  : 	// for reasons that I'm not entirely clear on even if we 
; 597  : 	// return that CF_HDROP is okay, the richedit itself will
; 598  : 	// veto the drop. So I'm experimenting with handling this ourselves
; 599  : 	if (CClipboard::HasFormat(CF_HDROP))

	push	15					; 0000000fH
	call	?HasFormat@CClipboard@@SAHI@Z		; CClipboard::HasFormat
	add	esp, 4
	test	eax, eax
	je	SHORT $LN5@CanPaste

; 600  : 		return TRUE;

	mov	eax, 1
	jmp	SHORT $LN6@CanPaste
$LN5@CanPaste:

; 601  : 
; 602  : 	// else try richedit itself
; 603  : 	BOOL bCanPaste = FALSE;

	mov	DWORD PTR _bCanPaste$[ebp], 0

; 604  : 	
; 605  : 	for (int i=0; i < NUM_PASTE_FMTS; i++)

	mov	DWORD PTR _i$180853[ebp], 0
	jmp	SHORT $LN4@CanPaste
$LN3@CanPaste:
	mov	eax, DWORD PTR _i$180853[ebp]
	add	eax, 1
	mov	DWORD PTR _i$180853[ebp], eax
$LN4@CanPaste:
	cmp	DWORD PTR _i$180853[ebp], 8
	jge	SHORT $LN2@CanPaste

; 606  : 		bCanPaste |= m_rtf.CanPaste(PASTE_FMTS[i]);

	mov	ecx, DWORD PTR _i$180853[ebp]
	mov	edx, DWORD PTR _PASTE_FMTS[ecx*4]
	push	edx
	mov	ecx, DWORD PTR _this$[ebp]
	add	ecx, 304				; 00000130H
	call	?CanPaste@CRichEditCtrl@@QBEHI@Z	; CRichEditCtrl::CanPaste
	or	eax, DWORD PTR _bCanPaste$[ebp]
	mov	DWORD PTR _bCanPaste$[ebp], eax
	jmp	SHORT $LN3@CanPaste
$LN2@CanPaste:

; 607  : 
; 608  : 	if (!bCanPaste)

	cmp	DWORD PTR _bCanPaste$[ebp], 0
	jne	SHORT $LN1@CanPaste

; 609  : 		bCanPaste = m_rtf.CanPaste(0);

	push	0
	mov	ecx, DWORD PTR _this$[ebp]
	add	ecx, 304				; 00000130H
	call	?CanPaste@CRichEditCtrl@@QBEHI@Z	; CRichEditCtrl::CanPaste
	mov	DWORD PTR _bCanPaste$[ebp], eax
$LN1@CanPaste:

; 610  : 	
; 611  : 	return bCanPaste;

	mov	eax, DWORD PTR _bCanPaste$[ebp]
$LN6@CanPaste:

; 612  : }

	add	esp, 12					; 0000000cH
	cmp	ebp, esp
	call	__RTC_CheckEsp
	mov	esp, ebp
	pop	ebp
	ret	0
?CanPaste@CRTFContentControl@@IAEHXZ ENDP		; CRTFContentControl::CanPaste
_TEXT	ENDS
EXTRN	?Initialize@CToolbarHelper@@QAEHPAVCToolBar@@PAVCWnd@@PBVCShortcutManager@@@Z:PROC ; CToolbarHelper::Initialize
EXTRN	?EnableInlineSpellChecking@CRichEditBaseCtrl@@QAEHH@Z:PROC ; CRichEditBaseCtrl::EnableInlineSpellChecking
EXTRN	?LimitText@CRichEditCtrl@@QAEXJ@Z:PROC		; CRichEditCtrl::LimitText
EXTRN	?SetEventMask@CRichEditCtrl@@QAEKK@Z:PROC	; CRichEditCtrl::SetEventMask
EXTRN	?GetEventMask@CRichEditCtrl@@QBEJXZ:PROC	; CRichEditCtrl::GetEventMask
EXTRN	?OnCreate@CRulerRichEditCtrl@@IAEHPAUtagCREATESTRUCTW@@@Z:PROC ; CRulerRichEditCtrl::OnCreate
;	COMDAT xdata$x
xdata$x	SEGMENT
__unwindtable$?OnCreate@CRTFContentControl@@IAEHPAUtagCREATESTRUCTW@@@Z DD 0ffffffffH
	DD	FLAT:__unwindfunclet$?OnCreate@CRTFContentControl@@IAEHPAUtagCREATESTRUCTW@@@Z$0
__ehfuncinfo$?OnCreate@CRTFContentControl@@IAEHPAUtagCREATESTRUCTW@@@Z DD 019930522H
	DD	01H
	DD	FLAT:__unwindtable$?OnCreate@CRTFContentControl@@IAEHPAUtagCREATESTRUCTW@@@Z
	DD	2 DUP(00H)
	DD	2 DUP(00H)
	DD	00H
	DD	01H
; Function compile flags: /Odtp /RTCsu
xdata$x	ENDS
;	COMDAT ?OnCreate@CRTFContentControl@@IAEHPAUtagCREATESTRUCTW@@@Z
_TEXT	SEGMENT
$T187540 = -44						; size = 4
$T187539 = -40						; size = 4
_af$ = -32						; size = 12
_this$ = -16						; size = 4
__$EHRec$ = -12						; size = 12
_lpCreateStruct$ = 8					; size = 4
?OnCreate@CRTFContentControl@@IAEHPAUtagCREATESTRUCTW@@@Z PROC ; CRTFContentControl::OnCreate, COMDAT
; _this$ = ecx

; 615  : {

	push	ebp
	mov	ebp, esp
	push	-1
	push	__ehhandler$?OnCreate@CRTFContentControl@@IAEHPAUtagCREATESTRUCTW@@@Z
	mov	eax, DWORD PTR fs:0
	push	eax
	sub	esp, 32					; 00000020H
	mov	eax, -858993460				; ccccccccH
	mov	DWORD PTR [ebp-44], eax
	mov	DWORD PTR [ebp-40], eax
	mov	DWORD PTR [ebp-36], eax
	mov	DWORD PTR [ebp-32], eax
	mov	DWORD PTR [ebp-28], eax
	mov	DWORD PTR [ebp-24], eax
	mov	DWORD PTR [ebp-20], eax
	mov	DWORD PTR [ebp-16], eax
	mov	eax, DWORD PTR ___security_cookie
	xor	eax, ebp
	push	eax
	lea	eax, DWORD PTR __$EHRec$[ebp]
	mov	DWORD PTR fs:0, eax
	mov	DWORD PTR _this$[ebp], ecx

; 616  : 	CAutoFlag af(m_bAllowNotify, FALSE);

	push	0
	mov	eax, DWORD PTR _this$[ebp]
	add	eax, 1288				; 00000508H
	push	eax
	lea	ecx, DWORD PTR _af$[ebp]
	call	??0CAutoFlag@@QAE@AAHH@Z		; CAutoFlag::CAutoFlag
	mov	DWORD PTR __$EHRec$[ebp+8], 0

; 617  : 	
; 618  : 	if (CRulerRichEditCtrl::OnCreate(lpCreateStruct) == -1)

	mov	ecx, DWORD PTR _lpCreateStruct$[ebp]
	push	ecx
	mov	ecx, DWORD PTR _this$[ebp]
	call	?OnCreate@CRulerRichEditCtrl@@IAEHPAUtagCREATESTRUCTW@@@Z ; CRulerRichEditCtrl::OnCreate
	cmp	eax, -1
	jne	SHORT $LN1@OnCreate

; 619  : 		return -1;

	mov	DWORD PTR $T187539[ebp], -1
	mov	DWORD PTR __$EHRec$[ebp+8], -1
	lea	ecx, DWORD PTR _af$[ebp]
	call	??1CAutoFlag@@UAE@XZ			; CAutoFlag::~CAutoFlag
	mov	eax, DWORD PTR $T187539[ebp]
	jmp	$LN2@OnCreate
$LN1@OnCreate:

; 620  : 	
; 621  : 	m_rtf.SetEventMask(m_rtf.GetEventMask() | ENM_CHANGE);

	mov	ecx, DWORD PTR _this$[ebp]
	add	ecx, 304				; 00000130H
	call	?GetEventMask@CRichEditCtrl@@QBEJXZ	; CRichEditCtrl::GetEventMask
	or	eax, 1
	push	eax
	mov	ecx, DWORD PTR _this$[ebp]
	add	ecx, 304				; 00000130H
	call	?SetEventMask@CRichEditCtrl@@QAEKK@Z	; CRichEditCtrl::SetEventMask

; 622  : 	
; 623  : 	// set max edit length
; 624  : 	m_rtf.LimitText(1024 * 1024 * 1024); // one gigabyte

	push	1073741824				; 40000000H
	mov	ecx, DWORD PTR _this$[ebp]
	add	ecx, 304				; 00000130H
	call	?LimitText@CRichEditCtrl@@QAEXJ@Z	; CRichEditCtrl::LimitText

; 625  : 	
; 626  : 	InitMenuIconManager();

	mov	ecx, DWORD PTR _this$[ebp]
	call	?InitMenuIconManager@CRTFContentControl@@IAEXXZ ; CRTFContentControl::InitMenuIconManager

; 627  : 	InitShortcutManager();

	mov	ecx, DWORD PTR _this$[ebp]
	call	?InitShortcutManager@CRTFContentControl@@IAEXXZ ; CRTFContentControl::InitShortcutManager

; 628  : 
; 629  : #ifndef _DEBUG
; 630  : 	// if MS word is not installed we remove features that
; 631  : 	// our backup RTF2HTML converter cannot handle
; 632  : 	BOOL bRemoveAdvancedFeatures = !CMSWordHelper::IsWordInstalled(12);
; 633  : 
; 634  : 	if (bRemoveAdvancedFeatures)
; 635  : 	{
; 636  : 		int nBtn = m_toolbar.CommandToIndex(ID_EDIT_INSERTTABLE);
; 637  : 
; 638  : 		m_toolbar.GetToolBarCtrl().DeleteButton(nBtn); // button itself
; 639  : 		m_toolbar.GetToolBarCtrl().DeleteButton(nBtn); // trailing separator
; 640  : 	}
; 641  : 
; 642  : 	// If inline spell-checking is not supported then remove
; 643  : 	// the appropriate toolbar button
; 644  : 	if (!m_rtf.SupportsInlineSpellChecking())
; 645  : 	{
; 646  : 		int nBtn = m_toolbar.CommandToIndex(ID_EDIT_INLINESPELLCHECK);
; 647  : 
; 648  : 		m_toolbar.GetToolBarCtrl().DeleteButton(nBtn);
; 649  : 	}
; 650  : #endif
; 651  : 	m_rtf.EnableInlineSpellChecking(s_bInlineSpellChecking);

	mov	edx, DWORD PTR ?s_bInlineSpellChecking@CRTFContentControl@@1HA ; CRTFContentControl::s_bInlineSpellChecking
	push	edx
	mov	ecx, DWORD PTR _this$[ebp]
	add	ecx, 304				; 00000130H
	call	?EnableInlineSpellChecking@CRichEditBaseCtrl@@QAEHH@Z ; CRichEditBaseCtrl::EnableInlineSpellChecking

; 652  : 
; 653  : 	// helper for toolbar tooltips
; 654  : 	// initialize after hiding table button
; 655  : 	m_tbHelper.Initialize(&m_toolbar, this, &m_mgrShortcuts);

	mov	eax, DWORD PTR _this$[ebp]
	add	eax, 1812				; 00000714H
	push	eax
	mov	ecx, DWORD PTR _this$[ebp]
	push	ecx
	mov	edx, DWORD PTR _this$[ebp]
	add	edx, 616				; 00000268H
	push	edx
	mov	ecx, DWORD PTR _this$[ebp]
	add	ecx, 1292				; 0000050cH
	call	?Initialize@CToolbarHelper@@QAEHPAVCToolBar@@PAVCWnd@@PBVCShortcutManager@@@Z ; CToolbarHelper::Initialize

; 656  : 
; 657  : 	return 0;

	mov	DWORD PTR $T187540[ebp], 0
	mov	DWORD PTR __$EHRec$[ebp+8], -1
	lea	ecx, DWORD PTR _af$[ebp]
	call	??1CAutoFlag@@UAE@XZ			; CAutoFlag::~CAutoFlag
	mov	eax, DWORD PTR $T187540[ebp]
$LN2@OnCreate:

; 658  : }

	push	edx
	mov	ecx, ebp
	push	eax
	lea	edx, DWORD PTR $LN8@OnCreate
	call	@_RTC_CheckStackVars@8
	pop	eax
	pop	edx
	mov	ecx, DWORD PTR __$EHRec$[ebp]
	mov	DWORD PTR fs:0, ecx
	pop	ecx
	add	esp, 44					; 0000002cH
	cmp	ebp, esp
	call	__RTC_CheckEsp
	mov	esp, ebp
	pop	ebp
	ret	4
$LN8@OnCreate:
	DD	1
	DD	$LN7@OnCreate
$LN7@OnCreate:
	DD	-32					; ffffffe0H
	DD	12					; 0000000cH
	DD	$LN5@OnCreate
$LN5@OnCreate:
	DB	97					; 00000061H
	DB	102					; 00000066H
	DB	0
_TEXT	ENDS
;	COMDAT text$x
text$x	SEGMENT
__unwindfunclet$?OnCreate@CRTFContentControl@@IAEHPAUtagCREATESTRUCTW@@@Z$0:
	lea	ecx, DWORD PTR _af$[ebp]
	jmp	??1CAutoFlag@@UAE@XZ			; CAutoFlag::~CAutoFlag
__ehhandler$?OnCreate@CRTFContentControl@@IAEHPAUtagCREATESTRUCTW@@@Z:
	mov	edx, DWORD PTR [esp+8]
	lea	eax, DWORD PTR [edx+12]
	mov	ecx, DWORD PTR [edx-36]
	xor	ecx, eax
	call	@__security_check_cookie@4
	mov	eax, OFFSET __ehfuncinfo$?OnCreate@CRTFContentControl@@IAEHPAUtagCREATESTRUCTW@@@Z
	jmp	___CxxFrameHandler3
text$x	ENDS
?OnCreate@CRTFContentControl@@IAEHPAUtagCREATESTRUCTW@@@Z ENDP ; CRTFContentControl::OnCreate
EXTRN	?DoOutdent@CRulerRichEditCtrl@@IAEXXZ:PROC	; CRulerRichEditCtrl::DoOutdent
EXTRN	?DoIndent@CRulerRichEditCtrl@@IAEXXZ:PROC	; CRulerRichEditCtrl::DoIndent
EXTRN	?ReplaceSel@CRichEditCtrl@@QAEXPB_WH@Z:PROC	; CRichEditCtrl::ReplaceSel
EXTRN	?GetSel@CRichEditCtrl@@QBEXAAU_charrange@@@Z:PROC ; CRichEditCtrl::GetSel
EXTRN	?GetReadOnly@CRulerRichEditCtrl@@QBEHXZ:PROC	; CRulerRichEditCtrl::GetReadOnly
EXTRN	?IsKeyPressed@Misc@@YAHK@Z:PROC			; Misc::IsKeyPressed
EXTRN	?ProcessMessage@CShortcutManager@@QBEIPBUtagMSG@@PAK@Z:PROC ; CShortcutManager::ProcessMessage
EXTRN	?IsWindowEnabled@CWnd@@QBEHXZ:PROC		; CWnd::IsWindowEnabled
;	COMDAT xdata$x
xdata$x	SEGMENT
__unwindtable$?ProcessMessage@CRTFContentControl@@UAE_NPAUtagMSG@@@Z DD 0ffffffffH
	DD	FLAT:__unwindfunclet$?ProcessMessage@CRTFContentControl@@UAE_NPAUtagMSG@@@Z$0
__ehfuncinfo$?ProcessMessage@CRTFContentControl@@UAE_NPAUtagMSG@@@Z DD 019930522H
	DD	01H
	DD	FLAT:__unwindtable$?ProcessMessage@CRTFContentControl@@UAE_NPAUtagMSG@@@Z
	DD	2 DUP(00H)
	DD	2 DUP(00H)
	DD	00H
	DD	01H
; Function compile flags: /Odtp /RTCsu
xdata$x	ENDS
;	COMDAT ?ProcessMessage@CRTFContentControl@@UAE_NPAUtagMSG@@@Z
_TEXT	SEGMENT
tv137 = -84						; size = 4
tv80 = -80						; size = 4
$T187555 = -75						; size = 1
$T187554 = -74						; size = 1
$T187553 = -73						; size = 1
_cr$180893 = -68					; size = 8
_bEnabled$180881 = -56					; size = 4
_bAlt$180880 = -52					; size = 4
_bShift$180879 = -48					; size = 4
_bCtrl$180878 = -44					; size = 4
__ctlState$180877 = -36					; size = 16
_this$ = -16						; size = 4
__$EHRec$ = -12						; size = 12
_pMsg$ = 8						; size = 4
?ProcessMessage@CRTFContentControl@@UAE_NPAUtagMSG@@@Z PROC ; CRTFContentControl::ProcessMessage, COMDAT
; _this$ = ecx

; 661  : {

	push	ebp
	mov	ebp, esp
	push	-1
	push	__ehhandler$?ProcessMessage@CRTFContentControl@@UAE_NPAUtagMSG@@@Z
	mov	eax, DWORD PTR fs:0
	push	eax
	sub	esp, 72					; 00000048H
	push	edi
	push	ecx
	lea	edi, DWORD PTR [ebp-84]
	mov	ecx, 18					; 00000012H
	mov	eax, -858993460				; ccccccccH
	rep stosd
	pop	ecx
	mov	eax, DWORD PTR ___security_cookie
	xor	eax, ebp
	push	eax
	lea	eax, DWORD PTR __$EHRec$[ebp]
	mov	DWORD PTR fs:0, eax
	mov	DWORD PTR _this$[ebp], ecx

; 662  : 	if (!IsWindowEnabled())

	mov	ecx, DWORD PTR _this$[ebp]
	sub	ecx, 1284				; 00000504H
	call	?IsWindowEnabled@CWnd@@QBEHXZ		; CWnd::IsWindowEnabled
	test	eax, eax
	jne	SHORT $LN16@ProcessMes

; 663  : 		return false;

	xor	al, al
	jmp	$LN17@ProcessMes
$LN16@ProcessMes:

; 664  : 
; 665  : 	// process editing shortcuts
; 666  : 	if (m_mgrShortcuts.ProcessMessage(pMsg))

	push	0
	mov	eax, DWORD PTR _pMsg$[ebp]
	push	eax
	mov	ecx, DWORD PTR _this$[ebp]
	add	ecx, 528				; 00000210H
	call	?ProcessMessage@CShortcutManager@@QBEIPBUtagMSG@@PAK@Z ; CShortcutManager::ProcessMessage
	test	eax, eax
	je	SHORT $LN15@ProcessMes

; 667  : 		return true;

	mov	al, 1
	jmp	$LN17@ProcessMes
$LN15@ProcessMes:

; 668  : 
; 669  : 	// else custom handling
; 670  : 	switch (pMsg->message)

	mov	ecx, DWORD PTR _pMsg$[ebp]
	mov	edx, DWORD PTR [ecx+4]
	mov	DWORD PTR tv80[ebp], edx
	cmp	DWORD PTR tv80[ebp], 256		; 00000100H
	je	SHORT $LN12@ProcessMes
	jmp	$LN13@ProcessMes
$LN12@ProcessMes:

; 671  : 	{
; 672  : 	case WM_KEYDOWN:
; 673  : 		{
; 674  : 			AFX_MANAGE_STATE(AfxGetStaticModuleState());

	call	?_AfxInitManaged@@YAHXZ			; _AfxInitManaged
	call	?AfxGetStaticModuleState@@YGPAVAFX_MODULE_STATE@@XZ ; AfxGetStaticModuleState
	push	eax
	lea	ecx, DWORD PTR __ctlState$180877[ebp]
	call	??0AFX_MAINTAIN_STATE2@@QAE@PAVAFX_MODULE_STATE@@@Z ; AFX_MAINTAIN_STATE2::AFX_MAINTAIN_STATE2
	mov	DWORD PTR __$EHRec$[ebp+8], 0

; 675  : 
; 676  : 			BOOL bCtrl = Misc::IsKeyPressed(VK_CONTROL);

	push	17					; 00000011H
	call	?IsKeyPressed@Misc@@YAHK@Z		; Misc::IsKeyPressed
	add	esp, 4
	mov	DWORD PTR _bCtrl$180878[ebp], eax

; 677  : 			BOOL bShift = Misc::IsKeyPressed(VK_SHIFT);

	push	16					; 00000010H
	call	?IsKeyPressed@Misc@@YAHK@Z		; Misc::IsKeyPressed
	add	esp, 4
	mov	DWORD PTR _bShift$180879[ebp], eax

; 678  : 			BOOL bAlt = Misc::IsKeyPressed(VK_MENU);

	push	18					; 00000012H
	call	?IsKeyPressed@Misc@@YAHK@Z		; Misc::IsKeyPressed
	add	esp, 4
	mov	DWORD PTR _bAlt$180880[ebp], eax

; 679  : 			BOOL bEnabled = !GetReadOnly();

	mov	ecx, DWORD PTR _this$[ebp]
	sub	ecx, 1284				; 00000504H
	call	?GetReadOnly@CRulerRichEditCtrl@@QBEHXZ	; CRulerRichEditCtrl::GetReadOnly
	neg	eax
	sbb	eax, eax
	add	eax, 1
	mov	DWORD PTR _bEnabled$180881[ebp], eax

; 680  : 
; 681  : 			// most shortcuts are handled by the shortcut manager
; 682  : 			if (bCtrl && !bAlt && !bShift)

	cmp	DWORD PTR _bCtrl$180878[ebp], 0
	je	SHORT $LN11@ProcessMes
	cmp	DWORD PTR _bAlt$180880[ebp], 0
	jne	SHORT $LN11@ProcessMes
	cmp	DWORD PTR _bShift$180879[ebp], 0
	jne	SHORT $LN11@ProcessMes

; 683  : 			{
; 684  : 				switch (pMsg->wParam)

	mov	eax, DWORD PTR _pMsg$[ebp]
	mov	ecx, DWORD PTR [eax+8]
	mov	DWORD PTR tv137[ebp], ecx
	mov	edx, DWORD PTR tv137[ebp]
	sub	edx, 89					; 00000059H
	mov	DWORD PTR tv137[ebp], edx
	cmp	DWORD PTR tv137[ebp], 33		; 00000021H
	ja	SHORT $LN9@ProcessMes
	mov	eax, DWORD PTR tv137[ebp]
	movzx	ecx, BYTE PTR $LN20@ProcessMes[eax]
	jmp	DWORD PTR $LN26@ProcessMes[ecx*4]
$LN8@ProcessMes:

; 685  : 				{
; 686  : 				case 'z':
; 687  : 				case 'Z':
; 688  : 					return true; // to prevent the richedit performing the undo

	mov	BYTE PTR $T187553[ebp], 1
	mov	DWORD PTR __$EHRec$[ebp+8], -1
	lea	ecx, DWORD PTR __ctlState$180877[ebp]
	call	??1AFX_MAINTAIN_STATE2@@QAE@XZ		; AFX_MAINTAIN_STATE2::~AFX_MAINTAIN_STATE2
	mov	al, BYTE PTR $T187553[ebp]
	jmp	$LN17@ProcessMes
$LN7@ProcessMes:

; 689  : 						
; 690  : 				case 'y':
; 691  : 				case 'Y':
; 692  : 					return true; // to prevent the richedit performing the redo

	mov	BYTE PTR $T187554[ebp], 1
	mov	DWORD PTR __$EHRec$[ebp+8], -1
	lea	ecx, DWORD PTR __ctlState$180877[ebp]
	call	??1AFX_MAINTAIN_STATE2@@QAE@XZ		; AFX_MAINTAIN_STATE2::~AFX_MAINTAIN_STATE2
	mov	al, BYTE PTR $T187554[ebp]
	jmp	$LN17@ProcessMes
$LN9@ProcessMes:

; 693  : 				}
; 694  : 			}
; 695  : 			else if (bEnabled && (pMsg->wParam == VK_TAB))

	jmp	SHORT $LN6@ProcessMes
$LN11@ProcessMes:
	cmp	DWORD PTR _bEnabled$180881[ebp], 0
	je	SHORT $LN6@ProcessMes
	mov	edx, DWORD PTR _pMsg$[ebp]
	cmp	DWORD PTR [edx+8], 9
	jne	SHORT $LN6@ProcessMes

; 696  : 			{
; 697  : 				CHARRANGE cr;
; 698  : 				m_rtf.GetSel(cr);

	lea	eax, DWORD PTR _cr$180893[ebp]
	push	eax
	mov	ecx, DWORD PTR _this$[ebp]
	sub	ecx, 980				; 000003d4H
	call	?GetSel@CRichEditCtrl@@QBEXAAU_charrange@@@Z ; CRichEditCtrl::GetSel

; 699  : 				
; 700  : 				// if nothing is selected then just insert tabs
; 701  : 				if (cr.cpMin == cr.cpMax)

	mov	ecx, DWORD PTR _cr$180893[ebp]
	cmp	ecx, DWORD PTR _cr$180893[ebp+4]
	jne	SHORT $LN4@ProcessMes

; 702  : 				{
; 703  : 					m_rtf.ReplaceSel(_T("\t"), TRUE);

	push	1
	push	OFFSET $SG180895
	mov	ecx, DWORD PTR _this$[ebp]
	sub	ecx, 980				; 000003d4H
	call	?ReplaceSel@CRichEditCtrl@@QAEXPB_WH@Z	; CRichEditCtrl::ReplaceSel

; 704  : 				}
; 705  : 				else

	jmp	SHORT $LN3@ProcessMes
$LN4@ProcessMes:

; 706  : 				{
; 707  : 					if (!bShift)

	cmp	DWORD PTR _bShift$180879[ebp], 0
	jne	SHORT $LN2@ProcessMes

; 708  : 						DoIndent();

	mov	ecx, DWORD PTR _this$[ebp]
	sub	ecx, 1284				; 00000504H
	call	?DoIndent@CRulerRichEditCtrl@@IAEXXZ	; CRulerRichEditCtrl::DoIndent

; 709  : 					else

	jmp	SHORT $LN3@ProcessMes
$LN2@ProcessMes:

; 710  : 						DoOutdent();

	mov	ecx, DWORD PTR _this$[ebp]
	sub	ecx, 1284				; 00000504H
	call	?DoOutdent@CRulerRichEditCtrl@@IAEXXZ	; CRulerRichEditCtrl::DoOutdent
$LN3@ProcessMes:

; 711  : 				}
; 712  : 				
; 713  : 				return true;

	mov	BYTE PTR $T187555[ebp], 1
	mov	DWORD PTR __$EHRec$[ebp+8], -1
	lea	ecx, DWORD PTR __ctlState$180877[ebp]
	call	??1AFX_MAINTAIN_STATE2@@QAE@XZ		; AFX_MAINTAIN_STATE2::~AFX_MAINTAIN_STATE2
	mov	al, BYTE PTR $T187555[ebp]
	jmp	SHORT $LN17@ProcessMes
$LN6@ProcessMes:

; 714  : 			}
; 715  : 		}

	mov	DWORD PTR __$EHRec$[ebp+8], -1
	lea	ecx, DWORD PTR __ctlState$180877[ebp]
	call	??1AFX_MAINTAIN_STATE2@@QAE@XZ		; AFX_MAINTAIN_STATE2::~AFX_MAINTAIN_STATE2
$LN13@ProcessMes:

; 716  : 		break;
; 717  : 	}
; 718  : 
; 719  : 	return false;

	xor	al, al
$LN17@ProcessMes:

; 720  : }

	push	edx
	mov	ecx, ebp
	push	eax
	lea	edx, DWORD PTR $LN25@ProcessMes
	call	@_RTC_CheckStackVars@8
	pop	eax
	pop	edx
	mov	ecx, DWORD PTR __$EHRec$[ebp]
	mov	DWORD PTR fs:0, ecx
	pop	ecx
	pop	edi
	add	esp, 84					; 00000054H
	cmp	ebp, esp
	call	__RTC_CheckEsp
	mov	esp, ebp
	pop	ebp
	ret	4
	npad	1
$LN25@ProcessMes:
	DD	2
	DD	$LN24@ProcessMes
$LN24@ProcessMes:
	DD	-36					; ffffffdcH
	DD	16					; 00000010H
	DD	$LN21@ProcessMes
	DD	-68					; ffffffbcH
	DD	8
	DD	$LN22@ProcessMes
$LN22@ProcessMes:
	DB	99					; 00000063H
	DB	114					; 00000072H
	DB	0
$LN21@ProcessMes:
	DB	95					; 0000005fH
	DB	99					; 00000063H
	DB	116					; 00000074H
	DB	108					; 0000006cH
	DB	83					; 00000053H
	DB	116					; 00000074H
	DB	97					; 00000061H
	DB	116					; 00000074H
	DB	101					; 00000065H
	DB	0
	npad	3
$LN26@ProcessMes:
	DD	$LN7@ProcessMes
	DD	$LN8@ProcessMes
	DD	$LN9@ProcessMes
$LN20@ProcessMes:
	DB	0
	DB	1
	DB	2
	DB	2
	DB	2
	DB	2
	DB	2
	DB	2
	DB	2
	DB	2
	DB	2
	DB	2
	DB	2
	DB	2
	DB	2
	DB	2
	DB	2
	DB	2
	DB	2
	DB	2
	DB	2
	DB	2
	DB	2
	DB	2
	DB	2
	DB	2
	DB	2
	DB	2
	DB	2
	DB	2
	DB	2
	DB	2
	DB	0
	DB	1
_TEXT	ENDS
;	COMDAT text$x
text$x	SEGMENT
__unwindfunclet$?ProcessMessage@CRTFContentControl@@UAE_NPAUtagMSG@@@Z$0:
	lea	ecx, DWORD PTR __ctlState$180877[ebp]
	jmp	??1AFX_MAINTAIN_STATE2@@QAE@XZ		; AFX_MAINTAIN_STATE2::~AFX_MAINTAIN_STATE2
__ehhandler$?ProcessMessage@CRTFContentControl@@UAE_NPAUtagMSG@@@Z:
	mov	edx, DWORD PTR [esp+8]
	lea	eax, DWORD PTR [edx+12]
	mov	ecx, DWORD PTR [edx-80]
	xor	ecx, eax
	call	@__security_check_cookie@4
	mov	eax, OFFSET __ehfuncinfo$?ProcessMessage@CRTFContentControl@@UAE_NPAUtagMSG@@@Z
	jmp	___CxxFrameHandler3
text$x	ENDS
?ProcessMessage@CRTFContentControl@@UAE_NPAUtagMSG@@@Z ENDP ; CRTFContentControl::ProcessMessage
PUBLIC	?HasWordWrap@CRulerRichEditCtrl@@QBEHXZ		; CRulerRichEditCtrl::HasWordWrap
EXTRN	?SavePreferences@CRTFPreferencesDlg@@QBEXPAVIPreferences@@PB_W@Z:PROC ; CRTFPreferencesDlg::SavePreferences
EXTRN	?GetFontColor@CRRECToolBar@@QBEKHH@Z:PROC	; CRRECToolBar::GetFontColor
EXTRN	?IsRulerVisible@CRulerRichEditCtrl@@QBEHXZ:PROC	; CRulerRichEditCtrl::IsRulerVisible
EXTRN	?IsToolbarVisible@CRulerRichEditCtrl@@QBEHXZ:PROC ; CRulerRichEditCtrl::IsToolbarVisible
EXTRN	__imp_??0?$CStringT@_WV?$StrTraitMFC_DLL@_WV?$ChTraitsCRT@_W@ATL@@@@@ATL@@QAE@PB_W@Z:PROC
;	COMDAT xdata$x
xdata$x	SEGMENT
__unwindtable$?SavePreferences@CRTFContentControl@@UBEXPAVIPreferences@@PB_W@Z DD 0ffffffffH
	DD	FLAT:__unwindfunclet$?SavePreferences@CRTFContentControl@@UBEXPAVIPreferences@@PB_W@Z$0
	DD	00H
	DD	FLAT:__unwindfunclet$?SavePreferences@CRTFContentControl@@UBEXPAVIPreferences@@PB_W@Z$1
__ehfuncinfo$?SavePreferences@CRTFContentControl@@UBEXPAVIPreferences@@PB_W@Z DD 019930522H
	DD	02H
	DD	FLAT:__unwindtable$?SavePreferences@CRTFContentControl@@UBEXPAVIPreferences@@PB_W@Z
	DD	2 DUP(00H)
	DD	2 DUP(00H)
	DD	00H
	DD	01H
; Function compile flags: /Odtp /RTCsu
xdata$x	ENDS
;	COMDAT ?SavePreferences@CRTFContentControl@@UBEXPAVIPreferences@@PB_W@Z
_TEXT	SEGMENT
_sKey$ = -48						; size = 4
__ctlState$ = -36					; size = 16
_this$ = -16						; size = 4
__$EHRec$ = -12						; size = 12
_pPrefs$ = 8						; size = 4
_szKey$ = 12						; size = 4
?SavePreferences@CRTFContentControl@@UBEXPAVIPreferences@@PB_W@Z PROC ; CRTFContentControl::SavePreferences, COMDAT
; _this$ = ecx

; 723  : {

	push	ebp
	mov	ebp, esp
	push	-1
	push	__ehhandler$?SavePreferences@CRTFContentControl@@UBEXPAVIPreferences@@PB_W@Z
	mov	eax, DWORD PTR fs:0
	push	eax
	sub	esp, 40					; 00000028H
	push	esi
	push	edi
	push	ecx
	lea	edi, DWORD PTR [ebp-52]
	mov	ecx, 10					; 0000000aH
	mov	eax, -858993460				; ccccccccH
	rep stosd
	pop	ecx
	mov	eax, DWORD PTR ___security_cookie
	xor	eax, ebp
	push	eax
	lea	eax, DWORD PTR __$EHRec$[ebp]
	mov	DWORD PTR fs:0, eax
	mov	DWORD PTR _this$[ebp], ecx

; 724  : 	AFX_MANAGE_STATE(AfxGetStaticModuleState());

	call	?_AfxInitManaged@@YAHXZ			; _AfxInitManaged
	call	?AfxGetStaticModuleState@@YGPAVAFX_MODULE_STATE@@XZ ; AfxGetStaticModuleState
	push	eax
	lea	ecx, DWORD PTR __ctlState$[ebp]
	call	??0AFX_MAINTAIN_STATE2@@QAE@PAVAFX_MODULE_STATE@@@Z ; AFX_MAINTAIN_STATE2::AFX_MAINTAIN_STATE2
	mov	DWORD PTR __$EHRec$[ebp+8], 0

; 725  : 
; 726  : 	CString sKey(szKey);

	mov	esi, esp
	mov	eax, DWORD PTR _szKey$[ebp]
	push	eax
	lea	ecx, DWORD PTR _sKey$[ebp]
	call	DWORD PTR __imp_??0?$CStringT@_WV?$StrTraitMFC_DLL@_WV?$ChTraitsCRT@_W@ATL@@@@@ATL@@QAE@PB_W@Z
	cmp	esi, esp
	call	__RTC_CheckEsp
	mov	BYTE PTR __$EHRec$[ebp+8], 1

; 727  : 	
; 728  : 	pPrefs->WriteProfileInt(sKey, _T("ShowToolbar"), IsToolbarVisible());

	mov	ecx, DWORD PTR _this$[ebp]
	sub	ecx, 1284				; 00000504H
	call	?IsToolbarVisible@CRulerRichEditCtrl@@QBEHXZ ; CRulerRichEditCtrl::IsToolbarVisible
	mov	esi, esp
	push	eax
	push	OFFSET $SG180907
	mov	edi, esp
	lea	ecx, DWORD PTR _sKey$[ebp]
	call	DWORD PTR __imp_??B?$CSimpleStringT@_W$00@ATL@@QBEPB_WXZ
	cmp	edi, esp
	call	__RTC_CheckEsp
	push	eax
	mov	ecx, DWORD PTR _pPrefs$[ebp]
	mov	edx, DWORD PTR [ecx]
	mov	ecx, DWORD PTR _pPrefs$[ebp]
	mov	eax, DWORD PTR [edx+4]
	call	eax
	cmp	esi, esp
	call	__RTC_CheckEsp

; 729  : 	pPrefs->WriteProfileInt(sKey, _T("ShowRuler"), IsRulerVisible());

	mov	ecx, DWORD PTR _this$[ebp]
	sub	ecx, 1284				; 00000504H
	call	?IsRulerVisible@CRulerRichEditCtrl@@QBEHXZ ; CRulerRichEditCtrl::IsRulerVisible
	mov	esi, esp
	push	eax
	push	OFFSET $SG180908
	mov	edi, esp
	lea	ecx, DWORD PTR _sKey$[ebp]
	call	DWORD PTR __imp_??B?$CSimpleStringT@_W$00@ATL@@QBEPB_WXZ
	cmp	edi, esp
	call	__RTC_CheckEsp
	push	eax
	mov	ecx, DWORD PTR _pPrefs$[ebp]
	mov	edx, DWORD PTR [ecx]
	mov	ecx, DWORD PTR _pPrefs$[ebp]
	mov	eax, DWORD PTR [edx+4]
	call	eax
	cmp	esi, esp
	call	__RTC_CheckEsp

; 730  : 	pPrefs->WriteProfileInt(sKey, _T("WordWrap"), HasWordWrap());

	mov	ecx, DWORD PTR _this$[ebp]
	sub	ecx, 1284				; 00000504H
	call	?HasWordWrap@CRulerRichEditCtrl@@QBEHXZ	; CRulerRichEditCtrl::HasWordWrap
	mov	esi, esp
	push	eax
	push	OFFSET $SG180909
	mov	edi, esp
	lea	ecx, DWORD PTR _sKey$[ebp]
	call	DWORD PTR __imp_??B?$CSimpleStringT@_W$00@ATL@@QBEPB_WXZ
	cmp	edi, esp
	call	__RTC_CheckEsp
	push	eax
	mov	ecx, DWORD PTR _pPrefs$[ebp]
	mov	edx, DWORD PTR [ecx]
	mov	ecx, DWORD PTR _pPrefs$[ebp]
	mov	eax, DWORD PTR [edx+4]
	call	eax
	cmp	esi, esp
	call	__RTC_CheckEsp

; 731  : 	pPrefs->WriteProfileInt(sKey, _T("ForegroundColour"), m_toolbar.GetFontColor(TRUE));

	push	0
	push	1
	mov	ecx, DWORD PTR _this$[ebp]
	sub	ecx, 668				; 0000029cH
	call	?GetFontColor@CRRECToolBar@@QBEKHH@Z	; CRRECToolBar::GetFontColor
	mov	esi, esp
	push	eax
	push	OFFSET $SG180910
	mov	edi, esp
	lea	ecx, DWORD PTR _sKey$[ebp]
	call	DWORD PTR __imp_??B?$CSimpleStringT@_W$00@ATL@@QBEPB_WXZ
	cmp	edi, esp
	call	__RTC_CheckEsp
	push	eax
	mov	ecx, DWORD PTR _pPrefs$[ebp]
	mov	edx, DWORD PTR [ecx]
	mov	ecx, DWORD PTR _pPrefs$[ebp]
	mov	eax, DWORD PTR [edx+4]
	call	eax
	cmp	esi, esp
	call	__RTC_CheckEsp

; 732  : 	pPrefs->WriteProfileInt(sKey, _T("BackgroundColour"), m_toolbar.GetFontColor(FALSE));

	push	0
	push	0
	mov	ecx, DWORD PTR _this$[ebp]
	sub	ecx, 668				; 0000029cH
	call	?GetFontColor@CRRECToolBar@@QBEKHH@Z	; CRRECToolBar::GetFontColor
	mov	esi, esp
	push	eax
	push	OFFSET $SG180911
	mov	edi, esp
	lea	ecx, DWORD PTR _sKey$[ebp]
	call	DWORD PTR __imp_??B?$CSimpleStringT@_W$00@ATL@@QBEPB_WXZ
	cmp	edi, esp
	call	__RTC_CheckEsp
	push	eax
	mov	ecx, DWORD PTR _pPrefs$[ebp]
	mov	edx, DWORD PTR [ecx]
	mov	ecx, DWORD PTR _pPrefs$[ebp]
	mov	eax, DWORD PTR [edx+4]
	call	eax
	cmp	esi, esp
	call	__RTC_CheckEsp

; 733  : 
; 734  : 	m_prefsDlg.SavePreferences(pPrefs, sKey);

	mov	esi, esp
	lea	ecx, DWORD PTR _sKey$[ebp]
	call	DWORD PTR __imp_??B?$CSimpleStringT@_W$00@ATL@@QBEPB_WXZ
	cmp	esi, esp
	call	__RTC_CheckEsp
	push	eax
	mov	ecx, DWORD PTR _pPrefs$[ebp]
	push	ecx
	mov	ecx, DWORD PTR _this$[ebp]
	add	ecx, 720				; 000002d0H
	call	?SavePreferences@CRTFPreferencesDlg@@QBEXPAVIPreferences@@PB_W@Z ; CRTFPreferencesDlg::SavePreferences

; 735  : }

	mov	BYTE PTR __$EHRec$[ebp+8], 0
	mov	esi, esp
	lea	ecx, DWORD PTR _sKey$[ebp]
	call	DWORD PTR __imp_??1?$CStringT@_WV?$StrTraitMFC_DLL@_WV?$ChTraitsCRT@_W@ATL@@@@@ATL@@QAE@XZ
	cmp	esi, esp
	call	__RTC_CheckEsp
	mov	DWORD PTR __$EHRec$[ebp+8], -1
	lea	ecx, DWORD PTR __ctlState$[ebp]
	call	??1AFX_MAINTAIN_STATE2@@QAE@XZ		; AFX_MAINTAIN_STATE2::~AFX_MAINTAIN_STATE2
	push	edx
	mov	ecx, ebp
	push	eax
	lea	edx, DWORD PTR $LN9@SavePrefer
	call	@_RTC_CheckStackVars@8
	pop	eax
	pop	edx
	mov	ecx, DWORD PTR __$EHRec$[ebp]
	mov	DWORD PTR fs:0, ecx
	pop	ecx
	pop	edi
	pop	esi
	add	esp, 52					; 00000034H
	cmp	ebp, esp
	call	__RTC_CheckEsp
	mov	esp, ebp
	pop	ebp
	ret	8
$LN9@SavePrefer:
	DD	2
	DD	$LN8@SavePrefer
$LN8@SavePrefer:
	DD	-36					; ffffffdcH
	DD	16					; 00000010H
	DD	$LN5@SavePrefer
	DD	-48					; ffffffd0H
	DD	4
	DD	$LN6@SavePrefer
$LN6@SavePrefer:
	DB	115					; 00000073H
	DB	75					; 0000004bH
	DB	101					; 00000065H
	DB	121					; 00000079H
	DB	0
$LN5@SavePrefer:
	DB	95					; 0000005fH
	DB	99					; 00000063H
	DB	116					; 00000074H
	DB	108					; 0000006cH
	DB	83					; 00000053H
	DB	116					; 00000074H
	DB	97					; 00000061H
	DB	116					; 00000074H
	DB	101					; 00000065H
	DB	0
_TEXT	ENDS
;	COMDAT text$x
text$x	SEGMENT
__unwindfunclet$?SavePreferences@CRTFContentControl@@UBEXPAVIPreferences@@PB_W@Z$0:
	lea	ecx, DWORD PTR __ctlState$[ebp]
	jmp	??1AFX_MAINTAIN_STATE2@@QAE@XZ		; AFX_MAINTAIN_STATE2::~AFX_MAINTAIN_STATE2
__unwindfunclet$?SavePreferences@CRTFContentControl@@UBEXPAVIPreferences@@PB_W@Z$1:
	mov	esi, esp
	lea	ecx, DWORD PTR _sKey$[ebp]
	call	DWORD PTR __imp_??1?$CStringT@_WV?$StrTraitMFC_DLL@_WV?$ChTraitsCRT@_W@ATL@@@@@ATL@@QAE@XZ
	cmp	esi, esp
	jmp	__RTC_CheckEsp
__ehhandler$?SavePreferences@CRTFContentControl@@UBEXPAVIPreferences@@PB_W@Z:
	mov	edx, DWORD PTR [esp+8]
	lea	eax, DWORD PTR [edx+12]
	mov	ecx, DWORD PTR [edx-52]
	xor	ecx, eax
	call	@__security_check_cookie@4
	mov	eax, OFFSET __ehfuncinfo$?SavePreferences@CRTFContentControl@@UBEXPAVIPreferences@@PB_W@Z
	jmp	___CxxFrameHandler3
text$x	ENDS
?SavePreferences@CRTFContentControl@@UBEXPAVIPreferences@@PB_W@Z ENDP ; CRTFContentControl::SavePreferences
; Function compile flags: /Odtp /RTCsu
; File d:\_code\rtfcontentctrl\rulerricheditctrl.h
;	COMDAT ?HasWordWrap@CRulerRichEditCtrl@@QBEHXZ
_TEXT	SEGMENT
_this$ = -4						; size = 4
?HasWordWrap@CRulerRichEditCtrl@@QBEHXZ PROC		; CRulerRichEditCtrl::HasWordWrap, COMDAT
; _this$ = ecx

; 32   : 	BOOL HasWordWrap() const { return m_bWordWrap; }

	push	ebp
	mov	ebp, esp
	push	ecx
	mov	DWORD PTR [ebp-4], -858993460		; ccccccccH
	mov	DWORD PTR _this$[ebp], ecx
	mov	eax, DWORD PTR _this$[ebp]
	mov	eax, DWORD PTR [eax+300]
	mov	esp, ebp
	pop	ebp
	ret	0
?HasWordWrap@CRulerRichEditCtrl@@QBEHXZ ENDP		; CRulerRichEditCtrl::HasWordWrap
_TEXT	ENDS
EXTRN	?LoadPreferences@CRTFPreferencesDlg@@QAEXPBVIPreferences@@PB_W@Z:PROC ; CRTFPreferencesDlg::LoadPreferences
EXTRN	?SetFontColor@CRRECToolBar@@QAEXKH@Z:PROC	; CRRECToolBar::SetFontColor
EXTRN	?SetWordWrap@CRulerRichEditCtrl@@QAEXH@Z:PROC	; CRulerRichEditCtrl::SetWordWrap
EXTRN	?ShowRuler@CRulerRichEditCtrl@@QAEXH@Z:PROC	; CRulerRichEditCtrl::ShowRuler
EXTRN	?ShowToolbar@CRulerRichEditCtrl@@QAEXH@Z:PROC	; CRulerRichEditCtrl::ShowToolbar
;	COMDAT xdata$x
; File d:\_code\rtfcontentctrl\rtfcontentcontrol.cpp
xdata$x	SEGMENT
__unwindtable$?LoadPreferences@CRTFContentControl@@UAEXPBVIPreferences@@PB_W@Z DD 0ffffffffH
	DD	FLAT:__unwindfunclet$?LoadPreferences@CRTFContentControl@@UAEXPBVIPreferences@@PB_W@Z$0
	DD	00H
	DD	FLAT:__unwindfunclet$?LoadPreferences@CRTFContentControl@@UAEXPBVIPreferences@@PB_W@Z$1
__ehfuncinfo$?LoadPreferences@CRTFContentControl@@UAEXPBVIPreferences@@PB_W@Z DD 019930522H
	DD	02H
	DD	FLAT:__unwindtable$?LoadPreferences@CRTFContentControl@@UAEXPBVIPreferences@@PB_W@Z
	DD	2 DUP(00H)
	DD	2 DUP(00H)
	DD	00H
	DD	01H
; Function compile flags: /Odtp /RTCsu
xdata$x	ENDS
;	COMDAT ?LoadPreferences@CRTFContentControl@@UAEXPBVIPreferences@@PB_W@Z
_TEXT	SEGMENT
_bLinkOptionIsDefault$ = -72				; size = 4
_nLinkOption$ = -68					; size = 4
_bWordWrap$ = -64					; size = 4
_bShowRuler$ = -60					; size = 4
_bShowToolbar$ = -56					; size = 4
_sKey$ = -48						; size = 4
__ctlState$ = -36					; size = 16
_this$ = -16						; size = 4
__$EHRec$ = -12						; size = 12
_pPrefs$ = 8						; size = 4
_szKey$ = 12						; size = 4
?LoadPreferences@CRTFContentControl@@UAEXPBVIPreferences@@PB_W@Z PROC ; CRTFContentControl::LoadPreferences, COMDAT
; _this$ = ecx

; 738  : {

	push	ebp
	mov	ebp, esp
	push	-1
	push	__ehhandler$?LoadPreferences@CRTFContentControl@@UAEXPBVIPreferences@@PB_W@Z
	mov	eax, DWORD PTR fs:0
	push	eax
	sub	esp, 60					; 0000003cH
	push	esi
	push	edi
	push	ecx
	lea	edi, DWORD PTR [ebp-72]
	mov	ecx, 15					; 0000000fH
	mov	eax, -858993460				; ccccccccH
	rep stosd
	pop	ecx
	mov	eax, DWORD PTR ___security_cookie
	xor	eax, ebp
	push	eax
	lea	eax, DWORD PTR __$EHRec$[ebp]
	mov	DWORD PTR fs:0, eax
	mov	DWORD PTR _this$[ebp], ecx

; 739  : 	AFX_MANAGE_STATE(AfxGetStaticModuleState());

	call	?_AfxInitManaged@@YAHXZ			; _AfxInitManaged
	call	?AfxGetStaticModuleState@@YGPAVAFX_MODULE_STATE@@XZ ; AfxGetStaticModuleState
	push	eax
	lea	ecx, DWORD PTR __ctlState$[ebp]
	call	??0AFX_MAINTAIN_STATE2@@QAE@PAVAFX_MODULE_STATE@@@Z ; AFX_MAINTAIN_STATE2::AFX_MAINTAIN_STATE2
	mov	DWORD PTR __$EHRec$[ebp+8], 0

; 740  : 
; 741  : 	CString sKey(szKey);

	mov	esi, esp
	mov	eax, DWORD PTR _szKey$[ebp]
	push	eax
	lea	ecx, DWORD PTR _sKey$[ebp]
	call	DWORD PTR __imp_??0?$CStringT@_WV?$StrTraitMFC_DLL@_WV?$ChTraitsCRT@_W@ATL@@@@@ATL@@QAE@PB_W@Z
	cmp	esi, esp
	call	__RTC_CheckEsp
	mov	BYTE PTR __$EHRec$[ebp+8], 1

; 742  : 	
; 743  : 	BOOL bShowToolbar = pPrefs->GetProfileInt(sKey, _T("ShowToolbar"), m_showToolbar);

	mov	esi, esp
	mov	ecx, DWORD PTR _this$[ebp]
	mov	edx, DWORD PTR [ecx-996]
	push	edx
	push	OFFSET $SG180920
	mov	edi, esp
	lea	ecx, DWORD PTR _sKey$[ebp]
	call	DWORD PTR __imp_??B?$CSimpleStringT@_W$00@ATL@@QBEPB_WXZ
	cmp	edi, esp
	call	__RTC_CheckEsp
	push	eax
	mov	eax, DWORD PTR _pPrefs$[ebp]
	mov	edx, DWORD PTR [eax]
	mov	ecx, DWORD PTR _pPrefs$[ebp]
	mov	eax, DWORD PTR [edx]
	call	eax
	cmp	esi, esp
	call	__RTC_CheckEsp
	mov	DWORD PTR _bShowToolbar$[ebp], eax

; 744  : 	BOOL bShowRuler = pPrefs->GetProfileInt(sKey, _T("ShowRuler"), m_showRuler);

	mov	esi, esp
	mov	ecx, DWORD PTR _this$[ebp]
	mov	edx, DWORD PTR [ecx-992]
	push	edx
	push	OFFSET $SG180922
	mov	edi, esp
	lea	ecx, DWORD PTR _sKey$[ebp]
	call	DWORD PTR __imp_??B?$CSimpleStringT@_W$00@ATL@@QBEPB_WXZ
	cmp	edi, esp
	call	__RTC_CheckEsp
	push	eax
	mov	eax, DWORD PTR _pPrefs$[ebp]
	mov	edx, DWORD PTR [eax]
	mov	ecx, DWORD PTR _pPrefs$[ebp]
	mov	eax, DWORD PTR [edx]
	call	eax
	cmp	esi, esp
	call	__RTC_CheckEsp
	mov	DWORD PTR _bShowRuler$[ebp], eax

; 745  : 	BOOL bWordWrap = pPrefs->GetProfileInt(sKey, _T("WordWrap"), TRUE);

	mov	esi, esp
	push	1
	push	OFFSET $SG180924
	mov	edi, esp
	lea	ecx, DWORD PTR _sKey$[ebp]
	call	DWORD PTR __imp_??B?$CSimpleStringT@_W$00@ATL@@QBEPB_WXZ
	cmp	edi, esp
	call	__RTC_CheckEsp
	push	eax
	mov	ecx, DWORD PTR _pPrefs$[ebp]
	mov	edx, DWORD PTR [ecx]
	mov	ecx, DWORD PTR _pPrefs$[ebp]
	mov	eax, DWORD PTR [edx]
	call	eax
	cmp	esi, esp
	call	__RTC_CheckEsp
	mov	DWORD PTR _bWordWrap$[ebp], eax

; 746  : 	
; 747  : 	ShowToolbar(bShowToolbar);

	mov	ecx, DWORD PTR _bShowToolbar$[ebp]
	push	ecx
	mov	ecx, DWORD PTR _this$[ebp]
	sub	ecx, 1284				; 00000504H
	call	?ShowToolbar@CRulerRichEditCtrl@@QAEXH@Z ; CRulerRichEditCtrl::ShowToolbar

; 748  : 	ShowRuler(bShowRuler);

	mov	edx, DWORD PTR _bShowRuler$[ebp]
	push	edx
	mov	ecx, DWORD PTR _this$[ebp]
	sub	ecx, 1284				; 00000504H
	call	?ShowRuler@CRulerRichEditCtrl@@QAEXH@Z	; CRulerRichEditCtrl::ShowRuler

; 749  : 	SetWordWrap(bWordWrap);

	mov	eax, DWORD PTR _bWordWrap$[ebp]
	push	eax
	mov	ecx, DWORD PTR _this$[ebp]
	sub	ecx, 1284				; 00000504H
	call	?SetWordWrap@CRulerRichEditCtrl@@QAEXH@Z ; CRulerRichEditCtrl::SetWordWrap

; 750  : 	
; 751  : 	m_toolbar.SetFontColor((COLORREF)pPrefs->GetProfileInt(sKey, _T("ForegroundColour"), CLR_DEFAULT), TRUE);

	push	1
	mov	esi, esp
	push	-16777216				; ff000000H
	push	OFFSET $SG180926
	mov	edi, esp
	lea	ecx, DWORD PTR _sKey$[ebp]
	call	DWORD PTR __imp_??B?$CSimpleStringT@_W$00@ATL@@QBEPB_WXZ
	cmp	edi, esp
	call	__RTC_CheckEsp
	push	eax
	mov	ecx, DWORD PTR _pPrefs$[ebp]
	mov	edx, DWORD PTR [ecx]
	mov	ecx, DWORD PTR _pPrefs$[ebp]
	mov	eax, DWORD PTR [edx]
	call	eax
	cmp	esi, esp
	call	__RTC_CheckEsp
	push	eax
	mov	ecx, DWORD PTR _this$[ebp]
	sub	ecx, 668				; 0000029cH
	call	?SetFontColor@CRRECToolBar@@QAEXKH@Z	; CRRECToolBar::SetFontColor

; 752  : 	m_toolbar.SetFontColor((COLORREF)pPrefs->GetProfileInt(sKey, _T("BackgroundColour"), CLR_DEFAULT), FALSE);

	push	0
	mov	esi, esp
	push	-16777216				; ff000000H
	push	OFFSET $SG180928
	mov	edi, esp
	lea	ecx, DWORD PTR _sKey$[ebp]
	call	DWORD PTR __imp_??B?$CSimpleStringT@_W$00@ATL@@QBEPB_WXZ
	cmp	edi, esp
	call	__RTC_CheckEsp
	push	eax
	mov	ecx, DWORD PTR _pPrefs$[ebp]
	mov	edx, DWORD PTR [ecx]
	mov	ecx, DWORD PTR _pPrefs$[ebp]
	mov	eax, DWORD PTR [edx]
	call	eax
	cmp	esi, esp
	call	__RTC_CheckEsp
	push	eax
	mov	ecx, DWORD PTR _this$[ebp]
	sub	ecx, 668				; 0000029cH
	call	?SetFontColor@CRRECToolBar@@QAEXKH@Z	; CRRECToolBar::SetFontColor

; 753  : 
; 754  : 	m_prefsDlg.LoadPreferences(pPrefs, sKey);

	mov	esi, esp
	lea	ecx, DWORD PTR _sKey$[ebp]
	call	DWORD PTR __imp_??B?$CSimpleStringT@_W$00@ATL@@QBEPB_WXZ
	cmp	esi, esp
	call	__RTC_CheckEsp
	push	eax
	mov	ecx, DWORD PTR _pPrefs$[ebp]
	push	ecx
	mov	ecx, DWORD PTR _this$[ebp]
	add	ecx, 720				; 000002d0H
	call	?LoadPreferences@CRTFPreferencesDlg@@QAEXPBVIPreferences@@PB_W@Z ; CRTFPreferencesDlg::LoadPreferences

; 755  : 	RE_PASTE nLinkOption = (RE_PASTE)pPrefs->GetProfileInt(sKey, _T("FileLinkOption"), REP_ASIMAGE);

	mov	esi, esp
	push	3
	push	OFFSET $SG180931
	mov	edi, esp
	lea	ecx, DWORD PTR _sKey$[ebp]
	call	DWORD PTR __imp_??B?$CSimpleStringT@_W$00@ATL@@QBEPB_WXZ
	cmp	edi, esp
	call	__RTC_CheckEsp
	push	eax
	mov	edx, DWORD PTR _pPrefs$[ebp]
	mov	eax, DWORD PTR [edx]
	mov	ecx, DWORD PTR _pPrefs$[ebp]
	mov	edx, DWORD PTR [eax]
	call	edx
	cmp	esi, esp
	call	__RTC_CheckEsp
	mov	DWORD PTR _nLinkOption$[ebp], eax

; 756  : 	BOOL bLinkOptionIsDefault = pPrefs->GetProfileInt(sKey, _T("FileLinkOptionIsDefault"), FALSE);

	mov	esi, esp
	push	0
	push	OFFSET $SG180933
	mov	edi, esp
	lea	ecx, DWORD PTR _sKey$[ebp]
	call	DWORD PTR __imp_??B?$CSimpleStringT@_W$00@ATL@@QBEPB_WXZ
	cmp	edi, esp
	call	__RTC_CheckEsp
	push	eax
	mov	eax, DWORD PTR _pPrefs$[ebp]
	mov	edx, DWORD PTR [eax]
	mov	ecx, DWORD PTR _pPrefs$[ebp]
	mov	eax, DWORD PTR [edx]
	call	eax
	cmp	esi, esp
	call	__RTC_CheckEsp
	mov	DWORD PTR _bLinkOptionIsDefault$[ebp], eax

; 757  : 
; 758  : 	m_rtf.SetFileLinkOption(nLinkOption, bLinkOptionIsDefault);

	mov	ecx, DWORD PTR _bLinkOptionIsDefault$[ebp]
	push	ecx
	mov	edx, DWORD PTR _nLinkOption$[ebp]
	push	edx
	mov	ecx, DWORD PTR _this$[ebp]
	sub	ecx, 980				; 000003d4H
	call	?SetFileLinkOption@CRulerRichEdit@@QAEXW4RE_PASTE@@H@Z ; CRulerRichEdit::SetFileLinkOption

; 759  : }

	mov	BYTE PTR __$EHRec$[ebp+8], 0
	mov	esi, esp
	lea	ecx, DWORD PTR _sKey$[ebp]
	call	DWORD PTR __imp_??1?$CStringT@_WV?$StrTraitMFC_DLL@_WV?$ChTraitsCRT@_W@ATL@@@@@ATL@@QAE@XZ
	cmp	esi, esp
	call	__RTC_CheckEsp
	mov	DWORD PTR __$EHRec$[ebp+8], -1
	lea	ecx, DWORD PTR __ctlState$[ebp]
	call	??1AFX_MAINTAIN_STATE2@@QAE@XZ		; AFX_MAINTAIN_STATE2::~AFX_MAINTAIN_STATE2
	push	edx
	mov	ecx, ebp
	push	eax
	lea	edx, DWORD PTR $LN9@LoadPrefer
	call	@_RTC_CheckStackVars@8
	pop	eax
	pop	edx
	mov	ecx, DWORD PTR __$EHRec$[ebp]
	mov	DWORD PTR fs:0, ecx
	pop	ecx
	pop	edi
	pop	esi
	add	esp, 72					; 00000048H
	cmp	ebp, esp
	call	__RTC_CheckEsp
	mov	esp, ebp
	pop	ebp
	ret	8
	npad	1
$LN9@LoadPrefer:
	DD	2
	DD	$LN8@LoadPrefer
$LN8@LoadPrefer:
	DD	-36					; ffffffdcH
	DD	16					; 00000010H
	DD	$LN5@LoadPrefer
	DD	-48					; ffffffd0H
	DD	4
	DD	$LN6@LoadPrefer
$LN6@LoadPrefer:
	DB	115					; 00000073H
	DB	75					; 0000004bH
	DB	101					; 00000065H
	DB	121					; 00000079H
	DB	0
$LN5@LoadPrefer:
	DB	95					; 0000005fH
	DB	99					; 00000063H
	DB	116					; 00000074H
	DB	108					; 0000006cH
	DB	83					; 00000053H
	DB	116					; 00000074H
	DB	97					; 00000061H
	DB	116					; 00000074H
	DB	101					; 00000065H
	DB	0
_TEXT	ENDS
;	COMDAT text$x
text$x	SEGMENT
__unwindfunclet$?LoadPreferences@CRTFContentControl@@UAEXPBVIPreferences@@PB_W@Z$0:
	lea	ecx, DWORD PTR __ctlState$[ebp]
	jmp	??1AFX_MAINTAIN_STATE2@@QAE@XZ		; AFX_MAINTAIN_STATE2::~AFX_MAINTAIN_STATE2
__unwindfunclet$?LoadPreferences@CRTFContentControl@@UAEXPBVIPreferences@@PB_W@Z$1:
	mov	esi, esp
	lea	ecx, DWORD PTR _sKey$[ebp]
	call	DWORD PTR __imp_??1?$CStringT@_WV?$StrTraitMFC_DLL@_WV?$ChTraitsCRT@_W@ATL@@@@@ATL@@QAE@XZ
	cmp	esi, esp
	jmp	__RTC_CheckEsp
__ehhandler$?LoadPreferences@CRTFContentControl@@UAEXPBVIPreferences@@PB_W@Z:
	mov	edx, DWORD PTR [esp+8]
	lea	eax, DWORD PTR [edx+12]
	mov	ecx, DWORD PTR [edx-72]
	xor	ecx, eax
	call	@__security_check_cookie@4
	mov	eax, OFFSET __ehfuncinfo$?LoadPreferences@CRTFContentControl@@UAEXPBVIPreferences@@PB_W@Z
	jmp	___CxxFrameHandler3
text$x	ENDS
?LoadPreferences@CRTFContentControl@@UAEXPBVIPreferences@@PB_W@Z ENDP ; CRTFContentControl::LoadPreferences
EXTRN	?OnStyleChanging@CWnd@@IAEXHPAUtagSTYLESTRUCT@@@Z:PROC ; CWnd::OnStyleChanging
; Function compile flags: /Odtp /RTCsu
;	COMDAT ?OnStyleChanging@CRTFContentControl@@IAEXHPAUtagSTYLESTRUCT@@@Z
_TEXT	SEGMENT
_this$ = -4						; size = 4
_nStyleType$ = 8					; size = 4
_lpStyleStruct$ = 12					; size = 4
?OnStyleChanging@CRTFContentControl@@IAEXHPAUtagSTYLESTRUCT@@@Z PROC ; CRTFContentControl::OnStyleChanging, COMDAT
; _this$ = ecx

; 762  : {

	push	ebp
	mov	ebp, esp
	push	ecx
	mov	DWORD PTR [ebp-4], -858993460		; ccccccccH
	mov	DWORD PTR _this$[ebp], ecx

; 763  : 	if (nStyleType == GWL_EXSTYLE)

	cmp	DWORD PTR _nStyleType$[ebp], -20	; ffffffecH
	jne	SHORT $LN2@OnStyleCha

; 764  : 	{
; 765  : 		// strip of our client edge
; 766  : 		if (lpStyleStruct->styleNew & WS_EX_CLIENTEDGE)

	mov	eax, DWORD PTR _lpStyleStruct$[ebp]
	mov	ecx, DWORD PTR [eax+4]
	and	ecx, 512				; 00000200H
	je	SHORT $LN2@OnStyleCha

; 767  : 			lpStyleStruct->styleNew &= ~WS_EX_CLIENTEDGE;

	mov	edx, DWORD PTR _lpStyleStruct$[ebp]
	mov	eax, DWORD PTR [edx+4]
	and	eax, -513				; fffffdffH
	mov	ecx, DWORD PTR _lpStyleStruct$[ebp]
	mov	DWORD PTR [ecx+4], eax
$LN2@OnStyleCha:

; 768  : 	}
; 769  : 
; 770  : 	CRulerRichEditCtrl::OnStyleChanging(nStyleType, lpStyleStruct);

	mov	edx, DWORD PTR _lpStyleStruct$[ebp]
	push	edx
	mov	eax, DWORD PTR _nStyleType$[ebp]
	push	eax
	mov	ecx, DWORD PTR _this$[ebp]
	call	?OnStyleChanging@CWnd@@IAEXHPAUtagSTYLESTRUCT@@@Z ; CWnd::OnStyleChanging

; 771  : }

	add	esp, 4
	cmp	ebp, esp
	call	__RTC_CheckEsp
	mov	esp, ebp
	pop	ebp
	ret	8
?OnStyleChanging@CRTFContentControl@@IAEXHPAUtagSTYLESTRUCT@@@Z ENDP ; CRTFContentControl::OnStyleChanging
_TEXT	ENDS
EXTRN	__imp_?Find@?$CStringT@_WV?$StrTraitMFC_DLL@_WV?$ChTraitsCRT@_W@ATL@@@@@ATL@@QBEHPB_WH@Z:PROC
EXTRN	__imp_?MakeLower@?$CStringT@_WV?$StrTraitMFC_DLL@_WV?$ChTraitsCRT@_W@ATL@@@@@ATL@@QAEAAV12@XZ:PROC
;	COMDAT xdata$x
xdata$x	SEGMENT
__unwindtable$?OnCustomUrl@CRTFContentControl@@IAEJIJ@Z DD 0ffffffffH
	DD	FLAT:__unwindfunclet$?OnCustomUrl@CRTFContentControl@@IAEJIJ@Z$0
__ehfuncinfo$?OnCustomUrl@CRTFContentControl@@IAEJIJ@Z DD 019930522H
	DD	01H
	DD	FLAT:__unwindtable$?OnCustomUrl@CRTFContentControl@@IAEJIJ@Z
	DD	2 DUP(00H)
	DD	2 DUP(00H)
	DD	00H
	DD	01H
; Function compile flags: /Odtp /RTCsu
xdata$x	ENDS
;	COMDAT ?OnCustomUrl@CRTFContentControl@@IAEJIJ@Z
_TEXT	SEGMENT
$T187605 = -36						; size = 4
$T187604 = -32						; size = 4
_sUrl$ = -24						; size = 4
_this$ = -16						; size = 4
__$EHRec$ = -12						; size = 12
_wp$ = 8						; size = 4
_lp$ = 12						; size = 4
?OnCustomUrl@CRTFContentControl@@IAEJIJ@Z PROC		; CRTFContentControl::OnCustomUrl, COMDAT
; _this$ = ecx

; 774  : {

	push	ebp
	mov	ebp, esp
	push	-1
	push	__ehhandler$?OnCustomUrl@CRTFContentControl@@IAEJIJ@Z
	mov	eax, DWORD PTR fs:0
	push	eax
	sub	esp, 24					; 00000018H
	push	esi
	mov	eax, -858993460				; ccccccccH
	mov	DWORD PTR [ebp-36], eax
	mov	DWORD PTR [ebp-32], eax
	mov	DWORD PTR [ebp-28], eax
	mov	DWORD PTR [ebp-24], eax
	mov	DWORD PTR [ebp-20], eax
	mov	DWORD PTR [ebp-16], eax
	mov	eax, DWORD PTR ___security_cookie
	xor	eax, ebp
	push	eax
	lea	eax, DWORD PTR __$EHRec$[ebp]
	mov	DWORD PTR fs:0, eax
	mov	DWORD PTR _this$[ebp], ecx

; 775  : 	UNREFERENCED_PARAMETER(wp);
; 776  : 	ASSERT (wp == RTF_CONTROL);

	cmp	DWORD PTR _wp$[ebp], 12			; 0000000cH
	je	SHORT $LN5@OnCustomUr
	push	776					; 00000308H
	push	OFFSET _THIS_FILE
	call	?AfxAssertFailedLine@@YGHPBDH@Z		; AfxAssertFailedLine
	test	eax, eax
	je	SHORT $LN5@OnCustomUr
	int	3
$LN5@OnCustomUr:

; 777  : 
; 778  : 	CString sUrl((LPCTSTR)lp);

	mov	esi, esp
	mov	ecx, DWORD PTR _lp$[ebp]
	push	ecx
	lea	ecx, DWORD PTR _sUrl$[ebp]
	call	DWORD PTR __imp_??0?$CStringT@_WV?$StrTraitMFC_DLL@_WV?$ChTraitsCRT@_W@ATL@@@@@ATL@@QAE@PB_W@Z
	cmp	esi, esp
	call	__RTC_CheckEsp
	mov	DWORD PTR __$EHRec$[ebp+8], 0

; 779  : 	sUrl.MakeLower();

	mov	esi, esp
	lea	ecx, DWORD PTR _sUrl$[ebp]
	call	DWORD PTR __imp_?MakeLower@?$CStringT@_WV?$StrTraitMFC_DLL@_WV?$ChTraitsCRT@_W@ATL@@@@@ATL@@QAEAAV12@XZ
	cmp	esi, esp
	call	__RTC_CheckEsp

; 780  : 
; 781  : 	if (sUrl.Find(TDL_PROTOCOL) != -1 || sUrl.Find(TDL_EXTENSION) != -1)

	mov	esi, esp
	push	0
	mov	edx, DWORD PTR _TDL_PROTOCOL
	push	edx
	lea	ecx, DWORD PTR _sUrl$[ebp]
	call	DWORD PTR __imp_?Find@?$CStringT@_WV?$StrTraitMFC_DLL@_WV?$ChTraitsCRT@_W@ATL@@@@@ATL@@QBEHPB_WH@Z
	cmp	esi, esp
	call	__RTC_CheckEsp
	cmp	eax, -1
	jne	SHORT $LN1@OnCustomUr
	mov	esi, esp
	push	0
	mov	eax, DWORD PTR _TDL_EXTENSION
	push	eax
	lea	ecx, DWORD PTR _sUrl$[ebp]
	call	DWORD PTR __imp_?Find@?$CStringT@_WV?$StrTraitMFC_DLL@_WV?$ChTraitsCRT@_W@ATL@@@@@ATL@@QBEHPB_WH@Z
	cmp	esi, esp
	call	__RTC_CheckEsp
	cmp	eax, -1
	je	SHORT $LN2@OnCustomUr
$LN1@OnCustomUr:

; 782  : 		return GetParent()->SendMessage(WM_TDCM_TASKLINK, 0, lp);

	mov	ecx, DWORD PTR _lp$[ebp]
	push	ecx
	push	0
	mov	edx, DWORD PTR _WM_TDCM_TASKLINK
	push	edx
	mov	ecx, DWORD PTR _this$[ebp]
	call	?GetParent@CWnd@@QBEPAV1@XZ		; CWnd::GetParent
	mov	ecx, eax
	call	?SendMessageW@CWnd@@QBEJIIJ@Z		; CWnd::SendMessageW
	mov	DWORD PTR $T187604[ebp], eax
	mov	DWORD PTR __$EHRec$[ebp+8], -1
	mov	esi, esp
	lea	ecx, DWORD PTR _sUrl$[ebp]
	call	DWORD PTR __imp_??1?$CStringT@_WV?$StrTraitMFC_DLL@_WV?$ChTraitsCRT@_W@ATL@@@@@ATL@@QAE@XZ
	cmp	esi, esp
	call	__RTC_CheckEsp
	mov	eax, DWORD PTR $T187604[ebp]
	jmp	SHORT $LN3@OnCustomUr
$LN2@OnCustomUr:

; 783  : 
; 784  : 	return 0;

	mov	DWORD PTR $T187605[ebp], 0
	mov	DWORD PTR __$EHRec$[ebp+8], -1
	mov	esi, esp
	lea	ecx, DWORD PTR _sUrl$[ebp]
	call	DWORD PTR __imp_??1?$CStringT@_WV?$StrTraitMFC_DLL@_WV?$ChTraitsCRT@_W@ATL@@@@@ATL@@QAE@XZ
	cmp	esi, esp
	call	__RTC_CheckEsp
	mov	eax, DWORD PTR $T187605[ebp]
$LN3@OnCustomUr:

; 785  : }

	push	edx
	mov	ecx, ebp
	push	eax
	lea	edx, DWORD PTR $LN10@OnCustomUr
	call	@_RTC_CheckStackVars@8
	pop	eax
	pop	edx
	mov	ecx, DWORD PTR __$EHRec$[ebp]
	mov	DWORD PTR fs:0, ecx
	pop	ecx
	pop	esi
	add	esp, 36					; 00000024H
	cmp	ebp, esp
	call	__RTC_CheckEsp
	mov	esp, ebp
	pop	ebp
	ret	8
	npad	3
$LN10@OnCustomUr:
	DD	1
	DD	$LN9@OnCustomUr
$LN9@OnCustomUr:
	DD	-24					; ffffffe8H
	DD	4
	DD	$LN7@OnCustomUr
$LN7@OnCustomUr:
	DB	115					; 00000073H
	DB	85					; 00000055H
	DB	114					; 00000072H
	DB	108					; 0000006cH
	DB	0
_TEXT	ENDS
;	COMDAT text$x
text$x	SEGMENT
__unwindfunclet$?OnCustomUrl@CRTFContentControl@@IAEJIJ@Z$0:
	mov	esi, esp
	lea	ecx, DWORD PTR _sUrl$[ebp]
	call	DWORD PTR __imp_??1?$CStringT@_WV?$StrTraitMFC_DLL@_WV?$ChTraitsCRT@_W@ATL@@@@@ATL@@QAE@XZ
	cmp	esi, esp
	jmp	__RTC_CheckEsp
__ehhandler$?OnCustomUrl@CRTFContentControl@@IAEJIJ@Z:
	mov	edx, DWORD PTR [esp+8]
	lea	eax, DWORD PTR [edx+12]
	mov	ecx, DWORD PTR [edx-32]
	xor	ecx, eax
	call	@__security_check_cookie@4
	mov	eax, OFFSET __ehfuncinfo$?OnCustomUrl@CRTFContentControl@@IAEJIJ@Z
	jmp	___CxxFrameHandler3
text$x	ENDS
?OnCustomUrl@CRTFContentControl@@IAEJIJ@Z ENDP		; CRTFContentControl::OnCustomUrl
; Function compile flags: /Odtp /RTCsu
;	COMDAT ?OnFailedUrl@CRTFContentControl@@IAEJIJ@Z
_TEXT	SEGMENT
_this$ = -4						; size = 4
_wp$ = 8						; size = 4
_lp$ = 12						; size = 4
?OnFailedUrl@CRTFContentControl@@IAEJIJ@Z PROC		; CRTFContentControl::OnFailedUrl, COMDAT
; _this$ = ecx

; 788  : {

	push	ebp
	mov	ebp, esp
	push	ecx
	mov	DWORD PTR [ebp-4], -858993460		; ccccccccH
	mov	DWORD PTR _this$[ebp], ecx

; 789  : 	ASSERT (wp == RTF_CONTROL);

	cmp	DWORD PTR _wp$[ebp], 12			; 0000000cH
	je	SHORT $LN3@OnFailedUr
	push	789					; 00000315H
	push	OFFSET _THIS_FILE
	call	?AfxAssertFailedLine@@YGHPBDH@Z		; AfxAssertFailedLine
	test	eax, eax
	je	SHORT $LN3@OnFailedUr
	int	3
$LN3@OnFailedUr:

; 790  : 	return GetParent()->SendMessage(WM_TDCM_FAILEDLINK, wp, lp);

	mov	ecx, DWORD PTR _lp$[ebp]
	push	ecx
	mov	edx, DWORD PTR _wp$[ebp]
	push	edx
	mov	eax, DWORD PTR _WM_TDCM_FAILEDLINK
	push	eax
	mov	ecx, DWORD PTR _this$[ebp]
	call	?GetParent@CWnd@@QBEPAV1@XZ		; CWnd::GetParent
	mov	ecx, eax
	call	?SendMessageW@CWnd@@QBEJIIJ@Z		; CWnd::SendMessageW

; 791  : }

	add	esp, 4
	cmp	ebp, esp
	call	__RTC_CheckEsp
	mov	esp, ebp
	pop	ebp
	ret	8
?OnFailedUrl@CRTFContentControl@@IAEJIJ@Z ENDP		; CRTFContentControl::OnFailedUrl
_TEXT	ENDS
EXTRN	?Copy@CRichEditCtrl@@QAEXXZ:PROC		; CRichEditCtrl::Copy
; Function compile flags: /Odtp /RTCsu
;	COMDAT ?OnEditCopy@CRTFContentControl@@IAEXXZ
_TEXT	SEGMENT
_this$ = -4						; size = 4
?OnEditCopy@CRTFContentControl@@IAEXXZ PROC		; CRTFContentControl::OnEditCopy, COMDAT
; _this$ = ecx

; 794  : {

	push	ebp
	mov	ebp, esp
	push	ecx
	mov	DWORD PTR [ebp-4], -858993460		; ccccccccH
	mov	DWORD PTR _this$[ebp], ecx

; 795  : 	m_rtf.Copy();	

	mov	ecx, DWORD PTR _this$[ebp]
	add	ecx, 304				; 00000130H
	call	?Copy@CRichEditCtrl@@QAEXXZ		; CRichEditCtrl::Copy

; 796  : }

	add	esp, 4
	cmp	ebp, esp
	call	__RTC_CheckEsp
	mov	esp, ebp
	pop	ebp
	ret	0
?OnEditCopy@CRTFContentControl@@IAEXXZ ENDP		; CRTFContentControl::OnEditCopy
_TEXT	ENDS
PUBLIC	?CopyRtfToClipboardAsHtml@CRTFContentControl@@IAEHABV?$CStringT@_WV?$StrTraitMFC_DLL@_WV?$ChTraitsCRT@_W@ATL@@@@@ATL@@H@Z ; CRTFContentControl::CopyRtfToClipboardAsHtml
;	COMDAT xdata$x
xdata$x	SEGMENT
__unwindtable$?OnEditCopyAsHtml@CRTFContentControl@@IAEXXZ DD 0ffffffffH
	DD	FLAT:__unwindfunclet$?OnEditCopyAsHtml@CRTFContentControl@@IAEXXZ$0
	DD	00H
	DD	FLAT:__unwindfunclet$?OnEditCopyAsHtml@CRTFContentControl@@IAEXXZ$1
__ehfuncinfo$?OnEditCopyAsHtml@CRTFContentControl@@IAEXXZ DD 019930522H
	DD	02H
	DD	FLAT:__unwindtable$?OnEditCopyAsHtml@CRTFContentControl@@IAEXXZ
	DD	2 DUP(00H)
	DD	2 DUP(00H)
	DD	00H
	DD	01H
; Function compile flags: /Odtp /RTCsu
xdata$x	ENDS
;	COMDAT ?OnEditCopyAsHtml@CRTFContentControl@@IAEXXZ
_TEXT	SEGMENT
tv91 = -48						; size = 4
tv93 = -44						; size = 4
$T187624 = -40						; size = 8
$T187623 = -32						; size = 4
_sRTF$ = -24						; size = 4
_this$ = -16						; size = 4
__$EHRec$ = -12						; size = 12
?OnEditCopyAsHtml@CRTFContentControl@@IAEXXZ PROC	; CRTFContentControl::OnEditCopyAsHtml, COMDAT
; _this$ = ecx

; 799  : {

	push	ebp
	mov	ebp, esp
	push	-1
	push	__ehhandler$?OnEditCopyAsHtml@CRTFContentControl@@IAEXXZ
	mov	eax, DWORD PTR fs:0
	push	eax
	sub	esp, 36					; 00000024H
	push	esi
	mov	eax, -858993460				; ccccccccH
	mov	DWORD PTR [ebp-48], eax
	mov	DWORD PTR [ebp-44], eax
	mov	DWORD PTR [ebp-40], eax
	mov	DWORD PTR [ebp-36], eax
	mov	DWORD PTR [ebp-32], eax
	mov	DWORD PTR [ebp-28], eax
	mov	DWORD PTR [ebp-24], eax
	mov	DWORD PTR [ebp-20], eax
	mov	DWORD PTR [ebp-16], eax
	mov	eax, DWORD PTR ___security_cookie
	xor	eax, ebp
	push	eax
	lea	eax, DWORD PTR __$EHRec$[ebp]
	mov	DWORD PTR fs:0, eax
	mov	DWORD PTR _this$[ebp], ecx

; 800  : 	m_rtf.Copy();	

	mov	ecx, DWORD PTR _this$[ebp]
	add	ecx, 304				; 00000130H
	call	?Copy@CRichEditCtrl@@QAEXXZ		; CRichEditCtrl::Copy

; 801  : 
; 802  : 	// convert RTF to HTML and copy to clipboard
; 803  : 	CString sRTF;

	mov	esi, esp
	lea	ecx, DWORD PTR _sRTF$[ebp]
	call	DWORD PTR __imp_??0?$CStringT@_WV?$StrTraitMFC_DLL@_WV?$ChTraitsCRT@_W@ATL@@@@@ATL@@QAE@XZ
	cmp	esi, esp
	call	__RTC_CheckEsp
	mov	DWORD PTR __$EHRec$[ebp+8], 0

; 804  : 	
; 805  : 	if (CClipboard().GetText(sRTF, CBF_RTF))

	mov	eax, DWORD PTR _CBF_RTF
	push	eax
	lea	ecx, DWORD PTR _sRTF$[ebp]
	push	ecx
	lea	ecx, DWORD PTR $T187624[ebp]
	call	??0CClipboard@@QAE@XZ			; CClipboard::CClipboard
	mov	DWORD PTR tv93[ebp], eax
	mov	edx, DWORD PTR tv93[ebp]
	mov	DWORD PTR tv91[ebp], edx
	mov	BYTE PTR __$EHRec$[ebp+8], 1
	mov	ecx, DWORD PTR tv91[ebp]
	call	?GetText@CClipboard@@QBEHAAV?$CStringT@_WV?$StrTraitMFC_DLL@_WV?$ChTraitsCRT@_W@ATL@@@@@ATL@@I@Z ; CClipboard::GetText
	mov	DWORD PTR $T187623[ebp], eax
	mov	BYTE PTR __$EHRec$[ebp+8], 0
	lea	ecx, DWORD PTR $T187624[ebp]
	call	??1CClipboard@@QAE@XZ			; CClipboard::~CClipboard
	cmp	DWORD PTR $T187623[ebp], 0
	je	SHORT $LN1@OnEditCopy

; 806  : 		CopyRtfToClipboardAsHtml(sRTF, FALSE);

	push	0
	lea	eax, DWORD PTR _sRTF$[ebp]
	push	eax
	mov	ecx, DWORD PTR _this$[ebp]
	call	?CopyRtfToClipboardAsHtml@CRTFContentControl@@IAEHABV?$CStringT@_WV?$StrTraitMFC_DLL@_WV?$ChTraitsCRT@_W@ATL@@@@@ATL@@H@Z ; CRTFContentControl::CopyRtfToClipboardAsHtml
$LN1@OnEditCopy:

; 807  : }

	mov	DWORD PTR __$EHRec$[ebp+8], -1
	mov	esi, esp
	lea	ecx, DWORD PTR _sRTF$[ebp]
	call	DWORD PTR __imp_??1?$CStringT@_WV?$StrTraitMFC_DLL@_WV?$ChTraitsCRT@_W@ATL@@@@@ATL@@QAE@XZ
	cmp	esi, esp
	call	__RTC_CheckEsp
	push	edx
	mov	ecx, ebp
	push	eax
	lea	edx, DWORD PTR $LN9@OnEditCopy
	call	@_RTC_CheckStackVars@8
	pop	eax
	pop	edx
	mov	ecx, DWORD PTR __$EHRec$[ebp]
	mov	DWORD PTR fs:0, ecx
	pop	ecx
	pop	esi
	add	esp, 48					; 00000030H
	cmp	ebp, esp
	call	__RTC_CheckEsp
	mov	esp, ebp
	pop	ebp
	ret	0
	npad	2
$LN9@OnEditCopy:
	DD	1
	DD	$LN8@OnEditCopy
$LN8@OnEditCopy:
	DD	-24					; ffffffe8H
	DD	4
	DD	$LN6@OnEditCopy
$LN6@OnEditCopy:
	DB	115					; 00000073H
	DB	82					; 00000052H
	DB	84					; 00000054H
	DB	70					; 00000046H
	DB	0
_TEXT	ENDS
;	COMDAT text$x
text$x	SEGMENT
__unwindfunclet$?OnEditCopyAsHtml@CRTFContentControl@@IAEXXZ$0:
	mov	esi, esp
	lea	ecx, DWORD PTR _sRTF$[ebp]
	call	DWORD PTR __imp_??1?$CStringT@_WV?$StrTraitMFC_DLL@_WV?$ChTraitsCRT@_W@ATL@@@@@ATL@@QAE@XZ
	cmp	esi, esp
	jmp	__RTC_CheckEsp
__unwindfunclet$?OnEditCopyAsHtml@CRTFContentControl@@IAEXXZ$1:
	lea	ecx, DWORD PTR $T187624[ebp]
	jmp	??1CClipboard@@QAE@XZ			; CClipboard::~CClipboard
__ehhandler$?OnEditCopyAsHtml@CRTFContentControl@@IAEXXZ:
	mov	edx, DWORD PTR [esp+8]
	lea	eax, DWORD PTR [edx+12]
	mov	ecx, DWORD PTR [edx-44]
	xor	ecx, eax
	call	@__security_check_cookie@4
	mov	eax, OFFSET __ehfuncinfo$?OnEditCopyAsHtml@CRTFContentControl@@IAEXXZ
	jmp	___CxxFrameHandler3
text$x	ENDS
?OnEditCopyAsHtml@CRTFContentControl@@IAEXXZ ENDP	; CRTFContentControl::OnEditCopyAsHtml
EXTRN	?AddData@CClipboardBackup@@QAEHPB_WI@Z:PROC	; CClipboardBackup::AddData
EXTRN	?PackageHTMLFragment@CClipboard@@SAAAV?$CStringT@_WV?$StrTraitMFC_DLL@_WV?$ChTraitsCRT@_W@ATL@@@@@ATL@@AAV23@ABV23@@Z:PROC ; CClipboard::PackageHTMLFragment
EXTRN	?ConvertRtfToHtml@CRtfHtmlConverter@@QAEHPBDPB_WAAV?$CStringT@_WV?$StrTraitMFC_DLL@_WV?$ChTraitsCRT@_W@ATL@@@@@ATL@@1@Z:PROC ; CRtfHtmlConverter::ConvertRtfToHtml
;	COMDAT xdata$x
xdata$x	SEGMENT
__unwindtable$?CopyRtfToClipboardAsHtml@CRTFContentControl@@IAEHABV?$CStringT@_WV?$StrTraitMFC_DLL@_WV?$ChTraitsCRT@_W@ATL@@@@@ATL@@H@Z DD 0ffffffffH
	DD	FLAT:__unwindfunclet$?CopyRtfToClipboardAsHtml@CRTFContentControl@@IAEHABV?$CStringT@_WV?$StrTraitMFC_DLL@_WV?$ChTraitsCRT@_W@ATL@@@@@ATL@@H@Z$0
	DD	00H
	DD	FLAT:__unwindfunclet$?CopyRtfToClipboardAsHtml@CRTFContentControl@@IAEHABV?$CStringT@_WV?$StrTraitMFC_DLL@_WV?$ChTraitsCRT@_W@ATL@@@@@ATL@@H@Z$1
	DD	00H
	DD	FLAT:__unwindfunclet$?CopyRtfToClipboardAsHtml@CRTFContentControl@@IAEHABV?$CStringT@_WV?$StrTraitMFC_DLL@_WV?$ChTraitsCRT@_W@ATL@@@@@ATL@@H@Z$2
	DD	00H
	DD	FLAT:__unwindfunclet$?CopyRtfToClipboardAsHtml@CRTFContentControl@@IAEHABV?$CStringT@_WV?$StrTraitMFC_DLL@_WV?$ChTraitsCRT@_W@ATL@@@@@ATL@@H@Z$3
__ehfuncinfo$?CopyRtfToClipboardAsHtml@CRTFContentControl@@IAEHABV?$CStringT@_WV?$StrTraitMFC_DLL@_WV?$ChTraitsCRT@_W@ATL@@@@@ATL@@H@Z DD 019930522H
	DD	04H
	DD	FLAT:__unwindtable$?CopyRtfToClipboardAsHtml@CRTFContentControl@@IAEHABV?$CStringT@_WV?$StrTraitMFC_DLL@_WV?$ChTraitsCRT@_W@ATL@@@@@ATL@@H@Z
	DD	2 DUP(00H)
	DD	2 DUP(00H)
	DD	00H
	DD	01H
; Function compile flags: /Odtp /RTCsu
xdata$x	ENDS
;	COMDAT ?CopyRtfToClipboardAsHtml@CRTFContentControl@@IAEHABV?$CStringT@_WV?$StrTraitMFC_DLL@_WV?$ChTraitsCRT@_W@ATL@@@@@ATL@@H@Z
_TEXT	SEGMENT
tv164 = -100						; size = 4
tv91 = -96						; size = 4
$T187641 = -92						; size = 4
$T187640 = -88						; size = 8
$T187639 = -80						; size = 4
$T187638 = -76						; size = 4
_cb$180981 = -68					; size = 36
_sHtml$ = -24						; size = 4
_this$ = -16						; size = 4
__$EHRec$ = -12						; size = 12
_sRTF$ = 8						; size = 4
_bAppend$ = 12						; size = 4
?CopyRtfToClipboardAsHtml@CRTFContentControl@@IAEHABV?$CStringT@_WV?$StrTraitMFC_DLL@_WV?$ChTraitsCRT@_W@ATL@@@@@ATL@@H@Z PROC ; CRTFContentControl::CopyRtfToClipboardAsHtml, COMDAT
; _this$ = ecx

; 810  : {

	push	ebp
	mov	ebp, esp
	push	-1
	push	__ehhandler$?CopyRtfToClipboardAsHtml@CRTFContentControl@@IAEHABV?$CStringT@_WV?$StrTraitMFC_DLL@_WV?$ChTraitsCRT@_W@ATL@@@@@ATL@@H@Z
	mov	eax, DWORD PTR fs:0
	push	eax
	sub	esp, 88					; 00000058H
	push	esi
	push	edi
	push	ecx
	lea	edi, DWORD PTR [ebp-100]
	mov	ecx, 22					; 00000016H
	mov	eax, -858993460				; ccccccccH
	rep stosd
	pop	ecx
	mov	eax, DWORD PTR ___security_cookie
	xor	eax, ebp
	push	eax
	lea	eax, DWORD PTR __$EHRec$[ebp]
	mov	DWORD PTR fs:0, eax
	mov	DWORD PTR _this$[ebp], ecx

; 811  : 	// convert RTF to HTML and copy to clipboard
; 812  : 	CString sHtml;

	mov	esi, esp
	lea	ecx, DWORD PTR _sHtml$[ebp]
	call	DWORD PTR __imp_??0?$CStringT@_WV?$StrTraitMFC_DLL@_WV?$ChTraitsCRT@_W@ATL@@@@@ATL@@QAE@XZ
	cmp	esi, esp
	call	__RTC_CheckEsp
	mov	DWORD PTR __$EHRec$[ebp+8], 0

; 813  : 
; 814  : 	if (m_rtfHtml.ConvertRtfToHtml((LPCSTR)(LPCTSTR)sRTF, NULL, sHtml, NULL))

	push	0
	lea	eax, DWORD PTR _sHtml$[ebp]
	push	eax
	push	0
	mov	esi, esp
	mov	ecx, DWORD PTR _sRTF$[ebp]
	call	DWORD PTR __imp_??B?$CSimpleStringT@_W$00@ATL@@QBEPB_WXZ
	cmp	esi, esp
	call	__RTC_CheckEsp
	push	eax
	mov	ecx, DWORD PTR _this$[ebp]
	mov	ecx, DWORD PTR [ecx+1908]
	call	?ConvertRtfToHtml@CRtfHtmlConverter@@QAEHPBDPB_WAAV?$CStringT@_WV?$StrTraitMFC_DLL@_WV?$ChTraitsCRT@_W@ATL@@@@@ATL@@1@Z ; CRtfHtmlConverter::ConvertRtfToHtml
	test	eax, eax
	je	$LN3@CopyRtfToC

; 815  : 	{
; 816  : 		CClipboard::PackageHTMLFragment(sHtml);

	mov	esi, esp
	push	OFFSET $SG180979
	lea	ecx, DWORD PTR $T187638[ebp]
	call	DWORD PTR __imp_??0?$CStringT@_WV?$StrTraitMFC_DLL@_WV?$ChTraitsCRT@_W@ATL@@@@@ATL@@QAE@PB_W@Z
	cmp	esi, esp
	call	__RTC_CheckEsp
	mov	BYTE PTR __$EHRec$[ebp+8], 1
	lea	edx, DWORD PTR $T187638[ebp]
	push	edx
	lea	eax, DWORD PTR _sHtml$[ebp]
	push	eax
	call	?PackageHTMLFragment@CClipboard@@SAAAV?$CStringT@_WV?$StrTraitMFC_DLL@_WV?$ChTraitsCRT@_W@ATL@@@@@ATL@@AAV23@ABV23@@Z ; CClipboard::PackageHTMLFragment
	add	esp, 8
	mov	BYTE PTR __$EHRec$[ebp+8], 0
	mov	esi, esp
	lea	ecx, DWORD PTR $T187638[ebp]
	call	DWORD PTR __imp_??1?$CStringT@_WV?$StrTraitMFC_DLL@_WV?$ChTraitsCRT@_W@ATL@@@@@ATL@@QAE@XZ
	cmp	esi, esp
	call	__RTC_CheckEsp

; 817  : 
; 818  : #ifdef _UNICODE
; 819  : 		// must be multibyte format for clipboard
; 820  : 		Misc::EncodeAsMultiByte(sHtml, CP_UTF8);

	push	65001					; 0000fde9H
	lea	ecx, DWORD PTR _sHtml$[ebp]
	push	ecx
	call	?EncodeAsMultiByte@Misc@@YAAAV?$CStringT@_WV?$StrTraitMFC_DLL@_WV?$ChTraitsCRT@_W@ATL@@@@@ATL@@AAV23@I@Z ; Misc::EncodeAsMultiByte
	add	esp, 8

; 821  : #endif
; 822  : 		if (bAppend)

	cmp	DWORD PTR _bAppend$[ebp], 0
	je	SHORT $LN2@CopyRtfToC

; 823  : 		{
; 824  : 			CClipboardBackup cb(*this);

	mov	ecx, DWORD PTR _this$[ebp]
	call	??BCWnd@@QBEPAUHWND__@@XZ		; CWnd::operator HWND__ *
	push	eax
	lea	ecx, DWORD PTR _cb$180981[ebp]
	call	??0CClipboardBackup@@QAE@PAUHWND__@@@Z	; CClipboardBackup::CClipboardBackup
	mov	BYTE PTR __$EHRec$[ebp+8], 2

; 825  : 			
; 826  : 			cb.Backup();

	lea	ecx, DWORD PTR _cb$180981[ebp]
	call	?Backup@CClipboardBackup@@QAEHXZ	; CClipboardBackup::Backup

; 827  : 			cb.AddData(sHtml, CBF_HTML);

	mov	edx, DWORD PTR _CBF_HTML
	push	edx
	mov	esi, esp
	lea	ecx, DWORD PTR _sHtml$[ebp]
	call	DWORD PTR __imp_??B?$CSimpleStringT@_W$00@ATL@@QBEPB_WXZ
	cmp	esi, esp
	call	__RTC_CheckEsp
	push	eax
	lea	ecx, DWORD PTR _cb$180981[ebp]
	call	?AddData@CClipboardBackup@@QAEHPB_WI@Z	; CClipboardBackup::AddData

; 828  : 			
; 829  : 			return cb.Restore();

	lea	ecx, DWORD PTR _cb$180981[ebp]
	call	?Restore@CClipboardBackup@@QAEHXZ	; CClipboardBackup::Restore
	mov	DWORD PTR $T187639[ebp], eax
	mov	BYTE PTR __$EHRec$[ebp+8], 0
	lea	ecx, DWORD PTR _cb$180981[ebp]
	call	??1CClipboardBackup@@QAE@XZ		; CClipboardBackup::~CClipboardBackup
	mov	DWORD PTR __$EHRec$[ebp+8], -1
	mov	esi, esp
	lea	ecx, DWORD PTR _sHtml$[ebp]
	call	DWORD PTR __imp_??1?$CStringT@_WV?$StrTraitMFC_DLL@_WV?$ChTraitsCRT@_W@ATL@@@@@ATL@@QAE@XZ
	cmp	esi, esp
	call	__RTC_CheckEsp
	mov	eax, DWORD PTR $T187639[ebp]
	jmp	SHORT $LN4@CopyRtfToC

; 830  : 		}
; 831  : 		else

	jmp	SHORT $LN3@CopyRtfToC
$LN2@CopyRtfToC:

; 832  : 		{
; 833  : 			CClipboard(*this).SetText(sHtml, CBF_HTML);

	mov	eax, DWORD PTR _CBF_HTML
	push	eax
	lea	ecx, DWORD PTR _sHtml$[ebp]
	push	ecx
	mov	ecx, DWORD PTR _this$[ebp]
	call	??BCWnd@@QBEPAUHWND__@@XZ		; CWnd::operator HWND__ *
	push	eax
	lea	ecx, DWORD PTR $T187640[ebp]
	call	??0CClipboard@@QAE@PAUHWND__@@@Z	; CClipboard::CClipboard
	mov	DWORD PTR tv91[ebp], eax
	mov	edx, DWORD PTR tv91[ebp]
	mov	DWORD PTR tv164[ebp], edx
	mov	BYTE PTR __$EHRec$[ebp+8], 3
	mov	ecx, DWORD PTR tv164[ebp]
	call	?SetText@CClipboard@@QBEHABV?$CStringT@_WV?$StrTraitMFC_DLL@_WV?$ChTraitsCRT@_W@ATL@@@@@ATL@@I@Z ; CClipboard::SetText
	mov	BYTE PTR __$EHRec$[ebp+8], 0
	lea	ecx, DWORD PTR $T187640[ebp]
	call	??1CClipboard@@QAE@XZ			; CClipboard::~CClipboard
$LN3@CopyRtfToC:

; 834  : 		}
; 835  : 	}
; 836  : 
; 837  : 	// else
; 838  : 	return FALSE;

	mov	DWORD PTR $T187641[ebp], 0
	mov	DWORD PTR __$EHRec$[ebp+8], -1
	mov	esi, esp
	lea	ecx, DWORD PTR _sHtml$[ebp]
	call	DWORD PTR __imp_??1?$CStringT@_WV?$StrTraitMFC_DLL@_WV?$ChTraitsCRT@_W@ATL@@@@@ATL@@QAE@XZ
	cmp	esi, esp
	call	__RTC_CheckEsp
	mov	eax, DWORD PTR $T187641[ebp]
$LN4@CopyRtfToC:

; 839  : }

	push	edx
	mov	ecx, ebp
	push	eax
	lea	edx, DWORD PTR $LN14@CopyRtfToC
	call	@_RTC_CheckStackVars@8
	pop	eax
	pop	edx
	mov	ecx, DWORD PTR __$EHRec$[ebp]
	mov	DWORD PTR fs:0, ecx
	pop	ecx
	pop	edi
	pop	esi
	add	esp, 100				; 00000064H
	cmp	ebp, esp
	call	__RTC_CheckEsp
	mov	esp, ebp
	pop	ebp
	ret	8
$LN14@CopyRtfToC:
	DD	2
	DD	$LN13@CopyRtfToC
$LN13@CopyRtfToC:
	DD	-24					; ffffffe8H
	DD	4
	DD	$LN10@CopyRtfToC
	DD	-68					; ffffffbcH
	DD	36					; 00000024H
	DD	$LN11@CopyRtfToC
$LN11@CopyRtfToC:
	DB	99					; 00000063H
	DB	98					; 00000062H
	DB	0
$LN10@CopyRtfToC:
	DB	115					; 00000073H
	DB	72					; 00000048H
	DB	116					; 00000074H
	DB	109					; 0000006dH
	DB	108					; 0000006cH
	DB	0
_TEXT	ENDS
;	COMDAT text$x
text$x	SEGMENT
__unwindfunclet$?CopyRtfToClipboardAsHtml@CRTFContentControl@@IAEHABV?$CStringT@_WV?$StrTraitMFC_DLL@_WV?$ChTraitsCRT@_W@ATL@@@@@ATL@@H@Z$0:
	mov	esi, esp
	lea	ecx, DWORD PTR _sHtml$[ebp]
	call	DWORD PTR __imp_??1?$CStringT@_WV?$StrTraitMFC_DLL@_WV?$ChTraitsCRT@_W@ATL@@@@@ATL@@QAE@XZ
	cmp	esi, esp
	jmp	__RTC_CheckEsp
__unwindfunclet$?CopyRtfToClipboardAsHtml@CRTFContentControl@@IAEHABV?$CStringT@_WV?$StrTraitMFC_DLL@_WV?$ChTraitsCRT@_W@ATL@@@@@ATL@@H@Z$1:
	mov	esi, esp
	lea	ecx, DWORD PTR $T187638[ebp]
	call	DWORD PTR __imp_??1?$CStringT@_WV?$StrTraitMFC_DLL@_WV?$ChTraitsCRT@_W@ATL@@@@@ATL@@QAE@XZ
	cmp	esi, esp
	jmp	__RTC_CheckEsp
__unwindfunclet$?CopyRtfToClipboardAsHtml@CRTFContentControl@@IAEHABV?$CStringT@_WV?$StrTraitMFC_DLL@_WV?$ChTraitsCRT@_W@ATL@@@@@ATL@@H@Z$2:
	lea	ecx, DWORD PTR _cb$180981[ebp]
	jmp	??1CClipboardBackup@@QAE@XZ		; CClipboardBackup::~CClipboardBackup
__unwindfunclet$?CopyRtfToClipboardAsHtml@CRTFContentControl@@IAEHABV?$CStringT@_WV?$StrTraitMFC_DLL@_WV?$ChTraitsCRT@_W@ATL@@@@@ATL@@H@Z$3:
	lea	ecx, DWORD PTR $T187640[ebp]
	jmp	??1CClipboard@@QAE@XZ			; CClipboard::~CClipboard
__ehhandler$?CopyRtfToClipboardAsHtml@CRTFContentControl@@IAEHABV?$CStringT@_WV?$StrTraitMFC_DLL@_WV?$ChTraitsCRT@_W@ATL@@@@@ATL@@H@Z:
	mov	edx, DWORD PTR [esp+8]
	lea	eax, DWORD PTR [edx+12]
	mov	ecx, DWORD PTR [edx-100]
	xor	ecx, eax
	call	@__security_check_cookie@4
	mov	eax, OFFSET __ehfuncinfo$?CopyRtfToClipboardAsHtml@CRTFContentControl@@IAEHABV?$CStringT@_WV?$StrTraitMFC_DLL@_WV?$ChTraitsCRT@_W@ATL@@@@@ATL@@H@Z
	jmp	___CxxFrameHandler3
text$x	ENDS
?CopyRtfToClipboardAsHtml@CRTFContentControl@@IAEHABV?$CStringT@_WV?$StrTraitMFC_DLL@_WV?$ChTraitsCRT@_W@ATL@@@@@ATL@@H@Z ENDP ; CRTFContentControl::CopyRtfToClipboardAsHtml
EXTRN	?HasSelection@CRichEditBaseCtrl@@QBEHXZ:PROC	; CRichEditBaseCtrl::HasSelection
; Function compile flags: /Odtp /RTCsu
;	COMDAT ?OnUpdateEditCopy@CRTFContentControl@@IAEXPAVCCmdUI@@@Z
_TEXT	SEGMENT
_this$ = -4						; size = 4
_pCmdUI$ = 8						; size = 4
?OnUpdateEditCopy@CRTFContentControl@@IAEXPAVCCmdUI@@@Z PROC ; CRTFContentControl::OnUpdateEditCopy, COMDAT
; _this$ = ecx

; 842  : {

	push	ebp
	mov	ebp, esp
	push	ecx
	push	esi
	mov	DWORD PTR [ebp-4], -858993460		; ccccccccH
	mov	DWORD PTR _this$[ebp], ecx

; 843  : 	pCmdUI->Enable(m_rtf.HasSelection());

	mov	ecx, DWORD PTR _this$[ebp]
	add	ecx, 304				; 00000130H
	call	?HasSelection@CRichEditBaseCtrl@@QBEHXZ	; CRichEditBaseCtrl::HasSelection
	mov	esi, esp
	push	eax
	mov	eax, DWORD PTR _pCmdUI$[ebp]
	mov	edx, DWORD PTR [eax]
	mov	ecx, DWORD PTR _pCmdUI$[ebp]
	mov	eax, DWORD PTR [edx]
	call	eax
	cmp	esi, esp
	call	__RTC_CheckEsp

; 844  : }

	pop	esi
	add	esp, 4
	cmp	ebp, esp
	call	__RTC_CheckEsp
	mov	esp, ebp
	pop	ebp
	ret	4
?OnUpdateEditCopy@CRTFContentControl@@IAEXPAVCCmdUI@@@Z ENDP ; CRTFContentControl::OnUpdateEditCopy
_TEXT	ENDS
PUBLIC	__$ArrayPad$
EXTRN	?GetSelectionCharFormat@CRichEditBaseCtrl@@QBEKAAUCHARFORMAT2W@@@Z:PROC ; CRichEditBaseCtrl::GetSelectionCharFormat
; Function compile flags: /Odtp /RTCsu
;	COMDAT ?OnEditCopyFormatting@CRTFContentControl@@IAEXXZ
_TEXT	SEGMENT
_cf$ = -128						; size = 116
_this$ = -8						; size = 4
__$ArrayPad$ = -4					; size = 4
?OnEditCopyFormatting@CRTFContentControl@@IAEXXZ PROC	; CRTFContentControl::OnEditCopyFormatting, COMDAT
; _this$ = ecx

; 847  : {

	push	ebp
	mov	ebp, esp
	sub	esp, 132				; 00000084H
	push	edi
	push	ecx
	lea	edi, DWORD PTR [ebp-132]
	mov	ecx, 33					; 00000021H
	mov	eax, -858993460				; ccccccccH
	rep stosd
	pop	ecx
	mov	eax, DWORD PTR ___security_cookie
	xor	eax, ebp
	mov	DWORD PTR __$ArrayPad$[ebp], eax
	mov	DWORD PTR _this$[ebp], ecx

; 848  : 	CharFormat cf(CFM_BOLD | CFM_ITALIC | CFM_UNDERLINE | CFM_STRIKEOUT | 
; 849  : 					CFM_COLOR | CFM_BACKCOLOR | CFM_SUBSCRIPT | CFM_SUPERSCRIPT);

	push	1141047311				; 4403000fH
	lea	ecx, DWORD PTR _cf$[ebp]
	call	??0CharFormat@@QAE@K@Z			; CharFormat::CharFormat

; 850  : 
; 851  : 	m_rtf.GetSelectionCharFormat(m_cfCopiedFormat);

	mov	eax, DWORD PTR _this$[ebp]
	add	eax, 1696				; 000006a0H
	push	eax
	mov	ecx, DWORD PTR _this$[ebp]
	add	ecx, 304				; 00000130H
	call	?GetSelectionCharFormat@CRichEditBaseCtrl@@QBEKAAUCHARFORMAT2W@@@Z ; CRichEditBaseCtrl::GetSelectionCharFormat

; 852  : }

	push	edx
	mov	ecx, ebp
	push	eax
	lea	edx, DWORD PTR $LN5@OnEditCopy@2
	call	@_RTC_CheckStackVars@8
	pop	eax
	pop	edx
	pop	edi
	mov	ecx, DWORD PTR __$ArrayPad$[ebp]
	xor	ecx, ebp
	call	@__security_check_cookie@4
	add	esp, 132				; 00000084H
	cmp	ebp, esp
	call	__RTC_CheckEsp
	mov	esp, ebp
	pop	ebp
	ret	0
$LN5@OnEditCopy@2:
	DD	1
	DD	$LN4@OnEditCopy@2
$LN4@OnEditCopy@2:
	DD	-128					; ffffff80H
	DD	116					; 00000074H
	DD	$LN3@OnEditCopy@2
$LN3@OnEditCopy@2:
	DB	99					; 00000063H
	DB	102					; 00000066H
	DB	0
?OnEditCopyFormatting@CRTFContentControl@@IAEXXZ ENDP	; CRTFContentControl::OnEditCopyFormatting
_TEXT	ENDS
EXTRN	?GetTextLength@CRichEditCtrl@@QBEJXZ:PROC	; CRichEditCtrl::GetTextLength
; Function compile flags: /Odtp /RTCsu
;	COMDAT ?OnUpdateEditCopyFormatting@CRTFContentControl@@IAEXPAVCCmdUI@@@Z
_TEXT	SEGMENT
tv91 = -8						; size = 4
_this$ = -4						; size = 4
_pCmdUI$ = 8						; size = 4
?OnUpdateEditCopyFormatting@CRTFContentControl@@IAEXPAVCCmdUI@@@Z PROC ; CRTFContentControl::OnUpdateEditCopyFormatting, COMDAT
; _this$ = ecx

; 855  : {

	push	ebp
	mov	ebp, esp
	sub	esp, 8
	push	esi
	mov	DWORD PTR [ebp-8], -858993460		; ccccccccH
	mov	DWORD PTR [ebp-4], -858993460		; ccccccccH
	mov	DWORD PTR _this$[ebp], ecx

; 856  : 	pCmdUI->Enable(m_rtf.GetTextLength() && m_rtf.HasSelection());

	mov	ecx, DWORD PTR _this$[ebp]
	add	ecx, 304				; 00000130H
	call	?GetTextLength@CRichEditCtrl@@QBEJXZ	; CRichEditCtrl::GetTextLength
	test	eax, eax
	je	SHORT $LN3@OnUpdateEd
	mov	ecx, DWORD PTR _this$[ebp]
	add	ecx, 304				; 00000130H
	call	?HasSelection@CRichEditBaseCtrl@@QBEHXZ	; CRichEditBaseCtrl::HasSelection
	test	eax, eax
	je	SHORT $LN3@OnUpdateEd
	mov	DWORD PTR tv91[ebp], 1
	jmp	SHORT $LN4@OnUpdateEd
$LN3@OnUpdateEd:
	mov	DWORD PTR tv91[ebp], 0
$LN4@OnUpdateEd:
	mov	esi, esp
	mov	eax, DWORD PTR tv91[ebp]
	push	eax
	mov	ecx, DWORD PTR _pCmdUI$[ebp]
	mov	edx, DWORD PTR [ecx]
	mov	ecx, DWORD PTR _pCmdUI$[ebp]
	mov	eax, DWORD PTR [edx]
	call	eax
	cmp	esi, esp
	call	__RTC_CheckEsp

; 857  : }

	pop	esi
	add	esp, 8
	cmp	ebp, esp
	call	__RTC_CheckEsp
	mov	esp, ebp
	pop	ebp
	ret	4
?OnUpdateEditCopyFormatting@CRTFContentControl@@IAEXPAVCCmdUI@@@Z ENDP ; CRTFContentControl::OnUpdateEditCopyFormatting
_TEXT	ENDS
EXTRN	?Cut@CRichEditCtrl@@QAEXXZ:PROC			; CRichEditCtrl::Cut
;	COMDAT xdata$x
xdata$x	SEGMENT
__unwindtable$?OnEditCut@CRTFContentControl@@IAEXXZ DD 0ffffffffH
	DD	FLAT:__unwindfunclet$?OnEditCut@CRTFContentControl@@IAEXXZ$0
__ehfuncinfo$?OnEditCut@CRTFContentControl@@IAEXXZ DD 019930522H
	DD	01H
	DD	FLAT:__unwindtable$?OnEditCut@CRTFContentControl@@IAEXXZ
	DD	2 DUP(00H)
	DD	2 DUP(00H)
	DD	00H
	DD	01H
; Function compile flags: /Odtp /RTCsu
xdata$x	ENDS
;	COMDAT ?OnEditCut@CRTFContentControl@@IAEXXZ
_TEXT	SEGMENT
_sRtf$ = -24						; size = 4
_this$ = -16						; size = 4
__$EHRec$ = -12						; size = 12
?OnEditCut@CRTFContentControl@@IAEXXZ PROC		; CRTFContentControl::OnEditCut, COMDAT
; _this$ = ecx

; 860  : {

	push	ebp
	mov	ebp, esp
	push	-1
	push	__ehhandler$?OnEditCut@CRTFContentControl@@IAEXXZ
	mov	eax, DWORD PTR fs:0
	push	eax
	sub	esp, 16					; 00000010H
	push	esi
	mov	eax, -858993460				; ccccccccH
	mov	DWORD PTR [ebp-28], eax
	mov	DWORD PTR [ebp-24], eax
	mov	DWORD PTR [ebp-20], eax
	mov	DWORD PTR [ebp-16], eax
	mov	eax, DWORD PTR ___security_cookie
	xor	eax, ebp
	push	eax
	lea	eax, DWORD PTR __$EHRec$[ebp]
	mov	DWORD PTR fs:0, eax
	mov	DWORD PTR _this$[ebp], ecx

; 861  : 	// snapshot RTF for copying to clipboard as HTML
; 862  : 	CString sRtf = m_rtf.GetRTF();

	lea	eax, DWORD PTR _sRtf$[ebp]
	push	eax
	mov	ecx, DWORD PTR _this$[ebp]
	add	ecx, 304				; 00000130H
	call	?GetRTF@CRichEditBaseCtrl@@QBE?AV?$CStringT@_WV?$StrTraitMFC_DLL@_WV?$ChTraitsCRT@_W@ATL@@@@@ATL@@XZ ; CRichEditBaseCtrl::GetRTF
	mov	DWORD PTR __$EHRec$[ebp+8], 0

; 863  : 
; 864  : 	m_rtf.Cut();	

	mov	ecx, DWORD PTR _this$[ebp]
	add	ecx, 304				; 00000130H
	call	?Cut@CRichEditCtrl@@QAEXXZ		; CRichEditCtrl::Cut

; 865  : 
; 866  : 	// do the copy
; 867  : 	CopyRtfToClipboardAsHtml(sRtf);

	push	1
	lea	ecx, DWORD PTR _sRtf$[ebp]
	push	ecx
	mov	ecx, DWORD PTR _this$[ebp]
	call	?CopyRtfToClipboardAsHtml@CRTFContentControl@@IAEHABV?$CStringT@_WV?$StrTraitMFC_DLL@_WV?$ChTraitsCRT@_W@ATL@@@@@ATL@@H@Z ; CRTFContentControl::CopyRtfToClipboardAsHtml

; 868  : }

	mov	DWORD PTR __$EHRec$[ebp+8], -1
	mov	esi, esp
	lea	ecx, DWORD PTR _sRtf$[ebp]
	call	DWORD PTR __imp_??1?$CStringT@_WV?$StrTraitMFC_DLL@_WV?$ChTraitsCRT@_W@ATL@@@@@ATL@@QAE@XZ
	cmp	esi, esp
	call	__RTC_CheckEsp
	push	edx
	mov	ecx, ebp
	push	eax
	lea	edx, DWORD PTR $LN7@OnEditCut
	call	@_RTC_CheckStackVars@8
	pop	eax
	pop	edx
	mov	ecx, DWORD PTR __$EHRec$[ebp]
	mov	DWORD PTR fs:0, ecx
	pop	ecx
	pop	esi
	add	esp, 28					; 0000001cH
	cmp	ebp, esp
	call	__RTC_CheckEsp
	mov	esp, ebp
	pop	ebp
	ret	0
	npad	1
$LN7@OnEditCut:
	DD	1
	DD	$LN6@OnEditCut
$LN6@OnEditCut:
	DD	-24					; ffffffe8H
	DD	4
	DD	$LN4@OnEditCut
$LN4@OnEditCut:
	DB	115					; 00000073H
	DB	82					; 00000052H
	DB	116					; 00000074H
	DB	102					; 00000066H
	DB	0
_TEXT	ENDS
;	COMDAT text$x
text$x	SEGMENT
__unwindfunclet$?OnEditCut@CRTFContentControl@@IAEXXZ$0:
	mov	esi, esp
	lea	ecx, DWORD PTR _sRtf$[ebp]
	call	DWORD PTR __imp_??1?$CStringT@_WV?$StrTraitMFC_DLL@_WV?$ChTraitsCRT@_W@ATL@@@@@ATL@@QAE@XZ
	cmp	esi, esp
	jmp	__RTC_CheckEsp
__ehhandler$?OnEditCut@CRTFContentControl@@IAEXXZ:
	mov	edx, DWORD PTR [esp+8]
	lea	eax, DWORD PTR [edx+12]
	mov	ecx, DWORD PTR [edx-24]
	xor	ecx, eax
	call	@__security_check_cookie@4
	mov	eax, OFFSET __ehfuncinfo$?OnEditCut@CRTFContentControl@@IAEXXZ
	jmp	___CxxFrameHandler3
text$x	ENDS
?OnEditCut@CRTFContentControl@@IAEXXZ ENDP		; CRTFContentControl::OnEditCut
EXTRN	?CanEdit@CRichEditBaseCtrl@@QBEHXZ:PROC		; CRichEditBaseCtrl::CanEdit
; Function compile flags: /Odtp /RTCsu
;	COMDAT ?OnUpdateEditCut@CRTFContentControl@@IAEXPAVCCmdUI@@@Z
_TEXT	SEGMENT
tv91 = -8						; size = 4
_this$ = -4						; size = 4
_pCmdUI$ = 8						; size = 4
?OnUpdateEditCut@CRTFContentControl@@IAEXPAVCCmdUI@@@Z PROC ; CRTFContentControl::OnUpdateEditCut, COMDAT
; _this$ = ecx

; 871  : {

	push	ebp
	mov	ebp, esp
	sub	esp, 8
	push	esi
	mov	DWORD PTR [ebp-8], -858993460		; ccccccccH
	mov	DWORD PTR [ebp-4], -858993460		; ccccccccH
	mov	DWORD PTR _this$[ebp], ecx

; 872  : 	pCmdUI->Enable(m_rtf.CanEdit() && m_rtf.HasSelection());

	mov	ecx, DWORD PTR _this$[ebp]
	add	ecx, 304				; 00000130H
	call	?CanEdit@CRichEditBaseCtrl@@QBEHXZ	; CRichEditBaseCtrl::CanEdit
	test	eax, eax
	je	SHORT $LN3@OnUpdateEd@2
	mov	ecx, DWORD PTR _this$[ebp]
	add	ecx, 304				; 00000130H
	call	?HasSelection@CRichEditBaseCtrl@@QBEHXZ	; CRichEditBaseCtrl::HasSelection
	test	eax, eax
	je	SHORT $LN3@OnUpdateEd@2
	mov	DWORD PTR tv91[ebp], 1
	jmp	SHORT $LN4@OnUpdateEd@2
$LN3@OnUpdateEd@2:
	mov	DWORD PTR tv91[ebp], 0
$LN4@OnUpdateEd@2:
	mov	esi, esp
	mov	eax, DWORD PTR tv91[ebp]
	push	eax
	mov	ecx, DWORD PTR _pCmdUI$[ebp]
	mov	edx, DWORD PTR [ecx]
	mov	ecx, DWORD PTR _pCmdUI$[ebp]
	mov	eax, DWORD PTR [edx]
	call	eax
	cmp	esi, esp
	call	__RTC_CheckEsp

; 873  : }

	pop	esi
	add	esp, 8
	cmp	ebp, esp
	call	__RTC_CheckEsp
	mov	esp, ebp
	pop	ebp
	ret	4
?OnUpdateEditCut@CRTFContentControl@@IAEXPAVCCmdUI@@@Z ENDP ; CRTFContentControl::OnUpdateEditCut
; Function compile flags: /Odtp /RTCsu
_TEXT	ENDS
;	COMDAT ?OnEditDelete@CRTFContentControl@@IAEXXZ
_TEXT	SEGMENT
_this$ = -4						; size = 4
?OnEditDelete@CRTFContentControl@@IAEXXZ PROC		; CRTFContentControl::OnEditDelete, COMDAT
; _this$ = ecx

; 876  : {

	push	ebp
	mov	ebp, esp
	push	ecx
	mov	DWORD PTR [ebp-4], -858993460		; ccccccccH
	mov	DWORD PTR _this$[ebp], ecx

; 877  : 	m_rtf.ReplaceSel(_T(""), TRUE);

	push	1
	push	OFFSET $SG181010
	mov	ecx, DWORD PTR _this$[ebp]
	add	ecx, 304				; 00000130H
	call	?ReplaceSel@CRichEditCtrl@@QAEXPB_WH@Z	; CRichEditCtrl::ReplaceSel

; 878  : }

	add	esp, 4
	cmp	ebp, esp
	call	__RTC_CheckEsp
	mov	esp, ebp
	pop	ebp
	ret	0
?OnEditDelete@CRTFContentControl@@IAEXXZ ENDP		; CRTFContentControl::OnEditDelete
; Function compile flags: /Odtp /RTCsu
_TEXT	ENDS
;	COMDAT ?OnUpdateEditDelete@CRTFContentControl@@IAEXPAVCCmdUI@@@Z
_TEXT	SEGMENT
tv91 = -8						; size = 4
_this$ = -4						; size = 4
_pCmdUI$ = 8						; size = 4
?OnUpdateEditDelete@CRTFContentControl@@IAEXPAVCCmdUI@@@Z PROC ; CRTFContentControl::OnUpdateEditDelete, COMDAT
; _this$ = ecx

; 881  : {

	push	ebp
	mov	ebp, esp
	sub	esp, 8
	push	esi
	mov	DWORD PTR [ebp-8], -858993460		; ccccccccH
	mov	DWORD PTR [ebp-4], -858993460		; ccccccccH
	mov	DWORD PTR _this$[ebp], ecx

; 882  : 	pCmdUI->Enable(m_rtf.CanEdit() && m_rtf.HasSelection());

	mov	ecx, DWORD PTR _this$[ebp]
	add	ecx, 304				; 00000130H
	call	?CanEdit@CRichEditBaseCtrl@@QBEHXZ	; CRichEditBaseCtrl::CanEdit
	test	eax, eax
	je	SHORT $LN3@OnUpdateEd@3
	mov	ecx, DWORD PTR _this$[ebp]
	add	ecx, 304				; 00000130H
	call	?HasSelection@CRichEditBaseCtrl@@QBEHXZ	; CRichEditBaseCtrl::HasSelection
	test	eax, eax
	je	SHORT $LN3@OnUpdateEd@3
	mov	DWORD PTR tv91[ebp], 1
	jmp	SHORT $LN4@OnUpdateEd@3
$LN3@OnUpdateEd@3:
	mov	DWORD PTR tv91[ebp], 0
$LN4@OnUpdateEd@3:
	mov	esi, esp
	mov	eax, DWORD PTR tv91[ebp]
	push	eax
	mov	ecx, DWORD PTR _pCmdUI$[ebp]
	mov	edx, DWORD PTR [ecx]
	mov	ecx, DWORD PTR _pCmdUI$[ebp]
	mov	eax, DWORD PTR [edx]
	call	eax
	cmp	esi, esp
	call	__RTC_CheckEsp

; 883  : }

	pop	esi
	add	esp, 8
	cmp	ebp, esp
	call	__RTC_CheckEsp
	mov	esp, ebp
	pop	ebp
	ret	4
?OnUpdateEditDelete@CRTFContentControl@@IAEXPAVCCmdUI@@@Z ENDP ; CRTFContentControl::OnUpdateEditDelete
_TEXT	ENDS
PUBLIC	??1CFileOpenDialog@@UAE@XZ			; CFileOpenDialog::~CFileOpenDialog
PUBLIC	__$ArrayPad$
EXTRN	?GetPathNames@CEnFileDialog@@QBEHAAVCStringArray@@@Z:PROC ; CEnFileDialog::GetPathNames
EXTRN	?DoModal@CEnFileDialog@@QAEHPAVIPreferences@@@Z:PROC ; CEnFileDialog::DoModal
EXTRN	??0CFileOpenDialog@@QAE@IPB_W0K0PAVCWnd@@@Z:PROC ; CFileOpenDialog::CFileOpenDialog
EXTRN	__imp_?Empty@?$CSimpleStringT@_W$00@ATL@@QAEXXZ:PROC
EXTRN	__imp_??4?$CStringT@_WV?$StrTraitMFC_DLL@_WV?$ChTraitsCRT@_W@ATL@@@@@ATL@@QAEAAV01@ABV01@@Z:PROC
EXTRN	?GetUrl@CUrlRichEditCtrl@@QBE?AV?$CStringT@_WV?$StrTraitMFC_DLL@_WV?$ChTraitsCRT@_W@ATL@@@@@ATL@@HH@Z:PROC ; CUrlRichEditCtrl::GetUrl
;	COMDAT xdata$x
xdata$x	SEGMENT
__ehfuncinfo$?OnEditFileBrowse@CRTFContentControl@@IAEXXZ DD 019930522H
	DD	05H
	DD	FLAT:__unwindtable$?OnEditFileBrowse@CRTFContentControl@@IAEXXZ
	DD	2 DUP(00H)
	DD	2 DUP(00H)
	DD	00H
	DD	01H
__unwindtable$?OnEditFileBrowse@CRTFContentControl@@IAEXXZ DD 0ffffffffH
	DD	FLAT:__unwindfunclet$?OnEditFileBrowse@CRTFContentControl@@IAEXXZ$0
	DD	00H
	DD	FLAT:__unwindfunclet$?OnEditFileBrowse@CRTFContentControl@@IAEXXZ$1
	DD	00H
	DD	FLAT:__unwindfunclet$?OnEditFileBrowse@CRTFContentControl@@IAEXXZ$2
	DD	02H
	DD	FLAT:__unwindfunclet$?OnEditFileBrowse@CRTFContentControl@@IAEXXZ$3
	DD	03H
	DD	FLAT:__unwindfunclet$?OnEditFileBrowse@CRTFContentControl@@IAEXXZ$4
; Function compile flags: /Odtp /RTCsu
xdata$x	ENDS
;	COMDAT ?OnEditFileBrowse@CRTFContentControl@@IAEXXZ
_TEXT	SEGMENT
tv259 = -1112						; size = 4
tv271 = -1108						; size = 4
$T187693 = -1104					; size = 4
_bDefault$181032 = -1100				; size = 4
_nLinkOption$181031 = -1096				; size = 4
_dialog2$181029 = -1088					; size = 160
_aPaths$181025 = -920					; size = 20
_dialog$ = -892						; size = 852
_sFile$ = -32						; size = 4
_nUrl$ = -24						; size = 4
_this$ = -20						; size = 4
__$ArrayPad$ = -16					; size = 4
__$EHRec$ = -12						; size = 12
?OnEditFileBrowse@CRTFContentControl@@IAEXXZ PROC	; CRTFContentControl::OnEditFileBrowse, COMDAT
; _this$ = ecx

; 886  : {

	push	ebp
	mov	ebp, esp
	push	-1
	push	__ehhandler$?OnEditFileBrowse@CRTFContentControl@@IAEXXZ
	mov	eax, DWORD PTR fs:0
	push	eax
	sub	esp, 1100				; 0000044cH
	push	esi
	push	edi
	push	ecx
	lea	edi, DWORD PTR [ebp-1112]
	mov	ecx, 275				; 00000113H
	mov	eax, -858993460				; ccccccccH
	rep stosd
	pop	ecx
	mov	eax, DWORD PTR ___security_cookie
	xor	eax, ebp
	mov	DWORD PTR __$ArrayPad$[ebp], eax
	push	eax
	lea	eax, DWORD PTR __$EHRec$[ebp]
	mov	DWORD PTR fs:0, eax
	mov	DWORD PTR _this$[ebp], ecx

; 887  : 	int nUrl = m_rtf.GetContextUrl();

	mov	ecx, DWORD PTR _this$[ebp]
	add	ecx, 304				; 00000130H
	call	?GetContextUrl@CUrlRichEditCtrl@@QAEHXZ	; CUrlRichEditCtrl::GetContextUrl
	mov	DWORD PTR _nUrl$[ebp], eax

; 888  : 	CString sFile;

	mov	esi, esp
	lea	ecx, DWORD PTR _sFile$[ebp]
	call	DWORD PTR __imp_??0?$CStringT@_WV?$StrTraitMFC_DLL@_WV?$ChTraitsCRT@_W@ATL@@@@@ATL@@QAE@XZ
	cmp	esi, esp
	call	__RTC_CheckEsp
	mov	DWORD PTR __$EHRec$[ebp+8], 0

; 889  : 	
; 890  : 	if (nUrl != -1)

	cmp	DWORD PTR _nUrl$[ebp], -1
	je	$LN7@OnEditFile

; 891  : 	{
; 892  : 		sFile = m_rtf.GetUrl(nUrl, TRUE);

	push	1
	mov	eax, DWORD PTR _nUrl$[ebp]
	push	eax
	lea	ecx, DWORD PTR $T187693[ebp]
	push	ecx
	mov	ecx, DWORD PTR _this$[ebp]
	add	ecx, 304				; 00000130H
	call	?GetUrl@CUrlRichEditCtrl@@QBE?AV?$CStringT@_WV?$StrTraitMFC_DLL@_WV?$ChTraitsCRT@_W@ATL@@@@@ATL@@HH@Z ; CUrlRichEditCtrl::GetUrl
	mov	DWORD PTR tv271[ebp], eax
	mov	edx, DWORD PTR tv271[ebp]
	mov	DWORD PTR tv259[ebp], edx
	mov	BYTE PTR __$EHRec$[ebp+8], 1
	mov	esi, esp
	mov	eax, DWORD PTR tv259[ebp]
	push	eax
	lea	ecx, DWORD PTR _sFile$[ebp]
	call	DWORD PTR __imp_??4?$CStringT@_WV?$StrTraitMFC_DLL@_WV?$ChTraitsCRT@_W@ATL@@@@@ATL@@QAEAAV01@ABV01@@Z
	cmp	esi, esp
	call	__RTC_CheckEsp
	mov	BYTE PTR __$EHRec$[ebp+8], 0
	mov	esi, esp
	lea	ecx, DWORD PTR $T187693[ebp]
	call	DWORD PTR __imp_??1?$CStringT@_WV?$StrTraitMFC_DLL@_WV?$ChTraitsCRT@_W@ATL@@@@@ATL@@QAE@XZ
	cmp	esi, esp
	call	__RTC_CheckEsp

; 893  : 
; 894  : 		if (!FileMisc::FileExists(sFile))

	mov	esi, esp
	lea	ecx, DWORD PTR _sFile$[ebp]
	call	DWORD PTR __imp_??B?$CSimpleStringT@_W$00@ATL@@QBEPB_WXZ
	cmp	esi, esp
	call	__RTC_CheckEsp
	push	eax
	call	?FileExists@FileMisc@@YAHPB_W@Z		; FileMisc::FileExists
	add	esp, 4
	test	eax, eax
	jne	SHORT $LN7@OnEditFile

; 895  : 			sFile.Empty();

	mov	esi, esp
	lea	ecx, DWORD PTR _sFile$[ebp]
	call	DWORD PTR __imp_?Empty@?$CSimpleStringT@_W$00@ATL@@QAEXXZ
	cmp	esi, esp
	call	__RTC_CheckEsp
$LN7@OnEditFile:

; 896  : 	}
; 897  : 				
; 898  : 	CFileOpenDialog dialog(IDS_BROWSE_TITLE, NULL, sFile, (EOFN_DEFAULTOPEN | OFN_ALLOWMULTISELECT));

	push	0
	push	0
	push	4608					; 00001200H
	mov	esi, esp
	lea	ecx, DWORD PTR _sFile$[ebp]
	call	DWORD PTR __imp_??B?$CSimpleStringT@_W$00@ATL@@QBEPB_WXZ
	cmp	esi, esp
	call	__RTC_CheckEsp
	push	eax
	push	0
	push	5001					; 00001389H
	lea	ecx, DWORD PTR _dialog$[ebp]
	call	??0CFileOpenDialog@@QAE@IPB_W0K0PAVCWnd@@@Z ; CFileOpenDialog::CFileOpenDialog
	mov	BYTE PTR __$EHRec$[ebp+8], 2

; 899  : 	
; 900  : 	if (dialog.DoModal() == IDOK)

	push	0
	lea	ecx, DWORD PTR _dialog$[ebp]
	call	?DoModal@CEnFileDialog@@QAEHPAVIPreferences@@@Z ; CEnFileDialog::DoModal
	cmp	eax, 1
	jne	$LN5@OnEditFile

; 901  : 	{
; 902  : 		CStringArray aPaths;

	lea	ecx, DWORD PTR _aPaths$181025[ebp]
	call	??0CStringArray@@QAE@XZ			; CStringArray::CStringArray
	mov	BYTE PTR __$EHRec$[ebp+8], 3

; 903  : 
; 904  : 		if (dialog.GetPathNames(aPaths) == 0)

	lea	ecx, DWORD PTR _aPaths$181025[ebp]
	push	ecx
	lea	ecx, DWORD PTR _dialog$[ebp]
	call	?GetPathNames@CEnFileDialog@@QBEHAAVCStringArray@@@Z ; CEnFileDialog::GetPathNames
	test	eax, eax
	jne	SHORT $LN4@OnEditFile

; 905  : 		{
; 906  : 			ASSERT(0);

	xor	edx, edx
	jne	SHORT $LN10@OnEditFile
	push	906					; 0000038aH
	push	OFFSET _THIS_FILE
	call	?AfxAssertFailedLine@@YGHPBDH@Z		; AfxAssertFailedLine
	test	eax, eax
	je	SHORT $LN10@OnEditFile
	int	3
$LN10@OnEditFile:

; 907  : 			return;

	mov	BYTE PTR __$EHRec$[ebp+8], 2
	lea	ecx, DWORD PTR _aPaths$181025[ebp]
	call	??1CStringArray@@UAE@XZ			; CStringArray::~CStringArray
	mov	BYTE PTR __$EHRec$[ebp+8], 0
	lea	ecx, DWORD PTR _dialog$[ebp]
	call	??1CFileOpenDialog@@UAE@XZ
	mov	DWORD PTR __$EHRec$[ebp+8], -1
	mov	esi, esp
	lea	ecx, DWORD PTR _sFile$[ebp]
	call	DWORD PTR __imp_??1?$CStringT@_WV?$StrTraitMFC_DLL@_WV?$ChTraitsCRT@_W@ATL@@@@@ATL@@QAE@XZ
	cmp	esi, esp
	call	__RTC_CheckEsp
	jmp	$LN8@OnEditFile
$LN4@OnEditFile:

; 908  : 		}
; 909  : 
; 910  : 		if (!m_rtf.IsFileLinkOptionDefault())

	mov	ecx, DWORD PTR _this$[ebp]
	add	ecx, 304				; 00000130H
	call	?IsFileLinkOptionDefault@CRulerRichEdit@@QBEHXZ ; CRulerRichEdit::IsFileLinkOptionDefault
	test	eax, eax
	jne	$LN3@OnEditFile

; 911  : 		{
; 912  : 			CCreateFileLinkDlg dialog2(sFile, m_rtf.GetFileLinkOption(), FALSE);

	push	0
	push	0
	mov	ecx, DWORD PTR _this$[ebp]
	add	ecx, 304				; 00000130H
	call	?GetFileLinkOption@CRulerRichEdit@@QBE?AW4RE_PASTE@@XZ ; CRulerRichEdit::GetFileLinkOption
	push	eax
	mov	esi, esp
	lea	ecx, DWORD PTR _sFile$[ebp]
	call	DWORD PTR __imp_??B?$CSimpleStringT@_W$00@ATL@@QBEPB_WXZ
	cmp	esi, esp
	call	__RTC_CheckEsp
	push	eax
	lea	ecx, DWORD PTR _dialog2$181029[ebp]
	call	??0CCreateFileLinkDlg@@QAE@PB_WW4RE_PASTE@@HPAVCWnd@@@Z ; CCreateFileLinkDlg::CCreateFileLinkDlg
	mov	BYTE PTR __$EHRec$[ebp+8], 4

; 913  : 			
; 914  : 			if (dialog2.DoModal() == IDOK)

	lea	ecx, DWORD PTR _dialog2$181029[ebp]
	call	?DoModal@CDialog@@UAEHXZ		; CDialog::DoModal
	cmp	eax, 1
	jne	SHORT $LN2@OnEditFile

; 915  : 			{
; 916  : 				RE_PASTE nLinkOption = dialog2.GetLinkOption();

	lea	ecx, DWORD PTR _dialog2$181029[ebp]
	call	?GetLinkOption@CCreateFileLinkDlg@@QBE?AW4RE_PASTE@@XZ ; CCreateFileLinkDlg::GetLinkOption
	mov	DWORD PTR _nLinkOption$181031[ebp], eax

; 917  : 				BOOL bDefault = dialog2.GetMakeLinkOptionDefault();

	lea	ecx, DWORD PTR _dialog2$181029[ebp]
	call	?GetMakeLinkOptionDefault@CCreateFileLinkDlg@@QBEHXZ ; CCreateFileLinkDlg::GetMakeLinkOptionDefault
	mov	DWORD PTR _bDefault$181032[ebp], eax

; 918  : 				
; 919  : 				m_rtf.SetFileLinkOption(nLinkOption, bDefault);

	mov	ecx, DWORD PTR _bDefault$181032[ebp]
	push	ecx
	mov	edx, DWORD PTR _nLinkOption$181031[ebp]
	push	edx
	mov	ecx, DWORD PTR _this$[ebp]
	add	ecx, 304				; 00000130H
	call	?SetFileLinkOption@CRulerRichEdit@@QAEXW4RE_PASTE@@H@Z ; CRulerRichEdit::SetFileLinkOption

; 920  : 				m_prefsDlg.SetFileLinkOption(nLinkOption, !bDefault);

	xor	eax, eax
	cmp	DWORD PTR _bDefault$181032[ebp], 0
	sete	al
	push	eax
	mov	ecx, DWORD PTR _nLinkOption$181031[ebp]
	push	ecx
	mov	ecx, DWORD PTR _this$[ebp]
	add	ecx, 2004				; 000007d4H
	call	?SetFileLinkOption@CRTFPreferencesDlg@@QAEXW4RE_PASTE@@H@Z ; CRTFPreferencesDlg::SetFileLinkOption

; 921  : 			}
; 922  : 			else

	jmp	SHORT $LN1@OnEditFile
$LN2@OnEditFile:

; 923  : 			{
; 924  : 				return; // user cancelled

	mov	BYTE PTR __$EHRec$[ebp+8], 3
	lea	ecx, DWORD PTR _dialog2$181029[ebp]
	call	??1CCreateFileLinkDlg@@UAE@XZ
	mov	BYTE PTR __$EHRec$[ebp+8], 2
	lea	ecx, DWORD PTR _aPaths$181025[ebp]
	call	??1CStringArray@@UAE@XZ			; CStringArray::~CStringArray
	mov	BYTE PTR __$EHRec$[ebp+8], 0
	lea	ecx, DWORD PTR _dialog$[ebp]
	call	??1CFileOpenDialog@@UAE@XZ
	mov	DWORD PTR __$EHRec$[ebp+8], -1
	mov	esi, esp
	lea	ecx, DWORD PTR _sFile$[ebp]
	call	DWORD PTR __imp_??1?$CStringT@_WV?$StrTraitMFC_DLL@_WV?$ChTraitsCRT@_W@ATL@@@@@ATL@@QAE@XZ
	cmp	esi, esp
	call	__RTC_CheckEsp
	jmp	SHORT $LN8@OnEditFile
$LN1@OnEditFile:

; 925  : 			}
; 926  : 		}

	mov	BYTE PTR __$EHRec$[ebp+8], 3
	lea	ecx, DWORD PTR _dialog2$181029[ebp]
	call	??1CCreateFileLinkDlg@@UAE@XZ
$LN3@OnEditFile:

; 927  : 		
; 928  : 		CRichEditHelper::PasteFiles(m_rtf, aPaths, m_rtf.GetFileLinkOption());

	mov	ecx, DWORD PTR _this$[ebp]
	add	ecx, 304				; 00000130H
	call	?GetFileLinkOption@CRulerRichEdit@@QBE?AW4RE_PASTE@@XZ ; CRulerRichEdit::GetFileLinkOption
	push	eax
	lea	edx, DWORD PTR _aPaths$181025[ebp]
	push	edx
	mov	ecx, DWORD PTR _this$[ebp]
	add	ecx, 304				; 00000130H
	call	??BCWnd@@QBEPAUHWND__@@XZ		; CWnd::operator HWND__ *
	push	eax
	call	?PasteFiles@CRichEditHelper@@SAHPAUHWND__@@ABVCStringArray@@W4RE_PASTE@@@Z ; CRichEditHelper::PasteFiles
	add	esp, 12					; 0000000cH

; 929  : 	}

	mov	BYTE PTR __$EHRec$[ebp+8], 2
	lea	ecx, DWORD PTR _aPaths$181025[ebp]
	call	??1CStringArray@@UAE@XZ			; CStringArray::~CStringArray
$LN5@OnEditFile:

; 930  : }

	mov	BYTE PTR __$EHRec$[ebp+8], 0
	lea	ecx, DWORD PTR _dialog$[ebp]
	call	??1CFileOpenDialog@@UAE@XZ
	mov	DWORD PTR __$EHRec$[ebp+8], -1
	mov	esi, esp
	lea	ecx, DWORD PTR _sFile$[ebp]
	call	DWORD PTR __imp_??1?$CStringT@_WV?$StrTraitMFC_DLL@_WV?$ChTraitsCRT@_W@ATL@@@@@ATL@@QAE@XZ
	cmp	esi, esp
	call	__RTC_CheckEsp
$LN8@OnEditFile:
	push	edx
	mov	ecx, ebp
	push	eax
	lea	edx, DWORD PTR $LN22@OnEditFile
	call	@_RTC_CheckStackVars@8
	pop	eax
	pop	edx
	mov	ecx, DWORD PTR __$EHRec$[ebp]
	mov	DWORD PTR fs:0, ecx
	pop	ecx
	pop	edi
	pop	esi
	mov	ecx, DWORD PTR __$ArrayPad$[ebp]
	xor	ecx, ebp
	call	@__security_check_cookie@4
	add	esp, 1112				; 00000458H
	cmp	ebp, esp
	call	__RTC_CheckEsp
	mov	esp, ebp
	pop	ebp
	ret	0
	npad	2
$LN22@OnEditFile:
	DD	4
	DD	$LN21@OnEditFile
$LN21@OnEditFile:
	DD	-32					; ffffffe0H
	DD	4
	DD	$LN16@OnEditFile
	DD	-892					; fffffc84H
	DD	852					; 00000354H
	DD	$LN17@OnEditFile
	DD	-920					; fffffc68H
	DD	20					; 00000014H
	DD	$LN18@OnEditFile
	DD	-1088					; fffffbc0H
	DD	160					; 000000a0H
	DD	$LN19@OnEditFile
$LN19@OnEditFile:
	DB	100					; 00000064H
	DB	105					; 00000069H
	DB	97					; 00000061H
	DB	108					; 0000006cH
	DB	111					; 0000006fH
	DB	103					; 00000067H
	DB	50					; 00000032H
	DB	0
$LN18@OnEditFile:
	DB	97					; 00000061H
	DB	80					; 00000050H
	DB	97					; 00000061H
	DB	116					; 00000074H
	DB	104					; 00000068H
	DB	115					; 00000073H
	DB	0
$LN17@OnEditFile:
	DB	100					; 00000064H
	DB	105					; 00000069H
	DB	97					; 00000061H
	DB	108					; 0000006cH
	DB	111					; 0000006fH
	DB	103					; 00000067H
	DB	0
$LN16@OnEditFile:
	DB	115					; 00000073H
	DB	70					; 00000046H
	DB	105					; 00000069H
	DB	108					; 0000006cH
	DB	101					; 00000065H
	DB	0
_TEXT	ENDS
;	COMDAT text$x
text$x	SEGMENT
__unwindfunclet$?OnEditFileBrowse@CRTFContentControl@@IAEXXZ$0:
	mov	esi, esp
	lea	ecx, DWORD PTR _sFile$[ebp]
	call	DWORD PTR __imp_??1?$CStringT@_WV?$StrTraitMFC_DLL@_WV?$ChTraitsCRT@_W@ATL@@@@@ATL@@QAE@XZ
	cmp	esi, esp
	jmp	__RTC_CheckEsp
__unwindfunclet$?OnEditFileBrowse@CRTFContentControl@@IAEXXZ$1:
	mov	esi, esp
	lea	ecx, DWORD PTR $T187693[ebp]
	call	DWORD PTR __imp_??1?$CStringT@_WV?$StrTraitMFC_DLL@_WV?$ChTraitsCRT@_W@ATL@@@@@ATL@@QAE@XZ
	cmp	esi, esp
	jmp	__RTC_CheckEsp
__unwindfunclet$?OnEditFileBrowse@CRTFContentControl@@IAEXXZ$2:
	lea	ecx, DWORD PTR _dialog$[ebp]
	jmp	??1CFileOpenDialog@@UAE@XZ
__unwindfunclet$?OnEditFileBrowse@CRTFContentControl@@IAEXXZ$3:
	lea	ecx, DWORD PTR _aPaths$181025[ebp]
	jmp	??1CStringArray@@UAE@XZ			; CStringArray::~CStringArray
__unwindfunclet$?OnEditFileBrowse@CRTFContentControl@@IAEXXZ$4:
	lea	ecx, DWORD PTR _dialog2$181029[ebp]
	jmp	??1CCreateFileLinkDlg@@UAE@XZ
__ehhandler$?OnEditFileBrowse@CRTFContentControl@@IAEXXZ:
	mov	edx, DWORD PTR [esp+8]
	lea	eax, DWORD PTR [edx+12]
	mov	ecx, DWORD PTR [edx-1112]
	xor	ecx, eax
	call	@__security_check_cookie@4
	mov	ecx, DWORD PTR [edx-4]
	xor	ecx, eax
	call	@__security_check_cookie@4
	mov	eax, OFFSET __ehfuncinfo$?OnEditFileBrowse@CRTFContentControl@@IAEXXZ
	jmp	___CxxFrameHandler3
text$x	ENDS
?OnEditFileBrowse@CRTFContentControl@@IAEXXZ ENDP	; CRTFContentControl::OnEditFileBrowse
PUBLIC	??1CEnFileDialog@@UAE@XZ			; CEnFileDialog::~CEnFileDialog
; Function compile flags: /Odtp /RTCsu
;	COMDAT ??1CFileOpenDialog@@UAE@XZ
_TEXT	SEGMENT
_this$ = -4						; size = 4
??1CFileOpenDialog@@UAE@XZ PROC				; CFileOpenDialog::~CFileOpenDialog, COMDAT
; _this$ = ecx
	push	ebp
	mov	ebp, esp
	push	ecx
	mov	DWORD PTR [ebp-4], -858993460		; ccccccccH
	mov	DWORD PTR _this$[ebp], ecx
	mov	ecx, DWORD PTR _this$[ebp]
	call	??1CEnFileDialog@@UAE@XZ
	add	esp, 4
	cmp	ebp, esp
	call	__RTC_CheckEsp
	mov	esp, ebp
	pop	ebp
	ret	0
??1CFileOpenDialog@@UAE@XZ ENDP				; CFileOpenDialog::~CFileOpenDialog
_TEXT	ENDS
EXTRN	??1CFileDialog@@UAE@XZ:PROC			; CFileDialog::~CFileDialog
; Function compile flags: /Odtp /RTCsu
;	COMDAT ??1CEnFileDialog@@UAE@XZ
_TEXT	SEGMENT
_this$ = -4						; size = 4
??1CEnFileDialog@@UAE@XZ PROC				; CEnFileDialog::~CEnFileDialog, COMDAT
; _this$ = ecx
	push	ebp
	mov	ebp, esp
	push	ecx
	push	esi
	mov	DWORD PTR [ebp-4], -858993460		; ccccccccH
	mov	DWORD PTR _this$[ebp], ecx
	mov	ecx, DWORD PTR _this$[ebp]
	add	ecx, 848				; 00000350H
	mov	esi, esp
	call	DWORD PTR __imp_??1?$CStringT@_WV?$StrTraitMFC_DLL@_WV?$ChTraitsCRT@_W@ATL@@@@@ATL@@QAE@XZ
	cmp	esi, esp
	call	__RTC_CheckEsp
	mov	ecx, DWORD PTR _this$[ebp]
	add	ecx, 844				; 0000034cH
	mov	esi, esp
	call	DWORD PTR __imp_??1?$CStringT@_WV?$StrTraitMFC_DLL@_WV?$ChTraitsCRT@_W@ATL@@@@@ATL@@QAE@XZ
	cmp	esi, esp
	call	__RTC_CheckEsp
	mov	ecx, DWORD PTR _this$[ebp]
	add	ecx, 840				; 00000348H
	mov	esi, esp
	call	DWORD PTR __imp_??1?$CStringT@_WV?$StrTraitMFC_DLL@_WV?$ChTraitsCRT@_W@ATL@@@@@ATL@@QAE@XZ
	cmp	esi, esp
	call	__RTC_CheckEsp
	mov	ecx, DWORD PTR _this$[ebp]
	call	??1CFileDialog@@UAE@XZ			; CFileDialog::~CFileDialog
	pop	esi
	add	esp, 4
	cmp	ebp, esp
	call	__RTC_CheckEsp
	mov	esp, ebp
	pop	ebp
	ret	0
??1CEnFileDialog@@UAE@XZ ENDP				; CEnFileDialog::~CEnFileDialog
; Function compile flags: /Odtp /RTCsu
_TEXT	ENDS
;	COMDAT ?OnUpdateEditFileBrowse@CRTFContentControl@@IAEXPAVCCmdUI@@@Z
_TEXT	SEGMENT
_this$ = -4						; size = 4
_pCmdUI$ = 8						; size = 4
?OnUpdateEditFileBrowse@CRTFContentControl@@IAEXPAVCCmdUI@@@Z PROC ; CRTFContentControl::OnUpdateEditFileBrowse, COMDAT
; _this$ = ecx

; 933  : {

	push	ebp
	mov	ebp, esp
	push	ecx
	push	esi
	mov	DWORD PTR [ebp-4], -858993460		; ccccccccH
	mov	DWORD PTR _this$[ebp], ecx

; 934  : 	pCmdUI->Enable(m_rtf.CanEdit());

	mov	ecx, DWORD PTR _this$[ebp]
	add	ecx, 304				; 00000130H
	call	?CanEdit@CRichEditBaseCtrl@@QBEHXZ	; CRichEditBaseCtrl::CanEdit
	mov	esi, esp
	push	eax
	mov	eax, DWORD PTR _pCmdUI$[ebp]
	mov	edx, DWORD PTR [eax]
	mov	ecx, DWORD PTR _pCmdUI$[ebp]
	mov	eax, DWORD PTR [edx]
	call	eax
	cmp	esi, esp
	call	__RTC_CheckEsp

; 935  : }

	pop	esi
	add	esp, 4
	cmp	ebp, esp
	call	__RTC_CheckEsp
	mov	esp, ebp
	pop	ebp
	ret	4
?OnUpdateEditFileBrowse@CRTFContentControl@@IAEXPAVCCmdUI@@@Z ENDP ; CRTFContentControl::OnUpdateEditFileBrowse
_TEXT	ENDS
EXTRN	?DoEditFind@CRichEditBaseCtrl@@QAEXI@Z:PROC	; CRichEditBaseCtrl::DoEditFind
; Function compile flags: /Odtp /RTCsu
;	COMDAT ?OnEditFind@CRTFContentControl@@IAEXXZ
_TEXT	SEGMENT
_this$ = -4						; size = 4
?OnEditFind@CRTFContentControl@@IAEXXZ PROC		; CRTFContentControl::OnEditFind, COMDAT
; _this$ = ecx

; 938  : {

	push	ebp
	mov	ebp, esp
	push	ecx
	mov	DWORD PTR [ebp-4], -858993460		; ccccccccH
	mov	DWORD PTR _this$[ebp], ecx

; 939  : 	m_rtf.DoEditFind(IDS_FIND_TITLE);

	push	5004					; 0000138cH
	mov	ecx, DWORD PTR _this$[ebp]
	add	ecx, 304				; 00000130H
	call	?DoEditFind@CRichEditBaseCtrl@@QAEXI@Z	; CRichEditBaseCtrl::DoEditFind

; 940  : }

	add	esp, 4
	cmp	ebp, esp
	call	__RTC_CheckEsp
	mov	esp, ebp
	pop	ebp
	ret	0
?OnEditFind@CRTFContentControl@@IAEXXZ ENDP		; CRTFContentControl::OnEditFind
; Function compile flags: /Odtp /RTCsu
_TEXT	ENDS
;	COMDAT ?OnUpdateEditFind@CRTFContentControl@@IAEXPAVCCmdUI@@@Z
_TEXT	SEGMENT
_this$ = -4						; size = 4
_pCmdUI$ = 8						; size = 4
?OnUpdateEditFind@CRTFContentControl@@IAEXPAVCCmdUI@@@Z PROC ; CRTFContentControl::OnUpdateEditFind, COMDAT
; _this$ = ecx

; 943  : {

	push	ebp
	mov	ebp, esp
	push	ecx
	push	esi
	mov	DWORD PTR [ebp-4], -858993460		; ccccccccH
	mov	DWORD PTR _this$[ebp], ecx

; 944  : 	pCmdUI->Enable(m_rtf.GetTextLength());

	mov	ecx, DWORD PTR _this$[ebp]
	add	ecx, 304				; 00000130H
	call	?GetTextLength@CRichEditCtrl@@QBEJXZ	; CRichEditCtrl::GetTextLength
	mov	esi, esp
	push	eax
	mov	eax, DWORD PTR _pCmdUI$[ebp]
	mov	edx, DWORD PTR [eax]
	mov	ecx, DWORD PTR _pCmdUI$[ebp]
	mov	eax, DWORD PTR [edx]
	call	eax
	cmp	esi, esp
	call	__RTC_CheckEsp

; 945  : }

	pop	esi
	add	esp, 4
	cmp	ebp, esp
	call	__RTC_CheckEsp
	mov	esp, ebp
	pop	ebp
	ret	4
?OnUpdateEditFind@CRTFContentControl@@IAEXPAVCCmdUI@@@Z ENDP ; CRTFContentControl::OnUpdateEditFind
_TEXT	ENDS
EXTRN	?DoEditReplace@CRichEditBaseCtrl@@QAEXI@Z:PROC	; CRichEditBaseCtrl::DoEditReplace
; Function compile flags: /Odtp /RTCsu
;	COMDAT ?OnEditFindReplace@CRTFContentControl@@IAEXXZ
_TEXT	SEGMENT
_this$ = -4						; size = 4
?OnEditFindReplace@CRTFContentControl@@IAEXXZ PROC	; CRTFContentControl::OnEditFindReplace, COMDAT
; _this$ = ecx

; 948  : {

	push	ebp
	mov	ebp, esp
	push	ecx
	mov	DWORD PTR [ebp-4], -858993460		; ccccccccH
	mov	DWORD PTR _this$[ebp], ecx

; 949  : 	m_rtf.DoEditReplace(IDS_REPLACE_TITLE);

	push	5005					; 0000138dH
	mov	ecx, DWORD PTR _this$[ebp]
	add	ecx, 304				; 00000130H
	call	?DoEditReplace@CRichEditBaseCtrl@@QAEXI@Z ; CRichEditBaseCtrl::DoEditReplace

; 950  : }

	add	esp, 4
	cmp	ebp, esp
	call	__RTC_CheckEsp
	mov	esp, ebp
	pop	ebp
	ret	0
?OnEditFindReplace@CRTFContentControl@@IAEXXZ ENDP	; CRTFContentControl::OnEditFindReplace
; Function compile flags: /Odtp /RTCsu
_TEXT	ENDS
;	COMDAT ?OnUpdateEditFindReplace@CRTFContentControl@@IAEXPAVCCmdUI@@@Z
_TEXT	SEGMENT
tv91 = -8						; size = 4
_this$ = -4						; size = 4
_pCmdUI$ = 8						; size = 4
?OnUpdateEditFindReplace@CRTFContentControl@@IAEXPAVCCmdUI@@@Z PROC ; CRTFContentControl::OnUpdateEditFindReplace, COMDAT
; _this$ = ecx

; 953  : {

	push	ebp
	mov	ebp, esp
	sub	esp, 8
	push	esi
	mov	DWORD PTR [ebp-8], -858993460		; ccccccccH
	mov	DWORD PTR [ebp-4], -858993460		; ccccccccH
	mov	DWORD PTR _this$[ebp], ecx

; 954  : 	pCmdUI->Enable(m_rtf.CanEdit() && m_rtf.GetTextLength());

	mov	ecx, DWORD PTR _this$[ebp]
	add	ecx, 304				; 00000130H
	call	?CanEdit@CRichEditBaseCtrl@@QBEHXZ	; CRichEditBaseCtrl::CanEdit
	test	eax, eax
	je	SHORT $LN3@OnUpdateEd@4
	mov	ecx, DWORD PTR _this$[ebp]
	add	ecx, 304				; 00000130H
	call	?GetTextLength@CRichEditCtrl@@QBEJXZ	; CRichEditCtrl::GetTextLength
	test	eax, eax
	je	SHORT $LN3@OnUpdateEd@4
	mov	DWORD PTR tv91[ebp], 1
	jmp	SHORT $LN4@OnUpdateEd@4
$LN3@OnUpdateEd@4:
	mov	DWORD PTR tv91[ebp], 0
$LN4@OnUpdateEd@4:
	mov	esi, esp
	mov	eax, DWORD PTR tv91[ebp]
	push	eax
	mov	ecx, DWORD PTR _pCmdUI$[ebp]
	mov	edx, DWORD PTR [ecx]
	mov	ecx, DWORD PTR _pCmdUI$[ebp]
	mov	eax, DWORD PTR [edx]
	call	eax
	cmp	esi, esp
	call	__RTC_CheckEsp

; 955  : }

	pop	esi
	add	esp, 8
	cmp	ebp, esp
	call	__RTC_CheckEsp
	mov	esp, ebp
	pop	ebp
	ret	4
?OnUpdateEditFindReplace@CRTFContentControl@@IAEXPAVCCmdUI@@@Z ENDP ; CRTFContentControl::OnUpdateEditFindReplace
_TEXT	ENDS
EXTRN	?DoInsertHorzLine@CRulerRichEditCtrl@@IAEXXZ:PROC ; CRulerRichEditCtrl::DoInsertHorzLine
; Function compile flags: /Odtp /RTCsu
;	COMDAT ?OnEditHorzRule@CRTFContentControl@@IAEXXZ
_TEXT	SEGMENT
_this$ = -4						; size = 4
?OnEditHorzRule@CRTFContentControl@@IAEXXZ PROC		; CRTFContentControl::OnEditHorzRule, COMDAT
; _this$ = ecx

; 958  : {

	push	ebp
	mov	ebp, esp
	push	ecx
	mov	DWORD PTR [ebp-4], -858993460		; ccccccccH
	mov	DWORD PTR _this$[ebp], ecx

; 959  : 	DoInsertHorzLine();

	mov	ecx, DWORD PTR _this$[ebp]
	call	?DoInsertHorzLine@CRulerRichEditCtrl@@IAEXXZ ; CRulerRichEditCtrl::DoInsertHorzLine

; 960  : }

	add	esp, 4
	cmp	ebp, esp
	call	__RTC_CheckEsp
	mov	esp, ebp
	pop	ebp
	ret	0
?OnEditHorzRule@CRTFContentControl@@IAEXXZ ENDP		; CRTFContentControl::OnEditHorzRule
; Function compile flags: /Odtp /RTCsu
_TEXT	ENDS
;	COMDAT ?OnUpdateEditHorzRule@CRTFContentControl@@IAEXPAVCCmdUI@@@Z
_TEXT	SEGMENT
_this$ = -4						; size = 4
_pCmdUI$ = 8						; size = 4
?OnUpdateEditHorzRule@CRTFContentControl@@IAEXPAVCCmdUI@@@Z PROC ; CRTFContentControl::OnUpdateEditHorzRule, COMDAT
; _this$ = ecx

; 963  : {

	push	ebp
	mov	ebp, esp
	push	ecx
	push	esi
	mov	DWORD PTR [ebp-4], -858993460		; ccccccccH
	mov	DWORD PTR _this$[ebp], ecx

; 964  : 	pCmdUI->Enable(m_rtf.CanEdit()); 

	mov	ecx, DWORD PTR _this$[ebp]
	add	ecx, 304				; 00000130H
	call	?CanEdit@CRichEditBaseCtrl@@QBEHXZ	; CRichEditBaseCtrl::CanEdit
	mov	esi, esp
	push	eax
	mov	eax, DWORD PTR _pCmdUI$[ebp]
	mov	edx, DWORD PTR [eax]
	mov	ecx, DWORD PTR _pCmdUI$[ebp]
	mov	eax, DWORD PTR [edx]
	call	eax
	cmp	esi, esp
	call	__RTC_CheckEsp

; 965  : }

	pop	esi
	add	esp, 4
	cmp	ebp, esp
	call	__RTC_CheckEsp
	mov	esp, ebp
	pop	ebp
	ret	4
?OnUpdateEditHorzRule@CRTFContentControl@@IAEXPAVCCmdUI@@@Z ENDP ; CRTFContentControl::OnUpdateEditHorzRule
_TEXT	ENDS
EXTRN	?GoToUrl@CUrlRichEditCtrl@@QBEHH@Z:PROC		; CUrlRichEditCtrl::GoToUrl
; Function compile flags: /Odtp /RTCsu
;	COMDAT ?OnEditOpenUrl@CRTFContentControl@@IAEXXZ
_TEXT	SEGMENT
_nUrl$ = -8						; size = 4
_this$ = -4						; size = 4
?OnEditOpenUrl@CRTFContentControl@@IAEXXZ PROC		; CRTFContentControl::OnEditOpenUrl, COMDAT
; _this$ = ecx

; 968  : {

	push	ebp
	mov	ebp, esp
	sub	esp, 8
	mov	DWORD PTR [ebp-8], -858993460		; ccccccccH
	mov	DWORD PTR [ebp-4], -858993460		; ccccccccH
	mov	DWORD PTR _this$[ebp], ecx

; 969  : 	int nUrl = m_rtf.GetContextUrl();

	mov	ecx, DWORD PTR _this$[ebp]
	add	ecx, 304				; 00000130H
	call	?GetContextUrl@CUrlRichEditCtrl@@QAEHXZ	; CUrlRichEditCtrl::GetContextUrl
	mov	DWORD PTR _nUrl$[ebp], eax

; 970  : 
; 971  : 	if (nUrl != -1)

	cmp	DWORD PTR _nUrl$[ebp], -1
	je	SHORT $LN2@OnEditOpen

; 972  : 		m_rtf.GoToUrl(nUrl);

	mov	eax, DWORD PTR _nUrl$[ebp]
	push	eax
	mov	ecx, DWORD PTR _this$[ebp]
	add	ecx, 304				; 00000130H
	call	?GoToUrl@CUrlRichEditCtrl@@QBEHH@Z	; CUrlRichEditCtrl::GoToUrl
$LN2@OnEditOpen:

; 973  : }

	add	esp, 8
	cmp	ebp, esp
	call	__RTC_CheckEsp
	mov	esp, ebp
	pop	ebp
	ret	0
?OnEditOpenUrl@CRTFContentControl@@IAEXXZ ENDP		; CRTFContentControl::OnEditOpenUrl
_TEXT	ENDS
EXTRN	?CopyUrlToClipboard@CUrlRichEditCtrl@@QBEHH@Z:PROC ; CUrlRichEditCtrl::CopyUrlToClipboard
; Function compile flags: /Odtp /RTCsu
;	COMDAT ?OnEditCopyUrl@CRTFContentControl@@IAEXXZ
_TEXT	SEGMENT
_nUrl$ = -8						; size = 4
_this$ = -4						; size = 4
?OnEditCopyUrl@CRTFContentControl@@IAEXXZ PROC		; CRTFContentControl::OnEditCopyUrl, COMDAT
; _this$ = ecx

; 976  : {

	push	ebp
	mov	ebp, esp
	sub	esp, 8
	mov	DWORD PTR [ebp-8], -858993460		; ccccccccH
	mov	DWORD PTR [ebp-4], -858993460		; ccccccccH
	mov	DWORD PTR _this$[ebp], ecx

; 977  : 	int nUrl = m_rtf.GetContextUrl();

	mov	ecx, DWORD PTR _this$[ebp]
	add	ecx, 304				; 00000130H
	call	?GetContextUrl@CUrlRichEditCtrl@@QAEHXZ	; CUrlRichEditCtrl::GetContextUrl
	mov	DWORD PTR _nUrl$[ebp], eax

; 978  : 
; 979  : 	if (nUrl != -1)

	cmp	DWORD PTR _nUrl$[ebp], -1
	je	SHORT $LN2@OnEditCopy@3

; 980  : 		m_rtf.CopyUrlToClipboard(nUrl);

	mov	eax, DWORD PTR _nUrl$[ebp]
	push	eax
	mov	ecx, DWORD PTR _this$[ebp]
	add	ecx, 304				; 00000130H
	call	?CopyUrlToClipboard@CUrlRichEditCtrl@@QBEHH@Z ; CUrlRichEditCtrl::CopyUrlToClipboard
$LN2@OnEditCopy@3:

; 981  : }

	add	esp, 8
	cmp	ebp, esp
	call	__RTC_CheckEsp
	mov	esp, ebp
	pop	ebp
	ret	0
?OnEditCopyUrl@CRTFContentControl@@IAEXXZ ENDP		; CRTFContentControl::OnEditCopyUrl
_TEXT	ENDS
EXTRN	??1CEnString@@QAE@XZ:PROC			; CEnString::~CEnString
EXTRN	??1CClientDC@@UAE@XZ:PROC			; CClientDC::~CClientDC
EXTRN	__imp_?Format@?$CStringT@_WV?$StrTraitMFC_DLL@_WV?$ChTraitsCRT@_W@ATL@@@@@ATL@@QAAXPB_WZZ:PROC
EXTRN	?FormatDC@CEnString@@QAE?AVCSize@@PAVCDC@@HH@Z:PROC ; CEnString::FormatDC
EXTRN	??0CClientDC@@QAE@PAVCWnd@@@Z:PROC		; CClientDC::CClientDC
EXTRN	??0CEnString@@QAE@ABV?$CStringT@_WV?$StrTraitMFC_DLL@_WV?$ChTraitsCRT@_W@ATL@@@@@ATL@@@Z:PROC ; CEnString::CEnString
EXTRN	?Translate@CEnString@@QAEHPAUHWND__@@@Z:PROC	; CEnString::Translate
EXTRN	?GetMenuStringW@CMenu@@QBEHIAAV?$CStringT@_WV?$StrTraitMFC_DLL@_WV?$ChTraitsCRT@_W@ATL@@@@@ATL@@I@Z:PROC ; CMenu::GetMenuStringW
EXTRN	??0CEnString@@QAE@XZ:PROC			; CEnString::CEnString
;	COMDAT xdata$x
xdata$x	SEGMENT
__ehfuncinfo$?OnUpdateEditOpenCopyUrl@CRTFContentControl@@IAEXPAVCCmdUI@@@Z DD 019930522H
	DD	06H
	DD	FLAT:__unwindtable$?OnUpdateEditOpenCopyUrl@CRTFContentControl@@IAEXPAVCCmdUI@@@Z
	DD	2 DUP(00H)
	DD	2 DUP(00H)
	DD	00H
	DD	01H
__unwindtable$?OnUpdateEditOpenCopyUrl@CRTFContentControl@@IAEXPAVCCmdUI@@@Z DD 0ffffffffH
	DD	FLAT:__unwindfunclet$?OnUpdateEditOpenCopyUrl@CRTFContentControl@@IAEXPAVCCmdUI@@@Z$0
	DD	00H
	DD	FLAT:__unwindfunclet$?OnUpdateEditOpenCopyUrl@CRTFContentControl@@IAEXPAVCCmdUI@@@Z$1
	DD	01H
	DD	FLAT:__unwindfunclet$?OnUpdateEditOpenCopyUrl@CRTFContentControl@@IAEXPAVCCmdUI@@@Z$2
	DD	00H
	DD	FLAT:__unwindfunclet$?OnUpdateEditOpenCopyUrl@CRTFContentControl@@IAEXPAVCCmdUI@@@Z$2
	DD	03H
	DD	FLAT:__unwindfunclet$?OnUpdateEditOpenCopyUrl@CRTFContentControl@@IAEXPAVCCmdUI@@@Z$3
	DD	04H
	DD	FLAT:__unwindfunclet$?OnUpdateEditOpenCopyUrl@CRTFContentControl@@IAEXPAVCCmdUI@@@Z$4
; Function compile flags: /Odtp /RTCsu
xdata$x	ENDS
;	COMDAT ?OnUpdateEditOpenCopyUrl@CRTFContentControl@@IAEXPAVCCmdUI@@@Z
_TEXT	SEGMENT
tv187 = -104						; size = 4
tv85 = -100						; size = 4
$T187744 = -96						; size = 8
$T187743 = -88						; size = 4
_sText$181085 = -80					; size = 4
_dc$181083 = -68					; size = 20
_sUrl$181082 = -40					; size = 4
_sMenu$181080 = -28					; size = 4
_nUrl$181078 = -20					; size = 4
_this$ = -16						; size = 4
__$EHRec$ = -12						; size = 12
_pCmdUI$ = 8						; size = 4
?OnUpdateEditOpenCopyUrl@CRTFContentControl@@IAEXPAVCCmdUI@@@Z PROC ; CRTFContentControl::OnUpdateEditOpenCopyUrl, COMDAT
; _this$ = ecx

; 984  : {

	push	ebp
	mov	ebp, esp
	push	-1
	push	__ehhandler$?OnUpdateEditOpenCopyUrl@CRTFContentControl@@IAEXPAVCCmdUI@@@Z
	mov	eax, DWORD PTR fs:0
	push	eax
	sub	esp, 92					; 0000005cH
	push	esi
	push	edi
	push	ecx
	lea	edi, DWORD PTR [ebp-104]
	mov	ecx, 23					; 00000017H
	mov	eax, -858993460				; ccccccccH
	rep stosd
	pop	ecx
	mov	eax, DWORD PTR ___security_cookie
	xor	eax, ebp
	push	eax
	lea	eax, DWORD PTR __$EHRec$[ebp]
	mov	DWORD PTR fs:0, eax
	mov	DWORD PTR _this$[ebp], ecx

; 985  : 	if (pCmdUI->m_pMenu)

	mov	eax, DWORD PTR _pCmdUI$[ebp]
	cmp	DWORD PTR [eax+12], 0
	je	$LN3@OnUpdateEd@5

; 986  : 	{
; 987  : 		int nUrl = m_rtf.GetContextUrl();

	mov	ecx, DWORD PTR _this$[ebp]
	add	ecx, 304				; 00000130H
	call	?GetContextUrl@CUrlRichEditCtrl@@QAEHXZ	; CUrlRichEditCtrl::GetContextUrl
	mov	DWORD PTR _nUrl$181078[ebp], eax

; 988  : 		pCmdUI->Enable(nUrl != -1);

	xor	ecx, ecx
	cmp	DWORD PTR _nUrl$181078[ebp], -1
	setne	cl
	mov	esi, esp
	push	ecx
	mov	edx, DWORD PTR _pCmdUI$[ebp]
	mov	eax, DWORD PTR [edx]
	mov	ecx, DWORD PTR _pCmdUI$[ebp]
	mov	edx, DWORD PTR [eax]
	call	edx
	cmp	esi, esp
	call	__RTC_CheckEsp

; 989  : 		
; 990  : 		if (nUrl != -1)

	cmp	DWORD PTR _nUrl$181078[ebp], -1
	je	$LN3@OnUpdateEd@5

; 991  : 		{
; 992  : 			CEnString sMenu;

	lea	ecx, DWORD PTR _sMenu$181080[ebp]
	call	??0CEnString@@QAE@XZ			; CEnString::CEnString
	mov	DWORD PTR __$EHRec$[ebp+8], 0

; 993  : 			pCmdUI->m_pMenu->GetMenuString(pCmdUI->m_nID, sMenu, MF_BYCOMMAND);

	push	0
	lea	eax, DWORD PTR _sMenu$181080[ebp]
	push	eax
	mov	ecx, DWORD PTR _pCmdUI$[ebp]
	mov	edx, DWORD PTR [ecx+4]
	push	edx
	mov	eax, DWORD PTR _pCmdUI$[ebp]
	mov	ecx, DWORD PTR [eax+12]
	call	?GetMenuStringW@CMenu@@QBEHIAAV?$CStringT@_WV?$StrTraitMFC_DLL@_WV?$ChTraitsCRT@_W@ATL@@@@@ATL@@I@Z ; CMenu::GetMenuStringW

; 994  : 			sMenu.Translate();

	push	0
	lea	ecx, DWORD PTR _sMenu$181080[ebp]
	call	?Translate@CEnString@@QAEHPAUHWND__@@@Z	; CEnString::Translate

; 995  : 			
; 996  : 			// restrict url length to 250 pixels
; 997  : 			CEnString sUrl(m_rtf.GetUrl(nUrl, TRUE));

	push	1
	mov	ecx, DWORD PTR _nUrl$181078[ebp]
	push	ecx
	lea	edx, DWORD PTR $T187743[ebp]
	push	edx
	mov	ecx, DWORD PTR _this$[ebp]
	add	ecx, 304				; 00000130H
	call	?GetUrl@CUrlRichEditCtrl@@QBE?AV?$CStringT@_WV?$StrTraitMFC_DLL@_WV?$ChTraitsCRT@_W@ATL@@@@@ATL@@HH@Z ; CUrlRichEditCtrl::GetUrl
	mov	DWORD PTR tv85[ebp], eax
	mov	eax, DWORD PTR tv85[ebp]
	mov	DWORD PTR tv187[ebp], eax
	mov	BYTE PTR __$EHRec$[ebp+8], 1
	mov	ecx, DWORD PTR tv187[ebp]
	push	ecx
	lea	ecx, DWORD PTR _sUrl$181082[ebp]
	call	??0CEnString@@QAE@ABV?$CStringT@_WV?$StrTraitMFC_DLL@_WV?$ChTraitsCRT@_W@ATL@@@@@ATL@@@Z ; CEnString::CEnString
	mov	BYTE PTR __$EHRec$[ebp+8], 3
	mov	esi, esp
	lea	ecx, DWORD PTR $T187743[ebp]
	call	DWORD PTR __imp_??1?$CStringT@_WV?$StrTraitMFC_DLL@_WV?$ChTraitsCRT@_W@ATL@@@@@ATL@@QAE@XZ
	cmp	esi, esp
	call	__RTC_CheckEsp

; 998  : 			CClientDC dc(this);

	mov	edx, DWORD PTR _this$[ebp]
	push	edx
	lea	ecx, DWORD PTR _dc$181083[ebp]
	call	??0CClientDC@@QAE@PAVCWnd@@@Z		; CClientDC::CClientDC
	mov	BYTE PTR __$EHRec$[ebp+8], 4

; 999  : 			sUrl.FormatDC(&dc, 250, ES_PATH);

	push	2
	push	250					; 000000faH
	lea	eax, DWORD PTR _dc$181083[ebp]
	push	eax
	lea	ecx, DWORD PTR $T187744[ebp]
	push	ecx
	lea	ecx, DWORD PTR _sUrl$181082[ebp]
	call	?FormatDC@CEnString@@QAE?AVCSize@@PAVCDC@@HH@Z ; CEnString::FormatDC

; 1000 : 			
; 1001 : 			CString sText;

	mov	esi, esp
	lea	ecx, DWORD PTR _sText$181085[ebp]
	call	DWORD PTR __imp_??0?$CStringT@_WV?$StrTraitMFC_DLL@_WV?$ChTraitsCRT@_W@ATL@@@@@ATL@@QAE@XZ
	cmp	esi, esp
	call	__RTC_CheckEsp
	mov	BYTE PTR __$EHRec$[ebp+8], 5

; 1002 : 			sText.Format(_T("%s: %s"), sMenu, sUrl);

	mov	esi, esp
	mov	edx, DWORD PTR _sUrl$181082[ebp]
	push	edx
	mov	eax, DWORD PTR _sMenu$181080[ebp]
	push	eax
	push	OFFSET $SG181086
	lea	ecx, DWORD PTR _sText$181085[ebp]
	push	ecx
	call	DWORD PTR __imp_?Format@?$CStringT@_WV?$StrTraitMFC_DLL@_WV?$ChTraitsCRT@_W@ATL@@@@@ATL@@QAAXPB_WZZ
	add	esp, 16					; 00000010H
	cmp	esi, esp
	call	__RTC_CheckEsp

; 1003 : 			pCmdUI->SetText(sText);

	mov	esi, esp
	lea	ecx, DWORD PTR _sText$181085[ebp]
	call	DWORD PTR __imp_??B?$CSimpleStringT@_W$00@ATL@@QBEPB_WXZ
	cmp	esi, esp
	call	__RTC_CheckEsp
	mov	esi, esp
	push	eax
	mov	edx, DWORD PTR _pCmdUI$[ebp]
	mov	eax, DWORD PTR [edx]
	mov	ecx, DWORD PTR _pCmdUI$[ebp]
	mov	edx, DWORD PTR [eax+12]
	call	edx
	cmp	esi, esp
	call	__RTC_CheckEsp

; 1004 : 		}

	mov	BYTE PTR __$EHRec$[ebp+8], 4
	mov	esi, esp
	lea	ecx, DWORD PTR _sText$181085[ebp]
	call	DWORD PTR __imp_??1?$CStringT@_WV?$StrTraitMFC_DLL@_WV?$ChTraitsCRT@_W@ATL@@@@@ATL@@QAE@XZ
	cmp	esi, esp
	call	__RTC_CheckEsp
	mov	BYTE PTR __$EHRec$[ebp+8], 3
	lea	ecx, DWORD PTR _dc$181083[ebp]
	call	??1CClientDC@@UAE@XZ			; CClientDC::~CClientDC
	mov	BYTE PTR __$EHRec$[ebp+8], 0
	lea	ecx, DWORD PTR _sUrl$181082[ebp]
	call	??1CEnString@@QAE@XZ			; CEnString::~CEnString
	mov	DWORD PTR __$EHRec$[ebp+8], -1
	lea	ecx, DWORD PTR _sMenu$181080[ebp]
	call	??1CEnString@@QAE@XZ			; CEnString::~CEnString
$LN3@OnUpdateEd@5:

; 1005 : 	}
; 1006 : }

	push	edx
	mov	ecx, ebp
	push	eax
	lea	edx, DWORD PTR $LN16@OnUpdateEd@5
	call	@_RTC_CheckStackVars@8
	pop	eax
	pop	edx
	mov	ecx, DWORD PTR __$EHRec$[ebp]
	mov	DWORD PTR fs:0, ecx
	pop	ecx
	pop	edi
	pop	esi
	add	esp, 104				; 00000068H
	cmp	ebp, esp
	call	__RTC_CheckEsp
	mov	esp, ebp
	pop	ebp
	ret	4
	npad	2
$LN16@OnUpdateEd@5:
	DD	4
	DD	$LN15@OnUpdateEd@5
$LN15@OnUpdateEd@5:
	DD	-28					; ffffffe4H
	DD	4
	DD	$LN10@OnUpdateEd@5
	DD	-40					; ffffffd8H
	DD	4
	DD	$LN11@OnUpdateEd@5
	DD	-68					; ffffffbcH
	DD	20					; 00000014H
	DD	$LN12@OnUpdateEd@5
	DD	-80					; ffffffb0H
	DD	4
	DD	$LN13@OnUpdateEd@5
$LN13@OnUpdateEd@5:
	DB	115					; 00000073H
	DB	84					; 00000054H
	DB	101					; 00000065H
	DB	120					; 00000078H
	DB	116					; 00000074H
	DB	0
$LN12@OnUpdateEd@5:
	DB	100					; 00000064H
	DB	99					; 00000063H
	DB	0
$LN11@OnUpdateEd@5:
	DB	115					; 00000073H
	DB	85					; 00000055H
	DB	114					; 00000072H
	DB	108					; 0000006cH
	DB	0
$LN10@OnUpdateEd@5:
	DB	115					; 00000073H
	DB	77					; 0000004dH
	DB	101					; 00000065H
	DB	110					; 0000006eH
	DB	117					; 00000075H
	DB	0
_TEXT	ENDS
;	COMDAT text$x
text$x	SEGMENT
__unwindfunclet$?OnUpdateEditOpenCopyUrl@CRTFContentControl@@IAEXPAVCCmdUI@@@Z$0:
	lea	ecx, DWORD PTR _sMenu$181080[ebp]
	jmp	??1CEnString@@QAE@XZ			; CEnString::~CEnString
__unwindfunclet$?OnUpdateEditOpenCopyUrl@CRTFContentControl@@IAEXPAVCCmdUI@@@Z$1:
	mov	esi, esp
	lea	ecx, DWORD PTR $T187743[ebp]
	call	DWORD PTR __imp_??1?$CStringT@_WV?$StrTraitMFC_DLL@_WV?$ChTraitsCRT@_W@ATL@@@@@ATL@@QAE@XZ
	cmp	esi, esp
	jmp	__RTC_CheckEsp
__unwindfunclet$?OnUpdateEditOpenCopyUrl@CRTFContentControl@@IAEXPAVCCmdUI@@@Z$2:
	lea	ecx, DWORD PTR _sUrl$181082[ebp]
	jmp	??1CEnString@@QAE@XZ			; CEnString::~CEnString
__unwindfunclet$?OnUpdateEditOpenCopyUrl@CRTFContentControl@@IAEXPAVCCmdUI@@@Z$3:
	lea	ecx, DWORD PTR _dc$181083[ebp]
	jmp	??1CClientDC@@UAE@XZ			; CClientDC::~CClientDC
__unwindfunclet$?OnUpdateEditOpenCopyUrl@CRTFContentControl@@IAEXPAVCCmdUI@@@Z$4:
	mov	esi, esp
	lea	ecx, DWORD PTR _sText$181085[ebp]
	call	DWORD PTR __imp_??1?$CStringT@_WV?$StrTraitMFC_DLL@_WV?$ChTraitsCRT@_W@ATL@@@@@ATL@@QAE@XZ
	cmp	esi, esp
	jmp	__RTC_CheckEsp
__ehhandler$?OnUpdateEditOpenCopyUrl@CRTFContentControl@@IAEXPAVCCmdUI@@@Z:
	mov	edx, DWORD PTR [esp+8]
	lea	eax, DWORD PTR [edx+12]
	mov	ecx, DWORD PTR [edx-104]
	xor	ecx, eax
	call	@__security_check_cookie@4
	mov	eax, OFFSET __ehfuncinfo$?OnUpdateEditOpenCopyUrl@CRTFContentControl@@IAEXPAVCCmdUI@@@Z
	jmp	___CxxFrameHandler3
text$x	ENDS
?OnUpdateEditOpenCopyUrl@CRTFContentControl@@IAEXPAVCCmdUI@@@Z ENDP ; CRTFContentControl::OnUpdateEditOpenCopyUrl
; Function compile flags: /Odtp /RTCsu
;	COMDAT ?OnEditPaste@CRTFContentControl@@IAEXXZ
_TEXT	SEGMENT
_this$ = -4						; size = 4
?OnEditPaste@CRTFContentControl@@IAEXXZ PROC		; CRTFContentControl::OnEditPaste, COMDAT
; _this$ = ecx

; 1009 : {

	push	ebp
	mov	ebp, esp
	push	ecx
	mov	DWORD PTR [ebp-4], -858993460		; ccccccccH
	mov	DWORD PTR _this$[ebp], ecx

; 1010 : 	Paste(FALSE);

	push	0
	mov	ecx, DWORD PTR _this$[ebp]
	call	?Paste@CRTFContentControl@@IAEHH@Z	; CRTFContentControl::Paste

; 1011 : }

	add	esp, 4
	cmp	ebp, esp
	call	__RTC_CheckEsp
	mov	esp, ebp
	pop	ebp
	ret	0
?OnEditPaste@CRTFContentControl@@IAEXXZ ENDP		; CRTFContentControl::OnEditPaste
; Function compile flags: /Odtp /RTCsu
_TEXT	ENDS
;	COMDAT ?OnUpdateEditPaste@CRTFContentControl@@IAEXPAVCCmdUI@@@Z
_TEXT	SEGMENT
tv82 = -8						; size = 4
_this$ = -4						; size = 4
_pCmdUI$ = 8						; size = 4
?OnUpdateEditPaste@CRTFContentControl@@IAEXPAVCCmdUI@@@Z PROC ; CRTFContentControl::OnUpdateEditPaste, COMDAT
; _this$ = ecx

; 1014 : {

	push	ebp
	mov	ebp, esp
	sub	esp, 8
	push	esi
	mov	DWORD PTR [ebp-8], -858993460		; ccccccccH
	mov	DWORD PTR [ebp-4], -858993460		; ccccccccH
	mov	DWORD PTR _this$[ebp], ecx

; 1015 : 	pCmdUI->Enable(m_rtf.CanEdit() && CanPaste());

	mov	ecx, DWORD PTR _this$[ebp]
	add	ecx, 304				; 00000130H
	call	?CanEdit@CRichEditBaseCtrl@@QBEHXZ	; CRichEditBaseCtrl::CanEdit
	test	eax, eax
	je	SHORT $LN3@OnUpdateEd@6
	mov	ecx, DWORD PTR _this$[ebp]
	call	?CanPaste@CRTFContentControl@@IAEHXZ	; CRTFContentControl::CanPaste
	test	eax, eax
	je	SHORT $LN3@OnUpdateEd@6
	mov	DWORD PTR tv82[ebp], 1
	jmp	SHORT $LN4@OnUpdateEd@6
$LN3@OnUpdateEd@6:
	mov	DWORD PTR tv82[ebp], 0
$LN4@OnUpdateEd@6:
	mov	esi, esp
	mov	eax, DWORD PTR tv82[ebp]
	push	eax
	mov	ecx, DWORD PTR _pCmdUI$[ebp]
	mov	edx, DWORD PTR [ecx]
	mov	ecx, DWORD PTR _pCmdUI$[ebp]
	mov	eax, DWORD PTR [edx]
	call	eax
	cmp	esi, esp
	call	__RTC_CheckEsp

; 1016 : }

	pop	esi
	add	esp, 8
	cmp	ebp, esp
	call	__RTC_CheckEsp
	mov	esp, ebp
	pop	ebp
	ret	4
?OnUpdateEditPaste@CRTFContentControl@@IAEXPAVCCmdUI@@@Z ENDP ; CRTFContentControl::OnUpdateEditPaste
_TEXT	ENDS
EXTRN	__imp_??Y?$CStringT@_WV?$StrTraitMFC_DLL@_WV?$ChTraitsCRT@_W@ATL@@@@@ATL@@QAEAAV01@D@Z:PROC
EXTRN	__imp_??Y?$CStringT@_WV?$StrTraitMFC_DLL@_WV?$ChTraitsCRT@_W@ATL@@@@@ATL@@QAEAAV01@ABV?$CSimpleStringT@_W$00@1@@Z:PROC
EXTRN	__imp_?Replace@?$CStringT@_WV?$StrTraitMFC_DLL@_WV?$ChTraitsCRT@_W@ATL@@@@@ATL@@QAEHPB_W0@Z:PROC
EXTRN	__imp_??4?$CStringT@_WV?$StrTraitMFC_DLL@_WV?$ChTraitsCRT@_W@ATL@@@@@ATL@@QAEAAV01@PB_W@Z:PROC
;	COMDAT xdata$x
xdata$x	SEGMENT
__unwindtable$?OnEditPasteasRef@CRTFContentControl@@IAEXXZ DD 0ffffffffH
	DD	FLAT:__unwindfunclet$?OnEditPasteasRef@CRTFContentControl@@IAEXXZ$0
	DD	00H
	DD	FLAT:__unwindfunclet$?OnEditPasteasRef@CRTFContentControl@@IAEXXZ$1
	DD	01H
	DD	FLAT:__unwindfunclet$?OnEditPasteasRef@CRTFContentControl@@IAEXXZ$2
__ehfuncinfo$?OnEditPasteasRef@CRTFContentControl@@IAEXXZ DD 019930522H
	DD	03H
	DD	FLAT:__unwindtable$?OnEditPasteasRef@CRTFContentControl@@IAEXXZ
	DD	2 DUP(00H)
	DD	2 DUP(00H)
	DD	00H
	DD	01H
; Function compile flags: /Odtp /RTCsu
xdata$x	ENDS
;	COMDAT ?OnEditPasteasRef@CRTFContentControl@@IAEXXZ
_TEXT	SEGMENT
_hClip$181110 = -64					; size = 4
_sRef$181109 = -56					; size = 4
_sRefs$181108 = -44					; size = 4
_pClip4$ = -36						; size = 4
_sFileName$ = -28					; size = 4
_pClipboard$ = -20					; size = 4
_this$ = -16						; size = 4
__$EHRec$ = -12						; size = 12
?OnEditPasteasRef@CRTFContentControl@@IAEXXZ PROC	; CRTFContentControl::OnEditPasteasRef, COMDAT
; _this$ = ecx

; 1019 : {

	push	ebp
	mov	ebp, esp
	push	-1
	push	__ehhandler$?OnEditPasteasRef@CRTFContentControl@@IAEXXZ
	mov	eax, DWORD PTR fs:0
	push	eax
	sub	esp, 52					; 00000034H
	push	esi
	push	edi
	push	ecx
	lea	edi, DWORD PTR [ebp-64]
	mov	ecx, 13					; 0000000dH
	mov	eax, -858993460				; ccccccccH
	rep stosd
	pop	ecx
	mov	eax, DWORD PTR ___security_cookie
	xor	eax, ebp
	push	eax
	lea	eax, DWORD PTR __$EHRec$[ebp]
	mov	DWORD PTR fs:0, eax
	mov	DWORD PTR _this$[ebp], ecx

; 1020 : 	// try to get the clipboard for any tasklist
; 1021 : 	ITaskList* pClipboard = (ITaskList*)GetParent()->SendMessage(WM_TDCM_GETCLIPBOARD, 0, FALSE);

	push	0
	push	0
	mov	eax, DWORD PTR _WM_TDCM_GETCLIPBOARD
	push	eax
	mov	ecx, DWORD PTR _this$[ebp]
	call	?GetParent@CWnd@@QBEPAV1@XZ		; CWnd::GetParent
	mov	ecx, eax
	call	?SendMessageW@CWnd@@QBEJIIJ@Z		; CWnd::SendMessageW
	mov	DWORD PTR _pClipboard$[ebp], eax

; 1022 : 
; 1023 : 	// verify that we can get the corresponding filename
; 1024 : 	CString sFileName;

	mov	esi, esp
	lea	ecx, DWORD PTR _sFileName$[ebp]
	call	DWORD PTR __imp_??0?$CStringT@_WV?$StrTraitMFC_DLL@_WV?$ChTraitsCRT@_W@ATL@@@@@ATL@@QAE@XZ
	cmp	esi, esp
	call	__RTC_CheckEsp
	mov	DWORD PTR __$EHRec$[ebp+8], 0

; 1025 : 	ITaskList4* pClip4 = GetITLInterface<ITaskList4>(pClipboard, IID_TASKLIST4);

	push	OFFSET _IID_TASKLIST4
	mov	ecx, DWORD PTR _pClipboard$[ebp]
	push	ecx
	call	??$GetITLInterface@VITaskList4@@@@YAPAVITaskList4@@PAVITaskList@@ABU_GUID@@@Z ; GetITLInterface<ITaskList4>
	add	esp, 8
	mov	DWORD PTR _pClip4$[ebp], eax

; 1026 : 
; 1027 : 	if (pClip4)

	cmp	DWORD PTR _pClip4$[ebp], 0
	je	SHORT $LN7@OnEditPast

; 1028 : 	{
; 1029 : 		sFileName = pClip4->GetAttribute(TDL_FILENAME);

	mov	esi, esp
	mov	ecx, OFFSET _TDL_FILENAME
	call	DWORD PTR __imp_??B?$CSimpleStringT@_W$00@ATL@@QBEPB_WXZ
	cmp	esi, esp
	call	__RTC_CheckEsp
	mov	esi, esp
	push	eax
	mov	edx, DWORD PTR _pClip4$[ebp]
	mov	eax, DWORD PTR [edx]
	mov	ecx, DWORD PTR _pClip4$[ebp]
	mov	edx, DWORD PTR [eax+300]
	call	edx
	cmp	esi, esp
	call	__RTC_CheckEsp
	mov	esi, esp
	push	eax
	lea	ecx, DWORD PTR _sFileName$[ebp]
	call	DWORD PTR __imp_??4?$CStringT@_WV?$StrTraitMFC_DLL@_WV?$ChTraitsCRT@_W@ATL@@@@@ATL@@QAEAAV01@PB_W@Z
	cmp	esi, esp
	call	__RTC_CheckEsp

; 1030 : 		sFileName.Replace(_T(" "), _T("%20"));

	mov	esi, esp
	push	OFFSET $SG181103
	push	OFFSET $SG181104
	lea	ecx, DWORD PTR _sFileName$[ebp]
	call	DWORD PTR __imp_?Replace@?$CStringT@_WV?$StrTraitMFC_DLL@_WV?$ChTraitsCRT@_W@ATL@@@@@ATL@@QAEHPB_W0@Z
	cmp	esi, esp
	call	__RTC_CheckEsp

; 1031 : 	}
; 1032 : 	else // get the clipboard for just this tasklist

	jmp	SHORT $LN6@OnEditPast
$LN7@OnEditPast:

; 1033 : 		pClipboard = (ITaskList*)GetParent()->SendMessage(WM_TDCM_GETCLIPBOARD, 0, TRUE);

	push	1
	push	0
	mov	eax, DWORD PTR _WM_TDCM_GETCLIPBOARD
	push	eax
	mov	ecx, DWORD PTR _this$[ebp]
	call	?GetParent@CWnd@@QBEPAV1@XZ		; CWnd::GetParent
	mov	ecx, eax
	call	?SendMessageW@CWnd@@QBEJIIJ@Z		; CWnd::SendMessageW
	mov	DWORD PTR _pClipboard$[ebp], eax
$LN6@OnEditPast:

; 1034 : 
; 1035 : 	if (pClipboard && pClipboard->GetFirstTask())

	cmp	DWORD PTR _pClipboard$[ebp], 0
	je	$LN5@OnEditPast
	mov	esi, esp
	push	0
	mov	ecx, DWORD PTR _pClipboard$[ebp]
	mov	edx, DWORD PTR [ecx]
	mov	ecx, DWORD PTR _pClipboard$[ebp]
	mov	eax, DWORD PTR [edx+52]
	call	eax
	cmp	esi, esp
	call	__RTC_CheckEsp
	test	eax, eax
	je	$LN5@OnEditPast

; 1036 : 	{
; 1037 : 		// build single string containing each top level item as a different ref
; 1038 : 		CString sRefs, sRef;

	mov	esi, esp
	lea	ecx, DWORD PTR _sRefs$181108[ebp]
	call	DWORD PTR __imp_??0?$CStringT@_WV?$StrTraitMFC_DLL@_WV?$ChTraitsCRT@_W@ATL@@@@@ATL@@QAE@XZ
	cmp	esi, esp
	call	__RTC_CheckEsp
	mov	BYTE PTR __$EHRec$[ebp+8], 1
	mov	esi, esp
	lea	ecx, DWORD PTR _sRef$181109[ebp]
	call	DWORD PTR __imp_??0?$CStringT@_WV?$StrTraitMFC_DLL@_WV?$ChTraitsCRT@_W@ATL@@@@@ATL@@QAE@XZ
	cmp	esi, esp
	call	__RTC_CheckEsp
	mov	BYTE PTR __$EHRec$[ebp+8], 2

; 1039 : 		HTASKITEM hClip = pClipboard->GetFirstTask();

	mov	esi, esp
	push	0
	mov	ecx, DWORD PTR _pClipboard$[ebp]
	mov	edx, DWORD PTR [ecx]
	mov	ecx, DWORD PTR _pClipboard$[ebp]
	mov	eax, DWORD PTR [edx+52]
	call	eax
	cmp	esi, esp
	call	__RTC_CheckEsp
	mov	DWORD PTR _hClip$181110[ebp], eax
$LN4@OnEditPast:

; 1040 : 		
; 1041 : 		while (hClip)

	cmp	DWORD PTR _hClip$181110[ebp], 0
	je	$LN3@OnEditPast

; 1042 : 		{
; 1043 : 			if (sFileName.IsEmpty())

	mov	esi, esp
	lea	ecx, DWORD PTR _sFileName$[ebp]
	call	DWORD PTR __imp_?IsEmpty@?$CSimpleStringT@_W$00@ATL@@QBE_NXZ
	cmp	esi, esp
	call	__RTC_CheckEsp
	movzx	ecx, al
	test	ecx, ecx
	je	SHORT $LN2@OnEditPast

; 1044 : 				sRef.Format(_T(" %s%lu"), TDL_PROTOCOL, pClipboard->GetTaskID(hClip));

	mov	esi, esp
	mov	edx, DWORD PTR _hClip$181110[ebp]
	push	edx
	mov	eax, DWORD PTR _pClipboard$[ebp]
	mov	edx, DWORD PTR [eax]
	mov	ecx, DWORD PTR _pClipboard$[ebp]
	mov	eax, DWORD PTR [edx+96]
	call	eax
	cmp	esi, esp
	call	__RTC_CheckEsp
	mov	esi, esp
	push	eax
	mov	ecx, DWORD PTR _TDL_PROTOCOL
	push	ecx
	push	OFFSET $SG181115
	lea	edx, DWORD PTR _sRef$181109[ebp]
	push	edx
	call	DWORD PTR __imp_?Format@?$CStringT@_WV?$StrTraitMFC_DLL@_WV?$ChTraitsCRT@_W@ATL@@@@@ATL@@QAAXPB_WZZ
	add	esp, 16					; 00000010H
	cmp	esi, esp
	call	__RTC_CheckEsp

; 1045 : 			else

	jmp	SHORT $LN1@OnEditPast
$LN2@OnEditPast:

; 1046 : 				sRef.Format(_T(" %s%s?%lu"), TDL_PROTOCOL, sFileName, pClipboard->GetTaskID(hClip));

	mov	esi, esp
	mov	eax, DWORD PTR _hClip$181110[ebp]
	push	eax
	mov	ecx, DWORD PTR _pClipboard$[ebp]
	mov	edx, DWORD PTR [ecx]
	mov	ecx, DWORD PTR _pClipboard$[ebp]
	mov	eax, DWORD PTR [edx+96]
	call	eax
	cmp	esi, esp
	call	__RTC_CheckEsp
	mov	esi, esp
	push	eax
	mov	ecx, DWORD PTR _sFileName$[ebp]
	push	ecx
	mov	edx, DWORD PTR _TDL_PROTOCOL
	push	edx
	push	OFFSET $SG181117
	lea	eax, DWORD PTR _sRef$181109[ebp]
	push	eax
	call	DWORD PTR __imp_?Format@?$CStringT@_WV?$StrTraitMFC_DLL@_WV?$ChTraitsCRT@_W@ATL@@@@@ATL@@QAAXPB_WZZ
	add	esp, 20					; 00000014H
	cmp	esi, esp
	call	__RTC_CheckEsp
$LN1@OnEditPast:

; 1047 : 
; 1048 : 			sRefs += sRef;

	mov	esi, esp
	lea	ecx, DWORD PTR _sRef$181109[ebp]
	push	ecx
	lea	ecx, DWORD PTR _sRefs$181108[ebp]
	call	DWORD PTR __imp_??Y?$CStringT@_WV?$StrTraitMFC_DLL@_WV?$ChTraitsCRT@_W@ATL@@@@@ATL@@QAEAAV01@ABV?$CSimpleStringT@_W$00@1@@Z
	cmp	esi, esp
	call	__RTC_CheckEsp

; 1049 : 			
; 1050 : 			hClip = pClipboard->GetNextTask(hClip);

	mov	esi, esp
	mov	edx, DWORD PTR _hClip$181110[ebp]
	push	edx
	mov	eax, DWORD PTR _pClipboard$[ebp]
	mov	edx, DWORD PTR [eax]
	mov	ecx, DWORD PTR _pClipboard$[ebp]
	mov	eax, DWORD PTR [edx+56]
	call	eax
	cmp	esi, esp
	call	__RTC_CheckEsp
	mov	DWORD PTR _hClip$181110[ebp], eax

; 1051 : 		}

	jmp	$LN4@OnEditPast
$LN3@OnEditPast:

; 1052 : 
; 1053 : 		sRefs += ' ';

	mov	esi, esp
	push	32					; 00000020H
	lea	ecx, DWORD PTR _sRefs$181108[ebp]
	call	DWORD PTR __imp_??Y?$CStringT@_WV?$StrTraitMFC_DLL@_WV?$ChTraitsCRT@_W@ATL@@@@@ATL@@QAEAAV01@D@Z
	cmp	esi, esp
	call	__RTC_CheckEsp

; 1054 : 		m_rtf.ReplaceSel(sRefs, TRUE);

	push	1
	mov	esi, esp
	lea	ecx, DWORD PTR _sRefs$181108[ebp]
	call	DWORD PTR __imp_??B?$CSimpleStringT@_W$00@ATL@@QBEPB_WXZ
	cmp	esi, esp
	call	__RTC_CheckEsp
	push	eax
	mov	ecx, DWORD PTR _this$[ebp]
	add	ecx, 304				; 00000130H
	call	?ReplaceSel@CRichEditCtrl@@QAEXPB_WH@Z	; CRichEditCtrl::ReplaceSel

; 1055 : 	}

	mov	BYTE PTR __$EHRec$[ebp+8], 1
	mov	esi, esp
	lea	ecx, DWORD PTR _sRef$181109[ebp]
	call	DWORD PTR __imp_??1?$CStringT@_WV?$StrTraitMFC_DLL@_WV?$ChTraitsCRT@_W@ATL@@@@@ATL@@QAE@XZ
	cmp	esi, esp
	call	__RTC_CheckEsp
	mov	BYTE PTR __$EHRec$[ebp+8], 0
	mov	esi, esp
	lea	ecx, DWORD PTR _sRefs$181108[ebp]
	call	DWORD PTR __imp_??1?$CStringT@_WV?$StrTraitMFC_DLL@_WV?$ChTraitsCRT@_W@ATL@@@@@ATL@@QAE@XZ
	cmp	esi, esp
	call	__RTC_CheckEsp
$LN5@OnEditPast:

; 1056 : }

	mov	DWORD PTR __$EHRec$[ebp+8], -1
	mov	esi, esp
	lea	ecx, DWORD PTR _sFileName$[ebp]
	call	DWORD PTR __imp_??1?$CStringT@_WV?$StrTraitMFC_DLL@_WV?$ChTraitsCRT@_W@ATL@@@@@ATL@@QAE@XZ
	cmp	esi, esp
	call	__RTC_CheckEsp
	push	edx
	mov	ecx, ebp
	push	eax
	lea	edx, DWORD PTR $LN18@OnEditPast
	call	@_RTC_CheckStackVars@8
	pop	eax
	pop	edx
	mov	ecx, DWORD PTR __$EHRec$[ebp]
	mov	DWORD PTR fs:0, ecx
	pop	ecx
	pop	edi
	pop	esi
	add	esp, 64					; 00000040H
	cmp	ebp, esp
	call	__RTC_CheckEsp
	mov	esp, ebp
	pop	ebp
	ret	0
	npad	3
$LN18@OnEditPast:
	DD	3
	DD	$LN17@OnEditPast
$LN17@OnEditPast:
	DD	-28					; ffffffe4H
	DD	4
	DD	$LN13@OnEditPast
	DD	-44					; ffffffd4H
	DD	4
	DD	$LN14@OnEditPast
	DD	-56					; ffffffc8H
	DD	4
	DD	$LN15@OnEditPast
$LN15@OnEditPast:
	DB	115					; 00000073H
	DB	82					; 00000052H
	DB	101					; 00000065H
	DB	102					; 00000066H
	DB	0
$LN14@OnEditPast:
	DB	115					; 00000073H
	DB	82					; 00000052H
	DB	101					; 00000065H
	DB	102					; 00000066H
	DB	115					; 00000073H
	DB	0
$LN13@OnEditPast:
	DB	115					; 00000073H
	DB	70					; 00000046H
	DB	105					; 00000069H
	DB	108					; 0000006cH
	DB	101					; 00000065H
	DB	78					; 0000004eH
	DB	97					; 00000061H
	DB	109					; 0000006dH
	DB	101					; 00000065H
	DB	0
_TEXT	ENDS
;	COMDAT text$x
text$x	SEGMENT
__unwindfunclet$?OnEditPasteasRef@CRTFContentControl@@IAEXXZ$0:
	mov	esi, esp
	lea	ecx, DWORD PTR _sFileName$[ebp]
	call	DWORD PTR __imp_??1?$CStringT@_WV?$StrTraitMFC_DLL@_WV?$ChTraitsCRT@_W@ATL@@@@@ATL@@QAE@XZ
	cmp	esi, esp
	jmp	__RTC_CheckEsp
__unwindfunclet$?OnEditPasteasRef@CRTFContentControl@@IAEXXZ$1:
	mov	esi, esp
	lea	ecx, DWORD PTR _sRefs$181108[ebp]
	call	DWORD PTR __imp_??1?$CStringT@_WV?$StrTraitMFC_DLL@_WV?$ChTraitsCRT@_W@ATL@@@@@ATL@@QAE@XZ
	cmp	esi, esp
	jmp	__RTC_CheckEsp
__unwindfunclet$?OnEditPasteasRef@CRTFContentControl@@IAEXXZ$2:
	mov	esi, esp
	lea	ecx, DWORD PTR _sRef$181109[ebp]
	call	DWORD PTR __imp_??1?$CStringT@_WV?$StrTraitMFC_DLL@_WV?$ChTraitsCRT@_W@ATL@@@@@ATL@@QAE@XZ
	cmp	esi, esp
	jmp	__RTC_CheckEsp
__ehhandler$?OnEditPasteasRef@CRTFContentControl@@IAEXXZ:
	mov	edx, DWORD PTR [esp+8]
	lea	eax, DWORD PTR [edx+12]
	mov	ecx, DWORD PTR [edx-64]
	xor	ecx, eax
	call	@__security_check_cookie@4
	mov	eax, OFFSET __ehfuncinfo$?OnEditPasteasRef@CRTFContentControl@@IAEXXZ
	jmp	___CxxFrameHandler3
text$x	ENDS
?OnEditPasteasRef@CRTFContentControl@@IAEXXZ ENDP	; CRTFContentControl::OnEditPasteasRef
; Function compile flags: /Odtp /RTCsu
;	COMDAT ?OnUpdateEditPasteasRef@CRTFContentControl@@IAEXPAVCCmdUI@@@Z
_TEXT	SEGMENT
tv82 = -8						; size = 4
_this$ = -4						; size = 4
_pCmdUI$ = 8						; size = 4
?OnUpdateEditPasteasRef@CRTFContentControl@@IAEXPAVCCmdUI@@@Z PROC ; CRTFContentControl::OnUpdateEditPasteasRef, COMDAT
; _this$ = ecx

; 1059 : {

	push	ebp
	mov	ebp, esp
	sub	esp, 8
	push	esi
	mov	DWORD PTR [ebp-8], -858993460		; ccccccccH
	mov	DWORD PTR [ebp-4], -858993460		; ccccccccH
	mov	DWORD PTR _this$[ebp], ecx

; 1060 : 	pCmdUI->Enable(m_rtf.CanEdit() && !IsTDLClipboardEmpty());

	mov	ecx, DWORD PTR _this$[ebp]
	add	ecx, 304				; 00000130H
	call	?CanEdit@CRichEditBaseCtrl@@QBEHXZ	; CRichEditBaseCtrl::CanEdit
	test	eax, eax
	je	SHORT $LN3@OnUpdateEd@7
	mov	ecx, DWORD PTR _this$[ebp]
	call	?IsTDLClipboardEmpty@CRTFContentControl@@IBEHXZ ; CRTFContentControl::IsTDLClipboardEmpty
	test	eax, eax
	jne	SHORT $LN3@OnUpdateEd@7
	mov	DWORD PTR tv82[ebp], 1
	jmp	SHORT $LN4@OnUpdateEd@7
$LN3@OnUpdateEd@7:
	mov	DWORD PTR tv82[ebp], 0
$LN4@OnUpdateEd@7:
	mov	esi, esp
	mov	eax, DWORD PTR tv82[ebp]
	push	eax
	mov	ecx, DWORD PTR _pCmdUI$[ebp]
	mov	edx, DWORD PTR [ecx]
	mov	ecx, DWORD PTR _pCmdUI$[ebp]
	mov	eax, DWORD PTR [edx]
	call	eax
	cmp	esi, esp
	call	__RTC_CheckEsp

; 1061 : }

	pop	esi
	add	esp, 8
	cmp	ebp, esp
	call	__RTC_CheckEsp
	mov	esp, ebp
	pop	ebp
	ret	4
?OnUpdateEditPasteasRef@CRTFContentControl@@IAEXPAVCCmdUI@@@Z ENDP ; CRTFContentControl::OnUpdateEditPasteasRef
_TEXT	ENDS
EXTRN	?SetSelectionCharFormat@CRichEditBaseCtrl@@QAEHAAUCHARFORMAT2W@@@Z:PROC ; CRichEditBaseCtrl::SetSelectionCharFormat
; Function compile flags: /Odtp /RTCsu
;	COMDAT ?OnEditPasteFormatting@CRTFContentControl@@IAEXXZ
_TEXT	SEGMENT
_this$ = -4						; size = 4
?OnEditPasteFormatting@CRTFContentControl@@IAEXXZ PROC	; CRTFContentControl::OnEditPasteFormatting, COMDAT
; _this$ = ecx

; 1064 : {

	push	ebp
	mov	ebp, esp
	push	ecx
	mov	DWORD PTR [ebp-4], -858993460		; ccccccccH
	mov	DWORD PTR _this$[ebp], ecx

; 1065 : 	m_rtf.SetSelectionCharFormat(m_cfCopiedFormat);

	mov	eax, DWORD PTR _this$[ebp]
	add	eax, 1696				; 000006a0H
	push	eax
	mov	ecx, DWORD PTR _this$[ebp]
	add	ecx, 304				; 00000130H
	call	?SetSelectionCharFormat@CRichEditBaseCtrl@@QAEHAAUCHARFORMAT2W@@@Z ; CRichEditBaseCtrl::SetSelectionCharFormat

; 1066 : }

	add	esp, 4
	cmp	ebp, esp
	call	__RTC_CheckEsp
	mov	esp, ebp
	pop	ebp
	ret	0
?OnEditPasteFormatting@CRTFContentControl@@IAEXXZ ENDP	; CRTFContentControl::OnEditPasteFormatting
_TEXT	ENDS
PUBLIC	??8CharFormat@@QAEHABU0@@Z			; CharFormat::operator==
PUBLIC	__$ArrayPad$
; Function compile flags: /Odtp /RTCsu
;	COMDAT ?OnUpdateEditPasteFormatting@CRTFContentControl@@IAEXPAVCCmdUI@@@Z
_TEXT	SEGMENT
tv131 = -128						; size = 4
$T181133 = -124						; size = 116
_this$ = -8						; size = 4
__$ArrayPad$ = -4					; size = 4
_pCmdUI$ = 8						; size = 4
?OnUpdateEditPasteFormatting@CRTFContentControl@@IAEXPAVCCmdUI@@@Z PROC ; CRTFContentControl::OnUpdateEditPasteFormatting, COMDAT
; _this$ = ecx

; 1069 : {

	push	ebp
	mov	ebp, esp
	sub	esp, 128				; 00000080H
	push	esi
	push	edi
	push	ecx
	lea	edi, DWORD PTR [ebp-128]
	mov	ecx, 32					; 00000020H
	mov	eax, -858993460				; ccccccccH
	rep stosd
	pop	ecx
	mov	eax, DWORD PTR ___security_cookie
	xor	eax, ebp
	mov	DWORD PTR __$ArrayPad$[ebp], eax
	mov	DWORD PTR _this$[ebp], ecx

; 1070 : 	pCmdUI->Enable(m_rtf.CanEdit() && m_rtf.GetTextLength() && !(m_cfCopiedFormat == CharFormat()));

	mov	ecx, DWORD PTR _this$[ebp]
	add	ecx, 304				; 00000130H
	call	?CanEdit@CRichEditBaseCtrl@@QBEHXZ	; CRichEditBaseCtrl::CanEdit
	test	eax, eax
	je	SHORT $LN3@OnUpdateEd@8
	mov	ecx, DWORD PTR _this$[ebp]
	add	ecx, 304				; 00000130H
	call	?GetTextLength@CRichEditCtrl@@QBEJXZ	; CRichEditCtrl::GetTextLength
	test	eax, eax
	je	SHORT $LN3@OnUpdateEd@8
	push	0
	lea	ecx, DWORD PTR $T181133[ebp]
	call	??0CharFormat@@QAE@K@Z			; CharFormat::CharFormat
	push	eax
	mov	ecx, DWORD PTR _this$[ebp]
	add	ecx, 1696				; 000006a0H
	call	??8CharFormat@@QAEHABU0@@Z		; CharFormat::operator==
	test	eax, eax
	jne	SHORT $LN3@OnUpdateEd@8
	mov	DWORD PTR tv131[ebp], 1
	jmp	SHORT $LN4@OnUpdateEd@8
$LN3@OnUpdateEd@8:
	mov	DWORD PTR tv131[ebp], 0
$LN4@OnUpdateEd@8:
	mov	esi, esp
	mov	eax, DWORD PTR tv131[ebp]
	push	eax
	mov	ecx, DWORD PTR _pCmdUI$[ebp]
	mov	edx, DWORD PTR [ecx]
	mov	ecx, DWORD PTR _pCmdUI$[ebp]
	mov	eax, DWORD PTR [edx]
	call	eax
	cmp	esi, esp
	call	__RTC_CheckEsp

; 1071 : }

	pop	edi
	pop	esi
	mov	ecx, DWORD PTR __$ArrayPad$[ebp]
	xor	ecx, ebp
	call	@__security_check_cookie@4
	add	esp, 128				; 00000080H
	cmp	ebp, esp
	call	__RTC_CheckEsp
	mov	esp, ebp
	pop	ebp
	ret	4
?OnUpdateEditPasteFormatting@CRTFContentControl@@IAEXPAVCCmdUI@@@Z ENDP ; CRTFContentControl::OnUpdateEditPasteFormatting
_TEXT	ENDS
EXTRN	_memcmp:PROC
; Function compile flags: /Odtp /RTCsu
; File d:\_code\rtfcontentctrl\rulerrichedit.h
;	COMDAT ??8CharFormat@@QAEHABU0@@Z
_TEXT	SEGMENT
_this$ = -4						; size = 4
_cf$ = 8						; size = 4
??8CharFormat@@QAEHABU0@@Z PROC				; CharFormat::operator==, COMDAT
; _this$ = ecx

; 31   : 	{

	push	ebp
	mov	ebp, esp
	push	ecx
	mov	DWORD PTR [ebp-4], -858993460		; ccccccccH
	mov	DWORD PTR _this$[ebp], ecx

; 32   : 		return (memcmp(this, &cf, sizeof(cf)) == 0);

	push	116					; 00000074H
	mov	eax, DWORD PTR _cf$[ebp]
	push	eax
	mov	ecx, DWORD PTR _this$[ebp]
	push	ecx
	call	_memcmp
	add	esp, 12					; 0000000cH
	neg	eax
	sbb	eax, eax
	add	eax, 1

; 33   : 	}

	add	esp, 4
	cmp	ebp, esp
	call	__RTC_CheckEsp
	mov	esp, ebp
	pop	ebp
	ret	4
??8CharFormat@@QAEHABU0@@Z ENDP				; CharFormat::operator==
; Function compile flags: /Odtp /RTCsu
; File d:\_code\rtfcontentctrl\rtfcontentcontrol.cpp
_TEXT	ENDS
;	COMDAT ?OnEditPasteSimple@CRTFContentControl@@IAEXXZ
_TEXT	SEGMENT
_this$ = -4						; size = 4
?OnEditPasteSimple@CRTFContentControl@@IAEXXZ PROC	; CRTFContentControl::OnEditPasteSimple, COMDAT
; _this$ = ecx

; 1074 : {

	push	ebp
	mov	ebp, esp
	push	ecx
	mov	DWORD PTR [ebp-4], -858993460		; ccccccccH
	mov	DWORD PTR _this$[ebp], ecx

; 1075 : 	Paste(TRUE); // TRUE ==  simple

	push	1
	mov	ecx, DWORD PTR _this$[ebp]
	call	?Paste@CRTFContentControl@@IAEHH@Z	; CRTFContentControl::Paste

; 1076 : }

	add	esp, 4
	cmp	ebp, esp
	call	__RTC_CheckEsp
	mov	esp, ebp
	pop	ebp
	ret	0
?OnEditPasteSimple@CRTFContentControl@@IAEXXZ ENDP	; CRTFContentControl::OnEditPasteSimple
; Function compile flags: /Odtp /RTCsu
_TEXT	ENDS
;	COMDAT ?OnUpdateEditPasteSimple@CRTFContentControl@@IAEXPAVCCmdUI@@@Z
_TEXT	SEGMENT
tv82 = -8						; size = 4
_this$ = -4						; size = 4
_pCmdUI$ = 8						; size = 4
?OnUpdateEditPasteSimple@CRTFContentControl@@IAEXPAVCCmdUI@@@Z PROC ; CRTFContentControl::OnUpdateEditPasteSimple, COMDAT
; _this$ = ecx

; 1079 : {

	push	ebp
	mov	ebp, esp
	sub	esp, 8
	push	esi
	mov	DWORD PTR [ebp-8], -858993460		; ccccccccH
	mov	DWORD PTR [ebp-4], -858993460		; ccccccccH
	mov	DWORD PTR _this$[ebp], ecx

; 1080 : 	pCmdUI->Enable(m_rtf.CanEdit() && CanPaste());

	mov	ecx, DWORD PTR _this$[ebp]
	add	ecx, 304				; 00000130H
	call	?CanEdit@CRichEditBaseCtrl@@QBEHXZ	; CRichEditBaseCtrl::CanEdit
	test	eax, eax
	je	SHORT $LN3@OnUpdateEd@9
	mov	ecx, DWORD PTR _this$[ebp]
	call	?CanPaste@CRTFContentControl@@IAEHXZ	; CRTFContentControl::CanPaste
	test	eax, eax
	je	SHORT $LN3@OnUpdateEd@9
	mov	DWORD PTR tv82[ebp], 1
	jmp	SHORT $LN4@OnUpdateEd@9
$LN3@OnUpdateEd@9:
	mov	DWORD PTR tv82[ebp], 0
$LN4@OnUpdateEd@9:
	mov	esi, esp
	mov	eax, DWORD PTR tv82[ebp]
	push	eax
	mov	ecx, DWORD PTR _pCmdUI$[ebp]
	mov	edx, DWORD PTR [ecx]
	mov	ecx, DWORD PTR _pCmdUI$[ebp]
	mov	eax, DWORD PTR [edx]
	call	eax
	cmp	esi, esp
	call	__RTC_CheckEsp

; 1081 : }

	pop	esi
	add	esp, 8
	cmp	ebp, esp
	call	__RTC_CheckEsp
	mov	esp, ebp
	pop	ebp
	ret	4
?OnUpdateEditPasteSimple@CRTFContentControl@@IAEXPAVCCmdUI@@@Z ENDP ; CRTFContentControl::OnUpdateEditPasteSimple
; Function compile flags: /Odtp /RTCsu
_TEXT	ENDS
;	COMDAT ?OnEditSelectAll@CRTFContentControl@@IAEXXZ
_TEXT	SEGMENT
_this$ = -4						; size = 4
?OnEditSelectAll@CRTFContentControl@@IAEXXZ PROC	; CRTFContentControl::OnEditSelectAll, COMDAT
; _this$ = ecx

; 1084 : {

	push	ebp
	mov	ebp, esp
	push	ecx
	mov	DWORD PTR [ebp-4], -858993460		; ccccccccH
	mov	DWORD PTR _this$[ebp], ecx

; 1085 : 	m_rtf.SetSel(0, -1);

	push	-1
	push	0
	mov	ecx, DWORD PTR _this$[ebp]
	add	ecx, 304				; 00000130H
	call	?SetSel@CRichEditCtrl@@QAEXJJ@Z		; CRichEditCtrl::SetSel

; 1086 : }

	add	esp, 4
	cmp	ebp, esp
	call	__RTC_CheckEsp
	mov	esp, ebp
	pop	ebp
	ret	0
?OnEditSelectAll@CRTFContentControl@@IAEXXZ ENDP	; CRTFContentControl::OnEditSelectAll
; Function compile flags: /Odtp /RTCsu
_TEXT	ENDS
;	COMDAT ?OnUpdateEditSelectAll@CRTFContentControl@@IAEXPAVCCmdUI@@@Z
_TEXT	SEGMENT
_this$ = -4						; size = 4
_pCmdUI$ = 8						; size = 4
?OnUpdateEditSelectAll@CRTFContentControl@@IAEXPAVCCmdUI@@@Z PROC ; CRTFContentControl::OnUpdateEditSelectAll, COMDAT
; _this$ = ecx

; 1089 : {

	push	ebp
	mov	ebp, esp
	push	ecx
	push	esi
	mov	DWORD PTR [ebp-4], -858993460		; ccccccccH
	mov	DWORD PTR _this$[ebp], ecx

; 1090 : 	pCmdUI->Enable(m_rtf.GetTextLength());

	mov	ecx, DWORD PTR _this$[ebp]
	add	ecx, 304				; 00000130H
	call	?GetTextLength@CRichEditCtrl@@QBEJXZ	; CRichEditCtrl::GetTextLength
	mov	esi, esp
	push	eax
	mov	eax, DWORD PTR _pCmdUI$[ebp]
	mov	edx, DWORD PTR [eax]
	mov	ecx, DWORD PTR _pCmdUI$[ebp]
	mov	eax, DWORD PTR [edx]
	call	eax
	cmp	esi, esp
	call	__RTC_CheckEsp

; 1091 : }

	pop	esi
	add	esp, 4
	cmp	ebp, esp
	call	__RTC_CheckEsp
	mov	esp, ebp
	pop	ebp
	ret	4
?OnUpdateEditSelectAll@CRTFContentControl@@IAEXPAVCCmdUI@@@Z ENDP ; CRTFContentControl::OnUpdateEditSelectAll
; Function compile flags: /Odtp /RTCsu
_TEXT	ENDS
;	COMDAT ?OnEditShowRuler@CRTFContentControl@@IAEXXZ
_TEXT	SEGMENT
_this$ = -4						; size = 4
?OnEditShowRuler@CRTFContentControl@@IAEXXZ PROC	; CRTFContentControl::OnEditShowRuler, COMDAT
; _this$ = ecx

; 1094 : {

	push	ebp
	mov	ebp, esp
	push	ecx
	mov	DWORD PTR [ebp-4], -858993460		; ccccccccH
	mov	DWORD PTR _this$[ebp], ecx

; 1095 : 	ShowRuler(!IsRulerVisible());

	mov	ecx, DWORD PTR _this$[ebp]
	call	?IsRulerVisible@CRulerRichEditCtrl@@QBEHXZ ; CRulerRichEditCtrl::IsRulerVisible
	neg	eax
	sbb	eax, eax
	add	eax, 1
	push	eax
	mov	ecx, DWORD PTR _this$[ebp]
	call	?ShowRuler@CRulerRichEditCtrl@@QAEXH@Z	; CRulerRichEditCtrl::ShowRuler

; 1096 : }

	add	esp, 4
	cmp	ebp, esp
	call	__RTC_CheckEsp
	mov	esp, ebp
	pop	ebp
	ret	0
?OnEditShowRuler@CRTFContentControl@@IAEXXZ ENDP	; CRTFContentControl::OnEditShowRuler
; Function compile flags: /Odtp /RTCsu
_TEXT	ENDS
;	COMDAT ?OnUpdateEditShowRuler@CRTFContentControl@@IAEXPAVCCmdUI@@@Z
_TEXT	SEGMENT
_this$ = -4						; size = 4
_pCmdUI$ = 8						; size = 4
?OnUpdateEditShowRuler@CRTFContentControl@@IAEXPAVCCmdUI@@@Z PROC ; CRTFContentControl::OnUpdateEditShowRuler, COMDAT
; _this$ = ecx

; 1099 : {

	push	ebp
	mov	ebp, esp
	push	ecx
	push	esi
	mov	DWORD PTR [ebp-4], -858993460		; ccccccccH
	mov	DWORD PTR _this$[ebp], ecx

; 1100 : 	pCmdUI->SetCheck(IsRulerVisible() ? 1 : 0);

	mov	ecx, DWORD PTR _this$[ebp]
	call	?IsRulerVisible@CRulerRichEditCtrl@@QBEHXZ ; CRulerRichEditCtrl::IsRulerVisible
	neg	eax
	sbb	eax, eax
	neg	eax
	mov	esi, esp
	push	eax
	mov	eax, DWORD PTR _pCmdUI$[ebp]
	mov	edx, DWORD PTR [eax]
	mov	ecx, DWORD PTR _pCmdUI$[ebp]
	mov	eax, DWORD PTR [edx+4]
	call	eax
	cmp	esi, esp
	call	__RTC_CheckEsp

; 1101 : }

	pop	esi
	add	esp, 4
	cmp	ebp, esp
	call	__RTC_CheckEsp
	mov	esp, ebp
	pop	ebp
	ret	4
?OnUpdateEditShowRuler@CRTFContentControl@@IAEXPAVCCmdUI@@@Z ENDP ; CRTFContentControl::OnUpdateEditShowRuler
; Function compile flags: /Odtp /RTCsu
_TEXT	ENDS
;	COMDAT ?OnEditShowToolbar@CRTFContentControl@@IAEXXZ
_TEXT	SEGMENT
_this$ = -4						; size = 4
?OnEditShowToolbar@CRTFContentControl@@IAEXXZ PROC	; CRTFContentControl::OnEditShowToolbar, COMDAT
; _this$ = ecx

; 1104 : {

	push	ebp
	mov	ebp, esp
	push	ecx
	mov	DWORD PTR [ebp-4], -858993460		; ccccccccH
	mov	DWORD PTR _this$[ebp], ecx

; 1105 : 	ShowToolbar(!IsToolbarVisible());

	mov	ecx, DWORD PTR _this$[ebp]
	call	?IsToolbarVisible@CRulerRichEditCtrl@@QBEHXZ ; CRulerRichEditCtrl::IsToolbarVisible
	neg	eax
	sbb	eax, eax
	add	eax, 1
	push	eax
	mov	ecx, DWORD PTR _this$[ebp]
	call	?ShowToolbar@CRulerRichEditCtrl@@QAEXH@Z ; CRulerRichEditCtrl::ShowToolbar

; 1106 : }

	add	esp, 4
	cmp	ebp, esp
	call	__RTC_CheckEsp
	mov	esp, ebp
	pop	ebp
	ret	0
?OnEditShowToolbar@CRTFContentControl@@IAEXXZ ENDP	; CRTFContentControl::OnEditShowToolbar
; Function compile flags: /Odtp /RTCsu
_TEXT	ENDS
;	COMDAT ?OnUpdateEditShowToolbar@CRTFContentControl@@IAEXPAVCCmdUI@@@Z
_TEXT	SEGMENT
_this$ = -4						; size = 4
_pCmdUI$ = 8						; size = 4
?OnUpdateEditShowToolbar@CRTFContentControl@@IAEXPAVCCmdUI@@@Z PROC ; CRTFContentControl::OnUpdateEditShowToolbar, COMDAT
; _this$ = ecx

; 1109 : {

	push	ebp
	mov	ebp, esp
	push	ecx
	push	esi
	mov	DWORD PTR [ebp-4], -858993460		; ccccccccH
	mov	DWORD PTR _this$[ebp], ecx

; 1110 : 	pCmdUI->SetCheck(IsToolbarVisible() ? 1 : 0);

	mov	ecx, DWORD PTR _this$[ebp]
	call	?IsToolbarVisible@CRulerRichEditCtrl@@QBEHXZ ; CRulerRichEditCtrl::IsToolbarVisible
	neg	eax
	sbb	eax, eax
	neg	eax
	mov	esi, esp
	push	eax
	mov	eax, DWORD PTR _pCmdUI$[ebp]
	mov	edx, DWORD PTR [eax]
	mov	ecx, DWORD PTR _pCmdUI$[ebp]
	mov	eax, DWORD PTR [edx+4]
	call	eax
	cmp	esi, esp
	call	__RTC_CheckEsp

; 1111 : }

	pop	esi
	add	esp, 4
	cmp	ebp, esp
	call	__RTC_CheckEsp
	mov	esp, ebp
	pop	ebp
	ret	4
?OnUpdateEditShowToolbar@CRTFContentControl@@IAEXPAVCCmdUI@@@Z ENDP ; CRTFContentControl::OnUpdateEditShowToolbar
_TEXT	ENDS
EXTRN	?PostMessageW@CWnd@@QAEHIIJ@Z:PROC		; CWnd::PostMessageW
; Function compile flags: /Odtp /RTCsu
;	COMDAT ?OnEditSpellcheck@CRTFContentControl@@IAEXXZ
_TEXT	SEGMENT
_this$ = -4						; size = 4
?OnEditSpellcheck@CRTFContentControl@@IAEXXZ PROC	; CRTFContentControl::OnEditSpellcheck, COMDAT
; _this$ = ecx

; 1114 : {

	push	ebp
	mov	ebp, esp
	push	ecx
	mov	DWORD PTR [ebp-4], -858993460		; ccccccccH
	mov	DWORD PTR _this$[ebp], ecx

; 1115 : 	GetParent()->PostMessage(WM_ICC_WANTSPELLCHECK);

	push	0
	push	0
	mov	eax, DWORD PTR _WM_ICC_WANTSPELLCHECK
	push	eax
	mov	ecx, DWORD PTR _this$[ebp]
	call	?GetParent@CWnd@@QBEPAV1@XZ		; CWnd::GetParent
	mov	ecx, eax
	call	?PostMessageW@CWnd@@QAEHIIJ@Z		; CWnd::PostMessageW

; 1116 : }

	add	esp, 4
	cmp	ebp, esp
	call	__RTC_CheckEsp
	mov	esp, ebp
	pop	ebp
	ret	0
?OnEditSpellcheck@CRTFContentControl@@IAEXXZ ENDP	; CRTFContentControl::OnEditSpellcheck
; Function compile flags: /Odtp /RTCsu
_TEXT	ENDS
;	COMDAT ?OnUpdateEditSpellcheck@CRTFContentControl@@IAEXPAVCCmdUI@@@Z
_TEXT	SEGMENT
tv91 = -8						; size = 4
_this$ = -4						; size = 4
_pCmdUI$ = 8						; size = 4
?OnUpdateEditSpellcheck@CRTFContentControl@@IAEXPAVCCmdUI@@@Z PROC ; CRTFContentControl::OnUpdateEditSpellcheck, COMDAT
; _this$ = ecx

; 1119 : {

	push	ebp
	mov	ebp, esp
	sub	esp, 8
	push	esi
	mov	DWORD PTR [ebp-8], -858993460		; ccccccccH
	mov	DWORD PTR [ebp-4], -858993460		; ccccccccH
	mov	DWORD PTR _this$[ebp], ecx

; 1120 : 	pCmdUI->Enable(m_rtf.CanEdit() && m_rtf.GetTextLength());

	mov	ecx, DWORD PTR _this$[ebp]
	add	ecx, 304				; 00000130H
	call	?CanEdit@CRichEditBaseCtrl@@QBEHXZ	; CRichEditBaseCtrl::CanEdit
	test	eax, eax
	je	SHORT $LN3@OnUpdateEd@10
	mov	ecx, DWORD PTR _this$[ebp]
	add	ecx, 304				; 00000130H
	call	?GetTextLength@CRichEditCtrl@@QBEJXZ	; CRichEditCtrl::GetTextLength
	test	eax, eax
	je	SHORT $LN3@OnUpdateEd@10
	mov	DWORD PTR tv91[ebp], 1
	jmp	SHORT $LN4@OnUpdateEd@10
$LN3@OnUpdateEd@10:
	mov	DWORD PTR tv91[ebp], 0
$LN4@OnUpdateEd@10:
	mov	esi, esp
	mov	eax, DWORD PTR tv91[ebp]
	push	eax
	mov	ecx, DWORD PTR _pCmdUI$[ebp]
	mov	edx, DWORD PTR [ecx]
	mov	ecx, DWORD PTR _pCmdUI$[ebp]
	mov	eax, DWORD PTR [edx]
	call	eax
	cmp	esi, esp
	call	__RTC_CheckEsp

; 1121 : }

	pop	esi
	add	esp, 8
	cmp	ebp, esp
	call	__RTC_CheckEsp
	mov	esp, ebp
	pop	ebp
	ret	4
?OnUpdateEditSpellcheck@CRTFContentControl@@IAEXPAVCCmdUI@@@Z ENDP ; CRTFContentControl::OnUpdateEditSpellcheck
_TEXT	ENDS
EXTRN	?DoSubscript@CRulerRichEditCtrl@@IAEXXZ:PROC	; CRulerRichEditCtrl::DoSubscript
; Function compile flags: /Odtp /RTCsu
;	COMDAT ?OnEditSubscript@CRTFContentControl@@IAEXXZ
_TEXT	SEGMENT
_this$ = -4						; size = 4
?OnEditSubscript@CRTFContentControl@@IAEXXZ PROC	; CRTFContentControl::OnEditSubscript, COMDAT
; _this$ = ecx

; 1124 : {

	push	ebp
	mov	ebp, esp
	push	ecx
	mov	DWORD PTR [ebp-4], -858993460		; ccccccccH
	mov	DWORD PTR _this$[ebp], ecx

; 1125 : 	DoSubscript();	

	mov	ecx, DWORD PTR _this$[ebp]
	call	?DoSubscript@CRulerRichEditCtrl@@IAEXXZ	; CRulerRichEditCtrl::DoSubscript

; 1126 : }

	add	esp, 4
	cmp	ebp, esp
	call	__RTC_CheckEsp
	mov	esp, ebp
	pop	ebp
	ret	0
?OnEditSubscript@CRTFContentControl@@IAEXXZ ENDP	; CRTFContentControl::OnEditSubscript
_TEXT	ENDS
EXTRN	?SelectionHasEffect@CRichEditBaseCtrl@@QBEHKK@Z:PROC ; CRichEditBaseCtrl::SelectionHasEffect
; Function compile flags: /Odtp /RTCsu
;	COMDAT ?OnUpdateEditSubscript@CRTFContentControl@@IAEXPAVCCmdUI@@@Z
_TEXT	SEGMENT
_this$ = -4						; size = 4
_pCmdUI$ = 8						; size = 4
?OnUpdateEditSubscript@CRTFContentControl@@IAEXPAVCCmdUI@@@Z PROC ; CRTFContentControl::OnUpdateEditSubscript, COMDAT
; _this$ = ecx

; 1129 : {

	push	ebp
	mov	ebp, esp
	push	ecx
	push	esi
	mov	DWORD PTR [ebp-4], -858993460		; ccccccccH
	mov	DWORD PTR _this$[ebp], ecx

; 1130 : 	pCmdUI->SetCheck(m_rtf.SelectionHasEffect(CFM_SUBSCRIPT, CFE_SUBSCRIPT) ? 1 : 0);

	push	65536					; 00010000H
	push	196608					; 00030000H
	mov	ecx, DWORD PTR _this$[ebp]
	add	ecx, 304				; 00000130H
	call	?SelectionHasEffect@CRichEditBaseCtrl@@QBEHKK@Z ; CRichEditBaseCtrl::SelectionHasEffect
	neg	eax
	sbb	eax, eax
	neg	eax
	mov	esi, esp
	push	eax
	mov	eax, DWORD PTR _pCmdUI$[ebp]
	mov	edx, DWORD PTR [eax]
	mov	ecx, DWORD PTR _pCmdUI$[ebp]
	mov	eax, DWORD PTR [edx+4]
	call	eax
	cmp	esi, esp
	call	__RTC_CheckEsp

; 1131 : 	pCmdUI->Enable(m_rtf.CanEdit());

	mov	ecx, DWORD PTR _this$[ebp]
	add	ecx, 304				; 00000130H
	call	?CanEdit@CRichEditBaseCtrl@@QBEHXZ	; CRichEditBaseCtrl::CanEdit
	mov	esi, esp
	push	eax
	mov	ecx, DWORD PTR _pCmdUI$[ebp]
	mov	edx, DWORD PTR [ecx]
	mov	ecx, DWORD PTR _pCmdUI$[ebp]
	mov	eax, DWORD PTR [edx]
	call	eax
	cmp	esi, esp
	call	__RTC_CheckEsp

; 1132 : }

	pop	esi
	add	esp, 4
	cmp	ebp, esp
	call	__RTC_CheckEsp
	mov	esp, ebp
	pop	ebp
	ret	4
?OnUpdateEditSubscript@CRTFContentControl@@IAEXPAVCCmdUI@@@Z ENDP ; CRTFContentControl::OnUpdateEditSubscript
_TEXT	ENDS
EXTRN	?DoSuperscript@CRulerRichEditCtrl@@IAEXXZ:PROC	; CRulerRichEditCtrl::DoSuperscript
; Function compile flags: /Odtp /RTCsu
;	COMDAT ?OnEditSuperscript@CRTFContentControl@@IAEXXZ
_TEXT	SEGMENT
_this$ = -4						; size = 4
?OnEditSuperscript@CRTFContentControl@@IAEXXZ PROC	; CRTFContentControl::OnEditSuperscript, COMDAT
; _this$ = ecx

; 1135 : {

	push	ebp
	mov	ebp, esp
	push	ecx
	mov	DWORD PTR [ebp-4], -858993460		; ccccccccH
	mov	DWORD PTR _this$[ebp], ecx

; 1136 : 	DoSuperscript();	

	mov	ecx, DWORD PTR _this$[ebp]
	call	?DoSuperscript@CRulerRichEditCtrl@@IAEXXZ ; CRulerRichEditCtrl::DoSuperscript

; 1137 : }

	add	esp, 4
	cmp	ebp, esp
	call	__RTC_CheckEsp
	mov	esp, ebp
	pop	ebp
	ret	0
?OnEditSuperscript@CRTFContentControl@@IAEXXZ ENDP	; CRTFContentControl::OnEditSuperscript
; Function compile flags: /Odtp /RTCsu
_TEXT	ENDS
;	COMDAT ?OnUpdateEditSuperscript@CRTFContentControl@@IAEXPAVCCmdUI@@@Z
_TEXT	SEGMENT
_this$ = -4						; size = 4
_pCmdUI$ = 8						; size = 4
?OnUpdateEditSuperscript@CRTFContentControl@@IAEXPAVCCmdUI@@@Z PROC ; CRTFContentControl::OnUpdateEditSuperscript, COMDAT
; _this$ = ecx

; 1140 : {

	push	ebp
	mov	ebp, esp
	push	ecx
	push	esi
	mov	DWORD PTR [ebp-4], -858993460		; ccccccccH
	mov	DWORD PTR _this$[ebp], ecx

; 1141 : 	pCmdUI->SetCheck(m_rtf.SelectionHasEffect(CFM_SUPERSCRIPT, CFE_SUPERSCRIPT) ? 1 : 0);

	push	131072					; 00020000H
	push	196608					; 00030000H
	mov	ecx, DWORD PTR _this$[ebp]
	add	ecx, 304				; 00000130H
	call	?SelectionHasEffect@CRichEditBaseCtrl@@QBEHKK@Z ; CRichEditBaseCtrl::SelectionHasEffect
	neg	eax
	sbb	eax, eax
	neg	eax
	mov	esi, esp
	push	eax
	mov	eax, DWORD PTR _pCmdUI$[ebp]
	mov	edx, DWORD PTR [eax]
	mov	ecx, DWORD PTR _pCmdUI$[ebp]
	mov	eax, DWORD PTR [edx+4]
	call	eax
	cmp	esi, esp
	call	__RTC_CheckEsp

; 1142 : 	pCmdUI->Enable(m_rtf.CanEdit());

	mov	ecx, DWORD PTR _this$[ebp]
	add	ecx, 304				; 00000130H
	call	?CanEdit@CRichEditBaseCtrl@@QBEHXZ	; CRichEditBaseCtrl::CanEdit
	mov	esi, esp
	push	eax
	mov	ecx, DWORD PTR _pCmdUI$[ebp]
	mov	edx, DWORD PTR [ecx]
	mov	ecx, DWORD PTR _pCmdUI$[ebp]
	mov	eax, DWORD PTR [edx]
	call	eax
	cmp	esi, esp
	call	__RTC_CheckEsp

; 1143 : }

	pop	esi
	add	esp, 4
	cmp	ebp, esp
	call	__RTC_CheckEsp
	mov	esp, ebp
	pop	ebp
	ret	4
?OnUpdateEditSuperscript@CRTFContentControl@@IAEXPAVCCmdUI@@@Z ENDP ; CRTFContentControl::OnUpdateEditSuperscript
_TEXT	ENDS
PUBLIC	?GetConvertWithMSWord@CRTFPreferencesDlg@@QAEHXZ ; CRTFPreferencesDlg::GetConvertWithMSWord
PUBLIC	?GetFileLinkOption@CRTFPreferencesDlg@@QBE?AW4RE_PASTE@@XZ ; CRTFPreferencesDlg::GetFileLinkOption
PUBLIC	?GetPromptForFileLink@CRTFPreferencesDlg@@QBEHXZ ; CRTFPreferencesDlg::GetPromptForFileLink
EXTRN	?DoModal@CRTFPreferencesDlg@@QAEHH@Z:PROC	; CRTFPreferencesDlg::DoModal
; Function compile flags: /Odtp /RTCsu
;	COMDAT ?OnPreferences@CRTFContentControl@@IAEXXZ
_TEXT	SEGMENT
_this$ = -4						; size = 4
?OnPreferences@CRTFContentControl@@IAEXXZ PROC		; CRTFContentControl::OnPreferences, COMDAT
; _this$ = ecx

; 1146 : {

	push	ebp
	mov	ebp, esp
	push	ecx
	mov	DWORD PTR [ebp-4], -858993460		; ccccccccH
	mov	DWORD PTR _this$[ebp], ecx

; 1147 : 	if (m_prefsDlg.DoModal(s_bConvertWithMSWord) == IDOK)

	mov	eax, DWORD PTR ?s_bConvertWithMSWord@CRTFContentControl@@1HA ; CRTFContentControl::s_bConvertWithMSWord
	push	eax
	mov	ecx, DWORD PTR _this$[ebp]
	add	ecx, 2004				; 000007d4H
	call	?DoModal@CRTFPreferencesDlg@@QAEHH@Z	; CRTFPreferencesDlg::DoModal
	cmp	eax, 1
	jne	SHORT $LN4@OnPreferen

; 1148 : 	{
; 1149 : 		if (m_prefsDlg.GetPromptForFileLink())

	mov	ecx, DWORD PTR _this$[ebp]
	add	ecx, 2004				; 000007d4H
	call	?GetPromptForFileLink@CRTFPreferencesDlg@@QBEHXZ ; CRTFPreferencesDlg::GetPromptForFileLink
	test	eax, eax
	je	SHORT $LN2@OnPreferen

; 1150 : 			m_rtf.SetFileLinkOption(m_rtf.GetFileLinkOption(), FALSE);

	push	0
	mov	ecx, DWORD PTR _this$[ebp]
	add	ecx, 304				; 00000130H
	call	?GetFileLinkOption@CRulerRichEdit@@QBE?AW4RE_PASTE@@XZ ; CRulerRichEdit::GetFileLinkOption
	push	eax
	mov	ecx, DWORD PTR _this$[ebp]
	add	ecx, 304				; 00000130H
	call	?SetFileLinkOption@CRulerRichEdit@@QAEXW4RE_PASTE@@H@Z ; CRulerRichEdit::SetFileLinkOption

; 1151 : 		else

	jmp	SHORT $LN1@OnPreferen
$LN2@OnPreferen:

; 1152 : 			m_rtf.SetFileLinkOption(m_prefsDlg.GetFileLinkOption(), TRUE);

	push	1
	mov	ecx, DWORD PTR _this$[ebp]
	add	ecx, 2004				; 000007d4H
	call	?GetFileLinkOption@CRTFPreferencesDlg@@QBE?AW4RE_PASTE@@XZ ; CRTFPreferencesDlg::GetFileLinkOption
	push	eax
	mov	ecx, DWORD PTR _this$[ebp]
	add	ecx, 304				; 00000130H
	call	?SetFileLinkOption@CRulerRichEdit@@QAEXW4RE_PASTE@@H@Z ; CRulerRichEdit::SetFileLinkOption
$LN1@OnPreferen:

; 1153 : 
; 1154 : 		s_bConvertWithMSWord = m_prefsDlg.GetConvertWithMSWord();

	mov	ecx, DWORD PTR _this$[ebp]
	add	ecx, 2004				; 000007d4H
	call	?GetConvertWithMSWord@CRTFPreferencesDlg@@QAEHXZ ; CRTFPreferencesDlg::GetConvertWithMSWord
	mov	DWORD PTR ?s_bConvertWithMSWord@CRTFContentControl@@1HA, eax ; CRTFContentControl::s_bConvertWithMSWord
$LN4@OnPreferen:

; 1155 : 	}
; 1156 : }

	add	esp, 4
	cmp	ebp, esp
	call	__RTC_CheckEsp
	mov	esp, ebp
	pop	ebp
	ret	0
?OnPreferences@CRTFContentControl@@IAEXXZ ENDP		; CRTFContentControl::OnPreferences
_TEXT	ENDS
PUBLIC	?GetLinkOption@CRTFPreferencesPage@@QBE?AW4RE_PASTE@@XZ ; CRTFPreferencesPage::GetLinkOption
; Function compile flags: /Odtp /RTCsu
; File d:\_code\rtfcontentctrl\rtfpreferencesdlg.h
;	COMDAT ?GetFileLinkOption@CRTFPreferencesDlg@@QBE?AW4RE_PASTE@@XZ
_TEXT	SEGMENT
_this$ = -4						; size = 4
?GetFileLinkOption@CRTFPreferencesDlg@@QBE?AW4RE_PASTE@@XZ PROC ; CRTFPreferencesDlg::GetFileLinkOption, COMDAT
; _this$ = ecx

; 77   : 	RE_PASTE GetFileLinkOption() const { return m_page.GetLinkOption(); }

	push	ebp
	mov	ebp, esp
	push	ecx
	mov	DWORD PTR [ebp-4], -858993460		; ccccccccH
	mov	DWORD PTR _this$[ebp], ecx
	mov	ecx, DWORD PTR _this$[ebp]
	add	ecx, 148				; 00000094H
	call	?GetLinkOption@CRTFPreferencesPage@@QBE?AW4RE_PASTE@@XZ ; CRTFPreferencesPage::GetLinkOption
	add	esp, 4
	cmp	ebp, esp
	call	__RTC_CheckEsp
	mov	esp, ebp
	pop	ebp
	ret	0
?GetFileLinkOption@CRTFPreferencesDlg@@QBE?AW4RE_PASTE@@XZ ENDP ; CRTFPreferencesDlg::GetFileLinkOption
; Function compile flags: /Odtp /RTCsu
_TEXT	ENDS
;	COMDAT ?GetLinkOption@CRTFPreferencesPage@@QBE?AW4RE_PASTE@@XZ
_TEXT	SEGMENT
_this$ = -4						; size = 4
?GetLinkOption@CRTFPreferencesPage@@QBE?AW4RE_PASTE@@XZ PROC ; CRTFPreferencesPage::GetLinkOption, COMDAT
; _this$ = ecx

; 25   : 	RE_PASTE GetLinkOption() const { return (RE_PASTE)m_nLinkOption; }

	push	ebp
	mov	ebp, esp
	push	ecx
	mov	DWORD PTR [ebp-4], -858993460		; ccccccccH
	mov	DWORD PTR _this$[ebp], ecx
	mov	eax, DWORD PTR _this$[ebp]
	mov	eax, DWORD PTR [eax+200]
	mov	esp, ebp
	pop	ebp
	ret	0
?GetLinkOption@CRTFPreferencesPage@@QBE?AW4RE_PASTE@@XZ ENDP ; CRTFPreferencesPage::GetLinkOption
_TEXT	ENDS
PUBLIC	?GetPromptForFileLink@CRTFPreferencesPage@@QBEHXZ ; CRTFPreferencesPage::GetPromptForFileLink
; Function compile flags: /Odtp /RTCsu
;	COMDAT ?GetPromptForFileLink@CRTFPreferencesDlg@@QBEHXZ
_TEXT	SEGMENT
_this$ = -4						; size = 4
?GetPromptForFileLink@CRTFPreferencesDlg@@QBEHXZ PROC	; CRTFPreferencesDlg::GetPromptForFileLink, COMDAT
; _this$ = ecx

; 78   : 	BOOL GetPromptForFileLink() const { return m_page.GetPromptForFileLink(); }

	push	ebp
	mov	ebp, esp
	push	ecx
	mov	DWORD PTR [ebp-4], -858993460		; ccccccccH
	mov	DWORD PTR _this$[ebp], ecx
	mov	ecx, DWORD PTR _this$[ebp]
	add	ecx, 148				; 00000094H
	call	?GetPromptForFileLink@CRTFPreferencesPage@@QBEHXZ ; CRTFPreferencesPage::GetPromptForFileLink
	add	esp, 4
	cmp	ebp, esp
	call	__RTC_CheckEsp
	mov	esp, ebp
	pop	ebp
	ret	0
?GetPromptForFileLink@CRTFPreferencesDlg@@QBEHXZ ENDP	; CRTFPreferencesDlg::GetPromptForFileLink
; Function compile flags: /Odtp /RTCsu
_TEXT	ENDS
;	COMDAT ?GetPromptForFileLink@CRTFPreferencesPage@@QBEHXZ
_TEXT	SEGMENT
_this$ = -4						; size = 4
?GetPromptForFileLink@CRTFPreferencesPage@@QBEHXZ PROC	; CRTFPreferencesPage::GetPromptForFileLink, COMDAT
; _this$ = ecx

; 26   : 	BOOL GetPromptForFileLink() const { return m_bPromptForFileLink; }

	push	ebp
	mov	ebp, esp
	push	ecx
	mov	DWORD PTR [ebp-4], -858993460		; ccccccccH
	mov	DWORD PTR _this$[ebp], ecx
	mov	eax, DWORD PTR _this$[ebp]
	mov	eax, DWORD PTR [eax+204]
	mov	esp, ebp
	pop	ebp
	ret	0
?GetPromptForFileLink@CRTFPreferencesPage@@QBEHXZ ENDP	; CRTFPreferencesPage::GetPromptForFileLink
_TEXT	ENDS
PUBLIC	?GetConvertWithMSWord@CRTFPreferencesPage@@QAEHXZ ; CRTFPreferencesPage::GetConvertWithMSWord
; Function compile flags: /Odtp /RTCsu
;	COMDAT ?GetConvertWithMSWord@CRTFPreferencesDlg@@QAEHXZ
_TEXT	SEGMENT
_this$ = -4						; size = 4
?GetConvertWithMSWord@CRTFPreferencesDlg@@QAEHXZ PROC	; CRTFPreferencesDlg::GetConvertWithMSWord, COMDAT
; _this$ = ecx

; 79   : 	BOOL GetConvertWithMSWord() { return m_page.GetConvertWithMSWord(); }

	push	ebp
	mov	ebp, esp
	push	ecx
	mov	DWORD PTR [ebp-4], -858993460		; ccccccccH
	mov	DWORD PTR _this$[ebp], ecx
	mov	ecx, DWORD PTR _this$[ebp]
	add	ecx, 148				; 00000094H
	call	?GetConvertWithMSWord@CRTFPreferencesPage@@QAEHXZ ; CRTFPreferencesPage::GetConvertWithMSWord
	add	esp, 4
	cmp	ebp, esp
	call	__RTC_CheckEsp
	mov	esp, ebp
	pop	ebp
	ret	0
?GetConvertWithMSWord@CRTFPreferencesDlg@@QAEHXZ ENDP	; CRTFPreferencesDlg::GetConvertWithMSWord
; Function compile flags: /Odtp /RTCsu
_TEXT	ENDS
;	COMDAT ?GetConvertWithMSWord@CRTFPreferencesPage@@QAEHXZ
_TEXT	SEGMENT
_this$ = -4						; size = 4
?GetConvertWithMSWord@CRTFPreferencesPage@@QAEHXZ PROC	; CRTFPreferencesPage::GetConvertWithMSWord, COMDAT
; _this$ = ecx

; 30   : 	BOOL GetConvertWithMSWord() { return m_bConvertWithMSWord; }

	push	ebp
	mov	ebp, esp
	push	ecx
	mov	DWORD PTR [ebp-4], -858993460		; ccccccccH
	mov	DWORD PTR _this$[ebp], ecx
	mov	eax, DWORD PTR _this$[ebp]
	mov	eax, DWORD PTR [eax+208]
	mov	esp, ebp
	pop	ebp
	ret	0
?GetConvertWithMSWord@CRTFPreferencesPage@@QAEHXZ ENDP	; CRTFPreferencesPage::GetConvertWithMSWord
; Function compile flags: /Odtp /RTCsu
; File d:\_code\rtfcontentctrl\rtfcontentcontrol.cpp
_TEXT	ENDS
;	COMDAT ?OnEditInlineSpellcheck@CRTFContentControl@@IAEXXZ
_TEXT	SEGMENT
_this$ = -4						; size = 4
?OnEditInlineSpellcheck@CRTFContentControl@@IAEXXZ PROC	; CRTFContentControl::OnEditInlineSpellcheck, COMDAT
; _this$ = ecx

; 1159 : {

	push	ebp
	mov	ebp, esp
	push	ecx
	mov	DWORD PTR [ebp-4], -858993460		; ccccccccH
	mov	DWORD PTR _this$[ebp], ecx

; 1160 : #ifndef _DEBUG
; 1161 : 	if (m_rtf.SupportsInlineSpellChecking())
; 1162 : #endif
; 1163 : 	{
; 1164 : 		s_bInlineSpellChecking = !s_bInlineSpellChecking;

	xor	eax, eax
	cmp	DWORD PTR ?s_bInlineSpellChecking@CRTFContentControl@@1HA, 0 ; CRTFContentControl::s_bInlineSpellChecking
	sete	al
	mov	DWORD PTR ?s_bInlineSpellChecking@CRTFContentControl@@1HA, eax ; CRTFContentControl::s_bInlineSpellChecking

; 1165 : 
; 1166 : 		m_rtf.EnableInlineSpellChecking(s_bInlineSpellChecking);

	mov	ecx, DWORD PTR ?s_bInlineSpellChecking@CRTFContentControl@@1HA ; CRTFContentControl::s_bInlineSpellChecking
	push	ecx
	mov	ecx, DWORD PTR _this$[ebp]
	add	ecx, 304				; 00000130H
	call	?EnableInlineSpellChecking@CRichEditBaseCtrl@@QAEHH@Z ; CRichEditBaseCtrl::EnableInlineSpellChecking

; 1167 : 	}
; 1168 : }

	add	esp, 4
	cmp	ebp, esp
	call	__RTC_CheckEsp
	mov	esp, ebp
	pop	ebp
	ret	0
?OnEditInlineSpellcheck@CRTFContentControl@@IAEXXZ ENDP	; CRTFContentControl::OnEditInlineSpellcheck
; Function compile flags: /Odtp /RTCsu
_TEXT	ENDS
;	COMDAT ?OnUpdateEditInlineSpellcheck@CRTFContentControl@@IAEXPAVCCmdUI@@@Z
_TEXT	SEGMENT
_this$ = -4						; size = 4
_pCmdUI$ = 8						; size = 4
?OnUpdateEditInlineSpellcheck@CRTFContentControl@@IAEXPAVCCmdUI@@@Z PROC ; CRTFContentControl::OnUpdateEditInlineSpellcheck, COMDAT
; _this$ = ecx

; 1171 : {

	push	ebp
	mov	ebp, esp
	push	ecx
	push	esi
	mov	DWORD PTR [ebp-4], -858993460		; ccccccccH
	mov	DWORD PTR _this$[ebp], ecx

; 1172 : #ifndef _DEBUG
; 1173 : 	if (m_rtf.SupportsInlineSpellChecking())
; 1174 : 	{
; 1175 : 		pCmdUI->Enable(TRUE);
; 1176 : 		pCmdUI->SetCheck(s_bInlineSpellChecking);
; 1177 : 	}
; 1178 : 	else
; 1179 : 	{
; 1180 : 		pCmdUI->SetCheck(FALSE);
; 1181 : 		pCmdUI->Enable(FALSE);
; 1182 : 	}
; 1183 : #else
; 1184 : 	pCmdUI->Enable(TRUE);

	mov	esi, esp
	push	1
	mov	eax, DWORD PTR _pCmdUI$[ebp]
	mov	edx, DWORD PTR [eax]
	mov	ecx, DWORD PTR _pCmdUI$[ebp]
	mov	eax, DWORD PTR [edx]
	call	eax
	cmp	esi, esp
	call	__RTC_CheckEsp

; 1185 : 	pCmdUI->SetCheck(s_bInlineSpellChecking);

	mov	esi, esp
	mov	ecx, DWORD PTR ?s_bInlineSpellChecking@CRTFContentControl@@1HA ; CRTFContentControl::s_bInlineSpellChecking
	push	ecx
	mov	edx, DWORD PTR _pCmdUI$[ebp]
	mov	eax, DWORD PTR [edx]
	mov	ecx, DWORD PTR _pCmdUI$[ebp]
	mov	edx, DWORD PTR [eax+4]
	call	edx
	cmp	esi, esp
	call	__RTC_CheckEsp

; 1186 : #endif
; 1187 : }

	pop	esi
	add	esp, 4
	cmp	ebp, esp
	call	__RTC_CheckEsp
	mov	esp, ebp
	pop	ebp
	ret	4
?OnUpdateEditInlineSpellcheck@CRTFContentControl@@IAEXPAVCCmdUI@@@Z ENDP ; CRTFContentControl::OnUpdateEditInlineSpellcheck
; Function compile flags: /Odtp /RTCsu
; File d:\_code\interfaces\itasklist.h
_TEXT	ENDS
;	COMDAT ??$GetITLInterface@VITaskList4@@@@YAPAVITaskList4@@PAVITaskList@@ABU_GUID@@@Z
_TEXT	SEGMENT
_pInterface$ = -8					; size = 4
_pTasks$ = 8						; size = 4
_IID$ = 12						; size = 4
??$GetITLInterface@VITaskList4@@@@YAPAVITaskList4@@PAVITaskList@@ABU_GUID@@@Z PROC ; GetITLInterface<ITaskList4>, COMDAT

; 69   : {

	push	ebp
	mov	ebp, esp
	sub	esp, 12					; 0000000cH
	push	esi
	mov	DWORD PTR [ebp-12], -858993460		; ccccccccH
	mov	DWORD PTR [ebp-8], -858993460		; ccccccccH
	mov	DWORD PTR [ebp-4], -858993460		; ccccccccH

; 70   : 	TLInterface* pInterface = 0;

	mov	DWORD PTR _pInterface$[ebp], 0

; 71   : 
; 72   : 	if (pTasks)

	cmp	DWORD PTR _pTasks$[ebp], 0
	je	SHORT $LN1@GetITLInte

; 73   : 		pTasks->QueryInterface(IID, reinterpret_cast<void**>(&pInterface));

	mov	esi, esp
	lea	eax, DWORD PTR _pInterface$[ebp]
	push	eax
	mov	ecx, DWORD PTR _IID$[ebp]
	push	ecx
	mov	edx, DWORD PTR _pTasks$[ebp]
	mov	eax, DWORD PTR [edx]
	mov	ecx, DWORD PTR _pTasks$[ebp]
	push	ecx
	mov	edx, DWORD PTR [eax]
	call	edx
	cmp	esi, esp
	call	__RTC_CheckEsp
$LN1@GetITLInte:

; 74   : 
; 75   : 	return reinterpret_cast<TLInterface*>(pInterface);

	mov	eax, DWORD PTR _pInterface$[ebp]

; 76   : }

	push	edx
	mov	ecx, ebp
	push	eax
	lea	edx, DWORD PTR $LN6@GetITLInte
	call	@_RTC_CheckStackVars@8
	pop	eax
	pop	edx
	pop	esi
	add	esp, 12					; 0000000cH
	cmp	ebp, esp
	call	__RTC_CheckEsp
	mov	esp, ebp
	pop	ebp
	ret	0
	npad	2
$LN6@GetITLInte:
	DD	1
	DD	$LN5@GetITLInte
$LN5@GetITLInte:
	DD	-8					; fffffff8H
	DD	4
	DD	$LN4@GetITLInte
$LN4@GetITLInte:
	DB	112					; 00000070H
	DB	73					; 00000049H
	DB	110					; 0000006eH
	DB	116					; 00000074H
	DB	101					; 00000065H
	DB	114					; 00000072H
	DB	102					; 00000066H
	DB	97					; 00000061H
	DB	99					; 00000063H
	DB	101					; 00000065H
	DB	0
??$GetITLInterface@VITaskList4@@@@YAPAVITaskList4@@PAVITaskList@@ABU_GUID@@@Z ENDP ; GetITLInterface<ITaskList4>
; Function compile flags: /Odtp /RTCsu
; File c:\program files (x86)\microsoft visual studio 10.0\vc\atlmfc\include\afx.inl
_TEXT	ENDS
;	COMDAT ?_AfxInitManaged@@YAHXZ
_TEXT	SEGMENT
?_AfxInitManaged@@YAHXZ PROC				; _AfxInitManaged, COMDAT

; 76   : {

	push	ebp
	mov	ebp, esp

; 77   : 	return 0;

	xor	eax, eax

; 78   : }

	pop	ebp
	ret	0
?_AfxInitManaged@@YAHXZ ENDP				; _AfxInitManaged
_TEXT	ENDS
EXTRN	__imp__RegisterWindowMessageW@4:PROC
; Function compile flags: /Odtp /RTCsu
; File d:\_code\interfaces\icontentcontrol.h
;	COMDAT ??__EWM_ICC_WANTSPELLCHECK@@YAXXZ
text$yc	SEGMENT
??__EWM_ICC_WANTSPELLCHECK@@YAXXZ PROC			; `dynamic initializer for 'WM_ICC_WANTSPELLCHECK'', COMDAT

; 25   : const UINT WM_ICC_WANTSPELLCHECK 	= ::RegisterWindowMessageW(L"WM_ICC_WANTSPELLCHECK");

	push	ebp
	mov	ebp, esp
	push	esi
	mov	esi, esp
	push	OFFSET $SG171208
	call	DWORD PTR __imp__RegisterWindowMessageW@4
	cmp	esi, esp
	call	__RTC_CheckEsp
	mov	DWORD PTR _WM_ICC_WANTSPELLCHECK, eax
	pop	esi
	cmp	ebp, esp
	call	__RTC_CheckEsp
	pop	ebp
	ret	0
??__EWM_ICC_WANTSPELLCHECK@@YAXXZ ENDP			; `dynamic initializer for 'WM_ICC_WANTSPELLCHECK''
; Function compile flags: /Odtp /RTCsu
text$yc	ENDS
;	COMDAT ??__EWM_ICC_COMMENTSCHANGE@@YAXXZ
text$yc	SEGMENT
??__EWM_ICC_COMMENTSCHANGE@@YAXXZ PROC			; `dynamic initializer for 'WM_ICC_COMMENTSCHANGE'', COMDAT

; 26   : const UINT WM_ICC_COMMENTSCHANGE	= ::RegisterWindowMessageW(L"WM_ICC_COMMENTSCHANGE");

	push	ebp
	mov	ebp, esp
	push	esi
	mov	esi, esp
	push	OFFSET $SG171213
	call	DWORD PTR __imp__RegisterWindowMessageW@4
	cmp	esi, esp
	call	__RTC_CheckEsp
	mov	DWORD PTR _WM_ICC_COMMENTSCHANGE, eax
	pop	esi
	cmp	ebp, esp
	call	__RTC_CheckEsp
	pop	ebp
	ret	0
??__EWM_ICC_COMMENTSCHANGE@@YAXXZ ENDP			; `dynamic initializer for 'WM_ICC_COMMENTSCHANGE''
; Function compile flags: /Odtp /RTCsu
text$yc	ENDS
;	COMDAT ??__EWM_ICC_COMMENTSKILLFOCUS@@YAXXZ
text$yc	SEGMENT
??__EWM_ICC_COMMENTSKILLFOCUS@@YAXXZ PROC		; `dynamic initializer for 'WM_ICC_COMMENTSKILLFOCUS'', COMDAT

; 27   : const UINT WM_ICC_COMMENTSKILLFOCUS	= ::RegisterWindowMessageW(L"WM_ICC_COMMENTSKILLFOCUS");

	push	ebp
	mov	ebp, esp
	push	esi
	mov	esi, esp
	push	OFFSET $SG171218
	call	DWORD PTR __imp__RegisterWindowMessageW@4
	cmp	esi, esp
	call	__RTC_CheckEsp
	mov	DWORD PTR _WM_ICC_COMMENTSKILLFOCUS, eax
	pop	esi
	cmp	ebp, esp
	call	__RTC_CheckEsp
	pop	ebp
	ret	0
??__EWM_ICC_COMMENTSKILLFOCUS@@YAXXZ ENDP		; `dynamic initializer for 'WM_ICC_COMMENTSKILLFOCUS''
; Function compile flags: /Odtp /RTCsu
; File d:\_code\shared\urlricheditctrl.h
text$yc	ENDS
;	COMDAT ??__EWM_UREN_CUSTOMURL@@YAXXZ
text$yc	SEGMENT
??__EWM_UREN_CUSTOMURL@@YAXXZ PROC			; `dynamic initializer for 'WM_UREN_CUSTOMURL'', COMDAT

; 16   : const UINT WM_UREN_CUSTOMURL = ::RegisterWindowMessage(_T("WM_UREN_CUSTOMURL")); // lParam == full url

	push	ebp
	mov	ebp, esp
	push	esi
	mov	esi, esp
	push	OFFSET $SG172007
	call	DWORD PTR __imp__RegisterWindowMessageW@4
	cmp	esi, esp
	call	__RTC_CheckEsp
	mov	DWORD PTR _WM_UREN_CUSTOMURL, eax
	pop	esi
	cmp	ebp, esp
	call	__RTC_CheckEsp
	pop	ebp
	ret	0
??__EWM_UREN_CUSTOMURL@@YAXXZ ENDP			; `dynamic initializer for 'WM_UREN_CUSTOMURL''
; Function compile flags: /Odtp /RTCsu
text$yc	ENDS
;	COMDAT ??__EWM_UREN_FAILEDURL@@YAXXZ
text$yc	SEGMENT
??__EWM_UREN_FAILEDURL@@YAXXZ PROC			; `dynamic initializer for 'WM_UREN_FAILEDURL'', COMDAT

; 17   : const UINT WM_UREN_FAILEDURL = ::RegisterWindowMessage(_T("WM_UREN_FAILEDURL")); // lParam == full url

	push	ebp
	mov	ebp, esp
	push	esi
	mov	esi, esp
	push	OFFSET $SG172012
	call	DWORD PTR __imp__RegisterWindowMessageW@4
	cmp	esi, esp
	call	__RTC_CheckEsp
	mov	DWORD PTR _WM_UREN_FAILEDURL, eax
	pop	esi
	cmp	ebp, esp
	call	__RTC_CheckEsp
	pop	ebp
	ret	0
??__EWM_UREN_FAILEDURL@@YAXXZ ENDP			; `dynamic initializer for 'WM_UREN_FAILEDURL''
; Function compile flags: /Odtp /RTCsu
; File d:\_code\todolist\tdcmsg.h
text$yc	ENDS
;	COMDAT ??__EWM_TDCN_MODIFY@@YAXXZ
text$yc	SEGMENT
??__EWM_TDCN_MODIFY@@YAXXZ PROC				; `dynamic initializer for 'WM_TDCN_MODIFY'', COMDAT

; 14   : const UINT WM_TDCN_MODIFY					= ::RegisterWindowMessage(_T("WM_TDCN_MODIFY")); // lParam == <TDC_ATTRIBUTE>

	push	ebp
	mov	ebp, esp
	push	esi
	mov	esi, esp
	push	OFFSET $SG174636
	call	DWORD PTR __imp__RegisterWindowMessageW@4
	cmp	esi, esp
	call	__RTC_CheckEsp
	mov	DWORD PTR _WM_TDCN_MODIFY, eax
	pop	esi
	cmp	ebp, esp
	call	__RTC_CheckEsp
	pop	ebp
	ret	0
??__EWM_TDCN_MODIFY@@YAXXZ ENDP				; `dynamic initializer for 'WM_TDCN_MODIFY''
; Function compile flags: /Odtp /RTCsu
text$yc	ENDS
;	COMDAT ??__EWM_TDCN_SORT@@YAXXZ
text$yc	SEGMENT
??__EWM_TDCN_SORT@@YAXXZ PROC				; `dynamic initializer for 'WM_TDCN_SORT'', COMDAT

; 15   : const UINT WM_TDCN_SORT						= ::RegisterWindowMessage(_T("WM_TDCN_SORT")); 

	push	ebp
	mov	ebp, esp
	push	esi
	mov	esi, esp
	push	OFFSET $SG174641
	call	DWORD PTR __imp__RegisterWindowMessageW@4
	cmp	esi, esp
	call	__RTC_CheckEsp
	mov	DWORD PTR _WM_TDCN_SORT, eax
	pop	esi
	cmp	ebp, esp
	call	__RTC_CheckEsp
	pop	ebp
	ret	0
??__EWM_TDCN_SORT@@YAXXZ ENDP				; `dynamic initializer for 'WM_TDCN_SORT''
; Function compile flags: /Odtp /RTCsu
text$yc	ENDS
;	COMDAT ??__EWM_TDCN_TIMETRACK@@YAXXZ
text$yc	SEGMENT
??__EWM_TDCN_TIMETRACK@@YAXXZ PROC			; `dynamic initializer for 'WM_TDCN_TIMETRACK'', COMDAT

; 16   : const UINT WM_TDCN_TIMETRACK				= ::RegisterWindowMessage(_T("WM_TDCN_TIMETRACK")); // lParam = 0/1 => stop/start

	push	ebp
	mov	ebp, esp
	push	esi
	mov	esi, esp
	push	OFFSET $SG174646
	call	DWORD PTR __imp__RegisterWindowMessageW@4
	cmp	esi, esp
	call	__RTC_CheckEsp
	mov	DWORD PTR _WM_TDCN_TIMETRACK, eax
	pop	esi
	cmp	ebp, esp
	call	__RTC_CheckEsp
	pop	ebp
	ret	0
??__EWM_TDCN_TIMETRACK@@YAXXZ ENDP			; `dynamic initializer for 'WM_TDCN_TIMETRACK''
; Function compile flags: /Odtp /RTCsu
text$yc	ENDS
;	COMDAT ??__EWM_TDCN_VIEWPRECHANGE@@YAXXZ
text$yc	SEGMENT
??__EWM_TDCN_VIEWPRECHANGE@@YAXXZ PROC			; `dynamic initializer for 'WM_TDCN_VIEWPRECHANGE'', COMDAT

; 17   : const UINT WM_TDCN_VIEWPRECHANGE			= ::RegisterWindowMessage(_T("WM_TDCN_VIEWPRECHANGE"));

	push	ebp
	mov	ebp, esp
	push	esi
	mov	esi, esp
	push	OFFSET $SG174651
	call	DWORD PTR __imp__RegisterWindowMessageW@4
	cmp	esi, esp
	call	__RTC_CheckEsp
	mov	DWORD PTR _WM_TDCN_VIEWPRECHANGE, eax
	pop	esi
	cmp	ebp, esp
	call	__RTC_CheckEsp
	pop	ebp
	ret	0
??__EWM_TDCN_VIEWPRECHANGE@@YAXXZ ENDP			; `dynamic initializer for 'WM_TDCN_VIEWPRECHANGE''
; Function compile flags: /Odtp /RTCsu
text$yc	ENDS
;	COMDAT ??__EWM_TDCN_VIEWPOSTCHANGE@@YAXXZ
text$yc	SEGMENT
??__EWM_TDCN_VIEWPOSTCHANGE@@YAXXZ PROC			; `dynamic initializer for 'WM_TDCN_VIEWPOSTCHANGE'', COMDAT

; 18   : const UINT WM_TDCN_VIEWPOSTCHANGE			= ::RegisterWindowMessage(_T("WM_TDCN_VIEWPOSTCHANGE"));

	push	ebp
	mov	ebp, esp
	push	esi
	mov	esi, esp
	push	OFFSET $SG174656
	call	DWORD PTR __imp__RegisterWindowMessageW@4
	cmp	esi, esp
	call	__RTC_CheckEsp
	mov	DWORD PTR _WM_TDCN_VIEWPOSTCHANGE, eax
	pop	esi
	cmp	ebp, esp
	call	__RTC_CheckEsp
	pop	ebp
	ret	0
??__EWM_TDCN_VIEWPOSTCHANGE@@YAXXZ ENDP			; `dynamic initializer for 'WM_TDCN_VIEWPOSTCHANGE''
; Function compile flags: /Odtp /RTCsu
text$yc	ENDS
;	COMDAT ??__EWM_TDCN_SELECTIONCHANGE@@YAXXZ
text$yc	SEGMENT
??__EWM_TDCN_SELECTIONCHANGE@@YAXXZ PROC		; `dynamic initializer for 'WM_TDCN_SELECTIONCHANGE'', COMDAT

; 19   : const UINT WM_TDCN_SELECTIONCHANGE			= ::RegisterWindowMessage(_T("WM_TDCN_SELECTIONCHANGE"));

	push	ebp
	mov	ebp, esp
	push	esi
	mov	esi, esp
	push	OFFSET $SG174661
	call	DWORD PTR __imp__RegisterWindowMessageW@4
	cmp	esi, esp
	call	__RTC_CheckEsp
	mov	DWORD PTR _WM_TDCN_SELECTIONCHANGE, eax
	pop	esi
	cmp	ebp, esp
	call	__RTC_CheckEsp
	pop	ebp
	ret	0
??__EWM_TDCN_SELECTIONCHANGE@@YAXXZ ENDP		; `dynamic initializer for 'WM_TDCN_SELECTIONCHANGE''
; Function compile flags: /Odtp /RTCsu
text$yc	ENDS
;	COMDAT ??__EWM_TDCN_SCROLLCHANGE@@YAXXZ
text$yc	SEGMENT
??__EWM_TDCN_SCROLLCHANGE@@YAXXZ PROC			; `dynamic initializer for 'WM_TDCN_SCROLLCHANGE'', COMDAT

; 20   : const UINT WM_TDCN_SCROLLCHANGE				= ::RegisterWindowMessage(_T("WM_TDCN_SCROLLCHANGE"));

	push	ebp
	mov	ebp, esp
	push	esi
	mov	esi, esp
	push	OFFSET $SG174666
	call	DWORD PTR __imp__RegisterWindowMessageW@4
	cmp	esi, esp
	call	__RTC_CheckEsp
	mov	DWORD PTR _WM_TDCN_SCROLLCHANGE, eax
	pop	esi
	cmp	ebp, esp
	call	__RTC_CheckEsp
	pop	ebp
	ret	0
??__EWM_TDCN_SCROLLCHANGE@@YAXXZ ENDP			; `dynamic initializer for 'WM_TDCN_SCROLLCHANGE''
; Function compile flags: /Odtp /RTCsu
text$yc	ENDS
;	COMDAT ??__EWM_TDCN_RECREATERECURRINGTASK@@YAXXZ
text$yc	SEGMENT
??__EWM_TDCN_RECREATERECURRINGTASK@@YAXXZ PROC		; `dynamic initializer for 'WM_TDCN_RECREATERECURRINGTASK'', COMDAT

; 21   : const UINT WM_TDCN_RECREATERECURRINGTASK	= ::RegisterWindowMessage(_T("WM_TDCN_RECREATERECURRINGTASK"));

	push	ebp
	mov	ebp, esp
	push	esi
	mov	esi, esp
	push	OFFSET $SG174671
	call	DWORD PTR __imp__RegisterWindowMessageW@4
	cmp	esi, esp
	call	__RTC_CheckEsp
	mov	DWORD PTR _WM_TDCN_RECREATERECURRINGTASK, eax
	pop	esi
	cmp	ebp, esp
	call	__RTC_CheckEsp
	pop	ebp
	ret	0
??__EWM_TDCN_RECREATERECURRINGTASK@@YAXXZ ENDP		; `dynamic initializer for 'WM_TDCN_RECREATERECURRINGTASK''
; Function compile flags: /Odtp /RTCsu
text$yc	ENDS
;	COMDAT ??__EWM_TDCN_DOUBLECLKREMINDERCOL@@YAXXZ
text$yc	SEGMENT
??__EWM_TDCN_DOUBLECLKREMINDERCOL@@YAXXZ PROC		; `dynamic initializer for 'WM_TDCN_DOUBLECLKREMINDERCOL'', COMDAT

; 22   : const UINT WM_TDCN_DOUBLECLKREMINDERCOL		= ::RegisterWindowMessage(_T("WM_TDCN_DOUBLECLKREMINDERCOL"));

	push	ebp
	mov	ebp, esp
	push	esi
	mov	esi, esp
	push	OFFSET $SG174676
	call	DWORD PTR __imp__RegisterWindowMessageW@4
	cmp	esi, esp
	call	__RTC_CheckEsp
	mov	DWORD PTR _WM_TDCN_DOUBLECLKREMINDERCOL, eax
	pop	esi
	cmp	ebp, esp
	call	__RTC_CheckEsp
	pop	ebp
	ret	0
??__EWM_TDCN_DOUBLECLKREMINDERCOL@@YAXXZ ENDP		; `dynamic initializer for 'WM_TDCN_DOUBLECLKREMINDERCOL''
; Function compile flags: /Odtp /RTCsu
text$yc	ENDS
;	COMDAT ??__EWM_TDCN_COLUMNEDITCLICK@@YAXXZ
text$yc	SEGMENT
??__EWM_TDCN_COLUMNEDITCLICK@@YAXXZ PROC		; `dynamic initializer for 'WM_TDCN_COLUMNEDITCLICK'', COMDAT

; 23   : const UINT WM_TDCN_COLUMNEDITCLICK			= ::RegisterWindowMessage(_T("WM_TDCN_COLUMNEDITCLICK")); // lParam == <TDC_COLUMN>

	push	ebp
	mov	ebp, esp
	push	esi
	mov	esi, esp
	push	OFFSET $SG174681
	call	DWORD PTR __imp__RegisterWindowMessageW@4
	cmp	esi, esp
	call	__RTC_CheckEsp
	mov	DWORD PTR _WM_TDCN_COLUMNEDITCLICK, eax
	pop	esi
	cmp	ebp, esp
	call	__RTC_CheckEsp
	pop	ebp
	ret	0
??__EWM_TDCN_COLUMNEDITCLICK@@YAXXZ ENDP		; `dynamic initializer for 'WM_TDCN_COLUMNEDITCLICK''
; Function compile flags: /Odtp /RTCsu
text$yc	ENDS
;	COMDAT ??__EWM_FBN_FILTERCHNG@@YAXXZ
text$yc	SEGMENT
??__EWM_FBN_FILTERCHNG@@YAXXZ PROC			; `dynamic initializer for 'WM_FBN_FILTERCHNG'', COMDAT

; 26   : const UINT WM_FBN_FILTERCHNG				= ::RegisterWindowMessage(_T("WM_FBN_FILTERCHNG")); 

	push	ebp
	mov	ebp, esp
	push	esi
	mov	esi, esp
	push	OFFSET $SG174686
	call	DWORD PTR __imp__RegisterWindowMessageW@4
	cmp	esi, esp
	call	__RTC_CheckEsp
	mov	DWORD PTR _WM_FBN_FILTERCHNG, eax
	pop	esi
	cmp	ebp, esp
	call	__RTC_CheckEsp
	pop	ebp
	ret	0
??__EWM_FBN_FILTERCHNG@@YAXXZ ENDP			; `dynamic initializer for 'WM_FBN_FILTERCHNG''
; Function compile flags: /Odtp /RTCsu
text$yc	ENDS
;	COMDAT ??__EWM_TDCN_LISTCHANGE@@YAXXZ
text$yc	SEGMENT
??__EWM_TDCN_LISTCHANGE@@YAXXZ PROC			; `dynamic initializer for 'WM_TDCN_LISTCHANGE'', COMDAT

; 29   : const UINT WM_TDCN_LISTCHANGE				= ::RegisterWindowMessage(_T("WM_TDCN_LISTCHANGE")); // lParam == <TDC_ATTRIBUTE>

	push	ebp
	mov	ebp, esp
	push	esi
	mov	esi, esp
	push	OFFSET $SG174691
	call	DWORD PTR __imp__RegisterWindowMessageW@4
	cmp	esi, esp
	call	__RTC_CheckEsp
	mov	DWORD PTR _WM_TDCN_LISTCHANGE, eax
	pop	esi
	cmp	ebp, esp
	call	__RTC_CheckEsp
	pop	ebp
	ret	0
??__EWM_TDCN_LISTCHANGE@@YAXXZ ENDP			; `dynamic initializer for 'WM_TDCN_LISTCHANGE''
; Function compile flags: /Odtp /RTCsu
text$yc	ENDS
;	COMDAT ??__EWM_TDCM_GETCLIPBOARD@@YAXXZ
text$yc	SEGMENT
??__EWM_TDCM_GETCLIPBOARD@@YAXXZ PROC			; `dynamic initializer for 'WM_TDCM_GETCLIPBOARD'', COMDAT

; 32   : const UINT WM_TDCM_GETCLIPBOARD				= ::RegisterWindowMessage(_T("WM_TDCM_GETCLIPBOARD")); // lParam == match hwnd

	push	ebp
	mov	ebp, esp
	push	esi
	mov	esi, esp
	push	OFFSET $SG174696
	call	DWORD PTR __imp__RegisterWindowMessageW@4
	cmp	esi, esp
	call	__RTC_CheckEsp
	mov	DWORD PTR _WM_TDCM_GETCLIPBOARD, eax
	pop	esi
	cmp	ebp, esp
	call	__RTC_CheckEsp
	pop	ebp
	ret	0
??__EWM_TDCM_GETCLIPBOARD@@YAXXZ ENDP			; `dynamic initializer for 'WM_TDCM_GETCLIPBOARD''
; Function compile flags: /Odtp /RTCsu
text$yc	ENDS
;	COMDAT ??__EWM_TDCM_HASCLIPBOARD@@YAXXZ
text$yc	SEGMENT
??__EWM_TDCM_HASCLIPBOARD@@YAXXZ PROC			; `dynamic initializer for 'WM_TDCM_HASCLIPBOARD'', COMDAT

; 33   : const UINT WM_TDCM_HASCLIPBOARD				= ::RegisterWindowMessage(_T("WM_TDCM_HASCLIPBOARD")); // lParam == match hwnd

	push	ebp
	mov	ebp, esp
	push	esi
	mov	esi, esp
	push	OFFSET $SG174701
	call	DWORD PTR __imp__RegisterWindowMessageW@4
	cmp	esi, esp
	call	__RTC_CheckEsp
	mov	DWORD PTR _WM_TDCM_HASCLIPBOARD, eax
	pop	esi
	cmp	ebp, esp
	call	__RTC_CheckEsp
	pop	ebp
	ret	0
??__EWM_TDCM_HASCLIPBOARD@@YAXXZ ENDP			; `dynamic initializer for 'WM_TDCM_HASCLIPBOARD''
; Function compile flags: /Odtp /RTCsu
text$yc	ENDS
;	COMDAT ??__EWM_TDCM_TASKISDONE@@YAXXZ
text$yc	SEGMENT
??__EWM_TDCM_TASKISDONE@@YAXXZ PROC			; `dynamic initializer for 'WM_TDCM_TASKISDONE'', COMDAT

; 34   : const UINT WM_TDCM_TASKISDONE				= ::RegisterWindowMessage(_T("WM_TDCM_TASKISDONE")); // format as WM_TDCM_TASKLINK

	push	ebp
	mov	ebp, esp
	push	esi
	mov	esi, esp
	push	OFFSET $SG174706
	call	DWORD PTR __imp__RegisterWindowMessageW@4
	cmp	esi, esp
	call	__RTC_CheckEsp
	mov	DWORD PTR _WM_TDCM_TASKISDONE, eax
	pop	esi
	cmp	ebp, esp
	call	__RTC_CheckEsp
	pop	ebp
	ret	0
??__EWM_TDCM_TASKISDONE@@YAXXZ ENDP			; `dynamic initializer for 'WM_TDCM_TASKISDONE''
; Function compile flags: /Odtp /RTCsu
text$yc	ENDS
;	COMDAT ??__EWM_TDCM_GETTASKREMINDER@@YAXXZ
text$yc	SEGMENT
??__EWM_TDCM_GETTASKREMINDER@@YAXXZ PROC		; `dynamic initializer for 'WM_TDCM_GETTASKREMINDER'', COMDAT

; 35   : const UINT WM_TDCM_GETTASKREMINDER			= ::RegisterWindowMessage(_T("WM_TDCM_TASKHASREMINDER")); // wParam = TaskID, lParam = TDC* 

	push	ebp
	mov	ebp, esp
	push	esi
	mov	esi, esp
	push	OFFSET $SG174711
	call	DWORD PTR __imp__RegisterWindowMessageW@4
	cmp	esi, esp
	call	__RTC_CheckEsp
	mov	DWORD PTR _WM_TDCM_GETTASKREMINDER, eax
	pop	esi
	cmp	ebp, esp
	call	__RTC_CheckEsp
	pop	ebp
	ret	0
??__EWM_TDCM_GETTASKREMINDER@@YAXXZ ENDP		; `dynamic initializer for 'WM_TDCM_GETTASKREMINDER''
; Function compile flags: /Odtp /RTCsu
text$yc	ENDS
;	COMDAT ??__EWM_TDCN_DISMISSREMINDER@@YAXXZ
text$yc	SEGMENT
??__EWM_TDCN_DISMISSREMINDER@@YAXXZ PROC		; `dynamic initializer for 'WM_TDCN_DISMISSREMINDER'', COMDAT

; 38   : const UINT WM_TDCN_DISMISSREMINDER			= ::RegisterWindowMessage(_T("WM_TDCN_DISMISSREMINDER")); // wParam = TaskID, lParam = TDC* 

	push	ebp
	mov	ebp, esp
	push	esi
	mov	esi, esp
	push	OFFSET $SG174716
	call	DWORD PTR __imp__RegisterWindowMessageW@4
	cmp	esi, esp
	call	__RTC_CheckEsp
	mov	DWORD PTR _WM_TDCN_DISMISSREMINDER, eax
	pop	esi
	cmp	ebp, esp
	call	__RTC_CheckEsp
	pop	ebp
	ret	0
??__EWM_TDCN_DISMISSREMINDER@@YAXXZ ENDP		; `dynamic initializer for 'WM_TDCN_DISMISSREMINDER''
; Function compile flags: /Odtp /RTCsu
text$yc	ENDS
;	COMDAT ??__EWM_TDCN_SNOOZEREMINDER@@YAXXZ
text$yc	SEGMENT
??__EWM_TDCN_SNOOZEREMINDER@@YAXXZ PROC			; `dynamic initializer for 'WM_TDCN_SNOOZEREMINDER'', COMDAT

; 39   : const UINT WM_TDCN_SNOOZEREMINDER			= ::RegisterWindowMessage(_T("WM_TDCN_SNOOZEREMINDER")); // wParam = TaskID, lParam = TDC* 

	push	ebp
	mov	ebp, esp
	push	esi
	mov	esi, esp
	push	OFFSET $SG174721
	call	DWORD PTR __imp__RegisterWindowMessageW@4
	cmp	esi, esp
	call	__RTC_CheckEsp
	mov	DWORD PTR _WM_TDCN_SNOOZEREMINDER, eax
	pop	esi
	cmp	ebp, esp
	call	__RTC_CheckEsp
	pop	ebp
	ret	0
??__EWM_TDCN_SNOOZEREMINDER@@YAXXZ ENDP			; `dynamic initializer for 'WM_TDCN_SNOOZEREMINDER''
; Function compile flags: /Odtp /RTCsu
text$yc	ENDS
;	COMDAT ??__EWM_TDCM_TASKLINK@@YAXXZ
text$yc	SEGMENT
??__EWM_TDCM_TASKLINK@@YAXXZ PROC			; `dynamic initializer for 'WM_TDCM_TASKLINK'', COMDAT

; 43   : const UINT WM_TDCM_TASKLINK					= ::RegisterWindowMessage(_T("WM_TDCM_TASKLINK")); // wParam = taskID, lParam = taskfile path

	push	ebp
	mov	ebp, esp
	push	esi
	mov	esi, esp
	push	OFFSET $SG174726
	call	DWORD PTR __imp__RegisterWindowMessageW@4
	cmp	esi, esp
	call	__RTC_CheckEsp
	mov	DWORD PTR _WM_TDCM_TASKLINK, eax
	pop	esi
	cmp	ebp, esp
	call	__RTC_CheckEsp
	pop	ebp
	ret	0
??__EWM_TDCM_TASKLINK@@YAXXZ ENDP			; `dynamic initializer for 'WM_TDCM_TASKLINK''
; Function compile flags: /Odtp /RTCsu
text$yc	ENDS
;	COMDAT ??__EWM_TDCM_FAILEDLINK@@YAXXZ
text$yc	SEGMENT
??__EWM_TDCM_FAILEDLINK@@YAXXZ PROC			; `dynamic initializer for 'WM_TDCM_FAILEDLINK'', COMDAT

; 44   : const UINT WM_TDCM_FAILEDLINK				= ::RegisterWindowMessage(_T("WM_TDCM_FAILEDLINK")); // wParam = hwnd, lParam = url

	push	ebp
	mov	ebp, esp
	push	esi
	mov	esi, esp
	push	OFFSET $SG174731
	call	DWORD PTR __imp__RegisterWindowMessageW@4
	cmp	esi, esp
	call	__RTC_CheckEsp
	mov	DWORD PTR _WM_TDCM_FAILEDLINK, eax
	pop	esi
	cmp	ebp, esp
	call	__RTC_CheckEsp
	pop	ebp
	ret	0
??__EWM_TDCM_FAILEDLINK@@YAXXZ ENDP			; `dynamic initializer for 'WM_TDCM_FAILEDLINK''
; Function compile flags: /Odtp /RTCsu
text$yc	ENDS
;	COMDAT ??__EWM_TDCM_LENGTHYOPERATION@@YAXXZ
text$yc	SEGMENT
??__EWM_TDCM_LENGTHYOPERATION@@YAXXZ PROC		; `dynamic initializer for 'WM_TDCM_LENGTHYOPERATION'', COMDAT

; 45   : const UINT WM_TDCM_LENGTHYOPERATION			= ::RegisterWindowMessage(_T("WM_TDCM_LENGTHYOPERATION")); // wParam = start/stop, lParam = text to display

	push	ebp
	mov	ebp, esp
	push	esi
	mov	esi, esp
	push	OFFSET $SG174736
	call	DWORD PTR __imp__RegisterWindowMessageW@4
	cmp	esi, esp
	call	__RTC_CheckEsp
	mov	DWORD PTR _WM_TDCM_LENGTHYOPERATION, eax
	pop	esi
	cmp	ebp, esp
	call	__RTC_CheckEsp
	pop	ebp
	ret	0
??__EWM_TDCM_LENGTHYOPERATION@@YAXXZ ENDP		; `dynamic initializer for 'WM_TDCM_LENGTHYOPERATION''
; Function compile flags: /Odtp /RTCsu
text$yc	ENDS
;	COMDAT ??__EWM_FTD_FIND@@YAXXZ
text$yc	SEGMENT
??__EWM_FTD_FIND@@YAXXZ PROC				; `dynamic initializer for 'WM_FTD_FIND'', COMDAT

; 48   : const UINT WM_FTD_FIND						= ::RegisterWindowMessage(_T("WM_FTD_FIND"));

	push	ebp
	mov	ebp, esp
	push	esi
	mov	esi, esp
	push	OFFSET $SG174741
	call	DWORD PTR __imp__RegisterWindowMessageW@4
	cmp	esi, esp
	call	__RTC_CheckEsp
	mov	DWORD PTR _WM_FTD_FIND, eax
	pop	esi
	cmp	ebp, esp
	call	__RTC_CheckEsp
	pop	ebp
	ret	0
??__EWM_FTD_FIND@@YAXXZ ENDP				; `dynamic initializer for 'WM_FTD_FIND''
; Function compile flags: /Odtp /RTCsu
text$yc	ENDS
;	COMDAT ??__EWM_FTD_SELECTRESULT@@YAXXZ
text$yc	SEGMENT
??__EWM_FTD_SELECTRESULT@@YAXXZ PROC			; `dynamic initializer for 'WM_FTD_SELECTRESULT'', COMDAT

; 49   : const UINT WM_FTD_SELECTRESULT				= ::RegisterWindowMessage(_T("WM_FTD_SELECTRESULT"));

	push	ebp
	mov	ebp, esp
	push	esi
	mov	esi, esp
	push	OFFSET $SG174746
	call	DWORD PTR __imp__RegisterWindowMessageW@4
	cmp	esi, esp
	call	__RTC_CheckEsp
	mov	DWORD PTR _WM_FTD_SELECTRESULT, eax
	pop	esi
	cmp	ebp, esp
	call	__RTC_CheckEsp
	pop	ebp
	ret	0
??__EWM_FTD_SELECTRESULT@@YAXXZ ENDP			; `dynamic initializer for 'WM_FTD_SELECTRESULT''
; Function compile flags: /Odtp /RTCsu
text$yc	ENDS
;	COMDAT ??__EWM_FTD_SELECTALL@@YAXXZ
text$yc	SEGMENT
??__EWM_FTD_SELECTALL@@YAXXZ PROC			; `dynamic initializer for 'WM_FTD_SELECTALL'', COMDAT

; 50   : const UINT WM_FTD_SELECTALL					= ::RegisterWindowMessage(_T("WM_FTD_SELECTALL"));

	push	ebp
	mov	ebp, esp
	push	esi
	mov	esi, esp
	push	OFFSET $SG174751
	call	DWORD PTR __imp__RegisterWindowMessageW@4
	cmp	esi, esp
	call	__RTC_CheckEsp
	mov	DWORD PTR _WM_FTD_SELECTALL, eax
	pop	esi
	cmp	ebp, esp
	call	__RTC_CheckEsp
	pop	ebp
	ret	0
??__EWM_FTD_SELECTALL@@YAXXZ ENDP			; `dynamic initializer for 'WM_FTD_SELECTALL''
; Function compile flags: /Odtp /RTCsu
text$yc	ENDS
;	COMDAT ??__EWM_FTD_CLOSE@@YAXXZ
text$yc	SEGMENT
??__EWM_FTD_CLOSE@@YAXXZ PROC				; `dynamic initializer for 'WM_FTD_CLOSE'', COMDAT

; 51   : const UINT WM_FTD_CLOSE						= ::RegisterWindowMessage(_T("WM_FTD_CLOSE"));

	push	ebp
	mov	ebp, esp
	push	esi
	mov	esi, esp
	push	OFFSET $SG174756
	call	DWORD PTR __imp__RegisterWindowMessageW@4
	cmp	esi, esp
	call	__RTC_CheckEsp
	mov	DWORD PTR _WM_FTD_CLOSE, eax
	pop	esi
	cmp	ebp, esp
	call	__RTC_CheckEsp
	pop	ebp
	ret	0
??__EWM_FTD_CLOSE@@YAXXZ ENDP				; `dynamic initializer for 'WM_FTD_CLOSE''
; Function compile flags: /Odtp /RTCsu
text$yc	ENDS
;	COMDAT ??__EWM_FTD_APPLYASFILTER@@YAXXZ
text$yc	SEGMENT
??__EWM_FTD_APPLYASFILTER@@YAXXZ PROC			; `dynamic initializer for 'WM_FTD_APPLYASFILTER'', COMDAT

; 52   : const UINT WM_FTD_APPLYASFILTER				= ::RegisterWindowMessage(_T("WM_FTD_APPLYASFILTER"));

	push	ebp
	mov	ebp, esp
	push	esi
	mov	esi, esp
	push	OFFSET $SG174761
	call	DWORD PTR __imp__RegisterWindowMessageW@4
	cmp	esi, esp
	call	__RTC_CheckEsp
	mov	DWORD PTR _WM_FTD_APPLYASFILTER, eax
	pop	esi
	cmp	ebp, esp
	call	__RTC_CheckEsp
	pop	ebp
	ret	0
??__EWM_FTD_APPLYASFILTER@@YAXXZ ENDP			; `dynamic initializer for 'WM_FTD_APPLYASFILTER''
; Function compile flags: /Odtp /RTCsu
text$yc	ENDS
;	COMDAT ??__EWM_FTD_ADDSEARCH@@YAXXZ
text$yc	SEGMENT
??__EWM_FTD_ADDSEARCH@@YAXXZ PROC			; `dynamic initializer for 'WM_FTD_ADDSEARCH'', COMDAT

; 53   : const UINT WM_FTD_ADDSEARCH					= ::RegisterWindowMessage(_T("WM_FTD_ADDSEARCH"));

	push	ebp
	mov	ebp, esp
	push	esi
	mov	esi, esp
	push	OFFSET $SG174766
	call	DWORD PTR __imp__RegisterWindowMessageW@4
	cmp	esi, esp
	call	__RTC_CheckEsp
	mov	DWORD PTR _WM_FTD_ADDSEARCH, eax
	pop	esi
	cmp	ebp, esp
	call	__RTC_CheckEsp
	pop	ebp
	ret	0
??__EWM_FTD_ADDSEARCH@@YAXXZ ENDP			; `dynamic initializer for 'WM_FTD_ADDSEARCH''
; Function compile flags: /Odtp /RTCsu
text$yc	ENDS
;	COMDAT ??__EWM_FTD_SAVESEARCH@@YAXXZ
text$yc	SEGMENT
??__EWM_FTD_SAVESEARCH@@YAXXZ PROC			; `dynamic initializer for 'WM_FTD_SAVESEARCH'', COMDAT

; 54   : const UINT WM_FTD_SAVESEARCH				= ::RegisterWindowMessage(_T("WM_FTD_SAVESEARCH"));

	push	ebp
	mov	ebp, esp
	push	esi
	mov	esi, esp
	push	OFFSET $SG174771
	call	DWORD PTR __imp__RegisterWindowMessageW@4
	cmp	esi, esp
	call	__RTC_CheckEsp
	mov	DWORD PTR _WM_FTD_SAVESEARCH, eax
	pop	esi
	cmp	ebp, esp
	call	__RTC_CheckEsp
	pop	ebp
	ret	0
??__EWM_FTD_SAVESEARCH@@YAXXZ ENDP			; `dynamic initializer for 'WM_FTD_SAVESEARCH''
; Function compile flags: /Odtp /RTCsu
text$yc	ENDS
;	COMDAT ??__EWM_FTD_DELETESEARCH@@YAXXZ
text$yc	SEGMENT
??__EWM_FTD_DELETESEARCH@@YAXXZ PROC			; `dynamic initializer for 'WM_FTD_DELETESEARCH'', COMDAT

; 55   : const UINT WM_FTD_DELETESEARCH				= ::RegisterWindowMessage(_T("WM_FTD_DELETESEARCH"));

	push	ebp
	mov	ebp, esp
	push	esi
	mov	esi, esp
	push	OFFSET $SG174776
	call	DWORD PTR __imp__RegisterWindowMessageW@4
	cmp	esi, esp
	call	__RTC_CheckEsp
	mov	DWORD PTR _WM_FTD_DELETESEARCH, eax
	pop	esi
	cmp	ebp, esp
	call	__RTC_CheckEsp
	pop	ebp
	ret	0
??__EWM_FTD_DELETESEARCH@@YAXXZ ENDP			; `dynamic initializer for 'WM_FTD_DELETESEARCH''
; Function compile flags: /Odtp /RTCsu
text$yc	ENDS
;	COMDAT ??__EWM_FTD_GETLISTITEMS@@YAXXZ
text$yc	SEGMENT
??__EWM_FTD_GETLISTITEMS@@YAXXZ PROC			; `dynamic initializer for 'WM_FTD_GETLISTITEMS'', COMDAT

; 56   : const UINT WM_FTD_GETLISTITEMS				= ::RegisterWindowMessage(_T("WM_FTD_GETLISTITEMS")); // wParam = <TDC_ATTRIBUTE>, lParam = CStringArray*

	push	ebp
	mov	ebp, esp
	push	esi
	mov	esi, esp
	push	OFFSET $SG174781
	call	DWORD PTR __imp__RegisterWindowMessageW@4
	cmp	esi, esp
	call	__RTC_CheckEsp
	mov	DWORD PTR _WM_FTD_GETLISTITEMS, eax
	pop	esi
	cmp	ebp, esp
	call	__RTC_CheckEsp
	pop	ebp
	ret	0
??__EWM_FTD_GETLISTITEMS@@YAXXZ ENDP			; `dynamic initializer for 'WM_FTD_GETLISTITEMS''
; Function compile flags: /Odtp /RTCsu
text$yc	ENDS
;	COMDAT ??__EWM_TDLTTN_STARTTRACKING@@YAXXZ
text$yc	SEGMENT
??__EWM_TDLTTN_STARTTRACKING@@YAXXZ PROC		; `dynamic initializer for 'WM_TDLTTN_STARTTRACKING'', COMDAT

; 59   : const UINT WM_TDLTTN_STARTTRACKING			= ::RegisterWindowMessage(_T("WM_TDLTTN_STARTTRACKING")); // wParam = taskID, lParam = CFilteredToDoCtrl*

	push	ebp
	mov	ebp, esp
	push	esi
	mov	esi, esp
	push	OFFSET $SG174786
	call	DWORD PTR __imp__RegisterWindowMessageW@4
	cmp	esi, esp
	call	__RTC_CheckEsp
	mov	DWORD PTR _WM_TDLTTN_STARTTRACKING, eax
	pop	esi
	cmp	ebp, esp
	call	__RTC_CheckEsp
	pop	ebp
	ret	0
??__EWM_TDLTTN_STARTTRACKING@@YAXXZ ENDP		; `dynamic initializer for 'WM_TDLTTN_STARTTRACKING''
; Function compile flags: /Odtp /RTCsu
text$yc	ENDS
;	COMDAT ??__EWM_TDLTTN_STOPTRACKING@@YAXXZ
text$yc	SEGMENT
??__EWM_TDLTTN_STOPTRACKING@@YAXXZ PROC			; `dynamic initializer for 'WM_TDLTTN_STOPTRACKING'', COMDAT

; 60   : const UINT WM_TDLTTN_STOPTRACKING			= ::RegisterWindowMessage(_T("WM_TDLTTN_STOPTRACKING")); // wParam = taskID, lParam = CFilteredToDoCtrl*

	push	ebp
	mov	ebp, esp
	push	esi
	mov	esi, esp
	push	OFFSET $SG174791
	call	DWORD PTR __imp__RegisterWindowMessageW@4
	cmp	esi, esp
	call	__RTC_CheckEsp
	mov	DWORD PTR _WM_TDLTTN_STOPTRACKING, eax
	pop	esi
	cmp	ebp, esp
	call	__RTC_CheckEsp
	pop	ebp
	ret	0
??__EWM_TDLTTN_STOPTRACKING@@YAXXZ ENDP			; `dynamic initializer for 'WM_TDLTTN_STOPTRACKING''
; Function compile flags: /Odtp /RTCsu
text$yc	ENDS
;	COMDAT ??__EWM_TDLTTN_LOADDELAYEDTASKLIST@@YAXXZ
text$yc	SEGMENT
??__EWM_TDLTTN_LOADDELAYEDTASKLIST@@YAXXZ PROC		; `dynamic initializer for 'WM_TDLTTN_LOADDELAYEDTASKLIST'', COMDAT

; 61   : const UINT WM_TDLTTN_LOADDELAYEDTASKLIST	= ::RegisterWindowMessage(_T("WM_TDLTTN_LOADDELAYEDTASKLIST")); // lParam = CFilteredToDoCtrl*

	push	ebp
	mov	ebp, esp
	push	esi
	mov	esi, esp
	push	OFFSET $SG174796
	call	DWORD PTR __imp__RegisterWindowMessageW@4
	cmp	esi, esp
	call	__RTC_CheckEsp
	mov	DWORD PTR _WM_TDLTTN_LOADDELAYEDTASKLIST, eax
	pop	esi
	cmp	ebp, esp
	call	__RTC_CheckEsp
	pop	ebp
	ret	0
??__EWM_TDLTTN_LOADDELAYEDTASKLIST@@YAXXZ ENDP		; `dynamic initializer for 'WM_TDLTTN_LOADDELAYEDTASKLIST''
text$yc	ENDS
EXTRN	_atexit:PROC
; Function compile flags: /Odtp /RTCsu
; File d:\_code\todolist\tdlschemadef.h
;	COMDAT ??__ETDL_ROOT@@YAXXZ
text$yc	SEGMENT
??__ETDL_ROOT@@YAXXZ PROC				; `dynamic initializer for 'TDL_ROOT'', COMDAT

; 5    : static const CString TDL_ROOT(_T("TODOLIST"));

	push	ebp
	mov	ebp, esp
	push	esi
	mov	esi, esp
	push	OFFSET $SG174802
	mov	ecx, OFFSET _TDL_ROOT
	call	DWORD PTR __imp_??0?$CStringT@_WV?$StrTraitMFC_DLL@_WV?$ChTraitsCRT@_W@ATL@@@@@ATL@@QAE@PB_W@Z
	cmp	esi, esp
	call	__RTC_CheckEsp
	push	OFFSET ??__FTDL_ROOT@@YAXXZ		; `dynamic atexit destructor for 'TDL_ROOT''
	call	_atexit
	add	esp, 4
	pop	esi
	cmp	ebp, esp
	call	__RTC_CheckEsp
	pop	ebp
	ret	0
??__ETDL_ROOT@@YAXXZ ENDP				; `dynamic initializer for 'TDL_ROOT''
; Function compile flags: /Odtp /RTCsu
text$yc	ENDS
;	COMDAT ??__ETDL_CHARSET@@YAXXZ
text$yc	SEGMENT
??__ETDL_CHARSET@@YAXXZ PROC				; `dynamic initializer for 'TDL_CHARSET'', COMDAT

; 6    : static const CString TDL_CHARSET(_T("CHARSET"));

	push	ebp
	mov	ebp, esp
	push	esi
	mov	esi, esp
	push	OFFSET $SG174810
	mov	ecx, OFFSET _TDL_CHARSET
	call	DWORD PTR __imp_??0?$CStringT@_WV?$StrTraitMFC_DLL@_WV?$ChTraitsCRT@_W@ATL@@@@@ATL@@QAE@PB_W@Z
	cmp	esi, esp
	call	__RTC_CheckEsp
	push	OFFSET ??__FTDL_CHARSET@@YAXXZ		; `dynamic atexit destructor for 'TDL_CHARSET''
	call	_atexit
	add	esp, 4
	pop	esi
	cmp	ebp, esp
	call	__RTC_CheckEsp
	pop	ebp
	ret	0
??__ETDL_CHARSET@@YAXXZ ENDP				; `dynamic initializer for 'TDL_CHARSET''
; Function compile flags: /Odtp /RTCsu
text$yc	ENDS
;	COMDAT ??__ETDL_APPVER@@YAXXZ
text$yc	SEGMENT
??__ETDL_APPVER@@YAXXZ PROC				; `dynamic initializer for 'TDL_APPVER'', COMDAT

; 7    : static const CString TDL_APPVER(_T("APPVER"));

	push	ebp
	mov	ebp, esp
	push	esi
	mov	esi, esp
	push	OFFSET $SG174817
	mov	ecx, OFFSET _TDL_APPVER
	call	DWORD PTR __imp_??0?$CStringT@_WV?$StrTraitMFC_DLL@_WV?$ChTraitsCRT@_W@ATL@@@@@ATL@@QAE@PB_W@Z
	cmp	esi, esp
	call	__RTC_CheckEsp
	push	OFFSET ??__FTDL_APPVER@@YAXXZ		; `dynamic atexit destructor for 'TDL_APPVER''
	call	_atexit
	add	esp, 4
	pop	esi
	cmp	ebp, esp
	call	__RTC_CheckEsp
	pop	ebp
	ret	0
??__ETDL_APPVER@@YAXXZ ENDP				; `dynamic initializer for 'TDL_APPVER''
; Function compile flags: /Odtp /RTCsu
text$yc	ENDS
;	COMDAT ??__ETDL_PROJECTNAME@@YAXXZ
text$yc	SEGMENT
??__ETDL_PROJECTNAME@@YAXXZ PROC			; `dynamic initializer for 'TDL_PROJECTNAME'', COMDAT

; 9    : static const CString TDL_PROJECTNAME(_T("PROJECTNAME"));

	push	ebp
	mov	ebp, esp
	push	esi
	mov	esi, esp
	push	OFFSET $SG174824
	mov	ecx, OFFSET _TDL_PROJECTNAME
	call	DWORD PTR __imp_??0?$CStringT@_WV?$StrTraitMFC_DLL@_WV?$ChTraitsCRT@_W@ATL@@@@@ATL@@QAE@PB_W@Z
	cmp	esi, esp
	call	__RTC_CheckEsp
	push	OFFSET ??__FTDL_PROJECTNAME@@YAXXZ	; `dynamic atexit destructor for 'TDL_PROJECTNAME''
	call	_atexit
	add	esp, 4
	pop	esi
	cmp	ebp, esp
	call	__RTC_CheckEsp
	pop	ebp
	ret	0
??__ETDL_PROJECTNAME@@YAXXZ ENDP			; `dynamic initializer for 'TDL_PROJECTNAME''
; Function compile flags: /Odtp /RTCsu
text$yc	ENDS
;	COMDAT ??__ETDL_LASTSORTBY@@YAXXZ
text$yc	SEGMENT
??__ETDL_LASTSORTBY@@YAXXZ PROC				; `dynamic initializer for 'TDL_LASTSORTBY'', COMDAT

; 10   : static const CString TDL_LASTSORTBY(_T("LASTSORTBY"));

	push	ebp
	mov	ebp, esp
	push	esi
	mov	esi, esp
	push	OFFSET $SG174831
	mov	ecx, OFFSET _TDL_LASTSORTBY
	call	DWORD PTR __imp_??0?$CStringT@_WV?$StrTraitMFC_DLL@_WV?$ChTraitsCRT@_W@ATL@@@@@ATL@@QAE@PB_W@Z
	cmp	esi, esp
	call	__RTC_CheckEsp
	push	OFFSET ??__FTDL_LASTSORTBY@@YAXXZ	; `dynamic atexit destructor for 'TDL_LASTSORTBY''
	call	_atexit
	add	esp, 4
	pop	esi
	cmp	ebp, esp
	call	__RTC_CheckEsp
	pop	ebp
	ret	0
??__ETDL_LASTSORTBY@@YAXXZ ENDP				; `dynamic initializer for 'TDL_LASTSORTBY''
; Function compile flags: /Odtp /RTCsu
text$yc	ENDS
;	COMDAT ??__ETDL_LASTSORTDIR@@YAXXZ
text$yc	SEGMENT
??__ETDL_LASTSORTDIR@@YAXXZ PROC			; `dynamic initializer for 'TDL_LASTSORTDIR'', COMDAT

; 11   : static const CString TDL_LASTSORTDIR(_T("LASTSORTDIR"));

	push	ebp
	mov	ebp, esp
	push	esi
	mov	esi, esp
	push	OFFSET $SG174838
	mov	ecx, OFFSET _TDL_LASTSORTDIR
	call	DWORD PTR __imp_??0?$CStringT@_WV?$StrTraitMFC_DLL@_WV?$ChTraitsCRT@_W@ATL@@@@@ATL@@QAE@PB_W@Z
	cmp	esi, esp
	call	__RTC_CheckEsp
	push	OFFSET ??__FTDL_LASTSORTDIR@@YAXXZ	; `dynamic atexit destructor for 'TDL_LASTSORTDIR''
	call	_atexit
	add	esp, 4
	pop	esi
	cmp	ebp, esp
	call	__RTC_CheckEsp
	pop	ebp
	ret	0
??__ETDL_LASTSORTDIR@@YAXXZ ENDP			; `dynamic initializer for 'TDL_LASTSORTDIR''
; Function compile flags: /Odtp /RTCsu
text$yc	ENDS
;	COMDAT ??__ETDL_NEXTUNIQUEID@@YAXXZ
text$yc	SEGMENT
??__ETDL_NEXTUNIQUEID@@YAXXZ PROC			; `dynamic initializer for 'TDL_NEXTUNIQUEID'', COMDAT

; 12   : static const CString TDL_NEXTUNIQUEID(_T("NEXTUNIQUEID"));

	push	ebp
	mov	ebp, esp
	push	esi
	mov	esi, esp
	push	OFFSET $SG174845
	mov	ecx, OFFSET _TDL_NEXTUNIQUEID
	call	DWORD PTR __imp_??0?$CStringT@_WV?$StrTraitMFC_DLL@_WV?$ChTraitsCRT@_W@ATL@@@@@ATL@@QAE@PB_W@Z
	cmp	esi, esp
	call	__RTC_CheckEsp
	push	OFFSET ??__FTDL_NEXTUNIQUEID@@YAXXZ	; `dynamic atexit destructor for 'TDL_NEXTUNIQUEID''
	call	_atexit
	add	esp, 4
	pop	esi
	cmp	ebp, esp
	call	__RTC_CheckEsp
	pop	ebp
	ret	0
??__ETDL_NEXTUNIQUEID@@YAXXZ ENDP			; `dynamic initializer for 'TDL_NEXTUNIQUEID''
; Function compile flags: /Odtp /RTCsu
text$yc	ENDS
;	COMDAT ??__ETDL_ARCHIVE@@YAXXZ
text$yc	SEGMENT
??__ETDL_ARCHIVE@@YAXXZ PROC				; `dynamic initializer for 'TDL_ARCHIVE'', COMDAT

; 13   : static const CString TDL_ARCHIVE(_T("ARCHIVE"));

	push	ebp
	mov	ebp, esp
	push	esi
	mov	esi, esp
	push	OFFSET $SG174852
	mov	ecx, OFFSET _TDL_ARCHIVE
	call	DWORD PTR __imp_??0?$CStringT@_WV?$StrTraitMFC_DLL@_WV?$ChTraitsCRT@_W@ATL@@@@@ATL@@QAE@PB_W@Z
	cmp	esi, esp
	call	__RTC_CheckEsp
	push	OFFSET ??__FTDL_ARCHIVE@@YAXXZ		; `dynamic atexit destructor for 'TDL_ARCHIVE''
	call	_atexit
	add	esp, 4
	pop	esi
	cmp	ebp, esp
	call	__RTC_CheckEsp
	pop	ebp
	ret	0
??__ETDL_ARCHIVE@@YAXXZ ENDP				; `dynamic initializer for 'TDL_ARCHIVE''
; Function compile flags: /Odtp /RTCsu
text$yc	ENDS
;	COMDAT ??__ETDL_FILEFORMAT@@YAXXZ
text$yc	SEGMENT
??__ETDL_FILEFORMAT@@YAXXZ PROC				; `dynamic initializer for 'TDL_FILEFORMAT'', COMDAT

; 14   : static const CString TDL_FILEFORMAT(_T("FILEFORMAT"));

	push	ebp
	mov	ebp, esp
	push	esi
	mov	esi, esp
	push	OFFSET $SG174859
	mov	ecx, OFFSET _TDL_FILEFORMAT
	call	DWORD PTR __imp_??0?$CStringT@_WV?$StrTraitMFC_DLL@_WV?$ChTraitsCRT@_W@ATL@@@@@ATL@@QAE@PB_W@Z
	cmp	esi, esp
	call	__RTC_CheckEsp
	push	OFFSET ??__FTDL_FILEFORMAT@@YAXXZ	; `dynamic atexit destructor for 'TDL_FILEFORMAT''
	call	_atexit
	add	esp, 4
	pop	esi
	cmp	ebp, esp
	call	__RTC_CheckEsp
	pop	ebp
	ret	0
??__ETDL_FILEFORMAT@@YAXXZ ENDP				; `dynamic initializer for 'TDL_FILEFORMAT''
; Function compile flags: /Odtp /RTCsu
text$yc	ENDS
;	COMDAT ??__ETDL_FILEVERSION@@YAXXZ
text$yc	SEGMENT
??__ETDL_FILEVERSION@@YAXXZ PROC			; `dynamic initializer for 'TDL_FILEVERSION'', COMDAT

; 15   : static const CString TDL_FILEVERSION(_T("FILEVERSION"));

	push	ebp
	mov	ebp, esp
	push	esi
	mov	esi, esp
	push	OFFSET $SG174866
	mov	ecx, OFFSET _TDL_FILEVERSION
	call	DWORD PTR __imp_??0?$CStringT@_WV?$StrTraitMFC_DLL@_WV?$ChTraitsCRT@_W@ATL@@@@@ATL@@QAE@PB_W@Z
	cmp	esi, esp
	call	__RTC_CheckEsp
	push	OFFSET ??__FTDL_FILEVERSION@@YAXXZ	; `dynamic atexit destructor for 'TDL_FILEVERSION''
	call	_atexit
	add	esp, 4
	pop	esi
	cmp	ebp, esp
	call	__RTC_CheckEsp
	pop	ebp
	ret	0
??__ETDL_FILEVERSION@@YAXXZ ENDP			; `dynamic initializer for 'TDL_FILEVERSION''
; Function compile flags: /Odtp /RTCsu
text$yc	ENDS
;	COMDAT ??__ETDL_CHECKEDOUTTO@@YAXXZ
text$yc	SEGMENT
??__ETDL_CHECKEDOUTTO@@YAXXZ PROC			; `dynamic initializer for 'TDL_CHECKEDOUTTO'', COMDAT

; 16   : static const CString TDL_CHECKEDOUTTO(_T("CHECKEDOUTTO"));

	push	ebp
	mov	ebp, esp
	push	esi
	mov	esi, esp
	push	OFFSET $SG174873
	mov	ecx, OFFSET _TDL_CHECKEDOUTTO
	call	DWORD PTR __imp_??0?$CStringT@_WV?$StrTraitMFC_DLL@_WV?$ChTraitsCRT@_W@ATL@@@@@ATL@@QAE@PB_W@Z
	cmp	esi, esp
	call	__RTC_CheckEsp
	push	OFFSET ??__FTDL_CHECKEDOUTTO@@YAXXZ	; `dynamic atexit destructor for 'TDL_CHECKEDOUTTO''
	call	_atexit
	add	esp, 4
	pop	esi
	cmp	ebp, esp
	call	__RTC_CheckEsp
	pop	ebp
	ret	0
??__ETDL_CHECKEDOUTTO@@YAXXZ ENDP			; `dynamic initializer for 'TDL_CHECKEDOUTTO''
; Function compile flags: /Odtp /RTCsu
text$yc	ENDS
;	COMDAT ??__ETDL_COMMENTSTYPE@@YAXXZ
text$yc	SEGMENT
??__ETDL_COMMENTSTYPE@@YAXXZ PROC			; `dynamic initializer for 'TDL_COMMENTSTYPE'', COMDAT

; 17   : static const CString TDL_COMMENTSTYPE(_T("CUSTOMCOMMENTSTYPE"));		

	push	ebp
	mov	ebp, esp
	push	esi
	mov	esi, esp
	push	OFFSET $SG174880
	mov	ecx, OFFSET _TDL_COMMENTSTYPE
	call	DWORD PTR __imp_??0?$CStringT@_WV?$StrTraitMFC_DLL@_WV?$ChTraitsCRT@_W@ATL@@@@@ATL@@QAE@PB_W@Z
	cmp	esi, esp
	call	__RTC_CheckEsp
	push	OFFSET ??__FTDL_COMMENTSTYPE@@YAXXZ	; `dynamic atexit destructor for 'TDL_COMMENTSTYPE''
	call	_atexit
	add	esp, 4
	pop	esi
	cmp	ebp, esp
	call	__RTC_CheckEsp
	pop	ebp
	ret	0
??__ETDL_COMMENTSTYPE@@YAXXZ ENDP			; `dynamic initializer for 'TDL_COMMENTSTYPE''
; Function compile flags: /Odtp /RTCsu
text$yc	ENDS
;	COMDAT ??__ETDL_REPORTTITLE@@YAXXZ
text$yc	SEGMENT
??__ETDL_REPORTTITLE@@YAXXZ PROC			; `dynamic initializer for 'TDL_REPORTTITLE'', COMDAT

; 18   : static const CString TDL_REPORTTITLE(_T("REPORTTITLE"));		

	push	ebp
	mov	ebp, esp
	push	esi
	mov	esi, esp
	push	OFFSET $SG174887
	mov	ecx, OFFSET _TDL_REPORTTITLE
	call	DWORD PTR __imp_??0?$CStringT@_WV?$StrTraitMFC_DLL@_WV?$ChTraitsCRT@_W@ATL@@@@@ATL@@QAE@PB_W@Z
	cmp	esi, esp
	call	__RTC_CheckEsp
	push	OFFSET ??__FTDL_REPORTTITLE@@YAXXZ	; `dynamic atexit destructor for 'TDL_REPORTTITLE''
	call	_atexit
	add	esp, 4
	pop	esi
	cmp	ebp, esp
	call	__RTC_CheckEsp
	pop	ebp
	ret	0
??__ETDL_REPORTTITLE@@YAXXZ ENDP			; `dynamic initializer for 'TDL_REPORTTITLE''
; Function compile flags: /Odtp /RTCsu
text$yc	ENDS
;	COMDAT ??__ETDL_REPORTDATE@@YAXXZ
text$yc	SEGMENT
??__ETDL_REPORTDATE@@YAXXZ PROC				; `dynamic initializer for 'TDL_REPORTDATE'', COMDAT

; 19   : static const CString TDL_REPORTDATE(_T("REPORTDATE"));		

	push	ebp
	mov	ebp, esp
	push	esi
	mov	esi, esp
	push	OFFSET $SG174894
	mov	ecx, OFFSET _TDL_REPORTDATE
	call	DWORD PTR __imp_??0?$CStringT@_WV?$StrTraitMFC_DLL@_WV?$ChTraitsCRT@_W@ATL@@@@@ATL@@QAE@PB_W@Z
	cmp	esi, esp
	call	__RTC_CheckEsp
	push	OFFSET ??__FTDL_REPORTDATE@@YAXXZ	; `dynamic atexit destructor for 'TDL_REPORTDATE''
	call	_atexit
	add	esp, 4
	pop	esi
	cmp	ebp, esp
	call	__RTC_CheckEsp
	pop	ebp
	ret	0
??__ETDL_REPORTDATE@@YAXXZ ENDP				; `dynamic initializer for 'TDL_REPORTDATE''
; Function compile flags: /Odtp /RTCsu
text$yc	ENDS
;	COMDAT ??__ETDL_REPORTDATEOLE@@YAXXZ
text$yc	SEGMENT
??__ETDL_REPORTDATEOLE@@YAXXZ PROC			; `dynamic initializer for 'TDL_REPORTDATEOLE'', COMDAT

; 20   : static const CString TDL_REPORTDATEOLE(_T("REPORTDATEOLE"));		

	push	ebp
	mov	ebp, esp
	push	esi
	mov	esi, esp
	push	OFFSET $SG174901
	mov	ecx, OFFSET _TDL_REPORTDATEOLE
	call	DWORD PTR __imp_??0?$CStringT@_WV?$StrTraitMFC_DLL@_WV?$ChTraitsCRT@_W@ATL@@@@@ATL@@QAE@PB_W@Z
	cmp	esi, esp
	call	__RTC_CheckEsp
	push	OFFSET ??__FTDL_REPORTDATEOLE@@YAXXZ	; `dynamic atexit destructor for 'TDL_REPORTDATEOLE''
	call	_atexit
	add	esp, 4
	pop	esi
	cmp	ebp, esp
	call	__RTC_CheckEsp
	pop	ebp
	ret	0
??__ETDL_REPORTDATEOLE@@YAXXZ ENDP			; `dynamic initializer for 'TDL_REPORTDATEOLE''
; Function compile flags: /Odtp /RTCsu
text$yc	ENDS
;	COMDAT ??__ETDL_FILENAME@@YAXXZ
text$yc	SEGMENT
??__ETDL_FILENAME@@YAXXZ PROC				; `dynamic initializer for 'TDL_FILENAME'', COMDAT

; 21   : static const CString TDL_FILENAME(_T("FILENAME"));	

	push	ebp
	mov	ebp, esp
	push	esi
	mov	esi, esp
	push	OFFSET $SG174908
	mov	ecx, OFFSET _TDL_FILENAME
	call	DWORD PTR __imp_??0?$CStringT@_WV?$StrTraitMFC_DLL@_WV?$ChTraitsCRT@_W@ATL@@@@@ATL@@QAE@PB_W@Z
	cmp	esi, esp
	call	__RTC_CheckEsp
	push	OFFSET ??__FTDL_FILENAME@@YAXXZ		; `dynamic atexit destructor for 'TDL_FILENAME''
	call	_atexit
	add	esp, 4
	pop	esi
	cmp	ebp, esp
	call	__RTC_CheckEsp
	pop	ebp
	ret	0
??__ETDL_FILENAME@@YAXXZ ENDP				; `dynamic initializer for 'TDL_FILENAME''
; Function compile flags: /Odtp /RTCsu
text$yc	ENDS
;	COMDAT ??__ETDL_METADATA@@YAXXZ
text$yc	SEGMENT
??__ETDL_METADATA@@YAXXZ PROC				; `dynamic initializer for 'TDL_METADATA'', COMDAT

; 22   : static const CString TDL_METADATA(_T("METADATA"));	

	push	ebp
	mov	ebp, esp
	push	esi
	mov	esi, esp
	push	OFFSET $SG174915
	mov	ecx, OFFSET _TDL_METADATA
	call	DWORD PTR __imp_??0?$CStringT@_WV?$StrTraitMFC_DLL@_WV?$ChTraitsCRT@_W@ATL@@@@@ATL@@QAE@PB_W@Z
	cmp	esi, esp
	call	__RTC_CheckEsp
	push	OFFSET ??__FTDL_METADATA@@YAXXZ		; `dynamic atexit destructor for 'TDL_METADATA''
	call	_atexit
	add	esp, 4
	pop	esi
	cmp	ebp, esp
	call	__RTC_CheckEsp
	pop	ebp
	ret	0
??__ETDL_METADATA@@YAXXZ ENDP				; `dynamic initializer for 'TDL_METADATA''
; Function compile flags: /Odtp /RTCsu
text$yc	ENDS
;	COMDAT ??__ETDL_EARLIESTDUEDATE@@YAXXZ
text$yc	SEGMENT
??__ETDL_EARLIESTDUEDATE@@YAXXZ PROC			; `dynamic initializer for 'TDL_EARLIESTDUEDATE'', COMDAT

; 23   : static const CString TDL_EARLIESTDUEDATE(_T("EARLIESTDUEDATE"));		

	push	ebp
	mov	ebp, esp
	push	esi
	mov	esi, esp
	push	OFFSET $SG174922
	mov	ecx, OFFSET _TDL_EARLIESTDUEDATE
	call	DWORD PTR __imp_??0?$CStringT@_WV?$StrTraitMFC_DLL@_WV?$ChTraitsCRT@_W@ATL@@@@@ATL@@QAE@PB_W@Z
	cmp	esi, esp
	call	__RTC_CheckEsp
	push	OFFSET ??__FTDL_EARLIESTDUEDATE@@YAXXZ	; `dynamic atexit destructor for 'TDL_EARLIESTDUEDATE''
	call	_atexit
	add	esp, 4
	pop	esi
	cmp	ebp, esp
	call	__RTC_CheckEsp
	pop	ebp
	ret	0
??__ETDL_EARLIESTDUEDATE@@YAXXZ ENDP			; `dynamic initializer for 'TDL_EARLIESTDUEDATE''
; Function compile flags: /Odtp /RTCsu
text$yc	ENDS
;	COMDAT ??__ETDL_EXPORTSTYLE@@YAXXZ
text$yc	SEGMENT
??__ETDL_EXPORTSTYLE@@YAXXZ PROC			; `dynamic initializer for 'TDL_EXPORTSTYLE'', COMDAT

; 24   : static const CString TDL_EXPORTSTYLE(_T("EXPORTSTYLE"));		

	push	ebp
	mov	ebp, esp
	push	esi
	mov	esi, esp
	push	OFFSET $SG174929
	mov	ecx, OFFSET _TDL_EXPORTSTYLE
	call	DWORD PTR __imp_??0?$CStringT@_WV?$StrTraitMFC_DLL@_WV?$ChTraitsCRT@_W@ATL@@@@@ATL@@QAE@PB_W@Z
	cmp	esi, esp
	call	__RTC_CheckEsp
	push	OFFSET ??__FTDL_EXPORTSTYLE@@YAXXZ	; `dynamic atexit destructor for 'TDL_EXPORTSTYLE''
	call	_atexit
	add	esp, 4
	pop	esi
	cmp	ebp, esp
	call	__RTC_CheckEsp
	pop	ebp
	ret	0
??__ETDL_EXPORTSTYLE@@YAXXZ ENDP			; `dynamic initializer for 'TDL_EXPORTSTYLE''
; Function compile flags: /Odtp /RTCsu
text$yc	ENDS
;	COMDAT ??__ETDL_LASTMOD@@YAXXZ
text$yc	SEGMENT
??__ETDL_LASTMOD@@YAXXZ PROC				; `dynamic initializer for 'TDL_LASTMOD'', COMDAT

; 25   : static const CString TDL_LASTMOD(_T("LASTMOD"));

	push	ebp
	mov	ebp, esp
	push	esi
	mov	esi, esp
	push	OFFSET $SG174936
	mov	ecx, OFFSET _TDL_LASTMOD
	call	DWORD PTR __imp_??0?$CStringT@_WV?$StrTraitMFC_DLL@_WV?$ChTraitsCRT@_W@ATL@@@@@ATL@@QAE@PB_W@Z
	cmp	esi, esp
	call	__RTC_CheckEsp
	push	OFFSET ??__FTDL_LASTMOD@@YAXXZ		; `dynamic atexit destructor for 'TDL_LASTMOD''
	call	_atexit
	add	esp, 4
	pop	esi
	cmp	ebp, esp
	call	__RTC_CheckEsp
	pop	ebp
	ret	0
??__ETDL_LASTMOD@@YAXXZ ENDP				; `dynamic initializer for 'TDL_LASTMOD''
; Function compile flags: /Odtp /RTCsu
text$yc	ENDS
;	COMDAT ??__ETDL_LASTMODSTRING@@YAXXZ
text$yc	SEGMENT
??__ETDL_LASTMODSTRING@@YAXXZ PROC			; `dynamic initializer for 'TDL_LASTMODSTRING'', COMDAT

; 26   : static const CString TDL_LASTMODSTRING(_T("LASTMODSTRING"));

	push	ebp
	mov	ebp, esp
	push	esi
	mov	esi, esp
	push	OFFSET $SG174943
	mov	ecx, OFFSET _TDL_LASTMODSTRING
	call	DWORD PTR __imp_??0?$CStringT@_WV?$StrTraitMFC_DLL@_WV?$ChTraitsCRT@_W@ATL@@@@@ATL@@QAE@PB_W@Z
	cmp	esi, esp
	call	__RTC_CheckEsp
	push	OFFSET ??__FTDL_LASTMODSTRING@@YAXXZ	; `dynamic atexit destructor for 'TDL_LASTMODSTRING''
	call	_atexit
	add	esp, 4
	pop	esi
	cmp	ebp, esp
	call	__RTC_CheckEsp
	pop	ebp
	ret	0
??__ETDL_LASTMODSTRING@@YAXXZ ENDP			; `dynamic initializer for 'TDL_LASTMODSTRING''
; Function compile flags: /Odtp /RTCsu
text$yc	ENDS
;	COMDAT ??__ETDL_CUSTOMATTRIBDEFS@@YAXXZ
text$yc	SEGMENT
??__ETDL_CUSTOMATTRIBDEFS@@YAXXZ PROC			; `dynamic initializer for 'TDL_CUSTOMATTRIBDEFS'', COMDAT

; 28   : static const CString TDL_CUSTOMATTRIBDEFS(_T("CUSTOMATTRIBDEF"));	

	push	ebp
	mov	ebp, esp
	push	esi
	mov	esi, esp
	push	OFFSET $SG174950
	mov	ecx, OFFSET _TDL_CUSTOMATTRIBDEFS
	call	DWORD PTR __imp_??0?$CStringT@_WV?$StrTraitMFC_DLL@_WV?$ChTraitsCRT@_W@ATL@@@@@ATL@@QAE@PB_W@Z
	cmp	esi, esp
	call	__RTC_CheckEsp
	push	OFFSET ??__FTDL_CUSTOMATTRIBDEFS@@YAXXZ	; `dynamic atexit destructor for 'TDL_CUSTOMATTRIBDEFS''
	call	_atexit
	add	esp, 4
	pop	esi
	cmp	ebp, esp
	call	__RTC_CheckEsp
	pop	ebp
	ret	0
??__ETDL_CUSTOMATTRIBDEFS@@YAXXZ ENDP			; `dynamic initializer for 'TDL_CUSTOMATTRIBDEFS''
; Function compile flags: /Odtp /RTCsu
text$yc	ENDS
;	COMDAT ??__ETDL_CUSTOMATTRIBID@@YAXXZ
text$yc	SEGMENT
??__ETDL_CUSTOMATTRIBID@@YAXXZ PROC			; `dynamic initializer for 'TDL_CUSTOMATTRIBID'', COMDAT

; 29   : static const CString TDL_CUSTOMATTRIBID(_T("ID"));	

	push	ebp
	mov	ebp, esp
	push	esi
	mov	esi, esp
	push	OFFSET $SG174957
	mov	ecx, OFFSET _TDL_CUSTOMATTRIBID
	call	DWORD PTR __imp_??0?$CStringT@_WV?$StrTraitMFC_DLL@_WV?$ChTraitsCRT@_W@ATL@@@@@ATL@@QAE@PB_W@Z
	cmp	esi, esp
	call	__RTC_CheckEsp
	push	OFFSET ??__FTDL_CUSTOMATTRIBID@@YAXXZ	; `dynamic atexit destructor for 'TDL_CUSTOMATTRIBID''
	call	_atexit
	add	esp, 4
	pop	esi
	cmp	ebp, esp
	call	__RTC_CheckEsp
	pop	ebp
	ret	0
??__ETDL_CUSTOMATTRIBID@@YAXXZ ENDP			; `dynamic initializer for 'TDL_CUSTOMATTRIBID''
; Function compile flags: /Odtp /RTCsu
text$yc	ENDS
;	COMDAT ??__ETDL_CUSTOMATTRIBTYPE@@YAXXZ
text$yc	SEGMENT
??__ETDL_CUSTOMATTRIBTYPE@@YAXXZ PROC			; `dynamic initializer for 'TDL_CUSTOMATTRIBTYPE'', COMDAT

; 30   : static const CString TDL_CUSTOMATTRIBTYPE(_T("TYPE"));	

	push	ebp
	mov	ebp, esp
	push	esi
	mov	esi, esp
	push	OFFSET $SG174964
	mov	ecx, OFFSET _TDL_CUSTOMATTRIBTYPE
	call	DWORD PTR __imp_??0?$CStringT@_WV?$StrTraitMFC_DLL@_WV?$ChTraitsCRT@_W@ATL@@@@@ATL@@QAE@PB_W@Z
	cmp	esi, esp
	call	__RTC_CheckEsp
	push	OFFSET ??__FTDL_CUSTOMATTRIBTYPE@@YAXXZ	; `dynamic atexit destructor for 'TDL_CUSTOMATTRIBTYPE''
	call	_atexit
	add	esp, 4
	pop	esi
	cmp	ebp, esp
	call	__RTC_CheckEsp
	pop	ebp
	ret	0
??__ETDL_CUSTOMATTRIBTYPE@@YAXXZ ENDP			; `dynamic initializer for 'TDL_CUSTOMATTRIBTYPE''
; Function compile flags: /Odtp /RTCsu
text$yc	ENDS
;	COMDAT ??__ETDL_CUSTOMATTRIBLABEL@@YAXXZ
text$yc	SEGMENT
??__ETDL_CUSTOMATTRIBLABEL@@YAXXZ PROC			; `dynamic initializer for 'TDL_CUSTOMATTRIBLABEL'', COMDAT

; 31   : static const CString TDL_CUSTOMATTRIBLABEL(_T("LABEL"));	

	push	ebp
	mov	ebp, esp
	push	esi
	mov	esi, esp
	push	OFFSET $SG174971
	mov	ecx, OFFSET _TDL_CUSTOMATTRIBLABEL
	call	DWORD PTR __imp_??0?$CStringT@_WV?$StrTraitMFC_DLL@_WV?$ChTraitsCRT@_W@ATL@@@@@ATL@@QAE@PB_W@Z
	cmp	esi, esp
	call	__RTC_CheckEsp
	push	OFFSET ??__FTDL_CUSTOMATTRIBLABEL@@YAXXZ ; `dynamic atexit destructor for 'TDL_CUSTOMATTRIBLABEL''
	call	_atexit
	add	esp, 4
	pop	esi
	cmp	ebp, esp
	call	__RTC_CheckEsp
	pop	ebp
	ret	0
??__ETDL_CUSTOMATTRIBLABEL@@YAXXZ ENDP			; `dynamic initializer for 'TDL_CUSTOMATTRIBLABEL''
; Function compile flags: /Odtp /RTCsu
text$yc	ENDS
;	COMDAT ??__ETDL_CUSTOMATTRIBCOLTITLE@@YAXXZ
text$yc	SEGMENT
??__ETDL_CUSTOMATTRIBCOLTITLE@@YAXXZ PROC		; `dynamic initializer for 'TDL_CUSTOMATTRIBCOLTITLE'', COMDAT

; 32   : static const CString TDL_CUSTOMATTRIBCOLTITLE(_T("COLTITLE"));	

	push	ebp
	mov	ebp, esp
	push	esi
	mov	esi, esp
	push	OFFSET $SG174978
	mov	ecx, OFFSET _TDL_CUSTOMATTRIBCOLTITLE
	call	DWORD PTR __imp_??0?$CStringT@_WV?$StrTraitMFC_DLL@_WV?$ChTraitsCRT@_W@ATL@@@@@ATL@@QAE@PB_W@Z
	cmp	esi, esp
	call	__RTC_CheckEsp
	push	OFFSET ??__FTDL_CUSTOMATTRIBCOLTITLE@@YAXXZ ; `dynamic atexit destructor for 'TDL_CUSTOMATTRIBCOLTITLE''
	call	_atexit
	add	esp, 4
	pop	esi
	cmp	ebp, esp
	call	__RTC_CheckEsp
	pop	ebp
	ret	0
??__ETDL_CUSTOMATTRIBCOLTITLE@@YAXXZ ENDP		; `dynamic initializer for 'TDL_CUSTOMATTRIBCOLTITLE''
; Function compile flags: /Odtp /RTCsu
text$yc	ENDS
;	COMDAT ??__ETDL_CUSTOMATTRIBCOLALIGN@@YAXXZ
text$yc	SEGMENT
??__ETDL_CUSTOMATTRIBCOLALIGN@@YAXXZ PROC		; `dynamic initializer for 'TDL_CUSTOMATTRIBCOLALIGN'', COMDAT

; 33   : static const CString TDL_CUSTOMATTRIBCOLALIGN(_T("COLALIGN"));	

	push	ebp
	mov	ebp, esp
	push	esi
	mov	esi, esp
	push	OFFSET $SG174985
	mov	ecx, OFFSET _TDL_CUSTOMATTRIBCOLALIGN
	call	DWORD PTR __imp_??0?$CStringT@_WV?$StrTraitMFC_DLL@_WV?$ChTraitsCRT@_W@ATL@@@@@ATL@@QAE@PB_W@Z
	cmp	esi, esp
	call	__RTC_CheckEsp
	push	OFFSET ??__FTDL_CUSTOMATTRIBCOLALIGN@@YAXXZ ; `dynamic atexit destructor for 'TDL_CUSTOMATTRIBCOLALIGN''
	call	_atexit
	add	esp, 4
	pop	esi
	cmp	ebp, esp
	call	__RTC_CheckEsp
	pop	ebp
	ret	0
??__ETDL_CUSTOMATTRIBCOLALIGN@@YAXXZ ENDP		; `dynamic initializer for 'TDL_CUSTOMATTRIBCOLALIGN''
; Function compile flags: /Odtp /RTCsu
text$yc	ENDS
;	COMDAT ??__ETDL_CUSTOMATTRIBFEATURES@@YAXXZ
text$yc	SEGMENT
??__ETDL_CUSTOMATTRIBFEATURES@@YAXXZ PROC		; `dynamic initializer for 'TDL_CUSTOMATTRIBFEATURES'', COMDAT

; 34   : static const CString TDL_CUSTOMATTRIBFEATURES(_T("FEATURES"));	

	push	ebp
	mov	ebp, esp
	push	esi
	mov	esi, esp
	push	OFFSET $SG174992
	mov	ecx, OFFSET _TDL_CUSTOMATTRIBFEATURES
	call	DWORD PTR __imp_??0?$CStringT@_WV?$StrTraitMFC_DLL@_WV?$ChTraitsCRT@_W@ATL@@@@@ATL@@QAE@PB_W@Z
	cmp	esi, esp
	call	__RTC_CheckEsp
	push	OFFSET ??__FTDL_CUSTOMATTRIBFEATURES@@YAXXZ ; `dynamic atexit destructor for 'TDL_CUSTOMATTRIBFEATURES''
	call	_atexit
	add	esp, 4
	pop	esi
	cmp	ebp, esp
	call	__RTC_CheckEsp
	pop	ebp
	ret	0
??__ETDL_CUSTOMATTRIBFEATURES@@YAXXZ ENDP		; `dynamic initializer for 'TDL_CUSTOMATTRIBFEATURES''
; Function compile flags: /Odtp /RTCsu
text$yc	ENDS
;	COMDAT ??__ETDL_CUSTOMATTRIBLISTDATA@@YAXXZ
text$yc	SEGMENT
??__ETDL_CUSTOMATTRIBLISTDATA@@YAXXZ PROC		; `dynamic initializer for 'TDL_CUSTOMATTRIBLISTDATA'', COMDAT

; 35   : static const CString TDL_CUSTOMATTRIBLISTDATA(_T("LISTDATA"));	

	push	ebp
	mov	ebp, esp
	push	esi
	mov	esi, esp
	push	OFFSET $SG174999
	mov	ecx, OFFSET _TDL_CUSTOMATTRIBLISTDATA
	call	DWORD PTR __imp_??0?$CStringT@_WV?$StrTraitMFC_DLL@_WV?$ChTraitsCRT@_W@ATL@@@@@ATL@@QAE@PB_W@Z
	cmp	esi, esp
	call	__RTC_CheckEsp
	push	OFFSET ??__FTDL_CUSTOMATTRIBLISTDATA@@YAXXZ ; `dynamic atexit destructor for 'TDL_CUSTOMATTRIBLISTDATA''
	call	_atexit
	add	esp, 4
	pop	esi
	cmp	ebp, esp
	call	__RTC_CheckEsp
	pop	ebp
	ret	0
??__ETDL_CUSTOMATTRIBLISTDATA@@YAXXZ ENDP		; `dynamic initializer for 'TDL_CUSTOMATTRIBLISTDATA''
; Function compile flags: /Odtp /RTCsu
text$yc	ENDS
;	COMDAT ??__ETDL_CUSTOMATTRIBENABLED@@YAXXZ
text$yc	SEGMENT
??__ETDL_CUSTOMATTRIBENABLED@@YAXXZ PROC		; `dynamic initializer for 'TDL_CUSTOMATTRIBENABLED'', COMDAT

; 36   : static const CString TDL_CUSTOMATTRIBENABLED(_T("ENABLED"));	

	push	ebp
	mov	ebp, esp
	push	esi
	mov	esi, esp
	push	OFFSET $SG175006
	mov	ecx, OFFSET _TDL_CUSTOMATTRIBENABLED
	call	DWORD PTR __imp_??0?$CStringT@_WV?$StrTraitMFC_DLL@_WV?$ChTraitsCRT@_W@ATL@@@@@ATL@@QAE@PB_W@Z
	cmp	esi, esp
	call	__RTC_CheckEsp
	push	OFFSET ??__FTDL_CUSTOMATTRIBENABLED@@YAXXZ ; `dynamic atexit destructor for 'TDL_CUSTOMATTRIBENABLED''
	call	_atexit
	add	esp, 4
	pop	esi
	cmp	ebp, esp
	call	__RTC_CheckEsp
	pop	ebp
	ret	0
??__ETDL_CUSTOMATTRIBENABLED@@YAXXZ ENDP		; `dynamic initializer for 'TDL_CUSTOMATTRIBENABLED''
; Function compile flags: /Odtp /RTCsu
text$yc	ENDS
;	COMDAT ??__ETDL_ATTRIBVIS@@YAXXZ
text$yc	SEGMENT
??__ETDL_ATTRIBVIS@@YAXXZ PROC				; `dynamic initializer for 'TDL_ATTRIBVIS'', COMDAT

; 38   : static const CString TDL_ATTRIBVIS(_T("ATTRIBVIS"));	

	push	ebp
	mov	ebp, esp
	push	esi
	mov	esi, esp
	push	OFFSET $SG175013
	mov	ecx, OFFSET _TDL_ATTRIBVIS
	call	DWORD PTR __imp_??0?$CStringT@_WV?$StrTraitMFC_DLL@_WV?$ChTraitsCRT@_W@ATL@@@@@ATL@@QAE@PB_W@Z
	cmp	esi, esp
	call	__RTC_CheckEsp
	push	OFFSET ??__FTDL_ATTRIBVIS@@YAXXZ	; `dynamic atexit destructor for 'TDL_ATTRIBVIS''
	call	_atexit
	add	esp, 4
	pop	esi
	cmp	ebp, esp
	call	__RTC_CheckEsp
	pop	ebp
	ret	0
??__ETDL_ATTRIBVIS@@YAXXZ ENDP				; `dynamic initializer for 'TDL_ATTRIBVIS''
; Function compile flags: /Odtp /RTCsu
text$yc	ENDS
;	COMDAT ??__ETDL_ATTRIBVISCOL@@YAXXZ
text$yc	SEGMENT
??__ETDL_ATTRIBVISCOL@@YAXXZ PROC			; `dynamic initializer for 'TDL_ATTRIBVISCOL'', COMDAT

; 39   : static const CString TDL_ATTRIBVISCOL(_T("COL"));	

	push	ebp
	mov	ebp, esp
	push	esi
	mov	esi, esp
	push	OFFSET $SG175020
	mov	ecx, OFFSET _TDL_ATTRIBVISCOL
	call	DWORD PTR __imp_??0?$CStringT@_WV?$StrTraitMFC_DLL@_WV?$ChTraitsCRT@_W@ATL@@@@@ATL@@QAE@PB_W@Z
	cmp	esi, esp
	call	__RTC_CheckEsp
	push	OFFSET ??__FTDL_ATTRIBVISCOL@@YAXXZ	; `dynamic atexit destructor for 'TDL_ATTRIBVISCOL''
	call	_atexit
	add	esp, 4
	pop	esi
	cmp	ebp, esp
	call	__RTC_CheckEsp
	pop	ebp
	ret	0
??__ETDL_ATTRIBVISCOL@@YAXXZ ENDP			; `dynamic initializer for 'TDL_ATTRIBVISCOL''
; Function compile flags: /Odtp /RTCsu
text$yc	ENDS
;	COMDAT ??__ETDL_ATTRIBVISEDIT@@YAXXZ
text$yc	SEGMENT
??__ETDL_ATTRIBVISEDIT@@YAXXZ PROC			; `dynamic initializer for 'TDL_ATTRIBVISEDIT'', COMDAT

; 40   : static const CString TDL_ATTRIBVISEDIT(_T("EDIT"));	

	push	ebp
	mov	ebp, esp
	push	esi
	mov	esi, esp
	push	OFFSET $SG175027
	mov	ecx, OFFSET _TDL_ATTRIBVISEDIT
	call	DWORD PTR __imp_??0?$CStringT@_WV?$StrTraitMFC_DLL@_WV?$ChTraitsCRT@_W@ATL@@@@@ATL@@QAE@PB_W@Z
	cmp	esi, esp
	call	__RTC_CheckEsp
	push	OFFSET ??__FTDL_ATTRIBVISEDIT@@YAXXZ	; `dynamic atexit destructor for 'TDL_ATTRIBVISEDIT''
	call	_atexit
	add	esp, 4
	pop	esi
	cmp	ebp, esp
	call	__RTC_CheckEsp
	pop	ebp
	ret	0
??__ETDL_ATTRIBVISEDIT@@YAXXZ ENDP			; `dynamic initializer for 'TDL_ATTRIBVISEDIT''
; Function compile flags: /Odtp /RTCsu
text$yc	ENDS
;	COMDAT ??__ETDL_ATTRIBVISFILTER@@YAXXZ
text$yc	SEGMENT
??__ETDL_ATTRIBVISFILTER@@YAXXZ PROC			; `dynamic initializer for 'TDL_ATTRIBVISFILTER'', COMDAT

; 41   : static const CString TDL_ATTRIBVISFILTER(_T("FILTER"));	

	push	ebp
	mov	ebp, esp
	push	esi
	mov	esi, esp
	push	OFFSET $SG175034
	mov	ecx, OFFSET _TDL_ATTRIBVISFILTER
	call	DWORD PTR __imp_??0?$CStringT@_WV?$StrTraitMFC_DLL@_WV?$ChTraitsCRT@_W@ATL@@@@@ATL@@QAE@PB_W@Z
	cmp	esi, esp
	call	__RTC_CheckEsp
	push	OFFSET ??__FTDL_ATTRIBVISFILTER@@YAXXZ	; `dynamic atexit destructor for 'TDL_ATTRIBVISFILTER''
	call	_atexit
	add	esp, 4
	pop	esi
	cmp	ebp, esp
	call	__RTC_CheckEsp
	pop	ebp
	ret	0
??__ETDL_ATTRIBVISFILTER@@YAXXZ ENDP			; `dynamic initializer for 'TDL_ATTRIBVISFILTER''
; Function compile flags: /Odtp /RTCsu
text$yc	ENDS
;	COMDAT ??__ETDL_ATTRIBVISSHOWEDITFILTER@@YAXXZ
text$yc	SEGMENT
??__ETDL_ATTRIBVISSHOWEDITFILTER@@YAXXZ PROC		; `dynamic initializer for 'TDL_ATTRIBVISSHOWEDITFILTER'', COMDAT

; 42   : static const CString TDL_ATTRIBVISSHOWEDITFILTER(_T("SHOWEDITFILTER"));	

	push	ebp
	mov	ebp, esp
	push	esi
	mov	esi, esp
	push	OFFSET $SG175041
	mov	ecx, OFFSET _TDL_ATTRIBVISSHOWEDITFILTER
	call	DWORD PTR __imp_??0?$CStringT@_WV?$StrTraitMFC_DLL@_WV?$ChTraitsCRT@_W@ATL@@@@@ATL@@QAE@PB_W@Z
	cmp	esi, esp
	call	__RTC_CheckEsp
	push	OFFSET ??__FTDL_ATTRIBVISSHOWEDITFILTER@@YAXXZ ; `dynamic atexit destructor for 'TDL_ATTRIBVISSHOWEDITFILTER''
	call	_atexit
	add	esp, 4
	pop	esi
	cmp	ebp, esp
	call	__RTC_CheckEsp
	pop	ebp
	ret	0
??__ETDL_ATTRIBVISSHOWEDITFILTER@@YAXXZ ENDP		; `dynamic initializer for 'TDL_ATTRIBVISSHOWEDITFILTER''
; Function compile flags: /Odtp /RTCsu
text$yc	ENDS
;	COMDAT ??__ETDL_CUSTOMATTRIBSORTABLE_DEP@@YAXXZ
text$yc	SEGMENT
??__ETDL_CUSTOMATTRIBSORTABLE_DEP@@YAXXZ PROC		; `dynamic initializer for 'TDL_CUSTOMATTRIBSORTABLE_DEP'', COMDAT

; 45   : static const CString TDL_CUSTOMATTRIBSORTABLE_DEP(_T("SORTABLE")); // => 'FEATURES'

	push	ebp
	mov	ebp, esp
	push	esi
	mov	esi, esp
	push	OFFSET $SG175048
	mov	ecx, OFFSET _TDL_CUSTOMATTRIBSORTABLE_DEP
	call	DWORD PTR __imp_??0?$CStringT@_WV?$StrTraitMFC_DLL@_WV?$ChTraitsCRT@_W@ATL@@@@@ATL@@QAE@PB_W@Z
	cmp	esi, esp
	call	__RTC_CheckEsp
	push	OFFSET ??__FTDL_CUSTOMATTRIBSORTABLE_DEP@@YAXXZ ; `dynamic atexit destructor for 'TDL_CUSTOMATTRIBSORTABLE_DEP''
	call	_atexit
	add	esp, 4
	pop	esi
	cmp	ebp, esp
	call	__RTC_CheckEsp
	pop	ebp
	ret	0
??__ETDL_CUSTOMATTRIBSORTABLE_DEP@@YAXXZ ENDP		; `dynamic initializer for 'TDL_CUSTOMATTRIBSORTABLE_DEP''
; Function compile flags: /Odtp /RTCsu
text$yc	ENDS
;	COMDAT ??__ETDL_CUSTOMATTRIBDEFS_DEP@@YAXXZ
text$yc	SEGMENT
??__ETDL_CUSTOMATTRIBDEFS_DEP@@YAXXZ PROC		; `dynamic initializer for 'TDL_CUSTOMATTRIBDEFS_DEP'', COMDAT

; 46   : static const CString TDL_CUSTOMATTRIBDEFS_DEP(_T("CUSTOMATTRIB")); // => 'CUSTOMATTRIBDEF'	

	push	ebp
	mov	ebp, esp
	push	esi
	mov	esi, esp
	push	OFFSET $SG175055
	mov	ecx, OFFSET _TDL_CUSTOMATTRIBDEFS_DEP
	call	DWORD PTR __imp_??0?$CStringT@_WV?$StrTraitMFC_DLL@_WV?$ChTraitsCRT@_W@ATL@@@@@ATL@@QAE@PB_W@Z
	cmp	esi, esp
	call	__RTC_CheckEsp
	push	OFFSET ??__FTDL_CUSTOMATTRIBDEFS_DEP@@YAXXZ ; `dynamic atexit destructor for 'TDL_CUSTOMATTRIBDEFS_DEP''
	call	_atexit
	add	esp, 4
	pop	esi
	cmp	ebp, esp
	call	__RTC_CheckEsp
	pop	ebp
	ret	0
??__ETDL_CUSTOMATTRIBDEFS_DEP@@YAXXZ ENDP		; `dynamic initializer for 'TDL_CUSTOMATTRIBDEFS_DEP''
; Function compile flags: /Odtp /RTCsu
text$yc	ENDS
;	COMDAT ??__ETDL_TASK@@YAXXZ
text$yc	SEGMENT
??__ETDL_TASK@@YAXXZ PROC				; `dynamic initializer for 'TDL_TASK'', COMDAT

; 49   : static const CString TDL_TASK(_T("TASK"));

	push	ebp
	mov	ebp, esp
	push	esi
	mov	esi, esp
	push	OFFSET $SG175062
	mov	ecx, OFFSET _TDL_TASK
	call	DWORD PTR __imp_??0?$CStringT@_WV?$StrTraitMFC_DLL@_WV?$ChTraitsCRT@_W@ATL@@@@@ATL@@QAE@PB_W@Z
	cmp	esi, esp
	call	__RTC_CheckEsp
	push	OFFSET ??__FTDL_TASK@@YAXXZ		; `dynamic atexit destructor for 'TDL_TASK''
	call	_atexit
	add	esp, 4
	pop	esi
	cmp	ebp, esp
	call	__RTC_CheckEsp
	pop	ebp
	ret	0
??__ETDL_TASK@@YAXXZ ENDP				; `dynamic initializer for 'TDL_TASK''
; Function compile flags: /Odtp /RTCsu
text$yc	ENDS
;	COMDAT ??__ETDL_TASKID@@YAXXZ
text$yc	SEGMENT
??__ETDL_TASKID@@YAXXZ PROC				; `dynamic initializer for 'TDL_TASKID'', COMDAT

; 51   : static const CString TDL_TASKID(_T("ID"));

	push	ebp
	mov	ebp, esp
	push	esi
	mov	esi, esp
	push	OFFSET $SG175069
	mov	ecx, OFFSET _TDL_TASKID
	call	DWORD PTR __imp_??0?$CStringT@_WV?$StrTraitMFC_DLL@_WV?$ChTraitsCRT@_W@ATL@@@@@ATL@@QAE@PB_W@Z
	cmp	esi, esp
	call	__RTC_CheckEsp
	push	OFFSET ??__FTDL_TASKID@@YAXXZ		; `dynamic atexit destructor for 'TDL_TASKID''
	call	_atexit
	add	esp, 4
	pop	esi
	cmp	ebp, esp
	call	__RTC_CheckEsp
	pop	ebp
	ret	0
??__ETDL_TASKID@@YAXXZ ENDP				; `dynamic initializer for 'TDL_TASKID''
; Function compile flags: /Odtp /RTCsu
text$yc	ENDS
;	COMDAT ??__ETDL_TASKREFID@@YAXXZ
text$yc	SEGMENT
??__ETDL_TASKREFID@@YAXXZ PROC				; `dynamic initializer for 'TDL_TASKREFID'', COMDAT

; 52   : static const CString TDL_TASKREFID(_T("REFID"));

	push	ebp
	mov	ebp, esp
	push	esi
	mov	esi, esp
	push	OFFSET $SG175076
	mov	ecx, OFFSET _TDL_TASKREFID
	call	DWORD PTR __imp_??0?$CStringT@_WV?$StrTraitMFC_DLL@_WV?$ChTraitsCRT@_W@ATL@@@@@ATL@@QAE@PB_W@Z
	cmp	esi, esp
	call	__RTC_CheckEsp
	push	OFFSET ??__FTDL_TASKREFID@@YAXXZ	; `dynamic atexit destructor for 'TDL_TASKREFID''
	call	_atexit
	add	esp, 4
	pop	esi
	cmp	ebp, esp
	call	__RTC_CheckEsp
	pop	ebp
	ret	0
??__ETDL_TASKREFID@@YAXXZ ENDP				; `dynamic initializer for 'TDL_TASKREFID''
; Function compile flags: /Odtp /RTCsu
text$yc	ENDS
;	COMDAT ??__ETDL_TASKPOS@@YAXXZ
text$yc	SEGMENT
??__ETDL_TASKPOS@@YAXXZ PROC				; `dynamic initializer for 'TDL_TASKPOS'', COMDAT

; 53   : static const CString TDL_TASKPOS(_T("POS"));

	push	ebp
	mov	ebp, esp
	push	esi
	mov	esi, esp
	push	OFFSET $SG175083
	mov	ecx, OFFSET _TDL_TASKPOS
	call	DWORD PTR __imp_??0?$CStringT@_WV?$StrTraitMFC_DLL@_WV?$ChTraitsCRT@_W@ATL@@@@@ATL@@QAE@PB_W@Z
	cmp	esi, esp
	call	__RTC_CheckEsp
	push	OFFSET ??__FTDL_TASKPOS@@YAXXZ		; `dynamic atexit destructor for 'TDL_TASKPOS''
	call	_atexit
	add	esp, 4
	pop	esi
	cmp	ebp, esp
	call	__RTC_CheckEsp
	pop	ebp
	ret	0
??__ETDL_TASKPOS@@YAXXZ ENDP				; `dynamic initializer for 'TDL_TASKPOS''
; Function compile flags: /Odtp /RTCsu
text$yc	ENDS
;	COMDAT ??__ETDL_TASKPARENTID@@YAXXZ
text$yc	SEGMENT
??__ETDL_TASKPARENTID@@YAXXZ PROC			; `dynamic initializer for 'TDL_TASKPARENTID'', COMDAT

; 54   : static const CString TDL_TASKPARENTID(_T("PARENTID"));

	push	ebp
	mov	ebp, esp
	push	esi
	mov	esi, esp
	push	OFFSET $SG175090
	mov	ecx, OFFSET _TDL_TASKPARENTID
	call	DWORD PTR __imp_??0?$CStringT@_WV?$StrTraitMFC_DLL@_WV?$ChTraitsCRT@_W@ATL@@@@@ATL@@QAE@PB_W@Z
	cmp	esi, esp
	call	__RTC_CheckEsp
	push	OFFSET ??__FTDL_TASKPARENTID@@YAXXZ	; `dynamic atexit destructor for 'TDL_TASKPARENTID''
	call	_atexit
	add	esp, 4
	pop	esi
	cmp	ebp, esp
	call	__RTC_CheckEsp
	pop	ebp
	ret	0
??__ETDL_TASKPARENTID@@YAXXZ ENDP			; `dynamic initializer for 'TDL_TASKPARENTID''
; Function compile flags: /Odtp /RTCsu
text$yc	ENDS
;	COMDAT ??__ETDL_TASKTITLE@@YAXXZ
text$yc	SEGMENT
??__ETDL_TASKTITLE@@YAXXZ PROC				; `dynamic initializer for 'TDL_TASKTITLE'', COMDAT

; 55   : static const CString TDL_TASKTITLE(_T("TITLE"));

	push	ebp
	mov	ebp, esp
	push	esi
	mov	esi, esp
	push	OFFSET $SG175097
	mov	ecx, OFFSET _TDL_TASKTITLE
	call	DWORD PTR __imp_??0?$CStringT@_WV?$StrTraitMFC_DLL@_WV?$ChTraitsCRT@_W@ATL@@@@@ATL@@QAE@PB_W@Z
	cmp	esi, esp
	call	__RTC_CheckEsp
	push	OFFSET ??__FTDL_TASKTITLE@@YAXXZ	; `dynamic atexit destructor for 'TDL_TASKTITLE''
	call	_atexit
	add	esp, 4
	pop	esi
	cmp	ebp, esp
	call	__RTC_CheckEsp
	pop	ebp
	ret	0
??__ETDL_TASKTITLE@@YAXXZ ENDP				; `dynamic initializer for 'TDL_TASKTITLE''
; Function compile flags: /Odtp /RTCsu
text$yc	ENDS
;	COMDAT ??__ETDL_TASKALLOCTO@@YAXXZ
text$yc	SEGMENT
??__ETDL_TASKALLOCTO@@YAXXZ PROC			; `dynamic initializer for 'TDL_TASKALLOCTO'', COMDAT

; 56   : static const CString TDL_TASKALLOCTO(_T("PERSON"));

	push	ebp
	mov	ebp, esp
	push	esi
	mov	esi, esp
	push	OFFSET $SG175104
	mov	ecx, OFFSET _TDL_TASKALLOCTO
	call	DWORD PTR __imp_??0?$CStringT@_WV?$StrTraitMFC_DLL@_WV?$ChTraitsCRT@_W@ATL@@@@@ATL@@QAE@PB_W@Z
	cmp	esi, esp
	call	__RTC_CheckEsp
	push	OFFSET ??__FTDL_TASKALLOCTO@@YAXXZ	; `dynamic atexit destructor for 'TDL_TASKALLOCTO''
	call	_atexit
	add	esp, 4
	pop	esi
	cmp	ebp, esp
	call	__RTC_CheckEsp
	pop	ebp
	ret	0
??__ETDL_TASKALLOCTO@@YAXXZ ENDP			; `dynamic initializer for 'TDL_TASKALLOCTO''
; Function compile flags: /Odtp /RTCsu
text$yc	ENDS
;	COMDAT ??__ETDL_TASKALLOCBY@@YAXXZ
text$yc	SEGMENT
??__ETDL_TASKALLOCBY@@YAXXZ PROC			; `dynamic initializer for 'TDL_TASKALLOCBY'', COMDAT

; 57   : static const CString TDL_TASKALLOCBY(_T("ALLOCATEDBY"));

	push	ebp
	mov	ebp, esp
	push	esi
	mov	esi, esp
	push	OFFSET $SG175111
	mov	ecx, OFFSET _TDL_TASKALLOCBY
	call	DWORD PTR __imp_??0?$CStringT@_WV?$StrTraitMFC_DLL@_WV?$ChTraitsCRT@_W@ATL@@@@@ATL@@QAE@PB_W@Z
	cmp	esi, esp
	call	__RTC_CheckEsp
	push	OFFSET ??__FTDL_TASKALLOCBY@@YAXXZ	; `dynamic atexit destructor for 'TDL_TASKALLOCBY''
	call	_atexit
	add	esp, 4
	pop	esi
	cmp	ebp, esp
	call	__RTC_CheckEsp
	pop	ebp
	ret	0
??__ETDL_TASKALLOCBY@@YAXXZ ENDP			; `dynamic initializer for 'TDL_TASKALLOCBY''
; Function compile flags: /Odtp /RTCsu
text$yc	ENDS
;	COMDAT ??__ETDL_TASKCATEGORY@@YAXXZ
text$yc	SEGMENT
??__ETDL_TASKCATEGORY@@YAXXZ PROC			; `dynamic initializer for 'TDL_TASKCATEGORY'', COMDAT

; 58   : static const CString TDL_TASKCATEGORY(_T("CATEGORY"));

	push	ebp
	mov	ebp, esp
	push	esi
	mov	esi, esp
	push	OFFSET $SG175118
	mov	ecx, OFFSET _TDL_TASKCATEGORY
	call	DWORD PTR __imp_??0?$CStringT@_WV?$StrTraitMFC_DLL@_WV?$ChTraitsCRT@_W@ATL@@@@@ATL@@QAE@PB_W@Z
	cmp	esi, esp
	call	__RTC_CheckEsp
	push	OFFSET ??__FTDL_TASKCATEGORY@@YAXXZ	; `dynamic atexit destructor for 'TDL_TASKCATEGORY''
	call	_atexit
	add	esp, 4
	pop	esi
	cmp	ebp, esp
	call	__RTC_CheckEsp
	pop	ebp
	ret	0
??__ETDL_TASKCATEGORY@@YAXXZ ENDP			; `dynamic initializer for 'TDL_TASKCATEGORY''
; Function compile flags: /Odtp /RTCsu
text$yc	ENDS
;	COMDAT ??__ETDL_TASKTAG@@YAXXZ
text$yc	SEGMENT
??__ETDL_TASKTAG@@YAXXZ PROC				; `dynamic initializer for 'TDL_TASKTAG'', COMDAT

; 59   : static const CString TDL_TASKTAG(_T("TAG"));

	push	ebp
	mov	ebp, esp
	push	esi
	mov	esi, esp
	push	OFFSET $SG175125
	mov	ecx, OFFSET _TDL_TASKTAG
	call	DWORD PTR __imp_??0?$CStringT@_WV?$StrTraitMFC_DLL@_WV?$ChTraitsCRT@_W@ATL@@@@@ATL@@QAE@PB_W@Z
	cmp	esi, esp
	call	__RTC_CheckEsp
	push	OFFSET ??__FTDL_TASKTAG@@YAXXZ		; `dynamic atexit destructor for 'TDL_TASKTAG''
	call	_atexit
	add	esp, 4
	pop	esi
	cmp	ebp, esp
	call	__RTC_CheckEsp
	pop	ebp
	ret	0
??__ETDL_TASKTAG@@YAXXZ ENDP				; `dynamic initializer for 'TDL_TASKTAG''
; Function compile flags: /Odtp /RTCsu
text$yc	ENDS
;	COMDAT ??__ETDL_TASKSTATUS@@YAXXZ
text$yc	SEGMENT
??__ETDL_TASKSTATUS@@YAXXZ PROC				; `dynamic initializer for 'TDL_TASKSTATUS'', COMDAT

; 60   : static const CString TDL_TASKSTATUS(_T("STATUS"));

	push	ebp
	mov	ebp, esp
	push	esi
	mov	esi, esp
	push	OFFSET $SG175132
	mov	ecx, OFFSET _TDL_TASKSTATUS
	call	DWORD PTR __imp_??0?$CStringT@_WV?$StrTraitMFC_DLL@_WV?$ChTraitsCRT@_W@ATL@@@@@ATL@@QAE@PB_W@Z
	cmp	esi, esp
	call	__RTC_CheckEsp
	push	OFFSET ??__FTDL_TASKSTATUS@@YAXXZ	; `dynamic atexit destructor for 'TDL_TASKSTATUS''
	call	_atexit
	add	esp, 4
	pop	esi
	cmp	ebp, esp
	call	__RTC_CheckEsp
	pop	ebp
	ret	0
??__ETDL_TASKSTATUS@@YAXXZ ENDP				; `dynamic initializer for 'TDL_TASKSTATUS''
; Function compile flags: /Odtp /RTCsu
text$yc	ENDS
;	COMDAT ??__ETDL_TASKFILEREFPATH@@YAXXZ
text$yc	SEGMENT
??__ETDL_TASKFILEREFPATH@@YAXXZ PROC			; `dynamic initializer for 'TDL_TASKFILEREFPATH'', COMDAT

; 61   : static const CString TDL_TASKFILEREFPATH(_T("FILEREFPATH"));

	push	ebp
	mov	ebp, esp
	push	esi
	mov	esi, esp
	push	OFFSET $SG175139
	mov	ecx, OFFSET _TDL_TASKFILEREFPATH
	call	DWORD PTR __imp_??0?$CStringT@_WV?$StrTraitMFC_DLL@_WV?$ChTraitsCRT@_W@ATL@@@@@ATL@@QAE@PB_W@Z
	cmp	esi, esp
	call	__RTC_CheckEsp
	push	OFFSET ??__FTDL_TASKFILEREFPATH@@YAXXZ	; `dynamic atexit destructor for 'TDL_TASKFILEREFPATH''
	call	_atexit
	add	esp, 4
	pop	esi
	cmp	ebp, esp
	call	__RTC_CheckEsp
	pop	ebp
	ret	0
??__ETDL_TASKFILEREFPATH@@YAXXZ ENDP			; `dynamic initializer for 'TDL_TASKFILEREFPATH''
; Function compile flags: /Odtp /RTCsu
text$yc	ENDS
;	COMDAT ??__ETDL_TASKCREATEDBY@@YAXXZ
text$yc	SEGMENT
??__ETDL_TASKCREATEDBY@@YAXXZ PROC			; `dynamic initializer for 'TDL_TASKCREATEDBY'', COMDAT

; 62   : static const CString TDL_TASKCREATEDBY(_T("CREATEDBY"));

	push	ebp
	mov	ebp, esp
	push	esi
	mov	esi, esp
	push	OFFSET $SG175146
	mov	ecx, OFFSET _TDL_TASKCREATEDBY
	call	DWORD PTR __imp_??0?$CStringT@_WV?$StrTraitMFC_DLL@_WV?$ChTraitsCRT@_W@ATL@@@@@ATL@@QAE@PB_W@Z
	cmp	esi, esp
	call	__RTC_CheckEsp
	push	OFFSET ??__FTDL_TASKCREATEDBY@@YAXXZ	; `dynamic atexit destructor for 'TDL_TASKCREATEDBY''
	call	_atexit
	add	esp, 4
	pop	esi
	cmp	ebp, esp
	call	__RTC_CheckEsp
	pop	ebp
	ret	0
??__ETDL_TASKCREATEDBY@@YAXXZ ENDP			; `dynamic initializer for 'TDL_TASKCREATEDBY''
; Function compile flags: /Odtp /RTCsu
text$yc	ENDS
;	COMDAT ??__ETDL_TASKCOLOR@@YAXXZ
text$yc	SEGMENT
??__ETDL_TASKCOLOR@@YAXXZ PROC				; `dynamic initializer for 'TDL_TASKCOLOR'', COMDAT

; 63   : static const CString TDL_TASKCOLOR(_T("COLOR"));

	push	ebp
	mov	ebp, esp
	push	esi
	mov	esi, esp
	push	OFFSET $SG175153
	mov	ecx, OFFSET _TDL_TASKCOLOR
	call	DWORD PTR __imp_??0?$CStringT@_WV?$StrTraitMFC_DLL@_WV?$ChTraitsCRT@_W@ATL@@@@@ATL@@QAE@PB_W@Z
	cmp	esi, esp
	call	__RTC_CheckEsp
	push	OFFSET ??__FTDL_TASKCOLOR@@YAXXZ	; `dynamic atexit destructor for 'TDL_TASKCOLOR''
	call	_atexit
	add	esp, 4
	pop	esi
	cmp	ebp, esp
	call	__RTC_CheckEsp
	pop	ebp
	ret	0
??__ETDL_TASKCOLOR@@YAXXZ ENDP				; `dynamic initializer for 'TDL_TASKCOLOR''
; Function compile flags: /Odtp /RTCsu
text$yc	ENDS
;	COMDAT ??__ETDL_TASKFLAG@@YAXXZ
text$yc	SEGMENT
??__ETDL_TASKFLAG@@YAXXZ PROC				; `dynamic initializer for 'TDL_TASKFLAG'', COMDAT

; 64   : static const CString TDL_TASKFLAG(_T("FLAG"));

	push	ebp
	mov	ebp, esp
	push	esi
	mov	esi, esp
	push	OFFSET $SG175160
	mov	ecx, OFFSET _TDL_TASKFLAG
	call	DWORD PTR __imp_??0?$CStringT@_WV?$StrTraitMFC_DLL@_WV?$ChTraitsCRT@_W@ATL@@@@@ATL@@QAE@PB_W@Z
	cmp	esi, esp
	call	__RTC_CheckEsp
	push	OFFSET ??__FTDL_TASKFLAG@@YAXXZ		; `dynamic atexit destructor for 'TDL_TASKFLAG''
	call	_atexit
	add	esp, 4
	pop	esi
	cmp	ebp, esp
	call	__RTC_CheckEsp
	pop	ebp
	ret	0
??__ETDL_TASKFLAG@@YAXXZ ENDP				; `dynamic initializer for 'TDL_TASKFLAG''
; Function compile flags: /Odtp /RTCsu
text$yc	ENDS
;	COMDAT ??__ETDL_TASKWEBCOLOR@@YAXXZ
text$yc	SEGMENT
??__ETDL_TASKWEBCOLOR@@YAXXZ PROC			; `dynamic initializer for 'TDL_TASKWEBCOLOR'', COMDAT

; 65   : static const CString TDL_TASKWEBCOLOR(_T("WEBCOLOR"));

	push	ebp
	mov	ebp, esp
	push	esi
	mov	esi, esp
	push	OFFSET $SG175167
	mov	ecx, OFFSET _TDL_TASKWEBCOLOR
	call	DWORD PTR __imp_??0?$CStringT@_WV?$StrTraitMFC_DLL@_WV?$ChTraitsCRT@_W@ATL@@@@@ATL@@QAE@PB_W@Z
	cmp	esi, esp
	call	__RTC_CheckEsp
	push	OFFSET ??__FTDL_TASKWEBCOLOR@@YAXXZ	; `dynamic atexit destructor for 'TDL_TASKWEBCOLOR''
	call	_atexit
	add	esp, 4
	pop	esi
	cmp	ebp, esp
	call	__RTC_CheckEsp
	pop	ebp
	ret	0
??__ETDL_TASKWEBCOLOR@@YAXXZ ENDP			; `dynamic initializer for 'TDL_TASKWEBCOLOR''
; Function compile flags: /Odtp /RTCsu
text$yc	ENDS
;	COMDAT ??__ETDL_TASKPRIORITY@@YAXXZ
text$yc	SEGMENT
??__ETDL_TASKPRIORITY@@YAXXZ PROC			; `dynamic initializer for 'TDL_TASKPRIORITY'', COMDAT

; 66   : static const CString TDL_TASKPRIORITY(_T("PRIORITY"));

	push	ebp
	mov	ebp, esp
	push	esi
	mov	esi, esp
	push	OFFSET $SG175174
	mov	ecx, OFFSET _TDL_TASKPRIORITY
	call	DWORD PTR __imp_??0?$CStringT@_WV?$StrTraitMFC_DLL@_WV?$ChTraitsCRT@_W@ATL@@@@@ATL@@QAE@PB_W@Z
	cmp	esi, esp
	call	__RTC_CheckEsp
	push	OFFSET ??__FTDL_TASKPRIORITY@@YAXXZ	; `dynamic atexit destructor for 'TDL_TASKPRIORITY''
	call	_atexit
	add	esp, 4
	pop	esi
	cmp	ebp, esp
	call	__RTC_CheckEsp
	pop	ebp
	ret	0
??__ETDL_TASKPRIORITY@@YAXXZ ENDP			; `dynamic initializer for 'TDL_TASKPRIORITY''
; Function compile flags: /Odtp /RTCsu
text$yc	ENDS
;	COMDAT ??__ETDL_TASKPERCENTDONE@@YAXXZ
text$yc	SEGMENT
??__ETDL_TASKPERCENTDONE@@YAXXZ PROC			; `dynamic initializer for 'TDL_TASKPERCENTDONE'', COMDAT

; 67   : static const CString TDL_TASKPERCENTDONE(_T("PERCENTDONE"));

	push	ebp
	mov	ebp, esp
	push	esi
	mov	esi, esp
	push	OFFSET $SG175181
	mov	ecx, OFFSET _TDL_TASKPERCENTDONE
	call	DWORD PTR __imp_??0?$CStringT@_WV?$StrTraitMFC_DLL@_WV?$ChTraitsCRT@_W@ATL@@@@@ATL@@QAE@PB_W@Z
	cmp	esi, esp
	call	__RTC_CheckEsp
	push	OFFSET ??__FTDL_TASKPERCENTDONE@@YAXXZ	; `dynamic atexit destructor for 'TDL_TASKPERCENTDONE''
	call	_atexit
	add	esp, 4
	pop	esi
	cmp	ebp, esp
	call	__RTC_CheckEsp
	pop	ebp
	ret	0
??__ETDL_TASKPERCENTDONE@@YAXXZ ENDP			; `dynamic initializer for 'TDL_TASKPERCENTDONE''
; Function compile flags: /Odtp /RTCsu
text$yc	ENDS
;	COMDAT ??__ETDL_TASKTIMEESTIMATE@@YAXXZ
text$yc	SEGMENT
??__ETDL_TASKTIMEESTIMATE@@YAXXZ PROC			; `dynamic initializer for 'TDL_TASKTIMEESTIMATE'', COMDAT

; 68   : static const CString TDL_TASKTIMEESTIMATE(_T("TIMEESTIMATE"));

	push	ebp
	mov	ebp, esp
	push	esi
	mov	esi, esp
	push	OFFSET $SG175188
	mov	ecx, OFFSET _TDL_TASKTIMEESTIMATE
	call	DWORD PTR __imp_??0?$CStringT@_WV?$StrTraitMFC_DLL@_WV?$ChTraitsCRT@_W@ATL@@@@@ATL@@QAE@PB_W@Z
	cmp	esi, esp
	call	__RTC_CheckEsp
	push	OFFSET ??__FTDL_TASKTIMEESTIMATE@@YAXXZ	; `dynamic atexit destructor for 'TDL_TASKTIMEESTIMATE''
	call	_atexit
	add	esp, 4
	pop	esi
	cmp	ebp, esp
	call	__RTC_CheckEsp
	pop	ebp
	ret	0
??__ETDL_TASKTIMEESTIMATE@@YAXXZ ENDP			; `dynamic initializer for 'TDL_TASKTIMEESTIMATE''
; Function compile flags: /Odtp /RTCsu
text$yc	ENDS
;	COMDAT ??__ETDL_TASKTIMEESTUNITS@@YAXXZ
text$yc	SEGMENT
??__ETDL_TASKTIMEESTUNITS@@YAXXZ PROC			; `dynamic initializer for 'TDL_TASKTIMEESTUNITS'', COMDAT

; 69   : static const CString TDL_TASKTIMEESTUNITS(_T("TIMEESTUNITS"));

	push	ebp
	mov	ebp, esp
	push	esi
	mov	esi, esp
	push	OFFSET $SG175195
	mov	ecx, OFFSET _TDL_TASKTIMEESTUNITS
	call	DWORD PTR __imp_??0?$CStringT@_WV?$StrTraitMFC_DLL@_WV?$ChTraitsCRT@_W@ATL@@@@@ATL@@QAE@PB_W@Z
	cmp	esi, esp
	call	__RTC_CheckEsp
	push	OFFSET ??__FTDL_TASKTIMEESTUNITS@@YAXXZ	; `dynamic atexit destructor for 'TDL_TASKTIMEESTUNITS''
	call	_atexit
	add	esp, 4
	pop	esi
	cmp	ebp, esp
	call	__RTC_CheckEsp
	pop	ebp
	ret	0
??__ETDL_TASKTIMEESTUNITS@@YAXXZ ENDP			; `dynamic initializer for 'TDL_TASKTIMEESTUNITS''
; Function compile flags: /Odtp /RTCsu
text$yc	ENDS
;	COMDAT ??__ETDL_TASKTIMESPENT@@YAXXZ
text$yc	SEGMENT
??__ETDL_TASKTIMESPENT@@YAXXZ PROC			; `dynamic initializer for 'TDL_TASKTIMESPENT'', COMDAT

; 70   : static const CString TDL_TASKTIMESPENT(_T("TIMESPENT"));

	push	ebp
	mov	ebp, esp
	push	esi
	mov	esi, esp
	push	OFFSET $SG175202
	mov	ecx, OFFSET _TDL_TASKTIMESPENT
	call	DWORD PTR __imp_??0?$CStringT@_WV?$StrTraitMFC_DLL@_WV?$ChTraitsCRT@_W@ATL@@@@@ATL@@QAE@PB_W@Z
	cmp	esi, esp
	call	__RTC_CheckEsp
	push	OFFSET ??__FTDL_TASKTIMESPENT@@YAXXZ	; `dynamic atexit destructor for 'TDL_TASKTIMESPENT''
	call	_atexit
	add	esp, 4
	pop	esi
	cmp	ebp, esp
	call	__RTC_CheckEsp
	pop	ebp
	ret	0
??__ETDL_TASKTIMESPENT@@YAXXZ ENDP			; `dynamic initializer for 'TDL_TASKTIMESPENT''
; Function compile flags: /Odtp /RTCsu
text$yc	ENDS
;	COMDAT ??__ETDL_TASKTIMESPENTUNITS@@YAXXZ
text$yc	SEGMENT
??__ETDL_TASKTIMESPENTUNITS@@YAXXZ PROC			; `dynamic initializer for 'TDL_TASKTIMESPENTUNITS'', COMDAT

; 71   : static const CString TDL_TASKTIMESPENTUNITS(_T("TIMESPENTUNITS"));

	push	ebp
	mov	ebp, esp
	push	esi
	mov	esi, esp
	push	OFFSET $SG175209
	mov	ecx, OFFSET _TDL_TASKTIMESPENTUNITS
	call	DWORD PTR __imp_??0?$CStringT@_WV?$StrTraitMFC_DLL@_WV?$ChTraitsCRT@_W@ATL@@@@@ATL@@QAE@PB_W@Z
	cmp	esi, esp
	call	__RTC_CheckEsp
	push	OFFSET ??__FTDL_TASKTIMESPENTUNITS@@YAXXZ ; `dynamic atexit destructor for 'TDL_TASKTIMESPENTUNITS''
	call	_atexit
	add	esp, 4
	pop	esi
	cmp	ebp, esp
	call	__RTC_CheckEsp
	pop	ebp
	ret	0
??__ETDL_TASKTIMESPENTUNITS@@YAXXZ ENDP			; `dynamic initializer for 'TDL_TASKTIMESPENTUNITS''
; Function compile flags: /Odtp /RTCsu
text$yc	ENDS
;	COMDAT ??__ETDL_TASKRECURRENCE@@YAXXZ
text$yc	SEGMENT
??__ETDL_TASKRECURRENCE@@YAXXZ PROC			; `dynamic initializer for 'TDL_TASKRECURRENCE'', COMDAT

; 72   : static const CString TDL_TASKRECURRENCE(_T("RECURRENCE"));

	push	ebp
	mov	ebp, esp
	push	esi
	mov	esi, esp
	push	OFFSET $SG175216
	mov	ecx, OFFSET _TDL_TASKRECURRENCE
	call	DWORD PTR __imp_??0?$CStringT@_WV?$StrTraitMFC_DLL@_WV?$ChTraitsCRT@_W@ATL@@@@@ATL@@QAE@PB_W@Z
	cmp	esi, esp
	call	__RTC_CheckEsp
	push	OFFSET ??__FTDL_TASKRECURRENCE@@YAXXZ	; `dynamic atexit destructor for 'TDL_TASKRECURRENCE''
	call	_atexit
	add	esp, 4
	pop	esi
	cmp	ebp, esp
	call	__RTC_CheckEsp
	pop	ebp
	ret	0
??__ETDL_TASKRECURRENCE@@YAXXZ ENDP			; `dynamic initializer for 'TDL_TASKRECURRENCE''
; Function compile flags: /Odtp /RTCsu
text$yc	ENDS
;	COMDAT ??__ETDL_TASKRECURRENCEFREQ@@YAXXZ
text$yc	SEGMENT
??__ETDL_TASKRECURRENCEFREQ@@YAXXZ PROC			; `dynamic initializer for 'TDL_TASKRECURRENCEFREQ'', COMDAT

; 73   : static const CString TDL_TASKRECURRENCEFREQ(_T("RECURFREQ"));

	push	ebp
	mov	ebp, esp
	push	esi
	mov	esi, esp
	push	OFFSET $SG175223
	mov	ecx, OFFSET _TDL_TASKRECURRENCEFREQ
	call	DWORD PTR __imp_??0?$CStringT@_WV?$StrTraitMFC_DLL@_WV?$ChTraitsCRT@_W@ATL@@@@@ATL@@QAE@PB_W@Z
	cmp	esi, esp
	call	__RTC_CheckEsp
	push	OFFSET ??__FTDL_TASKRECURRENCEFREQ@@YAXXZ ; `dynamic atexit destructor for 'TDL_TASKRECURRENCEFREQ''
	call	_atexit
	add	esp, 4
	pop	esi
	cmp	ebp, esp
	call	__RTC_CheckEsp
	pop	ebp
	ret	0
??__ETDL_TASKRECURRENCEFREQ@@YAXXZ ENDP			; `dynamic initializer for 'TDL_TASKRECURRENCEFREQ''
; Function compile flags: /Odtp /RTCsu
text$yc	ENDS
;	COMDAT ??__ETDL_TASKRECURRENCESPEC1@@YAXXZ
text$yc	SEGMENT
??__ETDL_TASKRECURRENCESPEC1@@YAXXZ PROC		; `dynamic initializer for 'TDL_TASKRECURRENCESPEC1'', COMDAT

; 74   : static const CString TDL_TASKRECURRENCESPEC1(_T("RECURSPECIFIC1"));

	push	ebp
	mov	ebp, esp
	push	esi
	mov	esi, esp
	push	OFFSET $SG175230
	mov	ecx, OFFSET _TDL_TASKRECURRENCESPEC1
	call	DWORD PTR __imp_??0?$CStringT@_WV?$StrTraitMFC_DLL@_WV?$ChTraitsCRT@_W@ATL@@@@@ATL@@QAE@PB_W@Z
	cmp	esi, esp
	call	__RTC_CheckEsp
	push	OFFSET ??__FTDL_TASKRECURRENCESPEC1@@YAXXZ ; `dynamic atexit destructor for 'TDL_TASKRECURRENCESPEC1''
	call	_atexit
	add	esp, 4
	pop	esi
	cmp	ebp, esp
	call	__RTC_CheckEsp
	pop	ebp
	ret	0
??__ETDL_TASKRECURRENCESPEC1@@YAXXZ ENDP		; `dynamic initializer for 'TDL_TASKRECURRENCESPEC1''
; Function compile flags: /Odtp /RTCsu
text$yc	ENDS
;	COMDAT ??__ETDL_TASKRECURRENCESPEC2@@YAXXZ
text$yc	SEGMENT
??__ETDL_TASKRECURRENCESPEC2@@YAXXZ PROC		; `dynamic initializer for 'TDL_TASKRECURRENCESPEC2'', COMDAT

; 75   : static const CString TDL_TASKRECURRENCESPEC2(_T("RECURSPECIFIC2"));

	push	ebp
	mov	ebp, esp
	push	esi
	mov	esi, esp
	push	OFFSET $SG175237
	mov	ecx, OFFSET _TDL_TASKRECURRENCESPEC2
	call	DWORD PTR __imp_??0?$CStringT@_WV?$StrTraitMFC_DLL@_WV?$ChTraitsCRT@_W@ATL@@@@@ATL@@QAE@PB_W@Z
	cmp	esi, esp
	call	__RTC_CheckEsp
	push	OFFSET ??__FTDL_TASKRECURRENCESPEC2@@YAXXZ ; `dynamic atexit destructor for 'TDL_TASKRECURRENCESPEC2''
	call	_atexit
	add	esp, 4
	pop	esi
	cmp	ebp, esp
	call	__RTC_CheckEsp
	pop	ebp
	ret	0
??__ETDL_TASKRECURRENCESPEC2@@YAXXZ ENDP		; `dynamic initializer for 'TDL_TASKRECURRENCESPEC2''
; Function compile flags: /Odtp /RTCsu
text$yc	ENDS
;	COMDAT ??__ETDL_TASKRECURRENCEFROM@@YAXXZ
text$yc	SEGMENT
??__ETDL_TASKRECURRENCEFROM@@YAXXZ PROC			; `dynamic initializer for 'TDL_TASKRECURRENCEFROM'', COMDAT

; 76   : static const CString TDL_TASKRECURRENCEFROM(_T("RECURFROM"));

	push	ebp
	mov	ebp, esp
	push	esi
	mov	esi, esp
	push	OFFSET $SG175244
	mov	ecx, OFFSET _TDL_TASKRECURRENCEFROM
	call	DWORD PTR __imp_??0?$CStringT@_WV?$StrTraitMFC_DLL@_WV?$ChTraitsCRT@_W@ATL@@@@@ATL@@QAE@PB_W@Z
	cmp	esi, esp
	call	__RTC_CheckEsp
	push	OFFSET ??__FTDL_TASKRECURRENCEFROM@@YAXXZ ; `dynamic atexit destructor for 'TDL_TASKRECURRENCEFROM''
	call	_atexit
	add	esp, 4
	pop	esi
	cmp	ebp, esp
	call	__RTC_CheckEsp
	pop	ebp
	ret	0
??__ETDL_TASKRECURRENCEFROM@@YAXXZ ENDP			; `dynamic initializer for 'TDL_TASKRECURRENCEFROM''
; Function compile flags: /Odtp /RTCsu
text$yc	ENDS
;	COMDAT ??__ETDL_TASKRECURRENCEREUSE@@YAXXZ
text$yc	SEGMENT
??__ETDL_TASKRECURRENCEREUSE@@YAXXZ PROC		; `dynamic initializer for 'TDL_TASKRECURRENCEREUSE'', COMDAT

; 77   : static const CString TDL_TASKRECURRENCEREUSE(_T("RECURREUSE"));

	push	ebp
	mov	ebp, esp
	push	esi
	mov	esi, esp
	push	OFFSET $SG175251
	mov	ecx, OFFSET _TDL_TASKRECURRENCEREUSE
	call	DWORD PTR __imp_??0?$CStringT@_WV?$StrTraitMFC_DLL@_WV?$ChTraitsCRT@_W@ATL@@@@@ATL@@QAE@PB_W@Z
	cmp	esi, esp
	call	__RTC_CheckEsp
	push	OFFSET ??__FTDL_TASKRECURRENCEREUSE@@YAXXZ ; `dynamic atexit destructor for 'TDL_TASKRECURRENCEREUSE''
	call	_atexit
	add	esp, 4
	pop	esi
	cmp	ebp, esp
	call	__RTC_CheckEsp
	pop	ebp
	ret	0
??__ETDL_TASKRECURRENCEREUSE@@YAXXZ ENDP		; `dynamic initializer for 'TDL_TASKRECURRENCEREUSE''
; Function compile flags: /Odtp /RTCsu
text$yc	ENDS
;	COMDAT ??__ETDL_TASKRECURRENCENUM@@YAXXZ
text$yc	SEGMENT
??__ETDL_TASKRECURRENCENUM@@YAXXZ PROC			; `dynamic initializer for 'TDL_TASKRECURRENCENUM'', COMDAT

; 78   : static const CString TDL_TASKRECURRENCENUM(_T("RECURNUM"));

	push	ebp
	mov	ebp, esp
	push	esi
	mov	esi, esp
	push	OFFSET $SG175258
	mov	ecx, OFFSET _TDL_TASKRECURRENCENUM
	call	DWORD PTR __imp_??0?$CStringT@_WV?$StrTraitMFC_DLL@_WV?$ChTraitsCRT@_W@ATL@@@@@ATL@@QAE@PB_W@Z
	cmp	esi, esp
	call	__RTC_CheckEsp
	push	OFFSET ??__FTDL_TASKRECURRENCENUM@@YAXXZ ; `dynamic atexit destructor for 'TDL_TASKRECURRENCENUM''
	call	_atexit
	add	esp, 4
	pop	esi
	cmp	ebp, esp
	call	__RTC_CheckEsp
	pop	ebp
	ret	0
??__ETDL_TASKRECURRENCENUM@@YAXXZ ENDP			; `dynamic initializer for 'TDL_TASKRECURRENCENUM''
; Function compile flags: /Odtp /RTCsu
text$yc	ENDS
;	COMDAT ??__ETDL_TASKRECURRENCEREMAINING@@YAXXZ
text$yc	SEGMENT
??__ETDL_TASKRECURRENCEREMAINING@@YAXXZ PROC		; `dynamic initializer for 'TDL_TASKRECURRENCEREMAINING'', COMDAT

; 79   : static const CString TDL_TASKRECURRENCEREMAINING(_T("RECURREMAINING"));

	push	ebp
	mov	ebp, esp
	push	esi
	mov	esi, esp
	push	OFFSET $SG175265
	mov	ecx, OFFSET _TDL_TASKRECURRENCEREMAINING
	call	DWORD PTR __imp_??0?$CStringT@_WV?$StrTraitMFC_DLL@_WV?$ChTraitsCRT@_W@ATL@@@@@ATL@@QAE@PB_W@Z
	cmp	esi, esp
	call	__RTC_CheckEsp
	push	OFFSET ??__FTDL_TASKRECURRENCEREMAINING@@YAXXZ ; `dynamic atexit destructor for 'TDL_TASKRECURRENCEREMAINING''
	call	_atexit
	add	esp, 4
	pop	esi
	cmp	ebp, esp
	call	__RTC_CheckEsp
	pop	ebp
	ret	0
??__ETDL_TASKRECURRENCEREMAINING@@YAXXZ ENDP		; `dynamic initializer for 'TDL_TASKRECURRENCEREMAINING''
; Function compile flags: /Odtp /RTCsu
text$yc	ENDS
;	COMDAT ??__ETDL_TASKDEPENDENCY@@YAXXZ
text$yc	SEGMENT
??__ETDL_TASKDEPENDENCY@@YAXXZ PROC			; `dynamic initializer for 'TDL_TASKDEPENDENCY'', COMDAT

; 80   : static const CString TDL_TASKDEPENDENCY(_T("DEPENDS"));

	push	ebp
	mov	ebp, esp
	push	esi
	mov	esi, esp
	push	OFFSET $SG175272
	mov	ecx, OFFSET _TDL_TASKDEPENDENCY
	call	DWORD PTR __imp_??0?$CStringT@_WV?$StrTraitMFC_DLL@_WV?$ChTraitsCRT@_W@ATL@@@@@ATL@@QAE@PB_W@Z
	cmp	esi, esp
	call	__RTC_CheckEsp
	push	OFFSET ??__FTDL_TASKDEPENDENCY@@YAXXZ	; `dynamic atexit destructor for 'TDL_TASKDEPENDENCY''
	call	_atexit
	add	esp, 4
	pop	esi
	cmp	ebp, esp
	call	__RTC_CheckEsp
	pop	ebp
	ret	0
??__ETDL_TASKDEPENDENCY@@YAXXZ ENDP			; `dynamic initializer for 'TDL_TASKDEPENDENCY''
; Function compile flags: /Odtp /RTCsu
text$yc	ENDS
;	COMDAT ??__ETDL_TASKVERSION@@YAXXZ
text$yc	SEGMENT
??__ETDL_TASKVERSION@@YAXXZ PROC			; `dynamic initializer for 'TDL_TASKVERSION'', COMDAT

; 81   : static const CString TDL_TASKVERSION(_T("VERSION"));

	push	ebp
	mov	ebp, esp
	push	esi
	mov	esi, esp
	push	OFFSET $SG175279
	mov	ecx, OFFSET _TDL_TASKVERSION
	call	DWORD PTR __imp_??0?$CStringT@_WV?$StrTraitMFC_DLL@_WV?$ChTraitsCRT@_W@ATL@@@@@ATL@@QAE@PB_W@Z
	cmp	esi, esp
	call	__RTC_CheckEsp
	push	OFFSET ??__FTDL_TASKVERSION@@YAXXZ	; `dynamic atexit destructor for 'TDL_TASKVERSION''
	call	_atexit
	add	esp, 4
	pop	esi
	cmp	ebp, esp
	call	__RTC_CheckEsp
	pop	ebp
	ret	0
??__ETDL_TASKVERSION@@YAXXZ ENDP			; `dynamic initializer for 'TDL_TASKVERSION''
; Function compile flags: /Odtp /RTCsu
text$yc	ENDS
;	COMDAT ??__ETDL_TASKICONINDEX@@YAXXZ
text$yc	SEGMENT
??__ETDL_TASKICONINDEX@@YAXXZ PROC			; `dynamic initializer for 'TDL_TASKICONINDEX'', COMDAT

; 82   : static const CString TDL_TASKICONINDEX(_T("ICONINDEX"));

	push	ebp
	mov	ebp, esp
	push	esi
	mov	esi, esp
	push	OFFSET $SG175286
	mov	ecx, OFFSET _TDL_TASKICONINDEX
	call	DWORD PTR __imp_??0?$CStringT@_WV?$StrTraitMFC_DLL@_WV?$ChTraitsCRT@_W@ATL@@@@@ATL@@QAE@PB_W@Z
	cmp	esi, esp
	call	__RTC_CheckEsp
	push	OFFSET ??__FTDL_TASKICONINDEX@@YAXXZ	; `dynamic atexit destructor for 'TDL_TASKICONINDEX''
	call	_atexit
	add	esp, 4
	pop	esi
	cmp	ebp, esp
	call	__RTC_CheckEsp
	pop	ebp
	ret	0
??__ETDL_TASKICONINDEX@@YAXXZ ENDP			; `dynamic initializer for 'TDL_TASKICONINDEX''
; Function compile flags: /Odtp /RTCsu
text$yc	ENDS
;	COMDAT ??__ETDL_TASKMETADATA@@YAXXZ
text$yc	SEGMENT
??__ETDL_TASKMETADATA@@YAXXZ PROC			; `dynamic initializer for 'TDL_TASKMETADATA'', COMDAT

; 83   : static const CString TDL_TASKMETADATA(_T("METADATA"));

	push	ebp
	mov	ebp, esp
	push	esi
	mov	esi, esp
	push	OFFSET $SG175293
	mov	ecx, OFFSET _TDL_TASKMETADATA
	call	DWORD PTR __imp_??0?$CStringT@_WV?$StrTraitMFC_DLL@_WV?$ChTraitsCRT@_W@ATL@@@@@ATL@@QAE@PB_W@Z
	cmp	esi, esp
	call	__RTC_CheckEsp
	push	OFFSET ??__FTDL_TASKMETADATA@@YAXXZ	; `dynamic atexit destructor for 'TDL_TASKMETADATA''
	call	_atexit
	add	esp, 4
	pop	esi
	cmp	ebp, esp
	call	__RTC_CheckEsp
	pop	ebp
	ret	0
??__ETDL_TASKMETADATA@@YAXXZ ENDP			; `dynamic initializer for 'TDL_TASKMETADATA''
; Function compile flags: /Odtp /RTCsu
text$yc	ENDS
;	COMDAT ??__ETDL_TASKRISK@@YAXXZ
text$yc	SEGMENT
??__ETDL_TASKRISK@@YAXXZ PROC				; `dynamic initializer for 'TDL_TASKRISK'', COMDAT

; 84   : static const CString TDL_TASKRISK(_T("RISK"));		

	push	ebp
	mov	ebp, esp
	push	esi
	mov	esi, esp
	push	OFFSET $SG175300
	mov	ecx, OFFSET _TDL_TASKRISK
	call	DWORD PTR __imp_??0?$CStringT@_WV?$StrTraitMFC_DLL@_WV?$ChTraitsCRT@_W@ATL@@@@@ATL@@QAE@PB_W@Z
	cmp	esi, esp
	call	__RTC_CheckEsp
	push	OFFSET ??__FTDL_TASKRISK@@YAXXZ		; `dynamic atexit destructor for 'TDL_TASKRISK''
	call	_atexit
	add	esp, 4
	pop	esi
	cmp	ebp, esp
	call	__RTC_CheckEsp
	pop	ebp
	ret	0
??__ETDL_TASKRISK@@YAXXZ ENDP				; `dynamic initializer for 'TDL_TASKRISK''
; Function compile flags: /Odtp /RTCsu
text$yc	ENDS
;	COMDAT ??__ETDL_TASKCOST@@YAXXZ
text$yc	SEGMENT
??__ETDL_TASKCOST@@YAXXZ PROC				; `dynamic initializer for 'TDL_TASKCOST'', COMDAT

; 85   : static const CString TDL_TASKCOST(_T("COST"));		

	push	ebp
	mov	ebp, esp
	push	esi
	mov	esi, esp
	push	OFFSET $SG175307
	mov	ecx, OFFSET _TDL_TASKCOST
	call	DWORD PTR __imp_??0?$CStringT@_WV?$StrTraitMFC_DLL@_WV?$ChTraitsCRT@_W@ATL@@@@@ATL@@QAE@PB_W@Z
	cmp	esi, esp
	call	__RTC_CheckEsp
	push	OFFSET ??__FTDL_TASKCOST@@YAXXZ		; `dynamic atexit destructor for 'TDL_TASKCOST''
	call	_atexit
	add	esp, 4
	pop	esi
	cmp	ebp, esp
	call	__RTC_CheckEsp
	pop	ebp
	ret	0
??__ETDL_TASKCOST@@YAXXZ ENDP				; `dynamic initializer for 'TDL_TASKCOST''
; Function compile flags: /Odtp /RTCsu
text$yc	ENDS
;	COMDAT ??__ETDL_TASKEXTERNALID@@YAXXZ
text$yc	SEGMENT
??__ETDL_TASKEXTERNALID@@YAXXZ PROC			; `dynamic initializer for 'TDL_TASKEXTERNALID'', COMDAT

; 86   : static const CString TDL_TASKEXTERNALID(_T("EXTERNALID"));

	push	ebp
	mov	ebp, esp
	push	esi
	mov	esi, esp
	push	OFFSET $SG175314
	mov	ecx, OFFSET _TDL_TASKEXTERNALID
	call	DWORD PTR __imp_??0?$CStringT@_WV?$StrTraitMFC_DLL@_WV?$ChTraitsCRT@_W@ATL@@@@@ATL@@QAE@PB_W@Z
	cmp	esi, esp
	call	__RTC_CheckEsp
	push	OFFSET ??__FTDL_TASKEXTERNALID@@YAXXZ	; `dynamic atexit destructor for 'TDL_TASKEXTERNALID''
	call	_atexit
	add	esp, 4
	pop	esi
	cmp	ebp, esp
	call	__RTC_CheckEsp
	pop	ebp
	ret	0
??__ETDL_TASKEXTERNALID@@YAXXZ ENDP			; `dynamic initializer for 'TDL_TASKEXTERNALID''
; Function compile flags: /Odtp /RTCsu
text$yc	ENDS
;	COMDAT ??__ETDL_TASKSUBTASKDONE@@YAXXZ
text$yc	SEGMENT
??__ETDL_TASKSUBTASKDONE@@YAXXZ PROC			; `dynamic initializer for 'TDL_TASKSUBTASKDONE'', COMDAT

; 87   : static const CString TDL_TASKSUBTASKDONE(_T("SUBTASKDONE"));

	push	ebp
	mov	ebp, esp
	push	esi
	mov	esi, esp
	push	OFFSET $SG175321
	mov	ecx, OFFSET _TDL_TASKSUBTASKDONE
	call	DWORD PTR __imp_??0?$CStringT@_WV?$StrTraitMFC_DLL@_WV?$ChTraitsCRT@_W@ATL@@@@@ATL@@QAE@PB_W@Z
	cmp	esi, esp
	call	__RTC_CheckEsp
	push	OFFSET ??__FTDL_TASKSUBTASKDONE@@YAXXZ	; `dynamic atexit destructor for 'TDL_TASKSUBTASKDONE''
	call	_atexit
	add	esp, 4
	pop	esi
	cmp	ebp, esp
	call	__RTC_CheckEsp
	pop	ebp
	ret	0
??__ETDL_TASKSUBTASKDONE@@YAXXZ ENDP			; `dynamic initializer for 'TDL_TASKSUBTASKDONE''
; Function compile flags: /Odtp /RTCsu
text$yc	ENDS
;	COMDAT ??__ETDL_TASKGOODASDONE@@YAXXZ
text$yc	SEGMENT
??__ETDL_TASKGOODASDONE@@YAXXZ PROC			; `dynamic initializer for 'TDL_TASKGOODASDONE'', COMDAT

; 88   : static const CString TDL_TASKGOODASDONE(_T("GOODASDONE"));

	push	ebp
	mov	ebp, esp
	push	esi
	mov	esi, esp
	push	OFFSET $SG175328
	mov	ecx, OFFSET _TDL_TASKGOODASDONE
	call	DWORD PTR __imp_??0?$CStringT@_WV?$StrTraitMFC_DLL@_WV?$ChTraitsCRT@_W@ATL@@@@@ATL@@QAE@PB_W@Z
	cmp	esi, esp
	call	__RTC_CheckEsp
	push	OFFSET ??__FTDL_TASKGOODASDONE@@YAXXZ	; `dynamic atexit destructor for 'TDL_TASKGOODASDONE''
	call	_atexit
	add	esp, 4
	pop	esi
	cmp	ebp, esp
	call	__RTC_CheckEsp
	pop	ebp
	ret	0
??__ETDL_TASKGOODASDONE@@YAXXZ ENDP			; `dynamic initializer for 'TDL_TASKGOODASDONE''
; Function compile flags: /Odtp /RTCsu
text$yc	ENDS
;	COMDAT ??__ETDL_TASKRECURRENCEREG_DEP@@YAXXZ
text$yc	SEGMENT
??__ETDL_TASKRECURRENCEREG_DEP@@YAXXZ PROC		; `dynamic initializer for 'TDL_TASKRECURRENCEREG_DEP'', COMDAT

; 91   : static const CString TDL_TASKRECURRENCEREG_DEP(_T("REGULARITY"));     // => 'RECURFREQ'

	push	ebp
	mov	ebp, esp
	push	esi
	mov	esi, esp
	push	OFFSET $SG175335
	mov	ecx, OFFSET _TDL_TASKRECURRENCEREG_DEP
	call	DWORD PTR __imp_??0?$CStringT@_WV?$StrTraitMFC_DLL@_WV?$ChTraitsCRT@_W@ATL@@@@@ATL@@QAE@PB_W@Z
	cmp	esi, esp
	call	__RTC_CheckEsp
	push	OFFSET ??__FTDL_TASKRECURRENCEREG_DEP@@YAXXZ ; `dynamic atexit destructor for 'TDL_TASKRECURRENCEREG_DEP''
	call	_atexit
	add	esp, 4
	pop	esi
	cmp	ebp, esp
	call	__RTC_CheckEsp
	pop	ebp
	ret	0
??__ETDL_TASKRECURRENCEREG_DEP@@YAXXZ ENDP		; `dynamic initializer for 'TDL_TASKRECURRENCEREG_DEP''
; Function compile flags: /Odtp /RTCsu
text$yc	ENDS
;	COMDAT ??__ETDL_TASKRECURRENCESPEC1_DEP@@YAXXZ
text$yc	SEGMENT
??__ETDL_TASKRECURRENCESPEC1_DEP@@YAXXZ PROC		; `dynamic initializer for 'TDL_TASKRECURRENCESPEC1_DEP'', COMDAT

; 92   : static const CString TDL_TASKRECURRENCESPEC1_DEP(_T("REGPECIFIC1"));  // => 'RECURSPECIFIC1'

	push	ebp
	mov	ebp, esp
	push	esi
	mov	esi, esp
	push	OFFSET $SG175342
	mov	ecx, OFFSET _TDL_TASKRECURRENCESPEC1_DEP
	call	DWORD PTR __imp_??0?$CStringT@_WV?$StrTraitMFC_DLL@_WV?$ChTraitsCRT@_W@ATL@@@@@ATL@@QAE@PB_W@Z
	cmp	esi, esp
	call	__RTC_CheckEsp
	push	OFFSET ??__FTDL_TASKRECURRENCESPEC1_DEP@@YAXXZ ; `dynamic atexit destructor for 'TDL_TASKRECURRENCESPEC1_DEP''
	call	_atexit
	add	esp, 4
	pop	esi
	cmp	ebp, esp
	call	__RTC_CheckEsp
	pop	ebp
	ret	0
??__ETDL_TASKRECURRENCESPEC1_DEP@@YAXXZ ENDP		; `dynamic initializer for 'TDL_TASKRECURRENCESPEC1_DEP''
; Function compile flags: /Odtp /RTCsu
text$yc	ENDS
;	COMDAT ??__ETDL_TASKRECURRENCESPEC2_DEP@@YAXXZ
text$yc	SEGMENT
??__ETDL_TASKRECURRENCESPEC2_DEP@@YAXXZ PROC		; `dynamic initializer for 'TDL_TASKRECURRENCESPEC2_DEP'', COMDAT

; 93   : static const CString TDL_TASKRECURRENCESPEC2_DEP(_T("REGPECIFIC2"));  // => 'RECURSPECIFIC2'

	push	ebp
	mov	ebp, esp
	push	esi
	mov	esi, esp
	push	OFFSET $SG175349
	mov	ecx, OFFSET _TDL_TASKRECURRENCESPEC2_DEP
	call	DWORD PTR __imp_??0?$CStringT@_WV?$StrTraitMFC_DLL@_WV?$ChTraitsCRT@_W@ATL@@@@@ATL@@QAE@PB_W@Z
	cmp	esi, esp
	call	__RTC_CheckEsp
	push	OFFSET ??__FTDL_TASKRECURRENCESPEC2_DEP@@YAXXZ ; `dynamic atexit destructor for 'TDL_TASKRECURRENCESPEC2_DEP''
	call	_atexit
	add	esp, 4
	pop	esi
	cmp	ebp, esp
	call	__RTC_CheckEsp
	pop	ebp
	ret	0
??__ETDL_TASKRECURRENCESPEC2_DEP@@YAXXZ ENDP		; `dynamic initializer for 'TDL_TASKRECURRENCESPEC2_DEP''
; Function compile flags: /Odtp /RTCsu
text$yc	ENDS
;	COMDAT ??__ETDL_TASKRECURRENCEFROMDUE_DEP@@YAXXZ
text$yc	SEGMENT
??__ETDL_TASKRECURRENCEFROMDUE_DEP@@YAXXZ PROC		; `dynamic initializer for 'TDL_TASKRECURRENCEFROMDUE_DEP'', COMDAT

; 94   : static const CString TDL_TASKRECURRENCEFROMDUE_DEP(_T("REGFROMDUE")); // => 'RECURFROM'

	push	ebp
	mov	ebp, esp
	push	esi
	mov	esi, esp
	push	OFFSET $SG175356
	mov	ecx, OFFSET _TDL_TASKRECURRENCEFROMDUE_DEP
	call	DWORD PTR __imp_??0?$CStringT@_WV?$StrTraitMFC_DLL@_WV?$ChTraitsCRT@_W@ATL@@@@@ATL@@QAE@PB_W@Z
	cmp	esi, esp
	call	__RTC_CheckEsp
	push	OFFSET ??__FTDL_TASKRECURRENCEFROMDUE_DEP@@YAXXZ ; `dynamic atexit destructor for 'TDL_TASKRECURRENCEFROMDUE_DEP''
	call	_atexit
	add	esp, 4
	pop	esi
	cmp	ebp, esp
	call	__RTC_CheckEsp
	pop	ebp
	ret	0
??__ETDL_TASKRECURRENCEFROMDUE_DEP@@YAXXZ ENDP		; `dynamic initializer for 'TDL_TASKRECURRENCEFROMDUE_DEP''
; Function compile flags: /Odtp /RTCsu
text$yc	ENDS
;	COMDAT ??__ETDL_TASKNUMALLOCTO_DEP@@YAXXZ
text$yc	SEGMENT
??__ETDL_TASKNUMALLOCTO_DEP@@YAXXZ PROC			; `dynamic initializer for 'TDL_TASKNUMALLOCTO_DEP'', COMDAT

; 95   : static const CString TDL_TASKNUMALLOCTO_DEP(_T("NUMPERSON"));         // no longer required

	push	ebp
	mov	ebp, esp
	push	esi
	mov	esi, esp
	push	OFFSET $SG175363
	mov	ecx, OFFSET _TDL_TASKNUMALLOCTO_DEP
	call	DWORD PTR __imp_??0?$CStringT@_WV?$StrTraitMFC_DLL@_WV?$ChTraitsCRT@_W@ATL@@@@@ATL@@QAE@PB_W@Z
	cmp	esi, esp
	call	__RTC_CheckEsp
	push	OFFSET ??__FTDL_TASKNUMALLOCTO_DEP@@YAXXZ ; `dynamic atexit destructor for 'TDL_TASKNUMALLOCTO_DEP''
	call	_atexit
	add	esp, 4
	pop	esi
	cmp	ebp, esp
	call	__RTC_CheckEsp
	pop	ebp
	ret	0
??__ETDL_TASKNUMALLOCTO_DEP@@YAXXZ ENDP			; `dynamic initializer for 'TDL_TASKNUMALLOCTO_DEP''
; Function compile flags: /Odtp /RTCsu
text$yc	ENDS
;	COMDAT ??__ETDL_TASKNUMCATEGORY_DEP@@YAXXZ
text$yc	SEGMENT
??__ETDL_TASKNUMCATEGORY_DEP@@YAXXZ PROC		; `dynamic initializer for 'TDL_TASKNUMCATEGORY_DEP'', COMDAT

; 96   : static const CString TDL_TASKNUMCATEGORY_DEP(_T("NUMCATEGORY"));      // no longer required

	push	ebp
	mov	ebp, esp
	push	esi
	mov	esi, esp
	push	OFFSET $SG175370
	mov	ecx, OFFSET _TDL_TASKNUMCATEGORY_DEP
	call	DWORD PTR __imp_??0?$CStringT@_WV?$StrTraitMFC_DLL@_WV?$ChTraitsCRT@_W@ATL@@@@@ATL@@QAE@PB_W@Z
	cmp	esi, esp
	call	__RTC_CheckEsp
	push	OFFSET ??__FTDL_TASKNUMCATEGORY_DEP@@YAXXZ ; `dynamic atexit destructor for 'TDL_TASKNUMCATEGORY_DEP''
	call	_atexit
	add	esp, 4
	pop	esi
	cmp	ebp, esp
	call	__RTC_CheckEsp
	pop	ebp
	ret	0
??__ETDL_TASKNUMCATEGORY_DEP@@YAXXZ ENDP		; `dynamic initializer for 'TDL_TASKNUMCATEGORY_DEP''
; Function compile flags: /Odtp /RTCsu
text$yc	ENDS
;	COMDAT ??__ETDL_TASKNUMTAGS_DEP@@YAXXZ
text$yc	SEGMENT
??__ETDL_TASKNUMTAGS_DEP@@YAXXZ PROC			; `dynamic initializer for 'TDL_TASKNUMTAGS_DEP'', COMDAT

; 97   : static const CString TDL_TASKNUMTAGS_DEP(_T("NUMTAGS"));              // no longer required

	push	ebp
	mov	ebp, esp
	push	esi
	mov	esi, esp
	push	OFFSET $SG175377
	mov	ecx, OFFSET _TDL_TASKNUMTAGS_DEP
	call	DWORD PTR __imp_??0?$CStringT@_WV?$StrTraitMFC_DLL@_WV?$ChTraitsCRT@_W@ATL@@@@@ATL@@QAE@PB_W@Z
	cmp	esi, esp
	call	__RTC_CheckEsp
	push	OFFSET ??__FTDL_TASKNUMTAGS_DEP@@YAXXZ	; `dynamic atexit destructor for 'TDL_TASKNUMTAGS_DEP''
	call	_atexit
	add	esp, 4
	pop	esi
	cmp	ebp, esp
	call	__RTC_CheckEsp
	pop	ebp
	ret	0
??__ETDL_TASKNUMTAGS_DEP@@YAXXZ ENDP			; `dynamic initializer for 'TDL_TASKNUMTAGS_DEP''
; Function compile flags: /Odtp /RTCsu
text$yc	ENDS
;	COMDAT ??__ETDL_TASKNUMDEPENDENCY_DEP@@YAXXZ
text$yc	SEGMENT
??__ETDL_TASKNUMDEPENDENCY_DEP@@YAXXZ PROC		; `dynamic initializer for 'TDL_TASKNUMDEPENDENCY_DEP'', COMDAT

; 98   : static const CString TDL_TASKNUMDEPENDENCY_DEP(_T("NUMDEPENDS"));     // no longer required

	push	ebp
	mov	ebp, esp
	push	esi
	mov	esi, esp
	push	OFFSET $SG175384
	mov	ecx, OFFSET _TDL_TASKNUMDEPENDENCY_DEP
	call	DWORD PTR __imp_??0?$CStringT@_WV?$StrTraitMFC_DLL@_WV?$ChTraitsCRT@_W@ATL@@@@@ATL@@QAE@PB_W@Z
	cmp	esi, esp
	call	__RTC_CheckEsp
	push	OFFSET ??__FTDL_TASKNUMDEPENDENCY_DEP@@YAXXZ ; `dynamic atexit destructor for 'TDL_TASKNUMDEPENDENCY_DEP''
	call	_atexit
	add	esp, 4
	pop	esi
	cmp	ebp, esp
	call	__RTC_CheckEsp
	pop	ebp
	ret	0
??__ETDL_TASKNUMDEPENDENCY_DEP@@YAXXZ ENDP		; `dynamic initializer for 'TDL_TASKNUMDEPENDENCY_DEP''
; Function compile flags: /Odtp /RTCsu
text$yc	ENDS
;	COMDAT ??__ETDL_TASKCUSTOMATTRIBDATA@@YAXXZ
text$yc	SEGMENT
??__ETDL_TASKCUSTOMATTRIBDATA@@YAXXZ PROC		; `dynamic initializer for 'TDL_TASKCUSTOMATTRIBDATA'', COMDAT

; 101  : static const CString TDL_TASKCUSTOMATTRIBDATA(_T("CUSTOMATTRIB"));	

	push	ebp
	mov	ebp, esp
	push	esi
	mov	esi, esp
	push	OFFSET $SG175391
	mov	ecx, OFFSET _TDL_TASKCUSTOMATTRIBDATA
	call	DWORD PTR __imp_??0?$CStringT@_WV?$StrTraitMFC_DLL@_WV?$ChTraitsCRT@_W@ATL@@@@@ATL@@QAE@PB_W@Z
	cmp	esi, esp
	call	__RTC_CheckEsp
	push	OFFSET ??__FTDL_TASKCUSTOMATTRIBDATA@@YAXXZ ; `dynamic atexit destructor for 'TDL_TASKCUSTOMATTRIBDATA''
	call	_atexit
	add	esp, 4
	pop	esi
	cmp	ebp, esp
	call	__RTC_CheckEsp
	pop	ebp
	ret	0
??__ETDL_TASKCUSTOMATTRIBDATA@@YAXXZ ENDP		; `dynamic initializer for 'TDL_TASKCUSTOMATTRIBDATA''
; Function compile flags: /Odtp /RTCsu
text$yc	ENDS
;	COMDAT ??__ETDL_TASKCUSTOMATTRIBID@@YAXXZ
text$yc	SEGMENT
??__ETDL_TASKCUSTOMATTRIBID@@YAXXZ PROC			; `dynamic initializer for 'TDL_TASKCUSTOMATTRIBID'', COMDAT

; 102  : static const CString TDL_TASKCUSTOMATTRIBID(_T("ID"));	

	push	ebp
	mov	ebp, esp
	push	esi
	mov	esi, esp
	push	OFFSET $SG175398
	mov	ecx, OFFSET _TDL_TASKCUSTOMATTRIBID
	call	DWORD PTR __imp_??0?$CStringT@_WV?$StrTraitMFC_DLL@_WV?$ChTraitsCRT@_W@ATL@@@@@ATL@@QAE@PB_W@Z
	cmp	esi, esp
	call	__RTC_CheckEsp
	push	OFFSET ??__FTDL_TASKCUSTOMATTRIBID@@YAXXZ ; `dynamic atexit destructor for 'TDL_TASKCUSTOMATTRIBID''
	call	_atexit
	add	esp, 4
	pop	esi
	cmp	ebp, esp
	call	__RTC_CheckEsp
	pop	ebp
	ret	0
??__ETDL_TASKCUSTOMATTRIBID@@YAXXZ ENDP			; `dynamic initializer for 'TDL_TASKCUSTOMATTRIBID''
; Function compile flags: /Odtp /RTCsu
text$yc	ENDS
;	COMDAT ??__ETDL_TASKCUSTOMATTRIBNAME@@YAXXZ
text$yc	SEGMENT
??__ETDL_TASKCUSTOMATTRIBNAME@@YAXXZ PROC		; `dynamic initializer for 'TDL_TASKCUSTOMATTRIBNAME'', COMDAT

; 103  : static const CString TDL_TASKCUSTOMATTRIBNAME(_T("NAME"));	

	push	ebp
	mov	ebp, esp
	push	esi
	mov	esi, esp
	push	OFFSET $SG175405
	mov	ecx, OFFSET _TDL_TASKCUSTOMATTRIBNAME
	call	DWORD PTR __imp_??0?$CStringT@_WV?$StrTraitMFC_DLL@_WV?$ChTraitsCRT@_W@ATL@@@@@ATL@@QAE@PB_W@Z
	cmp	esi, esp
	call	__RTC_CheckEsp
	push	OFFSET ??__FTDL_TASKCUSTOMATTRIBNAME@@YAXXZ ; `dynamic atexit destructor for 'TDL_TASKCUSTOMATTRIBNAME''
	call	_atexit
	add	esp, 4
	pop	esi
	cmp	ebp, esp
	call	__RTC_CheckEsp
	pop	ebp
	ret	0
??__ETDL_TASKCUSTOMATTRIBNAME@@YAXXZ ENDP		; `dynamic initializer for 'TDL_TASKCUSTOMATTRIBNAME''
; Function compile flags: /Odtp /RTCsu
text$yc	ENDS
;	COMDAT ??__ETDL_TASKCUSTOMATTRIBVALUE@@YAXXZ
text$yc	SEGMENT
??__ETDL_TASKCUSTOMATTRIBVALUE@@YAXXZ PROC		; `dynamic initializer for 'TDL_TASKCUSTOMATTRIBVALUE'', COMDAT

; 104  : static const CString TDL_TASKCUSTOMATTRIBVALUE(_T("VALUE"));	

	push	ebp
	mov	ebp, esp
	push	esi
	mov	esi, esp
	push	OFFSET $SG175412
	mov	ecx, OFFSET _TDL_TASKCUSTOMATTRIBVALUE
	call	DWORD PTR __imp_??0?$CStringT@_WV?$StrTraitMFC_DLL@_WV?$ChTraitsCRT@_W@ATL@@@@@ATL@@QAE@PB_W@Z
	cmp	esi, esp
	call	__RTC_CheckEsp
	push	OFFSET ??__FTDL_TASKCUSTOMATTRIBVALUE@@YAXXZ ; `dynamic atexit destructor for 'TDL_TASKCUSTOMATTRIBVALUE''
	call	_atexit
	add	esp, 4
	pop	esi
	cmp	ebp, esp
	call	__RTC_CheckEsp
	pop	ebp
	ret	0
??__ETDL_TASKCUSTOMATTRIBVALUE@@YAXXZ ENDP		; `dynamic initializer for 'TDL_TASKCUSTOMATTRIBVALUE''
; Function compile flags: /Odtp /RTCsu
text$yc	ENDS
;	COMDAT ??__ETDL_TASKCUSTOMATTRIBDATESTRING@@YAXXZ
text$yc	SEGMENT
??__ETDL_TASKCUSTOMATTRIBDATESTRING@@YAXXZ PROC		; `dynamic initializer for 'TDL_TASKCUSTOMATTRIBDATESTRING'', COMDAT

; 105  : static const CString TDL_TASKCUSTOMATTRIBDATESTRING(_T("DATESTRING"));	

	push	ebp
	mov	ebp, esp
	push	esi
	mov	esi, esp
	push	OFFSET $SG175419
	mov	ecx, OFFSET _TDL_TASKCUSTOMATTRIBDATESTRING
	call	DWORD PTR __imp_??0?$CStringT@_WV?$StrTraitMFC_DLL@_WV?$ChTraitsCRT@_W@ATL@@@@@ATL@@QAE@PB_W@Z
	cmp	esi, esp
	call	__RTC_CheckEsp
	push	OFFSET ??__FTDL_TASKCUSTOMATTRIBDATESTRING@@YAXXZ ; `dynamic atexit destructor for 'TDL_TASKCUSTOMATTRIBDATESTRING''
	call	_atexit
	add	esp, 4
	pop	esi
	cmp	ebp, esp
	call	__RTC_CheckEsp
	pop	ebp
	ret	0
??__ETDL_TASKCUSTOMATTRIBDATESTRING@@YAXXZ ENDP		; `dynamic initializer for 'TDL_TASKCUSTOMATTRIBDATESTRING''
; Function compile flags: /Odtp /RTCsu
text$yc	ENDS
;	COMDAT ??__ETDL_TASKCOMMENTS@@YAXXZ
text$yc	SEGMENT
??__ETDL_TASKCOMMENTS@@YAXXZ PROC			; `dynamic initializer for 'TDL_TASKCOMMENTS'', COMDAT

; 108  : static const CString TDL_TASKCOMMENTS(_T("COMMENTS"));

	push	ebp
	mov	ebp, esp
	push	esi
	mov	esi, esp
	push	OFFSET $SG175426
	mov	ecx, OFFSET _TDL_TASKCOMMENTS
	call	DWORD PTR __imp_??0?$CStringT@_WV?$StrTraitMFC_DLL@_WV?$ChTraitsCRT@_W@ATL@@@@@ATL@@QAE@PB_W@Z
	cmp	esi, esp
	call	__RTC_CheckEsp
	push	OFFSET ??__FTDL_TASKCOMMENTS@@YAXXZ	; `dynamic atexit destructor for 'TDL_TASKCOMMENTS''
	call	_atexit
	add	esp, 4
	pop	esi
	cmp	ebp, esp
	call	__RTC_CheckEsp
	pop	ebp
	ret	0
??__ETDL_TASKCOMMENTS@@YAXXZ ENDP			; `dynamic initializer for 'TDL_TASKCOMMENTS''
; Function compile flags: /Odtp /RTCsu
text$yc	ENDS
;	COMDAT ??__ETDL_TASKCUSTOMCOMMENTS@@YAXXZ
text$yc	SEGMENT
??__ETDL_TASKCUSTOMCOMMENTS@@YAXXZ PROC			; `dynamic initializer for 'TDL_TASKCUSTOMCOMMENTS'', COMDAT

; 109  : static const CString TDL_TASKCUSTOMCOMMENTS(_T("CUSTOMCOMMENTS"));		

	push	ebp
	mov	ebp, esp
	push	esi
	mov	esi, esp
	push	OFFSET $SG175433
	mov	ecx, OFFSET _TDL_TASKCUSTOMCOMMENTS
	call	DWORD PTR __imp_??0?$CStringT@_WV?$StrTraitMFC_DLL@_WV?$ChTraitsCRT@_W@ATL@@@@@ATL@@QAE@PB_W@Z
	cmp	esi, esp
	call	__RTC_CheckEsp
	push	OFFSET ??__FTDL_TASKCUSTOMCOMMENTS@@YAXXZ ; `dynamic atexit destructor for 'TDL_TASKCUSTOMCOMMENTS''
	call	_atexit
	add	esp, 4
	pop	esi
	cmp	ebp, esp
	call	__RTC_CheckEsp
	pop	ebp
	ret	0
??__ETDL_TASKCUSTOMCOMMENTS@@YAXXZ ENDP			; `dynamic initializer for 'TDL_TASKCUSTOMCOMMENTS''
; Function compile flags: /Odtp /RTCsu
text$yc	ENDS
;	COMDAT ??__ETDL_TASKCOMMENTSTYPE@@YAXXZ
text$yc	SEGMENT
??__ETDL_TASKCOMMENTSTYPE@@YAXXZ PROC			; `dynamic initializer for 'TDL_TASKCOMMENTSTYPE'', COMDAT

; 110  : static const CString TDL_TASKCOMMENTSTYPE(_T("COMMENTSTYPE"));

	push	ebp
	mov	ebp, esp
	push	esi
	mov	esi, esp
	push	OFFSET $SG175440
	mov	ecx, OFFSET _TDL_TASKCOMMENTSTYPE
	call	DWORD PTR __imp_??0?$CStringT@_WV?$StrTraitMFC_DLL@_WV?$ChTraitsCRT@_W@ATL@@@@@ATL@@QAE@PB_W@Z
	cmp	esi, esp
	call	__RTC_CheckEsp
	push	OFFSET ??__FTDL_TASKCOMMENTSTYPE@@YAXXZ	; `dynamic atexit destructor for 'TDL_TASKCOMMENTSTYPE''
	call	_atexit
	add	esp, 4
	pop	esi
	cmp	ebp, esp
	call	__RTC_CheckEsp
	pop	ebp
	ret	0
??__ETDL_TASKCOMMENTSTYPE@@YAXXZ ENDP			; `dynamic initializer for 'TDL_TASKCOMMENTSTYPE''
; Function compile flags: /Odtp /RTCsu
text$yc	ENDS
;	COMDAT ??__ETDL_TASKHTMLCOMMENTS@@YAXXZ
text$yc	SEGMENT
??__ETDL_TASKHTMLCOMMENTS@@YAXXZ PROC			; `dynamic initializer for 'TDL_TASKHTMLCOMMENTS'', COMDAT

; 111  : static const CString TDL_TASKHTMLCOMMENTS(_T("HTMLCOMMENTS"));		

	push	ebp
	mov	ebp, esp
	push	esi
	mov	esi, esp
	push	OFFSET $SG175447
	mov	ecx, OFFSET _TDL_TASKHTMLCOMMENTS
	call	DWORD PTR __imp_??0?$CStringT@_WV?$StrTraitMFC_DLL@_WV?$ChTraitsCRT@_W@ATL@@@@@ATL@@QAE@PB_W@Z
	cmp	esi, esp
	call	__RTC_CheckEsp
	push	OFFSET ??__FTDL_TASKHTMLCOMMENTS@@YAXXZ	; `dynamic atexit destructor for 'TDL_TASKHTMLCOMMENTS''
	call	_atexit
	add	esp, 4
	pop	esi
	cmp	ebp, esp
	call	__RTC_CheckEsp
	pop	ebp
	ret	0
??__ETDL_TASKHTMLCOMMENTS@@YAXXZ ENDP			; `dynamic initializer for 'TDL_TASKHTMLCOMMENTS''
; Function compile flags: /Odtp /RTCsu
text$yc	ENDS
;	COMDAT ??__ETDL_TASKDONEDATE@@YAXXZ
text$yc	SEGMENT
??__ETDL_TASKDONEDATE@@YAXXZ PROC			; `dynamic initializer for 'TDL_TASKDONEDATE'', COMDAT

; 114  : static const CString TDL_TASKDONEDATE(_T("DONEDATE"));

	push	ebp
	mov	ebp, esp
	push	esi
	mov	esi, esp
	push	OFFSET $SG175454
	mov	ecx, OFFSET _TDL_TASKDONEDATE
	call	DWORD PTR __imp_??0?$CStringT@_WV?$StrTraitMFC_DLL@_WV?$ChTraitsCRT@_W@ATL@@@@@ATL@@QAE@PB_W@Z
	cmp	esi, esp
	call	__RTC_CheckEsp
	push	OFFSET ??__FTDL_TASKDONEDATE@@YAXXZ	; `dynamic atexit destructor for 'TDL_TASKDONEDATE''
	call	_atexit
	add	esp, 4
	pop	esi
	cmp	ebp, esp
	call	__RTC_CheckEsp
	pop	ebp
	ret	0
??__ETDL_TASKDONEDATE@@YAXXZ ENDP			; `dynamic initializer for 'TDL_TASKDONEDATE''
; Function compile flags: /Odtp /RTCsu
text$yc	ENDS
;	COMDAT ??__ETDL_TASKDONEDATESTRING@@YAXXZ
text$yc	SEGMENT
??__ETDL_TASKDONEDATESTRING@@YAXXZ PROC			; `dynamic initializer for 'TDL_TASKDONEDATESTRING'', COMDAT

; 115  : static const CString TDL_TASKDONEDATESTRING(_T("DONEDATESTRING"));		

	push	ebp
	mov	ebp, esp
	push	esi
	mov	esi, esp
	push	OFFSET $SG175461
	mov	ecx, OFFSET _TDL_TASKDONEDATESTRING
	call	DWORD PTR __imp_??0?$CStringT@_WV?$StrTraitMFC_DLL@_WV?$ChTraitsCRT@_W@ATL@@@@@ATL@@QAE@PB_W@Z
	cmp	esi, esp
	call	__RTC_CheckEsp
	push	OFFSET ??__FTDL_TASKDONEDATESTRING@@YAXXZ ; `dynamic atexit destructor for 'TDL_TASKDONEDATESTRING''
	call	_atexit
	add	esp, 4
	pop	esi
	cmp	ebp, esp
	call	__RTC_CheckEsp
	pop	ebp
	ret	0
??__ETDL_TASKDONEDATESTRING@@YAXXZ ENDP			; `dynamic initializer for 'TDL_TASKDONEDATESTRING''
; Function compile flags: /Odtp /RTCsu
text$yc	ENDS
;	COMDAT ??__ETDL_TASKDUEDATE@@YAXXZ
text$yc	SEGMENT
??__ETDL_TASKDUEDATE@@YAXXZ PROC			; `dynamic initializer for 'TDL_TASKDUEDATE'', COMDAT

; 116  : static const CString TDL_TASKDUEDATE(_T("DUEDATE"));

	push	ebp
	mov	ebp, esp
	push	esi
	mov	esi, esp
	push	OFFSET $SG175468
	mov	ecx, OFFSET _TDL_TASKDUEDATE
	call	DWORD PTR __imp_??0?$CStringT@_WV?$StrTraitMFC_DLL@_WV?$ChTraitsCRT@_W@ATL@@@@@ATL@@QAE@PB_W@Z
	cmp	esi, esp
	call	__RTC_CheckEsp
	push	OFFSET ??__FTDL_TASKDUEDATE@@YAXXZ	; `dynamic atexit destructor for 'TDL_TASKDUEDATE''
	call	_atexit
	add	esp, 4
	pop	esi
	cmp	ebp, esp
	call	__RTC_CheckEsp
	pop	ebp
	ret	0
??__ETDL_TASKDUEDATE@@YAXXZ ENDP			; `dynamic initializer for 'TDL_TASKDUEDATE''
; Function compile flags: /Odtp /RTCsu
text$yc	ENDS
;	COMDAT ??__ETDL_TASKDUEDATESTRING@@YAXXZ
text$yc	SEGMENT
??__ETDL_TASKDUEDATESTRING@@YAXXZ PROC			; `dynamic initializer for 'TDL_TASKDUEDATESTRING'', COMDAT

; 117  : static const CString TDL_TASKDUEDATESTRING(_T("DUEDATESTRING")); 	

	push	ebp
	mov	ebp, esp
	push	esi
	mov	esi, esp
	push	OFFSET $SG175475
	mov	ecx, OFFSET _TDL_TASKDUEDATESTRING
	call	DWORD PTR __imp_??0?$CStringT@_WV?$StrTraitMFC_DLL@_WV?$ChTraitsCRT@_W@ATL@@@@@ATL@@QAE@PB_W@Z
	cmp	esi, esp
	call	__RTC_CheckEsp
	push	OFFSET ??__FTDL_TASKDUEDATESTRING@@YAXXZ ; `dynamic atexit destructor for 'TDL_TASKDUEDATESTRING''
	call	_atexit
	add	esp, 4
	pop	esi
	cmp	ebp, esp
	call	__RTC_CheckEsp
	pop	ebp
	ret	0
??__ETDL_TASKDUEDATESTRING@@YAXXZ ENDP			; `dynamic initializer for 'TDL_TASKDUEDATESTRING''
; Function compile flags: /Odtp /RTCsu
text$yc	ENDS
;	COMDAT ??__ETDL_TASKSTARTDATE@@YAXXZ
text$yc	SEGMENT
??__ETDL_TASKSTARTDATE@@YAXXZ PROC			; `dynamic initializer for 'TDL_TASKSTARTDATE'', COMDAT

; 118  : static const CString TDL_TASKSTARTDATE(_T("STARTDATE"));

	push	ebp
	mov	ebp, esp
	push	esi
	mov	esi, esp
	push	OFFSET $SG175482
	mov	ecx, OFFSET _TDL_TASKSTARTDATE
	call	DWORD PTR __imp_??0?$CStringT@_WV?$StrTraitMFC_DLL@_WV?$ChTraitsCRT@_W@ATL@@@@@ATL@@QAE@PB_W@Z
	cmp	esi, esp
	call	__RTC_CheckEsp
	push	OFFSET ??__FTDL_TASKSTARTDATE@@YAXXZ	; `dynamic atexit destructor for 'TDL_TASKSTARTDATE''
	call	_atexit
	add	esp, 4
	pop	esi
	cmp	ebp, esp
	call	__RTC_CheckEsp
	pop	ebp
	ret	0
??__ETDL_TASKSTARTDATE@@YAXXZ ENDP			; `dynamic initializer for 'TDL_TASKSTARTDATE''
; Function compile flags: /Odtp /RTCsu
text$yc	ENDS
;	COMDAT ??__ETDL_TASKSTARTDATESTRING@@YAXXZ
text$yc	SEGMENT
??__ETDL_TASKSTARTDATESTRING@@YAXXZ PROC		; `dynamic initializer for 'TDL_TASKSTARTDATESTRING'', COMDAT

; 119  : static const CString TDL_TASKSTARTDATESTRING(_T("STARTDATESTRING"));

	push	ebp
	mov	ebp, esp
	push	esi
	mov	esi, esp
	push	OFFSET $SG175489
	mov	ecx, OFFSET _TDL_TASKSTARTDATESTRING
	call	DWORD PTR __imp_??0?$CStringT@_WV?$StrTraitMFC_DLL@_WV?$ChTraitsCRT@_W@ATL@@@@@ATL@@QAE@PB_W@Z
	cmp	esi, esp
	call	__RTC_CheckEsp
	push	OFFSET ??__FTDL_TASKSTARTDATESTRING@@YAXXZ ; `dynamic atexit destructor for 'TDL_TASKSTARTDATESTRING''
	call	_atexit
	add	esp, 4
	pop	esi
	cmp	ebp, esp
	call	__RTC_CheckEsp
	pop	ebp
	ret	0
??__ETDL_TASKSTARTDATESTRING@@YAXXZ ENDP		; `dynamic initializer for 'TDL_TASKSTARTDATESTRING''
; Function compile flags: /Odtp /RTCsu
text$yc	ENDS
;	COMDAT ??__ETDL_TASKCREATIONDATE@@YAXXZ
text$yc	SEGMENT
??__ETDL_TASKCREATIONDATE@@YAXXZ PROC			; `dynamic initializer for 'TDL_TASKCREATIONDATE'', COMDAT

; 120  : static const CString TDL_TASKCREATIONDATE(_T("CREATIONDATE"));

	push	ebp
	mov	ebp, esp
	push	esi
	mov	esi, esp
	push	OFFSET $SG175496
	mov	ecx, OFFSET _TDL_TASKCREATIONDATE
	call	DWORD PTR __imp_??0?$CStringT@_WV?$StrTraitMFC_DLL@_WV?$ChTraitsCRT@_W@ATL@@@@@ATL@@QAE@PB_W@Z
	cmp	esi, esp
	call	__RTC_CheckEsp
	push	OFFSET ??__FTDL_TASKCREATIONDATE@@YAXXZ	; `dynamic atexit destructor for 'TDL_TASKCREATIONDATE''
	call	_atexit
	add	esp, 4
	pop	esi
	cmp	ebp, esp
	call	__RTC_CheckEsp
	pop	ebp
	ret	0
??__ETDL_TASKCREATIONDATE@@YAXXZ ENDP			; `dynamic initializer for 'TDL_TASKCREATIONDATE''
; Function compile flags: /Odtp /RTCsu
text$yc	ENDS
;	COMDAT ??__ETDL_TASKCREATIONDATESTRING@@YAXXZ
text$yc	SEGMENT
??__ETDL_TASKCREATIONDATESTRING@@YAXXZ PROC		; `dynamic initializer for 'TDL_TASKCREATIONDATESTRING'', COMDAT

; 121  : static const CString TDL_TASKCREATIONDATESTRING(_T("CREATIONDATESTRING"));		

	push	ebp
	mov	ebp, esp
	push	esi
	mov	esi, esp
	push	OFFSET $SG175503
	mov	ecx, OFFSET _TDL_TASKCREATIONDATESTRING
	call	DWORD PTR __imp_??0?$CStringT@_WV?$StrTraitMFC_DLL@_WV?$ChTraitsCRT@_W@ATL@@@@@ATL@@QAE@PB_W@Z
	cmp	esi, esp
	call	__RTC_CheckEsp
	push	OFFSET ??__FTDL_TASKCREATIONDATESTRING@@YAXXZ ; `dynamic atexit destructor for 'TDL_TASKCREATIONDATESTRING''
	call	_atexit
	add	esp, 4
	pop	esi
	cmp	ebp, esp
	call	__RTC_CheckEsp
	pop	ebp
	ret	0
??__ETDL_TASKCREATIONDATESTRING@@YAXXZ ENDP		; `dynamic initializer for 'TDL_TASKCREATIONDATESTRING''
; Function compile flags: /Odtp /RTCsu
text$yc	ENDS
;	COMDAT ??__ETDL_TASKLASTMOD@@YAXXZ
text$yc	SEGMENT
??__ETDL_TASKLASTMOD@@YAXXZ PROC			; `dynamic initializer for 'TDL_TASKLASTMOD'', COMDAT

; 122  : static const CString TDL_TASKLASTMOD(_T("LASTMOD"));

	push	ebp
	mov	ebp, esp
	push	esi
	mov	esi, esp
	push	OFFSET $SG175510
	mov	ecx, OFFSET _TDL_TASKLASTMOD
	call	DWORD PTR __imp_??0?$CStringT@_WV?$StrTraitMFC_DLL@_WV?$ChTraitsCRT@_W@ATL@@@@@ATL@@QAE@PB_W@Z
	cmp	esi, esp
	call	__RTC_CheckEsp
	push	OFFSET ??__FTDL_TASKLASTMOD@@YAXXZ	; `dynamic atexit destructor for 'TDL_TASKLASTMOD''
	call	_atexit
	add	esp, 4
	pop	esi
	cmp	ebp, esp
	call	__RTC_CheckEsp
	pop	ebp
	ret	0
??__ETDL_TASKLASTMOD@@YAXXZ ENDP			; `dynamic initializer for 'TDL_TASKLASTMOD''
; Function compile flags: /Odtp /RTCsu
text$yc	ENDS
;	COMDAT ??__ETDL_TASKLASTMODSTRING@@YAXXZ
text$yc	SEGMENT
??__ETDL_TASKLASTMODSTRING@@YAXXZ PROC			; `dynamic initializer for 'TDL_TASKLASTMODSTRING'', COMDAT

; 123  : static const CString TDL_TASKLASTMODSTRING(_T("LASTMODSTRING"));

	push	ebp
	mov	ebp, esp
	push	esi
	mov	esi, esp
	push	OFFSET $SG175517
	mov	ecx, OFFSET _TDL_TASKLASTMODSTRING
	call	DWORD PTR __imp_??0?$CStringT@_WV?$StrTraitMFC_DLL@_WV?$ChTraitsCRT@_W@ATL@@@@@ATL@@QAE@PB_W@Z
	cmp	esi, esp
	call	__RTC_CheckEsp
	push	OFFSET ??__FTDL_TASKLASTMODSTRING@@YAXXZ ; `dynamic atexit destructor for 'TDL_TASKLASTMODSTRING''
	call	_atexit
	add	esp, 4
	pop	esi
	cmp	ebp, esp
	call	__RTC_CheckEsp
	pop	ebp
	ret	0
??__ETDL_TASKLASTMODSTRING@@YAXXZ ENDP			; `dynamic initializer for 'TDL_TASKLASTMODSTRING''
; Function compile flags: /Odtp /RTCsu
text$yc	ENDS
;	COMDAT ??__ETDL_TASKTEXTCOLOR@@YAXXZ
text$yc	SEGMENT
??__ETDL_TASKTEXTCOLOR@@YAXXZ PROC			; `dynamic initializer for 'TDL_TASKTEXTCOLOR'', COMDAT

; 126  : static const CString TDL_TASKTEXTCOLOR(_T("TEXTCOLOR"));		

	push	ebp
	mov	ebp, esp
	push	esi
	mov	esi, esp
	push	OFFSET $SG175524
	mov	ecx, OFFSET _TDL_TASKTEXTCOLOR
	call	DWORD PTR __imp_??0?$CStringT@_WV?$StrTraitMFC_DLL@_WV?$ChTraitsCRT@_W@ATL@@@@@ATL@@QAE@PB_W@Z
	cmp	esi, esp
	call	__RTC_CheckEsp
	push	OFFSET ??__FTDL_TASKTEXTCOLOR@@YAXXZ	; `dynamic atexit destructor for 'TDL_TASKTEXTCOLOR''
	call	_atexit
	add	esp, 4
	pop	esi
	cmp	ebp, esp
	call	__RTC_CheckEsp
	pop	ebp
	ret	0
??__ETDL_TASKTEXTCOLOR@@YAXXZ ENDP			; `dynamic initializer for 'TDL_TASKTEXTCOLOR''
; Function compile flags: /Odtp /RTCsu
text$yc	ENDS
;	COMDAT ??__ETDL_TASKBACKCOLOR@@YAXXZ
text$yc	SEGMENT
??__ETDL_TASKBACKCOLOR@@YAXXZ PROC			; `dynamic initializer for 'TDL_TASKBACKCOLOR'', COMDAT

; 127  : static const CString TDL_TASKBACKCOLOR(_T("BACKCOLOR"));		

	push	ebp
	mov	ebp, esp
	push	esi
	mov	esi, esp
	push	OFFSET $SG175531
	mov	ecx, OFFSET _TDL_TASKBACKCOLOR
	call	DWORD PTR __imp_??0?$CStringT@_WV?$StrTraitMFC_DLL@_WV?$ChTraitsCRT@_W@ATL@@@@@ATL@@QAE@PB_W@Z
	cmp	esi, esp
	call	__RTC_CheckEsp
	push	OFFSET ??__FTDL_TASKBACKCOLOR@@YAXXZ	; `dynamic atexit destructor for 'TDL_TASKBACKCOLOR''
	call	_atexit
	add	esp, 4
	pop	esi
	cmp	ebp, esp
	call	__RTC_CheckEsp
	pop	ebp
	ret	0
??__ETDL_TASKBACKCOLOR@@YAXXZ ENDP			; `dynamic initializer for 'TDL_TASKBACKCOLOR''
; Function compile flags: /Odtp /RTCsu
text$yc	ENDS
;	COMDAT ??__ETDL_TASKTEXTWEBCOLOR@@YAXXZ
text$yc	SEGMENT
??__ETDL_TASKTEXTWEBCOLOR@@YAXXZ PROC			; `dynamic initializer for 'TDL_TASKTEXTWEBCOLOR'', COMDAT

; 128  : static const CString TDL_TASKTEXTWEBCOLOR(_T("TEXTWEBCOLOR"));		

	push	ebp
	mov	ebp, esp
	push	esi
	mov	esi, esp
	push	OFFSET $SG175538
	mov	ecx, OFFSET _TDL_TASKTEXTWEBCOLOR
	call	DWORD PTR __imp_??0?$CStringT@_WV?$StrTraitMFC_DLL@_WV?$ChTraitsCRT@_W@ATL@@@@@ATL@@QAE@PB_W@Z
	cmp	esi, esp
	call	__RTC_CheckEsp
	push	OFFSET ??__FTDL_TASKTEXTWEBCOLOR@@YAXXZ	; `dynamic atexit destructor for 'TDL_TASKTEXTWEBCOLOR''
	call	_atexit
	add	esp, 4
	pop	esi
	cmp	ebp, esp
	call	__RTC_CheckEsp
	pop	ebp
	ret	0
??__ETDL_TASKTEXTWEBCOLOR@@YAXXZ ENDP			; `dynamic initializer for 'TDL_TASKTEXTWEBCOLOR''
; Function compile flags: /Odtp /RTCsu
text$yc	ENDS
;	COMDAT ??__ETDL_TASKBACKWEBCOLOR@@YAXXZ
text$yc	SEGMENT
??__ETDL_TASKBACKWEBCOLOR@@YAXXZ PROC			; `dynamic initializer for 'TDL_TASKBACKWEBCOLOR'', COMDAT

; 129  : static const CString TDL_TASKBACKWEBCOLOR(_T("BACKWEBCOLOR"));		

	push	ebp
	mov	ebp, esp
	push	esi
	mov	esi, esp
	push	OFFSET $SG175545
	mov	ecx, OFFSET _TDL_TASKBACKWEBCOLOR
	call	DWORD PTR __imp_??0?$CStringT@_WV?$StrTraitMFC_DLL@_WV?$ChTraitsCRT@_W@ATL@@@@@ATL@@QAE@PB_W@Z
	cmp	esi, esp
	call	__RTC_CheckEsp
	push	OFFSET ??__FTDL_TASKBACKWEBCOLOR@@YAXXZ	; `dynamic atexit destructor for 'TDL_TASKBACKWEBCOLOR''
	call	_atexit
	add	esp, 4
	pop	esi
	cmp	ebp, esp
	call	__RTC_CheckEsp
	pop	ebp
	ret	0
??__ETDL_TASKBACKWEBCOLOR@@YAXXZ ENDP			; `dynamic initializer for 'TDL_TASKBACKWEBCOLOR''
; Function compile flags: /Odtp /RTCsu
text$yc	ENDS
;	COMDAT ??__ETDL_TASKPRIORITYCOLOR@@YAXXZ
text$yc	SEGMENT
??__ETDL_TASKPRIORITYCOLOR@@YAXXZ PROC			; `dynamic initializer for 'TDL_TASKPRIORITYCOLOR'', COMDAT

; 130  : static const CString TDL_TASKPRIORITYCOLOR(_T("PRIORITYCOLOR"));		

	push	ebp
	mov	ebp, esp
	push	esi
	mov	esi, esp
	push	OFFSET $SG175552
	mov	ecx, OFFSET _TDL_TASKPRIORITYCOLOR
	call	DWORD PTR __imp_??0?$CStringT@_WV?$StrTraitMFC_DLL@_WV?$ChTraitsCRT@_W@ATL@@@@@ATL@@QAE@PB_W@Z
	cmp	esi, esp
	call	__RTC_CheckEsp
	push	OFFSET ??__FTDL_TASKPRIORITYCOLOR@@YAXXZ ; `dynamic atexit destructor for 'TDL_TASKPRIORITYCOLOR''
	call	_atexit
	add	esp, 4
	pop	esi
	cmp	ebp, esp
	call	__RTC_CheckEsp
	pop	ebp
	ret	0
??__ETDL_TASKPRIORITYCOLOR@@YAXXZ ENDP			; `dynamic initializer for 'TDL_TASKPRIORITYCOLOR''
; Function compile flags: /Odtp /RTCsu
text$yc	ENDS
;	COMDAT ??__ETDL_TASKPRIORITYWEBCOLOR@@YAXXZ
text$yc	SEGMENT
??__ETDL_TASKPRIORITYWEBCOLOR@@YAXXZ PROC		; `dynamic initializer for 'TDL_TASKPRIORITYWEBCOLOR'', COMDAT

; 131  : static const CString TDL_TASKPRIORITYWEBCOLOR(_T("PRIORITYWEBCOLOR"));		

	push	ebp
	mov	ebp, esp
	push	esi
	mov	esi, esp
	push	OFFSET $SG175559
	mov	ecx, OFFSET _TDL_TASKPRIORITYWEBCOLOR
	call	DWORD PTR __imp_??0?$CStringT@_WV?$StrTraitMFC_DLL@_WV?$ChTraitsCRT@_W@ATL@@@@@ATL@@QAE@PB_W@Z
	cmp	esi, esp
	call	__RTC_CheckEsp
	push	OFFSET ??__FTDL_TASKPRIORITYWEBCOLOR@@YAXXZ ; `dynamic atexit destructor for 'TDL_TASKPRIORITYWEBCOLOR''
	call	_atexit
	add	esp, 4
	pop	esi
	cmp	ebp, esp
	call	__RTC_CheckEsp
	pop	ebp
	ret	0
??__ETDL_TASKPRIORITYWEBCOLOR@@YAXXZ ENDP		; `dynamic initializer for 'TDL_TASKPRIORITYWEBCOLOR''
; Function compile flags: /Odtp /RTCsu
text$yc	ENDS
;	COMDAT ??__ETDL_TASKCALCTIMEESTIMATE@@YAXXZ
text$yc	SEGMENT
??__ETDL_TASKCALCTIMEESTIMATE@@YAXXZ PROC		; `dynamic initializer for 'TDL_TASKCALCTIMEESTIMATE'', COMDAT

; 132  : static const CString TDL_TASKCALCTIMEESTIMATE(_T("CALCTIMEESTIMATE"));		

	push	ebp
	mov	ebp, esp
	push	esi
	mov	esi, esp
	push	OFFSET $SG175566
	mov	ecx, OFFSET _TDL_TASKCALCTIMEESTIMATE
	call	DWORD PTR __imp_??0?$CStringT@_WV?$StrTraitMFC_DLL@_WV?$ChTraitsCRT@_W@ATL@@@@@ATL@@QAE@PB_W@Z
	cmp	esi, esp
	call	__RTC_CheckEsp
	push	OFFSET ??__FTDL_TASKCALCTIMEESTIMATE@@YAXXZ ; `dynamic atexit destructor for 'TDL_TASKCALCTIMEESTIMATE''
	call	_atexit
	add	esp, 4
	pop	esi
	cmp	ebp, esp
	call	__RTC_CheckEsp
	pop	ebp
	ret	0
??__ETDL_TASKCALCTIMEESTIMATE@@YAXXZ ENDP		; `dynamic initializer for 'TDL_TASKCALCTIMEESTIMATE''
; Function compile flags: /Odtp /RTCsu
text$yc	ENDS
;	COMDAT ??__ETDL_TASKCALCTIMEESTUNITS@@YAXXZ
text$yc	SEGMENT
??__ETDL_TASKCALCTIMEESTUNITS@@YAXXZ PROC		; `dynamic initializer for 'TDL_TASKCALCTIMEESTUNITS'', COMDAT

; 133  : static const CString TDL_TASKCALCTIMEESTUNITS(_T("CALCTIMEESTUNITS"));		

	push	ebp
	mov	ebp, esp
	push	esi
	mov	esi, esp
	push	OFFSET $SG175573
	mov	ecx, OFFSET _TDL_TASKCALCTIMEESTUNITS
	call	DWORD PTR __imp_??0?$CStringT@_WV?$StrTraitMFC_DLL@_WV?$ChTraitsCRT@_W@ATL@@@@@ATL@@QAE@PB_W@Z
	cmp	esi, esp
	call	__RTC_CheckEsp
	push	OFFSET ??__FTDL_TASKCALCTIMEESTUNITS@@YAXXZ ; `dynamic atexit destructor for 'TDL_TASKCALCTIMEESTUNITS''
	call	_atexit
	add	esp, 4
	pop	esi
	cmp	ebp, esp
	call	__RTC_CheckEsp
	pop	ebp
	ret	0
??__ETDL_TASKCALCTIMEESTUNITS@@YAXXZ ENDP		; `dynamic initializer for 'TDL_TASKCALCTIMEESTUNITS''
; Function compile flags: /Odtp /RTCsu
text$yc	ENDS
;	COMDAT ??__ETDL_TASKCALCTIMESPENT@@YAXXZ
text$yc	SEGMENT
??__ETDL_TASKCALCTIMESPENT@@YAXXZ PROC			; `dynamic initializer for 'TDL_TASKCALCTIMESPENT'', COMDAT

; 134  : static const CString TDL_TASKCALCTIMESPENT(_T("CALCTIMESPENT"));		

	push	ebp
	mov	ebp, esp
	push	esi
	mov	esi, esp
	push	OFFSET $SG175580
	mov	ecx, OFFSET _TDL_TASKCALCTIMESPENT
	call	DWORD PTR __imp_??0?$CStringT@_WV?$StrTraitMFC_DLL@_WV?$ChTraitsCRT@_W@ATL@@@@@ATL@@QAE@PB_W@Z
	cmp	esi, esp
	call	__RTC_CheckEsp
	push	OFFSET ??__FTDL_TASKCALCTIMESPENT@@YAXXZ ; `dynamic atexit destructor for 'TDL_TASKCALCTIMESPENT''
	call	_atexit
	add	esp, 4
	pop	esi
	cmp	ebp, esp
	call	__RTC_CheckEsp
	pop	ebp
	ret	0
??__ETDL_TASKCALCTIMESPENT@@YAXXZ ENDP			; `dynamic initializer for 'TDL_TASKCALCTIMESPENT''
; Function compile flags: /Odtp /RTCsu
text$yc	ENDS
;	COMDAT ??__ETDL_TASKCALCTIMESPENTUNITS@@YAXXZ
text$yc	SEGMENT
??__ETDL_TASKCALCTIMESPENTUNITS@@YAXXZ PROC		; `dynamic initializer for 'TDL_TASKCALCTIMESPENTUNITS'', COMDAT

; 135  : static const CString TDL_TASKCALCTIMESPENTUNITS(_T("CALCTIMESPENTUNITS"));		

	push	ebp
	mov	ebp, esp
	push	esi
	mov	esi, esp
	push	OFFSET $SG175587
	mov	ecx, OFFSET _TDL_TASKCALCTIMESPENTUNITS
	call	DWORD PTR __imp_??0?$CStringT@_WV?$StrTraitMFC_DLL@_WV?$ChTraitsCRT@_W@ATL@@@@@ATL@@QAE@PB_W@Z
	cmp	esi, esp
	call	__RTC_CheckEsp
	push	OFFSET ??__FTDL_TASKCALCTIMESPENTUNITS@@YAXXZ ; `dynamic atexit destructor for 'TDL_TASKCALCTIMESPENTUNITS''
	call	_atexit
	add	esp, 4
	pop	esi
	cmp	ebp, esp
	call	__RTC_CheckEsp
	pop	ebp
	ret	0
??__ETDL_TASKCALCTIMESPENTUNITS@@YAXXZ ENDP		; `dynamic initializer for 'TDL_TASKCALCTIMESPENTUNITS''
; Function compile flags: /Odtp /RTCsu
text$yc	ENDS
;	COMDAT ??__ETDL_TASKCALCSTARTDATE@@YAXXZ
text$yc	SEGMENT
??__ETDL_TASKCALCSTARTDATE@@YAXXZ PROC			; `dynamic initializer for 'TDL_TASKCALCSTARTDATE'', COMDAT

; 136  : static const CString TDL_TASKCALCSTARTDATE(_T("CALCSTARTDATE"));		

	push	ebp
	mov	ebp, esp
	push	esi
	mov	esi, esp
	push	OFFSET $SG175594
	mov	ecx, OFFSET _TDL_TASKCALCSTARTDATE
	call	DWORD PTR __imp_??0?$CStringT@_WV?$StrTraitMFC_DLL@_WV?$ChTraitsCRT@_W@ATL@@@@@ATL@@QAE@PB_W@Z
	cmp	esi, esp
	call	__RTC_CheckEsp
	push	OFFSET ??__FTDL_TASKCALCSTARTDATE@@YAXXZ ; `dynamic atexit destructor for 'TDL_TASKCALCSTARTDATE''
	call	_atexit
	add	esp, 4
	pop	esi
	cmp	ebp, esp
	call	__RTC_CheckEsp
	pop	ebp
	ret	0
??__ETDL_TASKCALCSTARTDATE@@YAXXZ ENDP			; `dynamic initializer for 'TDL_TASKCALCSTARTDATE''
; Function compile flags: /Odtp /RTCsu
text$yc	ENDS
;	COMDAT ??__ETDL_TASKCALCSTARTDATESTRING@@YAXXZ
text$yc	SEGMENT
??__ETDL_TASKCALCSTARTDATESTRING@@YAXXZ PROC		; `dynamic initializer for 'TDL_TASKCALCSTARTDATESTRING'', COMDAT

; 137  : static const CString TDL_TASKCALCSTARTDATESTRING(_T("CALCSTARTDATESTRING"));		

	push	ebp
	mov	ebp, esp
	push	esi
	mov	esi, esp
	push	OFFSET $SG175601
	mov	ecx, OFFSET _TDL_TASKCALCSTARTDATESTRING
	call	DWORD PTR __imp_??0?$CStringT@_WV?$StrTraitMFC_DLL@_WV?$ChTraitsCRT@_W@ATL@@@@@ATL@@QAE@PB_W@Z
	cmp	esi, esp
	call	__RTC_CheckEsp
	push	OFFSET ??__FTDL_TASKCALCSTARTDATESTRING@@YAXXZ ; `dynamic atexit destructor for 'TDL_TASKCALCSTARTDATESTRING''
	call	_atexit
	add	esp, 4
	pop	esi
	cmp	ebp, esp
	call	__RTC_CheckEsp
	pop	ebp
	ret	0
??__ETDL_TASKCALCSTARTDATESTRING@@YAXXZ ENDP		; `dynamic initializer for 'TDL_TASKCALCSTARTDATESTRING''
; Function compile flags: /Odtp /RTCsu
text$yc	ENDS
;	COMDAT ??__ETDL_TASKCALCDUEDATE@@YAXXZ
text$yc	SEGMENT
??__ETDL_TASKCALCDUEDATE@@YAXXZ PROC			; `dynamic initializer for 'TDL_TASKCALCDUEDATE'', COMDAT

; 138  : static const CString TDL_TASKCALCDUEDATE(_T("CALCDUEDATE"));		

	push	ebp
	mov	ebp, esp
	push	esi
	mov	esi, esp
	push	OFFSET $SG175608
	mov	ecx, OFFSET _TDL_TASKCALCDUEDATE
	call	DWORD PTR __imp_??0?$CStringT@_WV?$StrTraitMFC_DLL@_WV?$ChTraitsCRT@_W@ATL@@@@@ATL@@QAE@PB_W@Z
	cmp	esi, esp
	call	__RTC_CheckEsp
	push	OFFSET ??__FTDL_TASKCALCDUEDATE@@YAXXZ	; `dynamic atexit destructor for 'TDL_TASKCALCDUEDATE''
	call	_atexit
	add	esp, 4
	pop	esi
	cmp	ebp, esp
	call	__RTC_CheckEsp
	pop	ebp
	ret	0
??__ETDL_TASKCALCDUEDATE@@YAXXZ ENDP			; `dynamic initializer for 'TDL_TASKCALCDUEDATE''
; Function compile flags: /Odtp /RTCsu
text$yc	ENDS
;	COMDAT ??__ETDL_TASKCALCDUEDATESTRING@@YAXXZ
text$yc	SEGMENT
??__ETDL_TASKCALCDUEDATESTRING@@YAXXZ PROC		; `dynamic initializer for 'TDL_TASKCALCDUEDATESTRING'', COMDAT

; 139  : static const CString TDL_TASKCALCDUEDATESTRING(_T("CALCDUEDATESTRING"));		

	push	ebp
	mov	ebp, esp
	push	esi
	mov	esi, esp
	push	OFFSET $SG175615
	mov	ecx, OFFSET _TDL_TASKCALCDUEDATESTRING
	call	DWORD PTR __imp_??0?$CStringT@_WV?$StrTraitMFC_DLL@_WV?$ChTraitsCRT@_W@ATL@@@@@ATL@@QAE@PB_W@Z
	cmp	esi, esp
	call	__RTC_CheckEsp
	push	OFFSET ??__FTDL_TASKCALCDUEDATESTRING@@YAXXZ ; `dynamic atexit destructor for 'TDL_TASKCALCDUEDATESTRING''
	call	_atexit
	add	esp, 4
	pop	esi
	cmp	ebp, esp
	call	__RTC_CheckEsp
	pop	ebp
	ret	0
??__ETDL_TASKCALCDUEDATESTRING@@YAXXZ ENDP		; `dynamic initializer for 'TDL_TASKCALCDUEDATESTRING''
; Function compile flags: /Odtp /RTCsu
text$yc	ENDS
;	COMDAT ??__ETDL_TASKCALCCOMPLETION@@YAXXZ
text$yc	SEGMENT
??__ETDL_TASKCALCCOMPLETION@@YAXXZ PROC			; `dynamic initializer for 'TDL_TASKCALCCOMPLETION'', COMDAT

; 140  : static const CString TDL_TASKCALCCOMPLETION(_T("CALCPERCENTDONE"));		

	push	ebp
	mov	ebp, esp
	push	esi
	mov	esi, esp
	push	OFFSET $SG175622
	mov	ecx, OFFSET _TDL_TASKCALCCOMPLETION
	call	DWORD PTR __imp_??0?$CStringT@_WV?$StrTraitMFC_DLL@_WV?$ChTraitsCRT@_W@ATL@@@@@ATL@@QAE@PB_W@Z
	cmp	esi, esp
	call	__RTC_CheckEsp
	push	OFFSET ??__FTDL_TASKCALCCOMPLETION@@YAXXZ ; `dynamic atexit destructor for 'TDL_TASKCALCCOMPLETION''
	call	_atexit
	add	esp, 4
	pop	esi
	cmp	ebp, esp
	call	__RTC_CheckEsp
	pop	ebp
	ret	0
??__ETDL_TASKCALCCOMPLETION@@YAXXZ ENDP			; `dynamic initializer for 'TDL_TASKCALCCOMPLETION''
; Function compile flags: /Odtp /RTCsu
text$yc	ENDS
;	COMDAT ??__ETDL_TASKHIGHESTPRIORITY@@YAXXZ
text$yc	SEGMENT
??__ETDL_TASKHIGHESTPRIORITY@@YAXXZ PROC		; `dynamic initializer for 'TDL_TASKHIGHESTPRIORITY'', COMDAT

; 141  : static const CString TDL_TASKHIGHESTPRIORITY(_T("HIGHESTPRIORITY"));		

	push	ebp
	mov	ebp, esp
	push	esi
	mov	esi, esp
	push	OFFSET $SG175629
	mov	ecx, OFFSET _TDL_TASKHIGHESTPRIORITY
	call	DWORD PTR __imp_??0?$CStringT@_WV?$StrTraitMFC_DLL@_WV?$ChTraitsCRT@_W@ATL@@@@@ATL@@QAE@PB_W@Z
	cmp	esi, esp
	call	__RTC_CheckEsp
	push	OFFSET ??__FTDL_TASKHIGHESTPRIORITY@@YAXXZ ; `dynamic atexit destructor for 'TDL_TASKHIGHESTPRIORITY''
	call	_atexit
	add	esp, 4
	pop	esi
	cmp	ebp, esp
	call	__RTC_CheckEsp
	pop	ebp
	ret	0
??__ETDL_TASKHIGHESTPRIORITY@@YAXXZ ENDP		; `dynamic initializer for 'TDL_TASKHIGHESTPRIORITY''
; Function compile flags: /Odtp /RTCsu
text$yc	ENDS
;	COMDAT ??__ETDL_TASKHIGHESTRISK@@YAXXZ
text$yc	SEGMENT
??__ETDL_TASKHIGHESTRISK@@YAXXZ PROC			; `dynamic initializer for 'TDL_TASKHIGHESTRISK'', COMDAT

; 142  : static const CString TDL_TASKHIGHESTRISK(_T("HIGHESTRISK"));		

	push	ebp
	mov	ebp, esp
	push	esi
	mov	esi, esp
	push	OFFSET $SG175636
	mov	ecx, OFFSET _TDL_TASKHIGHESTRISK
	call	DWORD PTR __imp_??0?$CStringT@_WV?$StrTraitMFC_DLL@_WV?$ChTraitsCRT@_W@ATL@@@@@ATL@@QAE@PB_W@Z
	cmp	esi, esp
	call	__RTC_CheckEsp
	push	OFFSET ??__FTDL_TASKHIGHESTRISK@@YAXXZ	; `dynamic atexit destructor for 'TDL_TASKHIGHESTRISK''
	call	_atexit
	add	esp, 4
	pop	esi
	cmp	ebp, esp
	call	__RTC_CheckEsp
	pop	ebp
	ret	0
??__ETDL_TASKHIGHESTRISK@@YAXXZ ENDP			; `dynamic initializer for 'TDL_TASKHIGHESTRISK''
; Function compile flags: /Odtp /RTCsu
text$yc	ENDS
;	COMDAT ??__ETDL_TASKCALCCOST@@YAXXZ
text$yc	SEGMENT
??__ETDL_TASKCALCCOST@@YAXXZ PROC			; `dynamic initializer for 'TDL_TASKCALCCOST'', COMDAT

; 143  : static const CString TDL_TASKCALCCOST(_T("CALCCOST"));		

	push	ebp
	mov	ebp, esp
	push	esi
	mov	esi, esp
	push	OFFSET $SG175643
	mov	ecx, OFFSET _TDL_TASKCALCCOST
	call	DWORD PTR __imp_??0?$CStringT@_WV?$StrTraitMFC_DLL@_WV?$ChTraitsCRT@_W@ATL@@@@@ATL@@QAE@PB_W@Z
	cmp	esi, esp
	call	__RTC_CheckEsp
	push	OFFSET ??__FTDL_TASKCALCCOST@@YAXXZ	; `dynamic atexit destructor for 'TDL_TASKCALCCOST''
	call	_atexit
	add	esp, 4
	pop	esi
	cmp	ebp, esp
	call	__RTC_CheckEsp
	pop	ebp
	ret	0
??__ETDL_TASKCALCCOST@@YAXXZ ENDP			; `dynamic initializer for 'TDL_TASKCALCCOST''
; Function compile flags: /Odtp /RTCsu
text$yc	ENDS
;	COMDAT ??__ETDL_TASKPATH@@YAXXZ
text$yc	SEGMENT
??__ETDL_TASKPATH@@YAXXZ PROC				; `dynamic initializer for 'TDL_TASKPATH'', COMDAT

; 144  : static const CString TDL_TASKPATH(_T("PATH"));		

	push	ebp
	mov	ebp, esp
	push	esi
	mov	esi, esp
	push	OFFSET $SG175650
	mov	ecx, OFFSET _TDL_TASKPATH
	call	DWORD PTR __imp_??0?$CStringT@_WV?$StrTraitMFC_DLL@_WV?$ChTraitsCRT@_W@ATL@@@@@ATL@@QAE@PB_W@Z
	cmp	esi, esp
	call	__RTC_CheckEsp
	push	OFFSET ??__FTDL_TASKPATH@@YAXXZ		; `dynamic atexit destructor for 'TDL_TASKPATH''
	call	_atexit
	add	esp, 4
	pop	esi
	cmp	ebp, esp
	call	__RTC_CheckEsp
	pop	ebp
	ret	0
??__ETDL_TASKPATH@@YAXXZ ENDP				; `dynamic initializer for 'TDL_TASKPATH''
; Function compile flags: /Odtp /RTCsu
text$yc	ENDS
;	COMDAT ??__ETDL_TASKISPARENT@@YAXXZ
text$yc	SEGMENT
??__ETDL_TASKISPARENT@@YAXXZ PROC			; `dynamic initializer for 'TDL_TASKISPARENT'', COMDAT

; 145  : static const CString TDL_TASKISPARENT(_T("ISPARENT"));		

	push	ebp
	mov	ebp, esp
	push	esi
	mov	esi, esp
	push	OFFSET $SG175657
	mov	ecx, OFFSET _TDL_TASKISPARENT
	call	DWORD PTR __imp_??0?$CStringT@_WV?$StrTraitMFC_DLL@_WV?$ChTraitsCRT@_W@ATL@@@@@ATL@@QAE@PB_W@Z
	cmp	esi, esp
	call	__RTC_CheckEsp
	push	OFFSET ??__FTDL_TASKISPARENT@@YAXXZ	; `dynamic atexit destructor for 'TDL_TASKISPARENT''
	call	_atexit
	add	esp, 4
	pop	esi
	cmp	ebp, esp
	call	__RTC_CheckEsp
	pop	ebp
	ret	0
??__ETDL_TASKISPARENT@@YAXXZ ENDP			; `dynamic initializer for 'TDL_TASKISPARENT''
text$yc	ENDS
EXTRN	__imp__RegisterClipboardFormatW@4:PROC
; Function compile flags: /Odtp /RTCsu
; File d:\_code\shared\clipboard.h
;	COMDAT ??__ECBF_HTML@@YAXXZ
text$yc	SEGMENT
??__ECBF_HTML@@YAXXZ PROC				; `dynamic initializer for 'CBF_HTML'', COMDAT

; 42   : static UINT CBF_HTML		= ::RegisterClipboardFormat(_T("HTML Format"));

	push	ebp
	mov	ebp, esp
	push	esi
	mov	esi, esp
	push	OFFSET $SG178251
	call	DWORD PTR __imp__RegisterClipboardFormatW@4
	cmp	esi, esp
	call	__RTC_CheckEsp
	mov	DWORD PTR _CBF_HTML, eax
	pop	esi
	cmp	ebp, esp
	call	__RTC_CheckEsp
	pop	ebp
	ret	0
??__ECBF_HTML@@YAXXZ ENDP				; `dynamic initializer for 'CBF_HTML''
; Function compile flags: /Odtp /RTCsu
text$yc	ENDS
;	COMDAT ??__ECBF_MSURL@@YAXXZ
text$yc	SEGMENT
??__ECBF_MSURL@@YAXXZ PROC				; `dynamic initializer for 'CBF_MSURL'', COMDAT

; 43   : static UINT CBF_MSURL		= ::RegisterClipboardFormat(_T("msSourceUrl"));

	push	ebp
	mov	ebp, esp
	push	esi
	mov	esi, esp
	push	OFFSET $SG178256
	call	DWORD PTR __imp__RegisterClipboardFormatW@4
	cmp	esi, esp
	call	__RTC_CheckEsp
	mov	DWORD PTR _CBF_MSURL, eax
	pop	esi
	cmp	ebp, esp
	call	__RTC_CheckEsp
	pop	ebp
	ret	0
??__ECBF_MSURL@@YAXXZ ENDP				; `dynamic initializer for 'CBF_MSURL''
; Function compile flags: /Odtp /RTCsu
text$yc	ENDS
;	COMDAT ??__ECBF_RTF@@YAXXZ
text$yc	SEGMENT
??__ECBF_RTF@@YAXXZ PROC				; `dynamic initializer for 'CBF_RTF'', COMDAT

; 44   : static UINT CBF_RTF			= ::RegisterClipboardFormat(CF_RTF);

	push	ebp
	mov	ebp, esp
	push	esi
	mov	esi, esp
	push	OFFSET $SG178261
	call	DWORD PTR __imp__RegisterClipboardFormatW@4
	cmp	esi, esp
	call	__RTC_CheckEsp
	mov	DWORD PTR _CBF_RTF, eax
	pop	esi
	cmp	ebp, esp
	call	__RTC_CheckEsp
	pop	ebp
	ret	0
??__ECBF_RTF@@YAXXZ ENDP				; `dynamic initializer for 'CBF_RTF''
; Function compile flags: /Odtp /RTCsu
text$yc	ENDS
;	COMDAT ??__ECBF_RETEXTOBJ@@YAXXZ
text$yc	SEGMENT
??__ECBF_RETEXTOBJ@@YAXXZ PROC				; `dynamic initializer for 'CBF_RETEXTOBJ'', COMDAT

; 45   : static UINT CBF_RETEXTOBJ	= ::RegisterClipboardFormat(CF_RETEXTOBJ);

	push	ebp
	mov	ebp, esp
	push	esi
	mov	esi, esp
	push	OFFSET $SG178266
	call	DWORD PTR __imp__RegisterClipboardFormatW@4
	cmp	esi, esp
	call	__RTC_CheckEsp
	mov	DWORD PTR _CBF_RETEXTOBJ, eax
	pop	esi
	cmp	ebp, esp
	call	__RTC_CheckEsp
	pop	ebp
	ret	0
??__ECBF_RETEXTOBJ@@YAXXZ ENDP				; `dynamic initializer for 'CBF_RETEXTOBJ''
; Function compile flags: /Odtp /RTCsu
text$yc	ENDS
;	COMDAT ??__ECBF_EMBEDDEDOBJ@@YAXXZ
text$yc	SEGMENT
??__ECBF_EMBEDDEDOBJ@@YAXXZ PROC			; `dynamic initializer for 'CBF_EMBEDDEDOBJ'', COMDAT

; 46   : static UINT CBF_EMBEDDEDOBJ	= ::RegisterClipboardFormat(_T("Embedded Object"));

	push	ebp
	mov	ebp, esp
	push	esi
	mov	esi, esp
	push	OFFSET $SG178271
	call	DWORD PTR __imp__RegisterClipboardFormatW@4
	cmp	esi, esp
	call	__RTC_CheckEsp
	mov	DWORD PTR _CBF_EMBEDDEDOBJ, eax
	pop	esi
	cmp	ebp, esp
	call	__RTC_CheckEsp
	pop	ebp
	ret	0
??__ECBF_EMBEDDEDOBJ@@YAXXZ ENDP			; `dynamic initializer for 'CBF_EMBEDDEDOBJ''
; Function compile flags: /Odtp /RTCsu
text$yc	ENDS
;	COMDAT ??__ECBF_FILENAME@@YAXXZ
text$yc	SEGMENT
??__ECBF_FILENAME@@YAXXZ PROC				; `dynamic initializer for 'CBF_FILENAME'', COMDAT

; 54   : static UINT CBF_FILENAME	= ::RegisterClipboardFormat(CFSTR_FILENAME2);

	push	ebp
	mov	ebp, esp
	push	esi
	mov	esi, esp
	push	OFFSET $SG178276
	call	DWORD PTR __imp__RegisterClipboardFormatW@4
	cmp	esi, esp
	call	__RTC_CheckEsp
	mov	DWORD PTR _CBF_FILENAME, eax
	pop	esi
	cmp	ebp, esp
	call	__RTC_CheckEsp
	pop	ebp
	ret	0
??__ECBF_FILENAME@@YAXXZ ENDP				; `dynamic initializer for 'CBF_FILENAME''
; Function compile flags: /Odtp /RTCsu
; File d:\_code\rtfcontentctrl\rtfcontentcontrol.cpp
text$yc	ENDS
;	COMDAT ??__EPASTE_FMTS@@YAXXZ
text$yc	SEGMENT
??__EPASTE_FMTS@@YAXXZ PROC				; `dynamic initializer for 'PASTE_FMTS'', COMDAT

; 46   : 	CBF_RTF,

	push	ebp
	mov	ebp, esp
	mov	eax, DWORD PTR _CBF_RTF
	mov	DWORD PTR _PASTE_FMTS, eax

; 47   : 	CBF_RETEXTOBJ, 

	mov	ecx, DWORD PTR _CBF_RETEXTOBJ
	mov	DWORD PTR _PASTE_FMTS+4, ecx

; 48   : 	CBF_EMBEDDEDOBJ,

	mov	edx, DWORD PTR _CBF_EMBEDDEDOBJ
	mov	DWORD PTR _PASTE_FMTS+8, edx

; 49   : 	CF_BITMAP,

	mov	DWORD PTR _PASTE_FMTS+12, 2

; 50   : 		
; 51   : #ifndef _UNICODE
; 52   : 	CF_TEXT,
; 53   : #else
; 54   : 	CF_UNICODETEXT,

	mov	DWORD PTR _PASTE_FMTS+16, 13		; 0000000dH

; 55   : #endif
; 56   : 	CF_DIB,

	mov	DWORD PTR _PASTE_FMTS+20, 8

; 57   : 	CF_HDROP,

	mov	DWORD PTR _PASTE_FMTS+24, 15		; 0000000fH

; 58   : 	CBF_HTML
; 59   : };

	mov	eax, DWORD PTR _CBF_HTML
	mov	DWORD PTR _PASTE_FMTS+28, eax
	pop	ebp
	ret	0
??__EPASTE_FMTS@@YAXXZ ENDP				; `dynamic initializer for 'PASTE_FMTS''
; Function compile flags: /Odtp /RTCsu
text$yc	ENDS
;	COMDAT ??__FTDL_ROOT@@YAXXZ
text$yd	SEGMENT
??__FTDL_ROOT@@YAXXZ PROC				; `dynamic atexit destructor for 'TDL_ROOT'', COMDAT
	push	ebp
	mov	ebp, esp
	push	esi
	mov	esi, esp
	mov	ecx, OFFSET _TDL_ROOT
	call	DWORD PTR __imp_??1?$CStringT@_WV?$StrTraitMFC_DLL@_WV?$ChTraitsCRT@_W@ATL@@@@@ATL@@QAE@XZ
	cmp	esi, esp
	call	__RTC_CheckEsp
	pop	esi
	cmp	ebp, esp
	call	__RTC_CheckEsp
	pop	ebp
	ret	0
??__FTDL_ROOT@@YAXXZ ENDP				; `dynamic atexit destructor for 'TDL_ROOT''
; Function compile flags: /Odtp /RTCsu
text$yd	ENDS
;	COMDAT ??__FTDL_CHARSET@@YAXXZ
text$yd	SEGMENT
??__FTDL_CHARSET@@YAXXZ PROC				; `dynamic atexit destructor for 'TDL_CHARSET'', COMDAT
	push	ebp
	mov	ebp, esp
	push	esi
	mov	esi, esp
	mov	ecx, OFFSET _TDL_CHARSET
	call	DWORD PTR __imp_??1?$CStringT@_WV?$StrTraitMFC_DLL@_WV?$ChTraitsCRT@_W@ATL@@@@@ATL@@QAE@XZ
	cmp	esi, esp
	call	__RTC_CheckEsp
	pop	esi
	cmp	ebp, esp
	call	__RTC_CheckEsp
	pop	ebp
	ret	0
??__FTDL_CHARSET@@YAXXZ ENDP				; `dynamic atexit destructor for 'TDL_CHARSET''
; Function compile flags: /Odtp /RTCsu
text$yd	ENDS
;	COMDAT ??__FTDL_APPVER@@YAXXZ
text$yd	SEGMENT
??__FTDL_APPVER@@YAXXZ PROC				; `dynamic atexit destructor for 'TDL_APPVER'', COMDAT
	push	ebp
	mov	ebp, esp
	push	esi
	mov	esi, esp
	mov	ecx, OFFSET _TDL_APPVER
	call	DWORD PTR __imp_??1?$CStringT@_WV?$StrTraitMFC_DLL@_WV?$ChTraitsCRT@_W@ATL@@@@@ATL@@QAE@XZ
	cmp	esi, esp
	call	__RTC_CheckEsp
	pop	esi
	cmp	ebp, esp
	call	__RTC_CheckEsp
	pop	ebp
	ret	0
??__FTDL_APPVER@@YAXXZ ENDP				; `dynamic atexit destructor for 'TDL_APPVER''
; Function compile flags: /Odtp /RTCsu
text$yd	ENDS
;	COMDAT ??__FTDL_PROJECTNAME@@YAXXZ
text$yd	SEGMENT
??__FTDL_PROJECTNAME@@YAXXZ PROC			; `dynamic atexit destructor for 'TDL_PROJECTNAME'', COMDAT
	push	ebp
	mov	ebp, esp
	push	esi
	mov	esi, esp
	mov	ecx, OFFSET _TDL_PROJECTNAME
	call	DWORD PTR __imp_??1?$CStringT@_WV?$StrTraitMFC_DLL@_WV?$ChTraitsCRT@_W@ATL@@@@@ATL@@QAE@XZ
	cmp	esi, esp
	call	__RTC_CheckEsp
	pop	esi
	cmp	ebp, esp
	call	__RTC_CheckEsp
	pop	ebp
	ret	0
??__FTDL_PROJECTNAME@@YAXXZ ENDP			; `dynamic atexit destructor for 'TDL_PROJECTNAME''
; Function compile flags: /Odtp /RTCsu
text$yd	ENDS
;	COMDAT ??__FTDL_LASTSORTBY@@YAXXZ
text$yd	SEGMENT
??__FTDL_LASTSORTBY@@YAXXZ PROC				; `dynamic atexit destructor for 'TDL_LASTSORTBY'', COMDAT
	push	ebp
	mov	ebp, esp
	push	esi
	mov	esi, esp
	mov	ecx, OFFSET _TDL_LASTSORTBY
	call	DWORD PTR __imp_??1?$CStringT@_WV?$StrTraitMFC_DLL@_WV?$ChTraitsCRT@_W@ATL@@@@@ATL@@QAE@XZ
	cmp	esi, esp
	call	__RTC_CheckEsp
	pop	esi
	cmp	ebp, esp
	call	__RTC_CheckEsp
	pop	ebp
	ret	0
??__FTDL_LASTSORTBY@@YAXXZ ENDP				; `dynamic atexit destructor for 'TDL_LASTSORTBY''
; Function compile flags: /Odtp /RTCsu
text$yd	ENDS
;	COMDAT ??__FTDL_LASTSORTDIR@@YAXXZ
text$yd	SEGMENT
??__FTDL_LASTSORTDIR@@YAXXZ PROC			; `dynamic atexit destructor for 'TDL_LASTSORTDIR'', COMDAT
	push	ebp
	mov	ebp, esp
	push	esi
	mov	esi, esp
	mov	ecx, OFFSET _TDL_LASTSORTDIR
	call	DWORD PTR __imp_??1?$CStringT@_WV?$StrTraitMFC_DLL@_WV?$ChTraitsCRT@_W@ATL@@@@@ATL@@QAE@XZ
	cmp	esi, esp
	call	__RTC_CheckEsp
	pop	esi
	cmp	ebp, esp
	call	__RTC_CheckEsp
	pop	ebp
	ret	0
??__FTDL_LASTSORTDIR@@YAXXZ ENDP			; `dynamic atexit destructor for 'TDL_LASTSORTDIR''
; Function compile flags: /Odtp /RTCsu
text$yd	ENDS
;	COMDAT ??__FTDL_NEXTUNIQUEID@@YAXXZ
text$yd	SEGMENT
??__FTDL_NEXTUNIQUEID@@YAXXZ PROC			; `dynamic atexit destructor for 'TDL_NEXTUNIQUEID'', COMDAT
	push	ebp
	mov	ebp, esp
	push	esi
	mov	esi, esp
	mov	ecx, OFFSET _TDL_NEXTUNIQUEID
	call	DWORD PTR __imp_??1?$CStringT@_WV?$StrTraitMFC_DLL@_WV?$ChTraitsCRT@_W@ATL@@@@@ATL@@QAE@XZ
	cmp	esi, esp
	call	__RTC_CheckEsp
	pop	esi
	cmp	ebp, esp
	call	__RTC_CheckEsp
	pop	ebp
	ret	0
??__FTDL_NEXTUNIQUEID@@YAXXZ ENDP			; `dynamic atexit destructor for 'TDL_NEXTUNIQUEID''
; Function compile flags: /Odtp /RTCsu
text$yd	ENDS
;	COMDAT ??__FTDL_ARCHIVE@@YAXXZ
text$yd	SEGMENT
??__FTDL_ARCHIVE@@YAXXZ PROC				; `dynamic atexit destructor for 'TDL_ARCHIVE'', COMDAT
	push	ebp
	mov	ebp, esp
	push	esi
	mov	esi, esp
	mov	ecx, OFFSET _TDL_ARCHIVE
	call	DWORD PTR __imp_??1?$CStringT@_WV?$StrTraitMFC_DLL@_WV?$ChTraitsCRT@_W@ATL@@@@@ATL@@QAE@XZ
	cmp	esi, esp
	call	__RTC_CheckEsp
	pop	esi
	cmp	ebp, esp
	call	__RTC_CheckEsp
	pop	ebp
	ret	0
??__FTDL_ARCHIVE@@YAXXZ ENDP				; `dynamic atexit destructor for 'TDL_ARCHIVE''
; Function compile flags: /Odtp /RTCsu
text$yd	ENDS
;	COMDAT ??__FTDL_FILEFORMAT@@YAXXZ
text$yd	SEGMENT
??__FTDL_FILEFORMAT@@YAXXZ PROC				; `dynamic atexit destructor for 'TDL_FILEFORMAT'', COMDAT
	push	ebp
	mov	ebp, esp
	push	esi
	mov	esi, esp
	mov	ecx, OFFSET _TDL_FILEFORMAT
	call	DWORD PTR __imp_??1?$CStringT@_WV?$StrTraitMFC_DLL@_WV?$ChTraitsCRT@_W@ATL@@@@@ATL@@QAE@XZ
	cmp	esi, esp
	call	__RTC_CheckEsp
	pop	esi
	cmp	ebp, esp
	call	__RTC_CheckEsp
	pop	ebp
	ret	0
??__FTDL_FILEFORMAT@@YAXXZ ENDP				; `dynamic atexit destructor for 'TDL_FILEFORMAT''
; Function compile flags: /Odtp /RTCsu
text$yd	ENDS
;	COMDAT ??__FTDL_FILEVERSION@@YAXXZ
text$yd	SEGMENT
??__FTDL_FILEVERSION@@YAXXZ PROC			; `dynamic atexit destructor for 'TDL_FILEVERSION'', COMDAT
	push	ebp
	mov	ebp, esp
	push	esi
	mov	esi, esp
	mov	ecx, OFFSET _TDL_FILEVERSION
	call	DWORD PTR __imp_??1?$CStringT@_WV?$StrTraitMFC_DLL@_WV?$ChTraitsCRT@_W@ATL@@@@@ATL@@QAE@XZ
	cmp	esi, esp
	call	__RTC_CheckEsp
	pop	esi
	cmp	ebp, esp
	call	__RTC_CheckEsp
	pop	ebp
	ret	0
??__FTDL_FILEVERSION@@YAXXZ ENDP			; `dynamic atexit destructor for 'TDL_FILEVERSION''
; Function compile flags: /Odtp /RTCsu
text$yd	ENDS
;	COMDAT ??__FTDL_CHECKEDOUTTO@@YAXXZ
text$yd	SEGMENT
??__FTDL_CHECKEDOUTTO@@YAXXZ PROC			; `dynamic atexit destructor for 'TDL_CHECKEDOUTTO'', COMDAT
	push	ebp
	mov	ebp, esp
	push	esi
	mov	esi, esp
	mov	ecx, OFFSET _TDL_CHECKEDOUTTO
	call	DWORD PTR __imp_??1?$CStringT@_WV?$StrTraitMFC_DLL@_WV?$ChTraitsCRT@_W@ATL@@@@@ATL@@QAE@XZ
	cmp	esi, esp
	call	__RTC_CheckEsp
	pop	esi
	cmp	ebp, esp
	call	__RTC_CheckEsp
	pop	ebp
	ret	0
??__FTDL_CHECKEDOUTTO@@YAXXZ ENDP			; `dynamic atexit destructor for 'TDL_CHECKEDOUTTO''
; Function compile flags: /Odtp /RTCsu
text$yd	ENDS
;	COMDAT ??__FTDL_COMMENTSTYPE@@YAXXZ
text$yd	SEGMENT
??__FTDL_COMMENTSTYPE@@YAXXZ PROC			; `dynamic atexit destructor for 'TDL_COMMENTSTYPE'', COMDAT
	push	ebp
	mov	ebp, esp
	push	esi
	mov	esi, esp
	mov	ecx, OFFSET _TDL_COMMENTSTYPE
	call	DWORD PTR __imp_??1?$CStringT@_WV?$StrTraitMFC_DLL@_WV?$ChTraitsCRT@_W@ATL@@@@@ATL@@QAE@XZ
	cmp	esi, esp
	call	__RTC_CheckEsp
	pop	esi
	cmp	ebp, esp
	call	__RTC_CheckEsp
	pop	ebp
	ret	0
??__FTDL_COMMENTSTYPE@@YAXXZ ENDP			; `dynamic atexit destructor for 'TDL_COMMENTSTYPE''
; Function compile flags: /Odtp /RTCsu
text$yd	ENDS
;	COMDAT ??__FTDL_REPORTTITLE@@YAXXZ
text$yd	SEGMENT
??__FTDL_REPORTTITLE@@YAXXZ PROC			; `dynamic atexit destructor for 'TDL_REPORTTITLE'', COMDAT
	push	ebp
	mov	ebp, esp
	push	esi
	mov	esi, esp
	mov	ecx, OFFSET _TDL_REPORTTITLE
	call	DWORD PTR __imp_??1?$CStringT@_WV?$StrTraitMFC_DLL@_WV?$ChTraitsCRT@_W@ATL@@@@@ATL@@QAE@XZ
	cmp	esi, esp
	call	__RTC_CheckEsp
	pop	esi
	cmp	ebp, esp
	call	__RTC_CheckEsp
	pop	ebp
	ret	0
??__FTDL_REPORTTITLE@@YAXXZ ENDP			; `dynamic atexit destructor for 'TDL_REPORTTITLE''
; Function compile flags: /Odtp /RTCsu
text$yd	ENDS
;	COMDAT ??__FTDL_REPORTDATE@@YAXXZ
text$yd	SEGMENT
??__FTDL_REPORTDATE@@YAXXZ PROC				; `dynamic atexit destructor for 'TDL_REPORTDATE'', COMDAT
	push	ebp
	mov	ebp, esp
	push	esi
	mov	esi, esp
	mov	ecx, OFFSET _TDL_REPORTDATE
	call	DWORD PTR __imp_??1?$CStringT@_WV?$StrTraitMFC_DLL@_WV?$ChTraitsCRT@_W@ATL@@@@@ATL@@QAE@XZ
	cmp	esi, esp
	call	__RTC_CheckEsp
	pop	esi
	cmp	ebp, esp
	call	__RTC_CheckEsp
	pop	ebp
	ret	0
??__FTDL_REPORTDATE@@YAXXZ ENDP				; `dynamic atexit destructor for 'TDL_REPORTDATE''
; Function compile flags: /Odtp /RTCsu
text$yd	ENDS
;	COMDAT ??__FTDL_REPORTDATEOLE@@YAXXZ
text$yd	SEGMENT
??__FTDL_REPORTDATEOLE@@YAXXZ PROC			; `dynamic atexit destructor for 'TDL_REPORTDATEOLE'', COMDAT
	push	ebp
	mov	ebp, esp
	push	esi
	mov	esi, esp
	mov	ecx, OFFSET _TDL_REPORTDATEOLE
	call	DWORD PTR __imp_??1?$CStringT@_WV?$StrTraitMFC_DLL@_WV?$ChTraitsCRT@_W@ATL@@@@@ATL@@QAE@XZ
	cmp	esi, esp
	call	__RTC_CheckEsp
	pop	esi
	cmp	ebp, esp
	call	__RTC_CheckEsp
	pop	ebp
	ret	0
??__FTDL_REPORTDATEOLE@@YAXXZ ENDP			; `dynamic atexit destructor for 'TDL_REPORTDATEOLE''
; Function compile flags: /Odtp /RTCsu
text$yd	ENDS
;	COMDAT ??__FTDL_FILENAME@@YAXXZ
text$yd	SEGMENT
??__FTDL_FILENAME@@YAXXZ PROC				; `dynamic atexit destructor for 'TDL_FILENAME'', COMDAT
	push	ebp
	mov	ebp, esp
	push	esi
	mov	esi, esp
	mov	ecx, OFFSET _TDL_FILENAME
	call	DWORD PTR __imp_??1?$CStringT@_WV?$StrTraitMFC_DLL@_WV?$ChTraitsCRT@_W@ATL@@@@@ATL@@QAE@XZ
	cmp	esi, esp
	call	__RTC_CheckEsp
	pop	esi
	cmp	ebp, esp
	call	__RTC_CheckEsp
	pop	ebp
	ret	0
??__FTDL_FILENAME@@YAXXZ ENDP				; `dynamic atexit destructor for 'TDL_FILENAME''
; Function compile flags: /Odtp /RTCsu
text$yd	ENDS
;	COMDAT ??__FTDL_METADATA@@YAXXZ
text$yd	SEGMENT
??__FTDL_METADATA@@YAXXZ PROC				; `dynamic atexit destructor for 'TDL_METADATA'', COMDAT
	push	ebp
	mov	ebp, esp
	push	esi
	mov	esi, esp
	mov	ecx, OFFSET _TDL_METADATA
	call	DWORD PTR __imp_??1?$CStringT@_WV?$StrTraitMFC_DLL@_WV?$ChTraitsCRT@_W@ATL@@@@@ATL@@QAE@XZ
	cmp	esi, esp
	call	__RTC_CheckEsp
	pop	esi
	cmp	ebp, esp
	call	__RTC_CheckEsp
	pop	ebp
	ret	0
??__FTDL_METADATA@@YAXXZ ENDP				; `dynamic atexit destructor for 'TDL_METADATA''
; Function compile flags: /Odtp /RTCsu
text$yd	ENDS
;	COMDAT ??__FTDL_EARLIESTDUEDATE@@YAXXZ
text$yd	SEGMENT
??__FTDL_EARLIESTDUEDATE@@YAXXZ PROC			; `dynamic atexit destructor for 'TDL_EARLIESTDUEDATE'', COMDAT
	push	ebp
	mov	ebp, esp
	push	esi
	mov	esi, esp
	mov	ecx, OFFSET _TDL_EARLIESTDUEDATE
	call	DWORD PTR __imp_??1?$CStringT@_WV?$StrTraitMFC_DLL@_WV?$ChTraitsCRT@_W@ATL@@@@@ATL@@QAE@XZ
	cmp	esi, esp
	call	__RTC_CheckEsp
	pop	esi
	cmp	ebp, esp
	call	__RTC_CheckEsp
	pop	ebp
	ret	0
??__FTDL_EARLIESTDUEDATE@@YAXXZ ENDP			; `dynamic atexit destructor for 'TDL_EARLIESTDUEDATE''
; Function compile flags: /Odtp /RTCsu
text$yd	ENDS
;	COMDAT ??__FTDL_EXPORTSTYLE@@YAXXZ
text$yd	SEGMENT
??__FTDL_EXPORTSTYLE@@YAXXZ PROC			; `dynamic atexit destructor for 'TDL_EXPORTSTYLE'', COMDAT
	push	ebp
	mov	ebp, esp
	push	esi
	mov	esi, esp
	mov	ecx, OFFSET _TDL_EXPORTSTYLE
	call	DWORD PTR __imp_??1?$CStringT@_WV?$StrTraitMFC_DLL@_WV?$ChTraitsCRT@_W@ATL@@@@@ATL@@QAE@XZ
	cmp	esi, esp
	call	__RTC_CheckEsp
	pop	esi
	cmp	ebp, esp
	call	__RTC_CheckEsp
	pop	ebp
	ret	0
??__FTDL_EXPORTSTYLE@@YAXXZ ENDP			; `dynamic atexit destructor for 'TDL_EXPORTSTYLE''
; Function compile flags: /Odtp /RTCsu
text$yd	ENDS
;	COMDAT ??__FTDL_LASTMOD@@YAXXZ
text$yd	SEGMENT
??__FTDL_LASTMOD@@YAXXZ PROC				; `dynamic atexit destructor for 'TDL_LASTMOD'', COMDAT
	push	ebp
	mov	ebp, esp
	push	esi
	mov	esi, esp
	mov	ecx, OFFSET _TDL_LASTMOD
	call	DWORD PTR __imp_??1?$CStringT@_WV?$StrTraitMFC_DLL@_WV?$ChTraitsCRT@_W@ATL@@@@@ATL@@QAE@XZ
	cmp	esi, esp
	call	__RTC_CheckEsp
	pop	esi
	cmp	ebp, esp
	call	__RTC_CheckEsp
	pop	ebp
	ret	0
??__FTDL_LASTMOD@@YAXXZ ENDP				; `dynamic atexit destructor for 'TDL_LASTMOD''
; Function compile flags: /Odtp /RTCsu
text$yd	ENDS
;	COMDAT ??__FTDL_LASTMODSTRING@@YAXXZ
text$yd	SEGMENT
??__FTDL_LASTMODSTRING@@YAXXZ PROC			; `dynamic atexit destructor for 'TDL_LASTMODSTRING'', COMDAT
	push	ebp
	mov	ebp, esp
	push	esi
	mov	esi, esp
	mov	ecx, OFFSET _TDL_LASTMODSTRING
	call	DWORD PTR __imp_??1?$CStringT@_WV?$StrTraitMFC_DLL@_WV?$ChTraitsCRT@_W@ATL@@@@@ATL@@QAE@XZ
	cmp	esi, esp
	call	__RTC_CheckEsp
	pop	esi
	cmp	ebp, esp
	call	__RTC_CheckEsp
	pop	ebp
	ret	0
??__FTDL_LASTMODSTRING@@YAXXZ ENDP			; `dynamic atexit destructor for 'TDL_LASTMODSTRING''
; Function compile flags: /Odtp /RTCsu
text$yd	ENDS
;	COMDAT ??__FTDL_CUSTOMATTRIBDEFS@@YAXXZ
text$yd	SEGMENT
??__FTDL_CUSTOMATTRIBDEFS@@YAXXZ PROC			; `dynamic atexit destructor for 'TDL_CUSTOMATTRIBDEFS'', COMDAT
	push	ebp
	mov	ebp, esp
	push	esi
	mov	esi, esp
	mov	ecx, OFFSET _TDL_CUSTOMATTRIBDEFS
	call	DWORD PTR __imp_??1?$CStringT@_WV?$StrTraitMFC_DLL@_WV?$ChTraitsCRT@_W@ATL@@@@@ATL@@QAE@XZ
	cmp	esi, esp
	call	__RTC_CheckEsp
	pop	esi
	cmp	ebp, esp
	call	__RTC_CheckEsp
	pop	ebp
	ret	0
??__FTDL_CUSTOMATTRIBDEFS@@YAXXZ ENDP			; `dynamic atexit destructor for 'TDL_CUSTOMATTRIBDEFS''
; Function compile flags: /Odtp /RTCsu
text$yd	ENDS
;	COMDAT ??__FTDL_CUSTOMATTRIBID@@YAXXZ
text$yd	SEGMENT
??__FTDL_CUSTOMATTRIBID@@YAXXZ PROC			; `dynamic atexit destructor for 'TDL_CUSTOMATTRIBID'', COMDAT
	push	ebp
	mov	ebp, esp
	push	esi
	mov	esi, esp
	mov	ecx, OFFSET _TDL_CUSTOMATTRIBID
	call	DWORD PTR __imp_??1?$CStringT@_WV?$StrTraitMFC_DLL@_WV?$ChTraitsCRT@_W@ATL@@@@@ATL@@QAE@XZ
	cmp	esi, esp
	call	__RTC_CheckEsp
	pop	esi
	cmp	ebp, esp
	call	__RTC_CheckEsp
	pop	ebp
	ret	0
??__FTDL_CUSTOMATTRIBID@@YAXXZ ENDP			; `dynamic atexit destructor for 'TDL_CUSTOMATTRIBID''
; Function compile flags: /Odtp /RTCsu
text$yd	ENDS
;	COMDAT ??__FTDL_CUSTOMATTRIBTYPE@@YAXXZ
text$yd	SEGMENT
??__FTDL_CUSTOMATTRIBTYPE@@YAXXZ PROC			; `dynamic atexit destructor for 'TDL_CUSTOMATTRIBTYPE'', COMDAT
	push	ebp
	mov	ebp, esp
	push	esi
	mov	esi, esp
	mov	ecx, OFFSET _TDL_CUSTOMATTRIBTYPE
	call	DWORD PTR __imp_??1?$CStringT@_WV?$StrTraitMFC_DLL@_WV?$ChTraitsCRT@_W@ATL@@@@@ATL@@QAE@XZ
	cmp	esi, esp
	call	__RTC_CheckEsp
	pop	esi
	cmp	ebp, esp
	call	__RTC_CheckEsp
	pop	ebp
	ret	0
??__FTDL_CUSTOMATTRIBTYPE@@YAXXZ ENDP			; `dynamic atexit destructor for 'TDL_CUSTOMATTRIBTYPE''
; Function compile flags: /Odtp /RTCsu
text$yd	ENDS
;	COMDAT ??__FTDL_CUSTOMATTRIBLABEL@@YAXXZ
text$yd	SEGMENT
??__FTDL_CUSTOMATTRIBLABEL@@YAXXZ PROC			; `dynamic atexit destructor for 'TDL_CUSTOMATTRIBLABEL'', COMDAT
	push	ebp
	mov	ebp, esp
	push	esi
	mov	esi, esp
	mov	ecx, OFFSET _TDL_CUSTOMATTRIBLABEL
	call	DWORD PTR __imp_??1?$CStringT@_WV?$StrTraitMFC_DLL@_WV?$ChTraitsCRT@_W@ATL@@@@@ATL@@QAE@XZ
	cmp	esi, esp
	call	__RTC_CheckEsp
	pop	esi
	cmp	ebp, esp
	call	__RTC_CheckEsp
	pop	ebp
	ret	0
??__FTDL_CUSTOMATTRIBLABEL@@YAXXZ ENDP			; `dynamic atexit destructor for 'TDL_CUSTOMATTRIBLABEL''
; Function compile flags: /Odtp /RTCsu
text$yd	ENDS
;	COMDAT ??__FTDL_CUSTOMATTRIBCOLTITLE@@YAXXZ
text$yd	SEGMENT
??__FTDL_CUSTOMATTRIBCOLTITLE@@YAXXZ PROC		; `dynamic atexit destructor for 'TDL_CUSTOMATTRIBCOLTITLE'', COMDAT
	push	ebp
	mov	ebp, esp
	push	esi
	mov	esi, esp
	mov	ecx, OFFSET _TDL_CUSTOMATTRIBCOLTITLE
	call	DWORD PTR __imp_??1?$CStringT@_WV?$StrTraitMFC_DLL@_WV?$ChTraitsCRT@_W@ATL@@@@@ATL@@QAE@XZ
	cmp	esi, esp
	call	__RTC_CheckEsp
	pop	esi
	cmp	ebp, esp
	call	__RTC_CheckEsp
	pop	ebp
	ret	0
??__FTDL_CUSTOMATTRIBCOLTITLE@@YAXXZ ENDP		; `dynamic atexit destructor for 'TDL_CUSTOMATTRIBCOLTITLE''
; Function compile flags: /Odtp /RTCsu
text$yd	ENDS
;	COMDAT ??__FTDL_CUSTOMATTRIBCOLALIGN@@YAXXZ
text$yd	SEGMENT
??__FTDL_CUSTOMATTRIBCOLALIGN@@YAXXZ PROC		; `dynamic atexit destructor for 'TDL_CUSTOMATTRIBCOLALIGN'', COMDAT
	push	ebp
	mov	ebp, esp
	push	esi
	mov	esi, esp
	mov	ecx, OFFSET _TDL_CUSTOMATTRIBCOLALIGN
	call	DWORD PTR __imp_??1?$CStringT@_WV?$StrTraitMFC_DLL@_WV?$ChTraitsCRT@_W@ATL@@@@@ATL@@QAE@XZ
	cmp	esi, esp
	call	__RTC_CheckEsp
	pop	esi
	cmp	ebp, esp
	call	__RTC_CheckEsp
	pop	ebp
	ret	0
??__FTDL_CUSTOMATTRIBCOLALIGN@@YAXXZ ENDP		; `dynamic atexit destructor for 'TDL_CUSTOMATTRIBCOLALIGN''
; Function compile flags: /Odtp /RTCsu
text$yd	ENDS
;	COMDAT ??__FTDL_CUSTOMATTRIBFEATURES@@YAXXZ
text$yd	SEGMENT
??__FTDL_CUSTOMATTRIBFEATURES@@YAXXZ PROC		; `dynamic atexit destructor for 'TDL_CUSTOMATTRIBFEATURES'', COMDAT
	push	ebp
	mov	ebp, esp
	push	esi
	mov	esi, esp
	mov	ecx, OFFSET _TDL_CUSTOMATTRIBFEATURES
	call	DWORD PTR __imp_??1?$CStringT@_WV?$StrTraitMFC_DLL@_WV?$ChTraitsCRT@_W@ATL@@@@@ATL@@QAE@XZ
	cmp	esi, esp
	call	__RTC_CheckEsp
	pop	esi
	cmp	ebp, esp
	call	__RTC_CheckEsp
	pop	ebp
	ret	0
??__FTDL_CUSTOMATTRIBFEATURES@@YAXXZ ENDP		; `dynamic atexit destructor for 'TDL_CUSTOMATTRIBFEATURES''
; Function compile flags: /Odtp /RTCsu
text$yd	ENDS
;	COMDAT ??__FTDL_CUSTOMATTRIBLISTDATA@@YAXXZ
text$yd	SEGMENT
??__FTDL_CUSTOMATTRIBLISTDATA@@YAXXZ PROC		; `dynamic atexit destructor for 'TDL_CUSTOMATTRIBLISTDATA'', COMDAT
	push	ebp
	mov	ebp, esp
	push	esi
	mov	esi, esp
	mov	ecx, OFFSET _TDL_CUSTOMATTRIBLISTDATA
	call	DWORD PTR __imp_??1?$CStringT@_WV?$StrTraitMFC_DLL@_WV?$ChTraitsCRT@_W@ATL@@@@@ATL@@QAE@XZ
	cmp	esi, esp
	call	__RTC_CheckEsp
	pop	esi
	cmp	ebp, esp
	call	__RTC_CheckEsp
	pop	ebp
	ret	0
??__FTDL_CUSTOMATTRIBLISTDATA@@YAXXZ ENDP		; `dynamic atexit destructor for 'TDL_CUSTOMATTRIBLISTDATA''
; Function compile flags: /Odtp /RTCsu
text$yd	ENDS
;	COMDAT ??__FTDL_CUSTOMATTRIBENABLED@@YAXXZ
text$yd	SEGMENT
??__FTDL_CUSTOMATTRIBENABLED@@YAXXZ PROC		; `dynamic atexit destructor for 'TDL_CUSTOMATTRIBENABLED'', COMDAT
	push	ebp
	mov	ebp, esp
	push	esi
	mov	esi, esp
	mov	ecx, OFFSET _TDL_CUSTOMATTRIBENABLED
	call	DWORD PTR __imp_??1?$CStringT@_WV?$StrTraitMFC_DLL@_WV?$ChTraitsCRT@_W@ATL@@@@@ATL@@QAE@XZ
	cmp	esi, esp
	call	__RTC_CheckEsp
	pop	esi
	cmp	ebp, esp
	call	__RTC_CheckEsp
	pop	ebp
	ret	0
??__FTDL_CUSTOMATTRIBENABLED@@YAXXZ ENDP		; `dynamic atexit destructor for 'TDL_CUSTOMATTRIBENABLED''
; Function compile flags: /Odtp /RTCsu
text$yd	ENDS
;	COMDAT ??__FTDL_ATTRIBVIS@@YAXXZ
text$yd	SEGMENT
??__FTDL_ATTRIBVIS@@YAXXZ PROC				; `dynamic atexit destructor for 'TDL_ATTRIBVIS'', COMDAT
	push	ebp
	mov	ebp, esp
	push	esi
	mov	esi, esp
	mov	ecx, OFFSET _TDL_ATTRIBVIS
	call	DWORD PTR __imp_??1?$CStringT@_WV?$StrTraitMFC_DLL@_WV?$ChTraitsCRT@_W@ATL@@@@@ATL@@QAE@XZ
	cmp	esi, esp
	call	__RTC_CheckEsp
	pop	esi
	cmp	ebp, esp
	call	__RTC_CheckEsp
	pop	ebp
	ret	0
??__FTDL_ATTRIBVIS@@YAXXZ ENDP				; `dynamic atexit destructor for 'TDL_ATTRIBVIS''
; Function compile flags: /Odtp /RTCsu
text$yd	ENDS
;	COMDAT ??__FTDL_ATTRIBVISCOL@@YAXXZ
text$yd	SEGMENT
??__FTDL_ATTRIBVISCOL@@YAXXZ PROC			; `dynamic atexit destructor for 'TDL_ATTRIBVISCOL'', COMDAT
	push	ebp
	mov	ebp, esp
	push	esi
	mov	esi, esp
	mov	ecx, OFFSET _TDL_ATTRIBVISCOL
	call	DWORD PTR __imp_??1?$CStringT@_WV?$StrTraitMFC_DLL@_WV?$ChTraitsCRT@_W@ATL@@@@@ATL@@QAE@XZ
	cmp	esi, esp
	call	__RTC_CheckEsp
	pop	esi
	cmp	ebp, esp
	call	__RTC_CheckEsp
	pop	ebp
	ret	0
??__FTDL_ATTRIBVISCOL@@YAXXZ ENDP			; `dynamic atexit destructor for 'TDL_ATTRIBVISCOL''
; Function compile flags: /Odtp /RTCsu
text$yd	ENDS
;	COMDAT ??__FTDL_ATTRIBVISEDIT@@YAXXZ
text$yd	SEGMENT
??__FTDL_ATTRIBVISEDIT@@YAXXZ PROC			; `dynamic atexit destructor for 'TDL_ATTRIBVISEDIT'', COMDAT
	push	ebp
	mov	ebp, esp
	push	esi
	mov	esi, esp
	mov	ecx, OFFSET _TDL_ATTRIBVISEDIT
	call	DWORD PTR __imp_??1?$CStringT@_WV?$StrTraitMFC_DLL@_WV?$ChTraitsCRT@_W@ATL@@@@@ATL@@QAE@XZ
	cmp	esi, esp
	call	__RTC_CheckEsp
	pop	esi
	cmp	ebp, esp
	call	__RTC_CheckEsp
	pop	ebp
	ret	0
??__FTDL_ATTRIBVISEDIT@@YAXXZ ENDP			; `dynamic atexit destructor for 'TDL_ATTRIBVISEDIT''
; Function compile flags: /Odtp /RTCsu
text$yd	ENDS
;	COMDAT ??__FTDL_ATTRIBVISFILTER@@YAXXZ
text$yd	SEGMENT
??__FTDL_ATTRIBVISFILTER@@YAXXZ PROC			; `dynamic atexit destructor for 'TDL_ATTRIBVISFILTER'', COMDAT
	push	ebp
	mov	ebp, esp
	push	esi
	mov	esi, esp
	mov	ecx, OFFSET _TDL_ATTRIBVISFILTER
	call	DWORD PTR __imp_??1?$CStringT@_WV?$StrTraitMFC_DLL@_WV?$ChTraitsCRT@_W@ATL@@@@@ATL@@QAE@XZ
	cmp	esi, esp
	call	__RTC_CheckEsp
	pop	esi
	cmp	ebp, esp
	call	__RTC_CheckEsp
	pop	ebp
	ret	0
??__FTDL_ATTRIBVISFILTER@@YAXXZ ENDP			; `dynamic atexit destructor for 'TDL_ATTRIBVISFILTER''
; Function compile flags: /Odtp /RTCsu
text$yd	ENDS
;	COMDAT ??__FTDL_ATTRIBVISSHOWEDITFILTER@@YAXXZ
text$yd	SEGMENT
??__FTDL_ATTRIBVISSHOWEDITFILTER@@YAXXZ PROC		; `dynamic atexit destructor for 'TDL_ATTRIBVISSHOWEDITFILTER'', COMDAT
	push	ebp
	mov	ebp, esp
	push	esi
	mov	esi, esp
	mov	ecx, OFFSET _TDL_ATTRIBVISSHOWEDITFILTER
	call	DWORD PTR __imp_??1?$CStringT@_WV?$StrTraitMFC_DLL@_WV?$ChTraitsCRT@_W@ATL@@@@@ATL@@QAE@XZ
	cmp	esi, esp
	call	__RTC_CheckEsp
	pop	esi
	cmp	ebp, esp
	call	__RTC_CheckEsp
	pop	ebp
	ret	0
??__FTDL_ATTRIBVISSHOWEDITFILTER@@YAXXZ ENDP		; `dynamic atexit destructor for 'TDL_ATTRIBVISSHOWEDITFILTER''
; Function compile flags: /Odtp /RTCsu
text$yd	ENDS
;	COMDAT ??__FTDL_CUSTOMATTRIBSORTABLE_DEP@@YAXXZ
text$yd	SEGMENT
??__FTDL_CUSTOMATTRIBSORTABLE_DEP@@YAXXZ PROC		; `dynamic atexit destructor for 'TDL_CUSTOMATTRIBSORTABLE_DEP'', COMDAT
	push	ebp
	mov	ebp, esp
	push	esi
	mov	esi, esp
	mov	ecx, OFFSET _TDL_CUSTOMATTRIBSORTABLE_DEP
	call	DWORD PTR __imp_??1?$CStringT@_WV?$StrTraitMFC_DLL@_WV?$ChTraitsCRT@_W@ATL@@@@@ATL@@QAE@XZ
	cmp	esi, esp
	call	__RTC_CheckEsp
	pop	esi
	cmp	ebp, esp
	call	__RTC_CheckEsp
	pop	ebp
	ret	0
??__FTDL_CUSTOMATTRIBSORTABLE_DEP@@YAXXZ ENDP		; `dynamic atexit destructor for 'TDL_CUSTOMATTRIBSORTABLE_DEP''
; Function compile flags: /Odtp /RTCsu
text$yd	ENDS
;	COMDAT ??__FTDL_CUSTOMATTRIBDEFS_DEP@@YAXXZ
text$yd	SEGMENT
??__FTDL_CUSTOMATTRIBDEFS_DEP@@YAXXZ PROC		; `dynamic atexit destructor for 'TDL_CUSTOMATTRIBDEFS_DEP'', COMDAT
	push	ebp
	mov	ebp, esp
	push	esi
	mov	esi, esp
	mov	ecx, OFFSET _TDL_CUSTOMATTRIBDEFS_DEP
	call	DWORD PTR __imp_??1?$CStringT@_WV?$StrTraitMFC_DLL@_WV?$ChTraitsCRT@_W@ATL@@@@@ATL@@QAE@XZ
	cmp	esi, esp
	call	__RTC_CheckEsp
	pop	esi
	cmp	ebp, esp
	call	__RTC_CheckEsp
	pop	ebp
	ret	0
??__FTDL_CUSTOMATTRIBDEFS_DEP@@YAXXZ ENDP		; `dynamic atexit destructor for 'TDL_CUSTOMATTRIBDEFS_DEP''
; Function compile flags: /Odtp /RTCsu
text$yd	ENDS
;	COMDAT ??__FTDL_TASK@@YAXXZ
text$yd	SEGMENT
??__FTDL_TASK@@YAXXZ PROC				; `dynamic atexit destructor for 'TDL_TASK'', COMDAT
	push	ebp
	mov	ebp, esp
	push	esi
	mov	esi, esp
	mov	ecx, OFFSET _TDL_TASK
	call	DWORD PTR __imp_??1?$CStringT@_WV?$StrTraitMFC_DLL@_WV?$ChTraitsCRT@_W@ATL@@@@@ATL@@QAE@XZ
	cmp	esi, esp
	call	__RTC_CheckEsp
	pop	esi
	cmp	ebp, esp
	call	__RTC_CheckEsp
	pop	ebp
	ret	0
??__FTDL_TASK@@YAXXZ ENDP				; `dynamic atexit destructor for 'TDL_TASK''
; Function compile flags: /Odtp /RTCsu
text$yd	ENDS
;	COMDAT ??__FTDL_TASKID@@YAXXZ
text$yd	SEGMENT
??__FTDL_TASKID@@YAXXZ PROC				; `dynamic atexit destructor for 'TDL_TASKID'', COMDAT
	push	ebp
	mov	ebp, esp
	push	esi
	mov	esi, esp
	mov	ecx, OFFSET _TDL_TASKID
	call	DWORD PTR __imp_??1?$CStringT@_WV?$StrTraitMFC_DLL@_WV?$ChTraitsCRT@_W@ATL@@@@@ATL@@QAE@XZ
	cmp	esi, esp
	call	__RTC_CheckEsp
	pop	esi
	cmp	ebp, esp
	call	__RTC_CheckEsp
	pop	ebp
	ret	0
??__FTDL_TASKID@@YAXXZ ENDP				; `dynamic atexit destructor for 'TDL_TASKID''
; Function compile flags: /Odtp /RTCsu
text$yd	ENDS
;	COMDAT ??__FTDL_TASKREFID@@YAXXZ
text$yd	SEGMENT
??__FTDL_TASKREFID@@YAXXZ PROC				; `dynamic atexit destructor for 'TDL_TASKREFID'', COMDAT
	push	ebp
	mov	ebp, esp
	push	esi
	mov	esi, esp
	mov	ecx, OFFSET _TDL_TASKREFID
	call	DWORD PTR __imp_??1?$CStringT@_WV?$StrTraitMFC_DLL@_WV?$ChTraitsCRT@_W@ATL@@@@@ATL@@QAE@XZ
	cmp	esi, esp
	call	__RTC_CheckEsp
	pop	esi
	cmp	ebp, esp
	call	__RTC_CheckEsp
	pop	ebp
	ret	0
??__FTDL_TASKREFID@@YAXXZ ENDP				; `dynamic atexit destructor for 'TDL_TASKREFID''
; Function compile flags: /Odtp /RTCsu
text$yd	ENDS
;	COMDAT ??__FTDL_TASKPOS@@YAXXZ
text$yd	SEGMENT
??__FTDL_TASKPOS@@YAXXZ PROC				; `dynamic atexit destructor for 'TDL_TASKPOS'', COMDAT
	push	ebp
	mov	ebp, esp
	push	esi
	mov	esi, esp
	mov	ecx, OFFSET _TDL_TASKPOS
	call	DWORD PTR __imp_??1?$CStringT@_WV?$StrTraitMFC_DLL@_WV?$ChTraitsCRT@_W@ATL@@@@@ATL@@QAE@XZ
	cmp	esi, esp
	call	__RTC_CheckEsp
	pop	esi
	cmp	ebp, esp
	call	__RTC_CheckEsp
	pop	ebp
	ret	0
??__FTDL_TASKPOS@@YAXXZ ENDP				; `dynamic atexit destructor for 'TDL_TASKPOS''
; Function compile flags: /Odtp /RTCsu
text$yd	ENDS
;	COMDAT ??__FTDL_TASKPARENTID@@YAXXZ
text$yd	SEGMENT
??__FTDL_TASKPARENTID@@YAXXZ PROC			; `dynamic atexit destructor for 'TDL_TASKPARENTID'', COMDAT
	push	ebp
	mov	ebp, esp
	push	esi
	mov	esi, esp
	mov	ecx, OFFSET _TDL_TASKPARENTID
	call	DWORD PTR __imp_??1?$CStringT@_WV?$StrTraitMFC_DLL@_WV?$ChTraitsCRT@_W@ATL@@@@@ATL@@QAE@XZ
	cmp	esi, esp
	call	__RTC_CheckEsp
	pop	esi
	cmp	ebp, esp
	call	__RTC_CheckEsp
	pop	ebp
	ret	0
??__FTDL_TASKPARENTID@@YAXXZ ENDP			; `dynamic atexit destructor for 'TDL_TASKPARENTID''
; Function compile flags: /Odtp /RTCsu
text$yd	ENDS
;	COMDAT ??__FTDL_TASKTITLE@@YAXXZ
text$yd	SEGMENT
??__FTDL_TASKTITLE@@YAXXZ PROC				; `dynamic atexit destructor for 'TDL_TASKTITLE'', COMDAT
	push	ebp
	mov	ebp, esp
	push	esi
	mov	esi, esp
	mov	ecx, OFFSET _TDL_TASKTITLE
	call	DWORD PTR __imp_??1?$CStringT@_WV?$StrTraitMFC_DLL@_WV?$ChTraitsCRT@_W@ATL@@@@@ATL@@QAE@XZ
	cmp	esi, esp
	call	__RTC_CheckEsp
	pop	esi
	cmp	ebp, esp
	call	__RTC_CheckEsp
	pop	ebp
	ret	0
??__FTDL_TASKTITLE@@YAXXZ ENDP				; `dynamic atexit destructor for 'TDL_TASKTITLE''
; Function compile flags: /Odtp /RTCsu
text$yd	ENDS
;	COMDAT ??__FTDL_TASKALLOCTO@@YAXXZ
text$yd	SEGMENT
??__FTDL_TASKALLOCTO@@YAXXZ PROC			; `dynamic atexit destructor for 'TDL_TASKALLOCTO'', COMDAT
	push	ebp
	mov	ebp, esp
	push	esi
	mov	esi, esp
	mov	ecx, OFFSET _TDL_TASKALLOCTO
	call	DWORD PTR __imp_??1?$CStringT@_WV?$StrTraitMFC_DLL@_WV?$ChTraitsCRT@_W@ATL@@@@@ATL@@QAE@XZ
	cmp	esi, esp
	call	__RTC_CheckEsp
	pop	esi
	cmp	ebp, esp
	call	__RTC_CheckEsp
	pop	ebp
	ret	0
??__FTDL_TASKALLOCTO@@YAXXZ ENDP			; `dynamic atexit destructor for 'TDL_TASKALLOCTO''
; Function compile flags: /Odtp /RTCsu
text$yd	ENDS
;	COMDAT ??__FTDL_TASKALLOCBY@@YAXXZ
text$yd	SEGMENT
??__FTDL_TASKALLOCBY@@YAXXZ PROC			; `dynamic atexit destructor for 'TDL_TASKALLOCBY'', COMDAT
	push	ebp
	mov	ebp, esp
	push	esi
	mov	esi, esp
	mov	ecx, OFFSET _TDL_TASKALLOCBY
	call	DWORD PTR __imp_??1?$CStringT@_WV?$StrTraitMFC_DLL@_WV?$ChTraitsCRT@_W@ATL@@@@@ATL@@QAE@XZ
	cmp	esi, esp
	call	__RTC_CheckEsp
	pop	esi
	cmp	ebp, esp
	call	__RTC_CheckEsp
	pop	ebp
	ret	0
??__FTDL_TASKALLOCBY@@YAXXZ ENDP			; `dynamic atexit destructor for 'TDL_TASKALLOCBY''
; Function compile flags: /Odtp /RTCsu
text$yd	ENDS
;	COMDAT ??__FTDL_TASKCATEGORY@@YAXXZ
text$yd	SEGMENT
??__FTDL_TASKCATEGORY@@YAXXZ PROC			; `dynamic atexit destructor for 'TDL_TASKCATEGORY'', COMDAT
	push	ebp
	mov	ebp, esp
	push	esi
	mov	esi, esp
	mov	ecx, OFFSET _TDL_TASKCATEGORY
	call	DWORD PTR __imp_??1?$CStringT@_WV?$StrTraitMFC_DLL@_WV?$ChTraitsCRT@_W@ATL@@@@@ATL@@QAE@XZ
	cmp	esi, esp
	call	__RTC_CheckEsp
	pop	esi
	cmp	ebp, esp
	call	__RTC_CheckEsp
	pop	ebp
	ret	0
??__FTDL_TASKCATEGORY@@YAXXZ ENDP			; `dynamic atexit destructor for 'TDL_TASKCATEGORY''
; Function compile flags: /Odtp /RTCsu
text$yd	ENDS
;	COMDAT ??__FTDL_TASKTAG@@YAXXZ
text$yd	SEGMENT
??__FTDL_TASKTAG@@YAXXZ PROC				; `dynamic atexit destructor for 'TDL_TASKTAG'', COMDAT
	push	ebp
	mov	ebp, esp
	push	esi
	mov	esi, esp
	mov	ecx, OFFSET _TDL_TASKTAG
	call	DWORD PTR __imp_??1?$CStringT@_WV?$StrTraitMFC_DLL@_WV?$ChTraitsCRT@_W@ATL@@@@@ATL@@QAE@XZ
	cmp	esi, esp
	call	__RTC_CheckEsp
	pop	esi
	cmp	ebp, esp
	call	__RTC_CheckEsp
	pop	ebp
	ret	0
??__FTDL_TASKTAG@@YAXXZ ENDP				; `dynamic atexit destructor for 'TDL_TASKTAG''
; Function compile flags: /Odtp /RTCsu
text$yd	ENDS
;	COMDAT ??__FTDL_TASKSTATUS@@YAXXZ
text$yd	SEGMENT
??__FTDL_TASKSTATUS@@YAXXZ PROC				; `dynamic atexit destructor for 'TDL_TASKSTATUS'', COMDAT
	push	ebp
	mov	ebp, esp
	push	esi
	mov	esi, esp
	mov	ecx, OFFSET _TDL_TASKSTATUS
	call	DWORD PTR __imp_??1?$CStringT@_WV?$StrTraitMFC_DLL@_WV?$ChTraitsCRT@_W@ATL@@@@@ATL@@QAE@XZ
	cmp	esi, esp
	call	__RTC_CheckEsp
	pop	esi
	cmp	ebp, esp
	call	__RTC_CheckEsp
	pop	ebp
	ret	0
??__FTDL_TASKSTATUS@@YAXXZ ENDP				; `dynamic atexit destructor for 'TDL_TASKSTATUS''
; Function compile flags: /Odtp /RTCsu
text$yd	ENDS
;	COMDAT ??__FTDL_TASKFILEREFPATH@@YAXXZ
text$yd	SEGMENT
??__FTDL_TASKFILEREFPATH@@YAXXZ PROC			; `dynamic atexit destructor for 'TDL_TASKFILEREFPATH'', COMDAT
	push	ebp
	mov	ebp, esp
	push	esi
	mov	esi, esp
	mov	ecx, OFFSET _TDL_TASKFILEREFPATH
	call	DWORD PTR __imp_??1?$CStringT@_WV?$StrTraitMFC_DLL@_WV?$ChTraitsCRT@_W@ATL@@@@@ATL@@QAE@XZ
	cmp	esi, esp
	call	__RTC_CheckEsp
	pop	esi
	cmp	ebp, esp
	call	__RTC_CheckEsp
	pop	ebp
	ret	0
??__FTDL_TASKFILEREFPATH@@YAXXZ ENDP			; `dynamic atexit destructor for 'TDL_TASKFILEREFPATH''
; Function compile flags: /Odtp /RTCsu
text$yd	ENDS
;	COMDAT ??__FTDL_TASKCREATEDBY@@YAXXZ
text$yd	SEGMENT
??__FTDL_TASKCREATEDBY@@YAXXZ PROC			; `dynamic atexit destructor for 'TDL_TASKCREATEDBY'', COMDAT
	push	ebp
	mov	ebp, esp
	push	esi
	mov	esi, esp
	mov	ecx, OFFSET _TDL_TASKCREATEDBY
	call	DWORD PTR __imp_??1?$CStringT@_WV?$StrTraitMFC_DLL@_WV?$ChTraitsCRT@_W@ATL@@@@@ATL@@QAE@XZ
	cmp	esi, esp
	call	__RTC_CheckEsp
	pop	esi
	cmp	ebp, esp
	call	__RTC_CheckEsp
	pop	ebp
	ret	0
??__FTDL_TASKCREATEDBY@@YAXXZ ENDP			; `dynamic atexit destructor for 'TDL_TASKCREATEDBY''
; Function compile flags: /Odtp /RTCsu
text$yd	ENDS
;	COMDAT ??__FTDL_TASKCOLOR@@YAXXZ
text$yd	SEGMENT
??__FTDL_TASKCOLOR@@YAXXZ PROC				; `dynamic atexit destructor for 'TDL_TASKCOLOR'', COMDAT
	push	ebp
	mov	ebp, esp
	push	esi
	mov	esi, esp
	mov	ecx, OFFSET _TDL_TASKCOLOR
	call	DWORD PTR __imp_??1?$CStringT@_WV?$StrTraitMFC_DLL@_WV?$ChTraitsCRT@_W@ATL@@@@@ATL@@QAE@XZ
	cmp	esi, esp
	call	__RTC_CheckEsp
	pop	esi
	cmp	ebp, esp
	call	__RTC_CheckEsp
	pop	ebp
	ret	0
??__FTDL_TASKCOLOR@@YAXXZ ENDP				; `dynamic atexit destructor for 'TDL_TASKCOLOR''
; Function compile flags: /Odtp /RTCsu
text$yd	ENDS
;	COMDAT ??__FTDL_TASKFLAG@@YAXXZ
text$yd	SEGMENT
??__FTDL_TASKFLAG@@YAXXZ PROC				; `dynamic atexit destructor for 'TDL_TASKFLAG'', COMDAT
	push	ebp
	mov	ebp, esp
	push	esi
	mov	esi, esp
	mov	ecx, OFFSET _TDL_TASKFLAG
	call	DWORD PTR __imp_??1?$CStringT@_WV?$StrTraitMFC_DLL@_WV?$ChTraitsCRT@_W@ATL@@@@@ATL@@QAE@XZ
	cmp	esi, esp
	call	__RTC_CheckEsp
	pop	esi
	cmp	ebp, esp
	call	__RTC_CheckEsp
	pop	ebp
	ret	0
??__FTDL_TASKFLAG@@YAXXZ ENDP				; `dynamic atexit destructor for 'TDL_TASKFLAG''
; Function compile flags: /Odtp /RTCsu
text$yd	ENDS
;	COMDAT ??__FTDL_TASKWEBCOLOR@@YAXXZ
text$yd	SEGMENT
??__FTDL_TASKWEBCOLOR@@YAXXZ PROC			; `dynamic atexit destructor for 'TDL_TASKWEBCOLOR'', COMDAT
	push	ebp
	mov	ebp, esp
	push	esi
	mov	esi, esp
	mov	ecx, OFFSET _TDL_TASKWEBCOLOR
	call	DWORD PTR __imp_??1?$CStringT@_WV?$StrTraitMFC_DLL@_WV?$ChTraitsCRT@_W@ATL@@@@@ATL@@QAE@XZ
	cmp	esi, esp
	call	__RTC_CheckEsp
	pop	esi
	cmp	ebp, esp
	call	__RTC_CheckEsp
	pop	ebp
	ret	0
??__FTDL_TASKWEBCOLOR@@YAXXZ ENDP			; `dynamic atexit destructor for 'TDL_TASKWEBCOLOR''
; Function compile flags: /Odtp /RTCsu
text$yd	ENDS
;	COMDAT ??__FTDL_TASKPRIORITY@@YAXXZ
text$yd	SEGMENT
??__FTDL_TASKPRIORITY@@YAXXZ PROC			; `dynamic atexit destructor for 'TDL_TASKPRIORITY'', COMDAT
	push	ebp
	mov	ebp, esp
	push	esi
	mov	esi, esp
	mov	ecx, OFFSET _TDL_TASKPRIORITY
	call	DWORD PTR __imp_??1?$CStringT@_WV?$StrTraitMFC_DLL@_WV?$ChTraitsCRT@_W@ATL@@@@@ATL@@QAE@XZ
	cmp	esi, esp
	call	__RTC_CheckEsp
	pop	esi
	cmp	ebp, esp
	call	__RTC_CheckEsp
	pop	ebp
	ret	0
??__FTDL_TASKPRIORITY@@YAXXZ ENDP			; `dynamic atexit destructor for 'TDL_TASKPRIORITY''
; Function compile flags: /Odtp /RTCsu
text$yd	ENDS
;	COMDAT ??__FTDL_TASKPERCENTDONE@@YAXXZ
text$yd	SEGMENT
??__FTDL_TASKPERCENTDONE@@YAXXZ PROC			; `dynamic atexit destructor for 'TDL_TASKPERCENTDONE'', COMDAT
	push	ebp
	mov	ebp, esp
	push	esi
	mov	esi, esp
	mov	ecx, OFFSET _TDL_TASKPERCENTDONE
	call	DWORD PTR __imp_??1?$CStringT@_WV?$StrTraitMFC_DLL@_WV?$ChTraitsCRT@_W@ATL@@@@@ATL@@QAE@XZ
	cmp	esi, esp
	call	__RTC_CheckEsp
	pop	esi
	cmp	ebp, esp
	call	__RTC_CheckEsp
	pop	ebp
	ret	0
??__FTDL_TASKPERCENTDONE@@YAXXZ ENDP			; `dynamic atexit destructor for 'TDL_TASKPERCENTDONE''
; Function compile flags: /Odtp /RTCsu
text$yd	ENDS
;	COMDAT ??__FTDL_TASKTIMEESTIMATE@@YAXXZ
text$yd	SEGMENT
??__FTDL_TASKTIMEESTIMATE@@YAXXZ PROC			; `dynamic atexit destructor for 'TDL_TASKTIMEESTIMATE'', COMDAT
	push	ebp
	mov	ebp, esp
	push	esi
	mov	esi, esp
	mov	ecx, OFFSET _TDL_TASKTIMEESTIMATE
	call	DWORD PTR __imp_??1?$CStringT@_WV?$StrTraitMFC_DLL@_WV?$ChTraitsCRT@_W@ATL@@@@@ATL@@QAE@XZ
	cmp	esi, esp
	call	__RTC_CheckEsp
	pop	esi
	cmp	ebp, esp
	call	__RTC_CheckEsp
	pop	ebp
	ret	0
??__FTDL_TASKTIMEESTIMATE@@YAXXZ ENDP			; `dynamic atexit destructor for 'TDL_TASKTIMEESTIMATE''
; Function compile flags: /Odtp /RTCsu
text$yd	ENDS
;	COMDAT ??__FTDL_TASKTIMEESTUNITS@@YAXXZ
text$yd	SEGMENT
??__FTDL_TASKTIMEESTUNITS@@YAXXZ PROC			; `dynamic atexit destructor for 'TDL_TASKTIMEESTUNITS'', COMDAT
	push	ebp
	mov	ebp, esp
	push	esi
	mov	esi, esp
	mov	ecx, OFFSET _TDL_TASKTIMEESTUNITS
	call	DWORD PTR __imp_??1?$CStringT@_WV?$StrTraitMFC_DLL@_WV?$ChTraitsCRT@_W@ATL@@@@@ATL@@QAE@XZ
	cmp	esi, esp
	call	__RTC_CheckEsp
	pop	esi
	cmp	ebp, esp
	call	__RTC_CheckEsp
	pop	ebp
	ret	0
??__FTDL_TASKTIMEESTUNITS@@YAXXZ ENDP			; `dynamic atexit destructor for 'TDL_TASKTIMEESTUNITS''
; Function compile flags: /Odtp /RTCsu
text$yd	ENDS
;	COMDAT ??__FTDL_TASKTIMESPENT@@YAXXZ
text$yd	SEGMENT
??__FTDL_TASKTIMESPENT@@YAXXZ PROC			; `dynamic atexit destructor for 'TDL_TASKTIMESPENT'', COMDAT
	push	ebp
	mov	ebp, esp
	push	esi
	mov	esi, esp
	mov	ecx, OFFSET _TDL_TASKTIMESPENT
	call	DWORD PTR __imp_??1?$CStringT@_WV?$StrTraitMFC_DLL@_WV?$ChTraitsCRT@_W@ATL@@@@@ATL@@QAE@XZ
	cmp	esi, esp
	call	__RTC_CheckEsp
	pop	esi
	cmp	ebp, esp
	call	__RTC_CheckEsp
	pop	ebp
	ret	0
??__FTDL_TASKTIMESPENT@@YAXXZ ENDP			; `dynamic atexit destructor for 'TDL_TASKTIMESPENT''
; Function compile flags: /Odtp /RTCsu
text$yd	ENDS
;	COMDAT ??__FTDL_TASKTIMESPENTUNITS@@YAXXZ
text$yd	SEGMENT
??__FTDL_TASKTIMESPENTUNITS@@YAXXZ PROC			; `dynamic atexit destructor for 'TDL_TASKTIMESPENTUNITS'', COMDAT
	push	ebp
	mov	ebp, esp
	push	esi
	mov	esi, esp
	mov	ecx, OFFSET _TDL_TASKTIMESPENTUNITS
	call	DWORD PTR __imp_??1?$CStringT@_WV?$StrTraitMFC_DLL@_WV?$ChTraitsCRT@_W@ATL@@@@@ATL@@QAE@XZ
	cmp	esi, esp
	call	__RTC_CheckEsp
	pop	esi
	cmp	ebp, esp
	call	__RTC_CheckEsp
	pop	ebp
	ret	0
??__FTDL_TASKTIMESPENTUNITS@@YAXXZ ENDP			; `dynamic atexit destructor for 'TDL_TASKTIMESPENTUNITS''
; Function compile flags: /Odtp /RTCsu
text$yd	ENDS
;	COMDAT ??__FTDL_TASKRECURRENCE@@YAXXZ
text$yd	SEGMENT
??__FTDL_TASKRECURRENCE@@YAXXZ PROC			; `dynamic atexit destructor for 'TDL_TASKRECURRENCE'', COMDAT
	push	ebp
	mov	ebp, esp
	push	esi
	mov	esi, esp
	mov	ecx, OFFSET _TDL_TASKRECURRENCE
	call	DWORD PTR __imp_??1?$CStringT@_WV?$StrTraitMFC_DLL@_WV?$ChTraitsCRT@_W@ATL@@@@@ATL@@QAE@XZ
	cmp	esi, esp
	call	__RTC_CheckEsp
	pop	esi
	cmp	ebp, esp
	call	__RTC_CheckEsp
	pop	ebp
	ret	0
??__FTDL_TASKRECURRENCE@@YAXXZ ENDP			; `dynamic atexit destructor for 'TDL_TASKRECURRENCE''
; Function compile flags: /Odtp /RTCsu
text$yd	ENDS
;	COMDAT ??__FTDL_TASKRECURRENCEFREQ@@YAXXZ
text$yd	SEGMENT
??__FTDL_TASKRECURRENCEFREQ@@YAXXZ PROC			; `dynamic atexit destructor for 'TDL_TASKRECURRENCEFREQ'', COMDAT
	push	ebp
	mov	ebp, esp
	push	esi
	mov	esi, esp
	mov	ecx, OFFSET _TDL_TASKRECURRENCEFREQ
	call	DWORD PTR __imp_??1?$CStringT@_WV?$StrTraitMFC_DLL@_WV?$ChTraitsCRT@_W@ATL@@@@@ATL@@QAE@XZ
	cmp	esi, esp
	call	__RTC_CheckEsp
	pop	esi
	cmp	ebp, esp
	call	__RTC_CheckEsp
	pop	ebp
	ret	0
??__FTDL_TASKRECURRENCEFREQ@@YAXXZ ENDP			; `dynamic atexit destructor for 'TDL_TASKRECURRENCEFREQ''
; Function compile flags: /Odtp /RTCsu
text$yd	ENDS
;	COMDAT ??__FTDL_TASKRECURRENCESPEC1@@YAXXZ
text$yd	SEGMENT
??__FTDL_TASKRECURRENCESPEC1@@YAXXZ PROC		; `dynamic atexit destructor for 'TDL_TASKRECURRENCESPEC1'', COMDAT
	push	ebp
	mov	ebp, esp
	push	esi
	mov	esi, esp
	mov	ecx, OFFSET _TDL_TASKRECURRENCESPEC1
	call	DWORD PTR __imp_??1?$CStringT@_WV?$StrTraitMFC_DLL@_WV?$ChTraitsCRT@_W@ATL@@@@@ATL@@QAE@XZ
	cmp	esi, esp
	call	__RTC_CheckEsp
	pop	esi
	cmp	ebp, esp
	call	__RTC_CheckEsp
	pop	ebp
	ret	0
??__FTDL_TASKRECURRENCESPEC1@@YAXXZ ENDP		; `dynamic atexit destructor for 'TDL_TASKRECURRENCESPEC1''
; Function compile flags: /Odtp /RTCsu
text$yd	ENDS
;	COMDAT ??__FTDL_TASKRECURRENCESPEC2@@YAXXZ
text$yd	SEGMENT
??__FTDL_TASKRECURRENCESPEC2@@YAXXZ PROC		; `dynamic atexit destructor for 'TDL_TASKRECURRENCESPEC2'', COMDAT
	push	ebp
	mov	ebp, esp
	push	esi
	mov	esi, esp
	mov	ecx, OFFSET _TDL_TASKRECURRENCESPEC2
	call	DWORD PTR __imp_??1?$CStringT@_WV?$StrTraitMFC_DLL@_WV?$ChTraitsCRT@_W@ATL@@@@@ATL@@QAE@XZ
	cmp	esi, esp
	call	__RTC_CheckEsp
	pop	esi
	cmp	ebp, esp
	call	__RTC_CheckEsp
	pop	ebp
	ret	0
??__FTDL_TASKRECURRENCESPEC2@@YAXXZ ENDP		; `dynamic atexit destructor for 'TDL_TASKRECURRENCESPEC2''
; Function compile flags: /Odtp /RTCsu
text$yd	ENDS
;	COMDAT ??__FTDL_TASKRECURRENCEFROM@@YAXXZ
text$yd	SEGMENT
??__FTDL_TASKRECURRENCEFROM@@YAXXZ PROC			; `dynamic atexit destructor for 'TDL_TASKRECURRENCEFROM'', COMDAT
	push	ebp
	mov	ebp, esp
	push	esi
	mov	esi, esp
	mov	ecx, OFFSET _TDL_TASKRECURRENCEFROM
	call	DWORD PTR __imp_??1?$CStringT@_WV?$StrTraitMFC_DLL@_WV?$ChTraitsCRT@_W@ATL@@@@@ATL@@QAE@XZ
	cmp	esi, esp
	call	__RTC_CheckEsp
	pop	esi
	cmp	ebp, esp
	call	__RTC_CheckEsp
	pop	ebp
	ret	0
??__FTDL_TASKRECURRENCEFROM@@YAXXZ ENDP			; `dynamic atexit destructor for 'TDL_TASKRECURRENCEFROM''
; Function compile flags: /Odtp /RTCsu
text$yd	ENDS
;	COMDAT ??__FTDL_TASKRECURRENCEREUSE@@YAXXZ
text$yd	SEGMENT
??__FTDL_TASKRECURRENCEREUSE@@YAXXZ PROC		; `dynamic atexit destructor for 'TDL_TASKRECURRENCEREUSE'', COMDAT
	push	ebp
	mov	ebp, esp
	push	esi
	mov	esi, esp
	mov	ecx, OFFSET _TDL_TASKRECURRENCEREUSE
	call	DWORD PTR __imp_??1?$CStringT@_WV?$StrTraitMFC_DLL@_WV?$ChTraitsCRT@_W@ATL@@@@@ATL@@QAE@XZ
	cmp	esi, esp
	call	__RTC_CheckEsp
	pop	esi
	cmp	ebp, esp
	call	__RTC_CheckEsp
	pop	ebp
	ret	0
??__FTDL_TASKRECURRENCEREUSE@@YAXXZ ENDP		; `dynamic atexit destructor for 'TDL_TASKRECURRENCEREUSE''
; Function compile flags: /Odtp /RTCsu
text$yd	ENDS
;	COMDAT ??__FTDL_TASKRECURRENCENUM@@YAXXZ
text$yd	SEGMENT
??__FTDL_TASKRECURRENCENUM@@YAXXZ PROC			; `dynamic atexit destructor for 'TDL_TASKRECURRENCENUM'', COMDAT
	push	ebp
	mov	ebp, esp
	push	esi
	mov	esi, esp
	mov	ecx, OFFSET _TDL_TASKRECURRENCENUM
	call	DWORD PTR __imp_??1?$CStringT@_WV?$StrTraitMFC_DLL@_WV?$ChTraitsCRT@_W@ATL@@@@@ATL@@QAE@XZ
	cmp	esi, esp
	call	__RTC_CheckEsp
	pop	esi
	cmp	ebp, esp
	call	__RTC_CheckEsp
	pop	ebp
	ret	0
??__FTDL_TASKRECURRENCENUM@@YAXXZ ENDP			; `dynamic atexit destructor for 'TDL_TASKRECURRENCENUM''
; Function compile flags: /Odtp /RTCsu
text$yd	ENDS
;	COMDAT ??__FTDL_TASKRECURRENCEREMAINING@@YAXXZ
text$yd	SEGMENT
??__FTDL_TASKRECURRENCEREMAINING@@YAXXZ PROC		; `dynamic atexit destructor for 'TDL_TASKRECURRENCEREMAINING'', COMDAT
	push	ebp
	mov	ebp, esp
	push	esi
	mov	esi, esp
	mov	ecx, OFFSET _TDL_TASKRECURRENCEREMAINING
	call	DWORD PTR __imp_??1?$CStringT@_WV?$StrTraitMFC_DLL@_WV?$ChTraitsCRT@_W@ATL@@@@@ATL@@QAE@XZ
	cmp	esi, esp
	call	__RTC_CheckEsp
	pop	esi
	cmp	ebp, esp
	call	__RTC_CheckEsp
	pop	ebp
	ret	0
??__FTDL_TASKRECURRENCEREMAINING@@YAXXZ ENDP		; `dynamic atexit destructor for 'TDL_TASKRECURRENCEREMAINING''
; Function compile flags: /Odtp /RTCsu
text$yd	ENDS
;	COMDAT ??__FTDL_TASKDEPENDENCY@@YAXXZ
text$yd	SEGMENT
??__FTDL_TASKDEPENDENCY@@YAXXZ PROC			; `dynamic atexit destructor for 'TDL_TASKDEPENDENCY'', COMDAT
	push	ebp
	mov	ebp, esp
	push	esi
	mov	esi, esp
	mov	ecx, OFFSET _TDL_TASKDEPENDENCY
	call	DWORD PTR __imp_??1?$CStringT@_WV?$StrTraitMFC_DLL@_WV?$ChTraitsCRT@_W@ATL@@@@@ATL@@QAE@XZ
	cmp	esi, esp
	call	__RTC_CheckEsp
	pop	esi
	cmp	ebp, esp
	call	__RTC_CheckEsp
	pop	ebp
	ret	0
??__FTDL_TASKDEPENDENCY@@YAXXZ ENDP			; `dynamic atexit destructor for 'TDL_TASKDEPENDENCY''
; Function compile flags: /Odtp /RTCsu
text$yd	ENDS
;	COMDAT ??__FTDL_TASKVERSION@@YAXXZ
text$yd	SEGMENT
??__FTDL_TASKVERSION@@YAXXZ PROC			; `dynamic atexit destructor for 'TDL_TASKVERSION'', COMDAT
	push	ebp
	mov	ebp, esp
	push	esi
	mov	esi, esp
	mov	ecx, OFFSET _TDL_TASKVERSION
	call	DWORD PTR __imp_??1?$CStringT@_WV?$StrTraitMFC_DLL@_WV?$ChTraitsCRT@_W@ATL@@@@@ATL@@QAE@XZ
	cmp	esi, esp
	call	__RTC_CheckEsp
	pop	esi
	cmp	ebp, esp
	call	__RTC_CheckEsp
	pop	ebp
	ret	0
??__FTDL_TASKVERSION@@YAXXZ ENDP			; `dynamic atexit destructor for 'TDL_TASKVERSION''
; Function compile flags: /Odtp /RTCsu
text$yd	ENDS
;	COMDAT ??__FTDL_TASKICONINDEX@@YAXXZ
text$yd	SEGMENT
??__FTDL_TASKICONINDEX@@YAXXZ PROC			; `dynamic atexit destructor for 'TDL_TASKICONINDEX'', COMDAT
	push	ebp
	mov	ebp, esp
	push	esi
	mov	esi, esp
	mov	ecx, OFFSET _TDL_TASKICONINDEX
	call	DWORD PTR __imp_??1?$CStringT@_WV?$StrTraitMFC_DLL@_WV?$ChTraitsCRT@_W@ATL@@@@@ATL@@QAE@XZ
	cmp	esi, esp
	call	__RTC_CheckEsp
	pop	esi
	cmp	ebp, esp
	call	__RTC_CheckEsp
	pop	ebp
	ret	0
??__FTDL_TASKICONINDEX@@YAXXZ ENDP			; `dynamic atexit destructor for 'TDL_TASKICONINDEX''
; Function compile flags: /Odtp /RTCsu
text$yd	ENDS
;	COMDAT ??__FTDL_TASKMETADATA@@YAXXZ
text$yd	SEGMENT
??__FTDL_TASKMETADATA@@YAXXZ PROC			; `dynamic atexit destructor for 'TDL_TASKMETADATA'', COMDAT
	push	ebp
	mov	ebp, esp
	push	esi
	mov	esi, esp
	mov	ecx, OFFSET _TDL_TASKMETADATA
	call	DWORD PTR __imp_??1?$CStringT@_WV?$StrTraitMFC_DLL@_WV?$ChTraitsCRT@_W@ATL@@@@@ATL@@QAE@XZ
	cmp	esi, esp
	call	__RTC_CheckEsp
	pop	esi
	cmp	ebp, esp
	call	__RTC_CheckEsp
	pop	ebp
	ret	0
??__FTDL_TASKMETADATA@@YAXXZ ENDP			; `dynamic atexit destructor for 'TDL_TASKMETADATA''
; Function compile flags: /Odtp /RTCsu
text$yd	ENDS
;	COMDAT ??__FTDL_TASKRISK@@YAXXZ
text$yd	SEGMENT
??__FTDL_TASKRISK@@YAXXZ PROC				; `dynamic atexit destructor for 'TDL_TASKRISK'', COMDAT
	push	ebp
	mov	ebp, esp
	push	esi
	mov	esi, esp
	mov	ecx, OFFSET _TDL_TASKRISK
	call	DWORD PTR __imp_??1?$CStringT@_WV?$StrTraitMFC_DLL@_WV?$ChTraitsCRT@_W@ATL@@@@@ATL@@QAE@XZ
	cmp	esi, esp
	call	__RTC_CheckEsp
	pop	esi
	cmp	ebp, esp
	call	__RTC_CheckEsp
	pop	ebp
	ret	0
??__FTDL_TASKRISK@@YAXXZ ENDP				; `dynamic atexit destructor for 'TDL_TASKRISK''
; Function compile flags: /Odtp /RTCsu
text$yd	ENDS
;	COMDAT ??__FTDL_TASKCOST@@YAXXZ
text$yd	SEGMENT
??__FTDL_TASKCOST@@YAXXZ PROC				; `dynamic atexit destructor for 'TDL_TASKCOST'', COMDAT
	push	ebp
	mov	ebp, esp
	push	esi
	mov	esi, esp
	mov	ecx, OFFSET _TDL_TASKCOST
	call	DWORD PTR __imp_??1?$CStringT@_WV?$StrTraitMFC_DLL@_WV?$ChTraitsCRT@_W@ATL@@@@@ATL@@QAE@XZ
	cmp	esi, esp
	call	__RTC_CheckEsp
	pop	esi
	cmp	ebp, esp
	call	__RTC_CheckEsp
	pop	ebp
	ret	0
??__FTDL_TASKCOST@@YAXXZ ENDP				; `dynamic atexit destructor for 'TDL_TASKCOST''
; Function compile flags: /Odtp /RTCsu
text$yd	ENDS
;	COMDAT ??__FTDL_TASKEXTERNALID@@YAXXZ
text$yd	SEGMENT
??__FTDL_TASKEXTERNALID@@YAXXZ PROC			; `dynamic atexit destructor for 'TDL_TASKEXTERNALID'', COMDAT
	push	ebp
	mov	ebp, esp
	push	esi
	mov	esi, esp
	mov	ecx, OFFSET _TDL_TASKEXTERNALID
	call	DWORD PTR __imp_??1?$CStringT@_WV?$StrTraitMFC_DLL@_WV?$ChTraitsCRT@_W@ATL@@@@@ATL@@QAE@XZ
	cmp	esi, esp
	call	__RTC_CheckEsp
	pop	esi
	cmp	ebp, esp
	call	__RTC_CheckEsp
	pop	ebp
	ret	0
??__FTDL_TASKEXTERNALID@@YAXXZ ENDP			; `dynamic atexit destructor for 'TDL_TASKEXTERNALID''
; Function compile flags: /Odtp /RTCsu
text$yd	ENDS
;	COMDAT ??__FTDL_TASKSUBTASKDONE@@YAXXZ
text$yd	SEGMENT
??__FTDL_TASKSUBTASKDONE@@YAXXZ PROC			; `dynamic atexit destructor for 'TDL_TASKSUBTASKDONE'', COMDAT
	push	ebp
	mov	ebp, esp
	push	esi
	mov	esi, esp
	mov	ecx, OFFSET _TDL_TASKSUBTASKDONE
	call	DWORD PTR __imp_??1?$CStringT@_WV?$StrTraitMFC_DLL@_WV?$ChTraitsCRT@_W@ATL@@@@@ATL@@QAE@XZ
	cmp	esi, esp
	call	__RTC_CheckEsp
	pop	esi
	cmp	ebp, esp
	call	__RTC_CheckEsp
	pop	ebp
	ret	0
??__FTDL_TASKSUBTASKDONE@@YAXXZ ENDP			; `dynamic atexit destructor for 'TDL_TASKSUBTASKDONE''
; Function compile flags: /Odtp /RTCsu
text$yd	ENDS
;	COMDAT ??__FTDL_TASKGOODASDONE@@YAXXZ
text$yd	SEGMENT
??__FTDL_TASKGOODASDONE@@YAXXZ PROC			; `dynamic atexit destructor for 'TDL_TASKGOODASDONE'', COMDAT
	push	ebp
	mov	ebp, esp
	push	esi
	mov	esi, esp
	mov	ecx, OFFSET _TDL_TASKGOODASDONE
	call	DWORD PTR __imp_??1?$CStringT@_WV?$StrTraitMFC_DLL@_WV?$ChTraitsCRT@_W@ATL@@@@@ATL@@QAE@XZ
	cmp	esi, esp
	call	__RTC_CheckEsp
	pop	esi
	cmp	ebp, esp
	call	__RTC_CheckEsp
	pop	ebp
	ret	0
??__FTDL_TASKGOODASDONE@@YAXXZ ENDP			; `dynamic atexit destructor for 'TDL_TASKGOODASDONE''
; Function compile flags: /Odtp /RTCsu
text$yd	ENDS
;	COMDAT ??__FTDL_TASKRECURRENCEREG_DEP@@YAXXZ
text$yd	SEGMENT
??__FTDL_TASKRECURRENCEREG_DEP@@YAXXZ PROC		; `dynamic atexit destructor for 'TDL_TASKRECURRENCEREG_DEP'', COMDAT
	push	ebp
	mov	ebp, esp
	push	esi
	mov	esi, esp
	mov	ecx, OFFSET _TDL_TASKRECURRENCEREG_DEP
	call	DWORD PTR __imp_??1?$CStringT@_WV?$StrTraitMFC_DLL@_WV?$ChTraitsCRT@_W@ATL@@@@@ATL@@QAE@XZ
	cmp	esi, esp
	call	__RTC_CheckEsp
	pop	esi
	cmp	ebp, esp
	call	__RTC_CheckEsp
	pop	ebp
	ret	0
??__FTDL_TASKRECURRENCEREG_DEP@@YAXXZ ENDP		; `dynamic atexit destructor for 'TDL_TASKRECURRENCEREG_DEP''
; Function compile flags: /Odtp /RTCsu
text$yd	ENDS
;	COMDAT ??__FTDL_TASKRECURRENCESPEC1_DEP@@YAXXZ
text$yd	SEGMENT
??__FTDL_TASKRECURRENCESPEC1_DEP@@YAXXZ PROC		; `dynamic atexit destructor for 'TDL_TASKRECURRENCESPEC1_DEP'', COMDAT
	push	ebp
	mov	ebp, esp
	push	esi
	mov	esi, esp
	mov	ecx, OFFSET _TDL_TASKRECURRENCESPEC1_DEP
	call	DWORD PTR __imp_??1?$CStringT@_WV?$StrTraitMFC_DLL@_WV?$ChTraitsCRT@_W@ATL@@@@@ATL@@QAE@XZ
	cmp	esi, esp
	call	__RTC_CheckEsp
	pop	esi
	cmp	ebp, esp
	call	__RTC_CheckEsp
	pop	ebp
	ret	0
??__FTDL_TASKRECURRENCESPEC1_DEP@@YAXXZ ENDP		; `dynamic atexit destructor for 'TDL_TASKRECURRENCESPEC1_DEP''
; Function compile flags: /Odtp /RTCsu
text$yd	ENDS
;	COMDAT ??__FTDL_TASKRECURRENCESPEC2_DEP@@YAXXZ
text$yd	SEGMENT
??__FTDL_TASKRECURRENCESPEC2_DEP@@YAXXZ PROC		; `dynamic atexit destructor for 'TDL_TASKRECURRENCESPEC2_DEP'', COMDAT
	push	ebp
	mov	ebp, esp
	push	esi
	mov	esi, esp
	mov	ecx, OFFSET _TDL_TASKRECURRENCESPEC2_DEP
	call	DWORD PTR __imp_??1?$CStringT@_WV?$StrTraitMFC_DLL@_WV?$ChTraitsCRT@_W@ATL@@@@@ATL@@QAE@XZ
	cmp	esi, esp
	call	__RTC_CheckEsp
	pop	esi
	cmp	ebp, esp
	call	__RTC_CheckEsp
	pop	ebp
	ret	0
??__FTDL_TASKRECURRENCESPEC2_DEP@@YAXXZ ENDP		; `dynamic atexit destructor for 'TDL_TASKRECURRENCESPEC2_DEP''
; Function compile flags: /Odtp /RTCsu
text$yd	ENDS
;	COMDAT ??__FTDL_TASKRECURRENCEFROMDUE_DEP@@YAXXZ
text$yd	SEGMENT
??__FTDL_TASKRECURRENCEFROMDUE_DEP@@YAXXZ PROC		; `dynamic atexit destructor for 'TDL_TASKRECURRENCEFROMDUE_DEP'', COMDAT
	push	ebp
	mov	ebp, esp
	push	esi
	mov	esi, esp
	mov	ecx, OFFSET _TDL_TASKRECURRENCEFROMDUE_DEP
	call	DWORD PTR __imp_??1?$CStringT@_WV?$StrTraitMFC_DLL@_WV?$ChTraitsCRT@_W@ATL@@@@@ATL@@QAE@XZ
	cmp	esi, esp
	call	__RTC_CheckEsp
	pop	esi
	cmp	ebp, esp
	call	__RTC_CheckEsp
	pop	ebp
	ret	0
??__FTDL_TASKRECURRENCEFROMDUE_DEP@@YAXXZ ENDP		; `dynamic atexit destructor for 'TDL_TASKRECURRENCEFROMDUE_DEP''
; Function compile flags: /Odtp /RTCsu
text$yd	ENDS
;	COMDAT ??__FTDL_TASKNUMALLOCTO_DEP@@YAXXZ
text$yd	SEGMENT
??__FTDL_TASKNUMALLOCTO_DEP@@YAXXZ PROC			; `dynamic atexit destructor for 'TDL_TASKNUMALLOCTO_DEP'', COMDAT
	push	ebp
	mov	ebp, esp
	push	esi
	mov	esi, esp
	mov	ecx, OFFSET _TDL_TASKNUMALLOCTO_DEP
	call	DWORD PTR __imp_??1?$CStringT@_WV?$StrTraitMFC_DLL@_WV?$ChTraitsCRT@_W@ATL@@@@@ATL@@QAE@XZ
	cmp	esi, esp
	call	__RTC_CheckEsp
	pop	esi
	cmp	ebp, esp
	call	__RTC_CheckEsp
	pop	ebp
	ret	0
??__FTDL_TASKNUMALLOCTO_DEP@@YAXXZ ENDP			; `dynamic atexit destructor for 'TDL_TASKNUMALLOCTO_DEP''
; Function compile flags: /Odtp /RTCsu
text$yd	ENDS
;	COMDAT ??__FTDL_TASKNUMCATEGORY_DEP@@YAXXZ
text$yd	SEGMENT
??__FTDL_TASKNUMCATEGORY_DEP@@YAXXZ PROC		; `dynamic atexit destructor for 'TDL_TASKNUMCATEGORY_DEP'', COMDAT
	push	ebp
	mov	ebp, esp
	push	esi
	mov	esi, esp
	mov	ecx, OFFSET _TDL_TASKNUMCATEGORY_DEP
	call	DWORD PTR __imp_??1?$CStringT@_WV?$StrTraitMFC_DLL@_WV?$ChTraitsCRT@_W@ATL@@@@@ATL@@QAE@XZ
	cmp	esi, esp
	call	__RTC_CheckEsp
	pop	esi
	cmp	ebp, esp
	call	__RTC_CheckEsp
	pop	ebp
	ret	0
??__FTDL_TASKNUMCATEGORY_DEP@@YAXXZ ENDP		; `dynamic atexit destructor for 'TDL_TASKNUMCATEGORY_DEP''
; Function compile flags: /Odtp /RTCsu
text$yd	ENDS
;	COMDAT ??__FTDL_TASKNUMTAGS_DEP@@YAXXZ
text$yd	SEGMENT
??__FTDL_TASKNUMTAGS_DEP@@YAXXZ PROC			; `dynamic atexit destructor for 'TDL_TASKNUMTAGS_DEP'', COMDAT
	push	ebp
	mov	ebp, esp
	push	esi
	mov	esi, esp
	mov	ecx, OFFSET _TDL_TASKNUMTAGS_DEP
	call	DWORD PTR __imp_??1?$CStringT@_WV?$StrTraitMFC_DLL@_WV?$ChTraitsCRT@_W@ATL@@@@@ATL@@QAE@XZ
	cmp	esi, esp
	call	__RTC_CheckEsp
	pop	esi
	cmp	ebp, esp
	call	__RTC_CheckEsp
	pop	ebp
	ret	0
??__FTDL_TASKNUMTAGS_DEP@@YAXXZ ENDP			; `dynamic atexit destructor for 'TDL_TASKNUMTAGS_DEP''
; Function compile flags: /Odtp /RTCsu
text$yd	ENDS
;	COMDAT ??__FTDL_TASKNUMDEPENDENCY_DEP@@YAXXZ
text$yd	SEGMENT
??__FTDL_TASKNUMDEPENDENCY_DEP@@YAXXZ PROC		; `dynamic atexit destructor for 'TDL_TASKNUMDEPENDENCY_DEP'', COMDAT
	push	ebp
	mov	ebp, esp
	push	esi
	mov	esi, esp
	mov	ecx, OFFSET _TDL_TASKNUMDEPENDENCY_DEP
	call	DWORD PTR __imp_??1?$CStringT@_WV?$StrTraitMFC_DLL@_WV?$ChTraitsCRT@_W@ATL@@@@@ATL@@QAE@XZ
	cmp	esi, esp
	call	__RTC_CheckEsp
	pop	esi
	cmp	ebp, esp
	call	__RTC_CheckEsp
	pop	ebp
	ret	0
??__FTDL_TASKNUMDEPENDENCY_DEP@@YAXXZ ENDP		; `dynamic atexit destructor for 'TDL_TASKNUMDEPENDENCY_DEP''
; Function compile flags: /Odtp /RTCsu
text$yd	ENDS
;	COMDAT ??__FTDL_TASKCUSTOMATTRIBDATA@@YAXXZ
text$yd	SEGMENT
??__FTDL_TASKCUSTOMATTRIBDATA@@YAXXZ PROC		; `dynamic atexit destructor for 'TDL_TASKCUSTOMATTRIBDATA'', COMDAT
	push	ebp
	mov	ebp, esp
	push	esi
	mov	esi, esp
	mov	ecx, OFFSET _TDL_TASKCUSTOMATTRIBDATA
	call	DWORD PTR __imp_??1?$CStringT@_WV?$StrTraitMFC_DLL@_WV?$ChTraitsCRT@_W@ATL@@@@@ATL@@QAE@XZ
	cmp	esi, esp
	call	__RTC_CheckEsp
	pop	esi
	cmp	ebp, esp
	call	__RTC_CheckEsp
	pop	ebp
	ret	0
??__FTDL_TASKCUSTOMATTRIBDATA@@YAXXZ ENDP		; `dynamic atexit destructor for 'TDL_TASKCUSTOMATTRIBDATA''
; Function compile flags: /Odtp /RTCsu
text$yd	ENDS
;	COMDAT ??__FTDL_TASKCUSTOMATTRIBID@@YAXXZ
text$yd	SEGMENT
??__FTDL_TASKCUSTOMATTRIBID@@YAXXZ PROC			; `dynamic atexit destructor for 'TDL_TASKCUSTOMATTRIBID'', COMDAT
	push	ebp
	mov	ebp, esp
	push	esi
	mov	esi, esp
	mov	ecx, OFFSET _TDL_TASKCUSTOMATTRIBID
	call	DWORD PTR __imp_??1?$CStringT@_WV?$StrTraitMFC_DLL@_WV?$ChTraitsCRT@_W@ATL@@@@@ATL@@QAE@XZ
	cmp	esi, esp
	call	__RTC_CheckEsp
	pop	esi
	cmp	ebp, esp
	call	__RTC_CheckEsp
	pop	ebp
	ret	0
??__FTDL_TASKCUSTOMATTRIBID@@YAXXZ ENDP			; `dynamic atexit destructor for 'TDL_TASKCUSTOMATTRIBID''
; Function compile flags: /Odtp /RTCsu
text$yd	ENDS
;	COMDAT ??__FTDL_TASKCUSTOMATTRIBNAME@@YAXXZ
text$yd	SEGMENT
??__FTDL_TASKCUSTOMATTRIBNAME@@YAXXZ PROC		; `dynamic atexit destructor for 'TDL_TASKCUSTOMATTRIBNAME'', COMDAT
	push	ebp
	mov	ebp, esp
	push	esi
	mov	esi, esp
	mov	ecx, OFFSET _TDL_TASKCUSTOMATTRIBNAME
	call	DWORD PTR __imp_??1?$CStringT@_WV?$StrTraitMFC_DLL@_WV?$ChTraitsCRT@_W@ATL@@@@@ATL@@QAE@XZ
	cmp	esi, esp
	call	__RTC_CheckEsp
	pop	esi
	cmp	ebp, esp
	call	__RTC_CheckEsp
	pop	ebp
	ret	0
??__FTDL_TASKCUSTOMATTRIBNAME@@YAXXZ ENDP		; `dynamic atexit destructor for 'TDL_TASKCUSTOMATTRIBNAME''
; Function compile flags: /Odtp /RTCsu
text$yd	ENDS
;	COMDAT ??__FTDL_TASKCUSTOMATTRIBVALUE@@YAXXZ
text$yd	SEGMENT
??__FTDL_TASKCUSTOMATTRIBVALUE@@YAXXZ PROC		; `dynamic atexit destructor for 'TDL_TASKCUSTOMATTRIBVALUE'', COMDAT
	push	ebp
	mov	ebp, esp
	push	esi
	mov	esi, esp
	mov	ecx, OFFSET _TDL_TASKCUSTOMATTRIBVALUE
	call	DWORD PTR __imp_??1?$CStringT@_WV?$StrTraitMFC_DLL@_WV?$ChTraitsCRT@_W@ATL@@@@@ATL@@QAE@XZ
	cmp	esi, esp
	call	__RTC_CheckEsp
	pop	esi
	cmp	ebp, esp
	call	__RTC_CheckEsp
	pop	ebp
	ret	0
??__FTDL_TASKCUSTOMATTRIBVALUE@@YAXXZ ENDP		; `dynamic atexit destructor for 'TDL_TASKCUSTOMATTRIBVALUE''
; Function compile flags: /Odtp /RTCsu
text$yd	ENDS
;	COMDAT ??__FTDL_TASKCUSTOMATTRIBDATESTRING@@YAXXZ
text$yd	SEGMENT
??__FTDL_TASKCUSTOMATTRIBDATESTRING@@YAXXZ PROC		; `dynamic atexit destructor for 'TDL_TASKCUSTOMATTRIBDATESTRING'', COMDAT
	push	ebp
	mov	ebp, esp
	push	esi
	mov	esi, esp
	mov	ecx, OFFSET _TDL_TASKCUSTOMATTRIBDATESTRING
	call	DWORD PTR __imp_??1?$CStringT@_WV?$StrTraitMFC_DLL@_WV?$ChTraitsCRT@_W@ATL@@@@@ATL@@QAE@XZ
	cmp	esi, esp
	call	__RTC_CheckEsp
	pop	esi
	cmp	ebp, esp
	call	__RTC_CheckEsp
	pop	ebp
	ret	0
??__FTDL_TASKCUSTOMATTRIBDATESTRING@@YAXXZ ENDP		; `dynamic atexit destructor for 'TDL_TASKCUSTOMATTRIBDATESTRING''
; Function compile flags: /Odtp /RTCsu
text$yd	ENDS
;	COMDAT ??__FTDL_TASKCOMMENTS@@YAXXZ
text$yd	SEGMENT
??__FTDL_TASKCOMMENTS@@YAXXZ PROC			; `dynamic atexit destructor for 'TDL_TASKCOMMENTS'', COMDAT
	push	ebp
	mov	ebp, esp
	push	esi
	mov	esi, esp
	mov	ecx, OFFSET _TDL_TASKCOMMENTS
	call	DWORD PTR __imp_??1?$CStringT@_WV?$StrTraitMFC_DLL@_WV?$ChTraitsCRT@_W@ATL@@@@@ATL@@QAE@XZ
	cmp	esi, esp
	call	__RTC_CheckEsp
	pop	esi
	cmp	ebp, esp
	call	__RTC_CheckEsp
	pop	ebp
	ret	0
??__FTDL_TASKCOMMENTS@@YAXXZ ENDP			; `dynamic atexit destructor for 'TDL_TASKCOMMENTS''
; Function compile flags: /Odtp /RTCsu
text$yd	ENDS
;	COMDAT ??__FTDL_TASKCUSTOMCOMMENTS@@YAXXZ
text$yd	SEGMENT
??__FTDL_TASKCUSTOMCOMMENTS@@YAXXZ PROC			; `dynamic atexit destructor for 'TDL_TASKCUSTOMCOMMENTS'', COMDAT
	push	ebp
	mov	ebp, esp
	push	esi
	mov	esi, esp
	mov	ecx, OFFSET _TDL_TASKCUSTOMCOMMENTS
	call	DWORD PTR __imp_??1?$CStringT@_WV?$StrTraitMFC_DLL@_WV?$ChTraitsCRT@_W@ATL@@@@@ATL@@QAE@XZ
	cmp	esi, esp
	call	__RTC_CheckEsp
	pop	esi
	cmp	ebp, esp
	call	__RTC_CheckEsp
	pop	ebp
	ret	0
??__FTDL_TASKCUSTOMCOMMENTS@@YAXXZ ENDP			; `dynamic atexit destructor for 'TDL_TASKCUSTOMCOMMENTS''
; Function compile flags: /Odtp /RTCsu
text$yd	ENDS
;	COMDAT ??__FTDL_TASKCOMMENTSTYPE@@YAXXZ
text$yd	SEGMENT
??__FTDL_TASKCOMMENTSTYPE@@YAXXZ PROC			; `dynamic atexit destructor for 'TDL_TASKCOMMENTSTYPE'', COMDAT
	push	ebp
	mov	ebp, esp
	push	esi
	mov	esi, esp
	mov	ecx, OFFSET _TDL_TASKCOMMENTSTYPE
	call	DWORD PTR __imp_??1?$CStringT@_WV?$StrTraitMFC_DLL@_WV?$ChTraitsCRT@_W@ATL@@@@@ATL@@QAE@XZ
	cmp	esi, esp
	call	__RTC_CheckEsp
	pop	esi
	cmp	ebp, esp
	call	__RTC_CheckEsp
	pop	ebp
	ret	0
??__FTDL_TASKCOMMENTSTYPE@@YAXXZ ENDP			; `dynamic atexit destructor for 'TDL_TASKCOMMENTSTYPE''
; Function compile flags: /Odtp /RTCsu
text$yd	ENDS
;	COMDAT ??__FTDL_TASKHTMLCOMMENTS@@YAXXZ
text$yd	SEGMENT
??__FTDL_TASKHTMLCOMMENTS@@YAXXZ PROC			; `dynamic atexit destructor for 'TDL_TASKHTMLCOMMENTS'', COMDAT
	push	ebp
	mov	ebp, esp
	push	esi
	mov	esi, esp
	mov	ecx, OFFSET _TDL_TASKHTMLCOMMENTS
	call	DWORD PTR __imp_??1?$CStringT@_WV?$StrTraitMFC_DLL@_WV?$ChTraitsCRT@_W@ATL@@@@@ATL@@QAE@XZ
	cmp	esi, esp
	call	__RTC_CheckEsp
	pop	esi
	cmp	ebp, esp
	call	__RTC_CheckEsp
	pop	ebp
	ret	0
??__FTDL_TASKHTMLCOMMENTS@@YAXXZ ENDP			; `dynamic atexit destructor for 'TDL_TASKHTMLCOMMENTS''
; Function compile flags: /Odtp /RTCsu
text$yd	ENDS
;	COMDAT ??__FTDL_TASKDONEDATE@@YAXXZ
text$yd	SEGMENT
??__FTDL_TASKDONEDATE@@YAXXZ PROC			; `dynamic atexit destructor for 'TDL_TASKDONEDATE'', COMDAT
	push	ebp
	mov	ebp, esp
	push	esi
	mov	esi, esp
	mov	ecx, OFFSET _TDL_TASKDONEDATE
	call	DWORD PTR __imp_??1?$CStringT@_WV?$StrTraitMFC_DLL@_WV?$ChTraitsCRT@_W@ATL@@@@@ATL@@QAE@XZ
	cmp	esi, esp
	call	__RTC_CheckEsp
	pop	esi
	cmp	ebp, esp
	call	__RTC_CheckEsp
	pop	ebp
	ret	0
??__FTDL_TASKDONEDATE@@YAXXZ ENDP			; `dynamic atexit destructor for 'TDL_TASKDONEDATE''
; Function compile flags: /Odtp /RTCsu
text$yd	ENDS
;	COMDAT ??__FTDL_TASKDONEDATESTRING@@YAXXZ
text$yd	SEGMENT
??__FTDL_TASKDONEDATESTRING@@YAXXZ PROC			; `dynamic atexit destructor for 'TDL_TASKDONEDATESTRING'', COMDAT
	push	ebp
	mov	ebp, esp
	push	esi
	mov	esi, esp
	mov	ecx, OFFSET _TDL_TASKDONEDATESTRING
	call	DWORD PTR __imp_??1?$CStringT@_WV?$StrTraitMFC_DLL@_WV?$ChTraitsCRT@_W@ATL@@@@@ATL@@QAE@XZ
	cmp	esi, esp
	call	__RTC_CheckEsp
	pop	esi
	cmp	ebp, esp
	call	__RTC_CheckEsp
	pop	ebp
	ret	0
??__FTDL_TASKDONEDATESTRING@@YAXXZ ENDP			; `dynamic atexit destructor for 'TDL_TASKDONEDATESTRING''
; Function compile flags: /Odtp /RTCsu
text$yd	ENDS
;	COMDAT ??__FTDL_TASKDUEDATE@@YAXXZ
text$yd	SEGMENT
??__FTDL_TASKDUEDATE@@YAXXZ PROC			; `dynamic atexit destructor for 'TDL_TASKDUEDATE'', COMDAT
	push	ebp
	mov	ebp, esp
	push	esi
	mov	esi, esp
	mov	ecx, OFFSET _TDL_TASKDUEDATE
	call	DWORD PTR __imp_??1?$CStringT@_WV?$StrTraitMFC_DLL@_WV?$ChTraitsCRT@_W@ATL@@@@@ATL@@QAE@XZ
	cmp	esi, esp
	call	__RTC_CheckEsp
	pop	esi
	cmp	ebp, esp
	call	__RTC_CheckEsp
	pop	ebp
	ret	0
??__FTDL_TASKDUEDATE@@YAXXZ ENDP			; `dynamic atexit destructor for 'TDL_TASKDUEDATE''
; Function compile flags: /Odtp /RTCsu
text$yd	ENDS
;	COMDAT ??__FTDL_TASKDUEDATESTRING@@YAXXZ
text$yd	SEGMENT
??__FTDL_TASKDUEDATESTRING@@YAXXZ PROC			; `dynamic atexit destructor for 'TDL_TASKDUEDATESTRING'', COMDAT
	push	ebp
	mov	ebp, esp
	push	esi
	mov	esi, esp
	mov	ecx, OFFSET _TDL_TASKDUEDATESTRING
	call	DWORD PTR __imp_??1?$CStringT@_WV?$StrTraitMFC_DLL@_WV?$ChTraitsCRT@_W@ATL@@@@@ATL@@QAE@XZ
	cmp	esi, esp
	call	__RTC_CheckEsp
	pop	esi
	cmp	ebp, esp
	call	__RTC_CheckEsp
	pop	ebp
	ret	0
??__FTDL_TASKDUEDATESTRING@@YAXXZ ENDP			; `dynamic atexit destructor for 'TDL_TASKDUEDATESTRING''
; Function compile flags: /Odtp /RTCsu
text$yd	ENDS
;	COMDAT ??__FTDL_TASKSTARTDATE@@YAXXZ
text$yd	SEGMENT
??__FTDL_TASKSTARTDATE@@YAXXZ PROC			; `dynamic atexit destructor for 'TDL_TASKSTARTDATE'', COMDAT
	push	ebp
	mov	ebp, esp
	push	esi
	mov	esi, esp
	mov	ecx, OFFSET _TDL_TASKSTARTDATE
	call	DWORD PTR __imp_??1?$CStringT@_WV?$StrTraitMFC_DLL@_WV?$ChTraitsCRT@_W@ATL@@@@@ATL@@QAE@XZ
	cmp	esi, esp
	call	__RTC_CheckEsp
	pop	esi
	cmp	ebp, esp
	call	__RTC_CheckEsp
	pop	ebp
	ret	0
??__FTDL_TASKSTARTDATE@@YAXXZ ENDP			; `dynamic atexit destructor for 'TDL_TASKSTARTDATE''
; Function compile flags: /Odtp /RTCsu
text$yd	ENDS
;	COMDAT ??__FTDL_TASKSTARTDATESTRING@@YAXXZ
text$yd	SEGMENT
??__FTDL_TASKSTARTDATESTRING@@YAXXZ PROC		; `dynamic atexit destructor for 'TDL_TASKSTARTDATESTRING'', COMDAT
	push	ebp
	mov	ebp, esp
	push	esi
	mov	esi, esp
	mov	ecx, OFFSET _TDL_TASKSTARTDATESTRING
	call	DWORD PTR __imp_??1?$CStringT@_WV?$StrTraitMFC_DLL@_WV?$ChTraitsCRT@_W@ATL@@@@@ATL@@QAE@XZ
	cmp	esi, esp
	call	__RTC_CheckEsp
	pop	esi
	cmp	ebp, esp
	call	__RTC_CheckEsp
	pop	ebp
	ret	0
??__FTDL_TASKSTARTDATESTRING@@YAXXZ ENDP		; `dynamic atexit destructor for 'TDL_TASKSTARTDATESTRING''
; Function compile flags: /Odtp /RTCsu
text$yd	ENDS
;	COMDAT ??__FTDL_TASKCREATIONDATE@@YAXXZ
text$yd	SEGMENT
??__FTDL_TASKCREATIONDATE@@YAXXZ PROC			; `dynamic atexit destructor for 'TDL_TASKCREATIONDATE'', COMDAT
	push	ebp
	mov	ebp, esp
	push	esi
	mov	esi, esp
	mov	ecx, OFFSET _TDL_TASKCREATIONDATE
	call	DWORD PTR __imp_??1?$CStringT@_WV?$StrTraitMFC_DLL@_WV?$ChTraitsCRT@_W@ATL@@@@@ATL@@QAE@XZ
	cmp	esi, esp
	call	__RTC_CheckEsp
	pop	esi
	cmp	ebp, esp
	call	__RTC_CheckEsp
	pop	ebp
	ret	0
??__FTDL_TASKCREATIONDATE@@YAXXZ ENDP			; `dynamic atexit destructor for 'TDL_TASKCREATIONDATE''
; Function compile flags: /Odtp /RTCsu
text$yd	ENDS
;	COMDAT ??__FTDL_TASKCREATIONDATESTRING@@YAXXZ
text$yd	SEGMENT
??__FTDL_TASKCREATIONDATESTRING@@YAXXZ PROC		; `dynamic atexit destructor for 'TDL_TASKCREATIONDATESTRING'', COMDAT
	push	ebp
	mov	ebp, esp
	push	esi
	mov	esi, esp
	mov	ecx, OFFSET _TDL_TASKCREATIONDATESTRING
	call	DWORD PTR __imp_??1?$CStringT@_WV?$StrTraitMFC_DLL@_WV?$ChTraitsCRT@_W@ATL@@@@@ATL@@QAE@XZ
	cmp	esi, esp
	call	__RTC_CheckEsp
	pop	esi
	cmp	ebp, esp
	call	__RTC_CheckEsp
	pop	ebp
	ret	0
??__FTDL_TASKCREATIONDATESTRING@@YAXXZ ENDP		; `dynamic atexit destructor for 'TDL_TASKCREATIONDATESTRING''
; Function compile flags: /Odtp /RTCsu
text$yd	ENDS
;	COMDAT ??__FTDL_TASKLASTMOD@@YAXXZ
text$yd	SEGMENT
??__FTDL_TASKLASTMOD@@YAXXZ PROC			; `dynamic atexit destructor for 'TDL_TASKLASTMOD'', COMDAT
	push	ebp
	mov	ebp, esp
	push	esi
	mov	esi, esp
	mov	ecx, OFFSET _TDL_TASKLASTMOD
	call	DWORD PTR __imp_??1?$CStringT@_WV?$StrTraitMFC_DLL@_WV?$ChTraitsCRT@_W@ATL@@@@@ATL@@QAE@XZ
	cmp	esi, esp
	call	__RTC_CheckEsp
	pop	esi
	cmp	ebp, esp
	call	__RTC_CheckEsp
	pop	ebp
	ret	0
??__FTDL_TASKLASTMOD@@YAXXZ ENDP			; `dynamic atexit destructor for 'TDL_TASKLASTMOD''
; Function compile flags: /Odtp /RTCsu
text$yd	ENDS
;	COMDAT ??__FTDL_TASKLASTMODSTRING@@YAXXZ
text$yd	SEGMENT
??__FTDL_TASKLASTMODSTRING@@YAXXZ PROC			; `dynamic atexit destructor for 'TDL_TASKLASTMODSTRING'', COMDAT
	push	ebp
	mov	ebp, esp
	push	esi
	mov	esi, esp
	mov	ecx, OFFSET _TDL_TASKLASTMODSTRING
	call	DWORD PTR __imp_??1?$CStringT@_WV?$StrTraitMFC_DLL@_WV?$ChTraitsCRT@_W@ATL@@@@@ATL@@QAE@XZ
	cmp	esi, esp
	call	__RTC_CheckEsp
	pop	esi
	cmp	ebp, esp
	call	__RTC_CheckEsp
	pop	ebp
	ret	0
??__FTDL_TASKLASTMODSTRING@@YAXXZ ENDP			; `dynamic atexit destructor for 'TDL_TASKLASTMODSTRING''
; Function compile flags: /Odtp /RTCsu
text$yd	ENDS
;	COMDAT ??__FTDL_TASKTEXTCOLOR@@YAXXZ
text$yd	SEGMENT
??__FTDL_TASKTEXTCOLOR@@YAXXZ PROC			; `dynamic atexit destructor for 'TDL_TASKTEXTCOLOR'', COMDAT
	push	ebp
	mov	ebp, esp
	push	esi
	mov	esi, esp
	mov	ecx, OFFSET _TDL_TASKTEXTCOLOR
	call	DWORD PTR __imp_??1?$CStringT@_WV?$StrTraitMFC_DLL@_WV?$ChTraitsCRT@_W@ATL@@@@@ATL@@QAE@XZ
	cmp	esi, esp
	call	__RTC_CheckEsp
	pop	esi
	cmp	ebp, esp
	call	__RTC_CheckEsp
	pop	ebp
	ret	0
??__FTDL_TASKTEXTCOLOR@@YAXXZ ENDP			; `dynamic atexit destructor for 'TDL_TASKTEXTCOLOR''
; Function compile flags: /Odtp /RTCsu
text$yd	ENDS
;	COMDAT ??__FTDL_TASKBACKCOLOR@@YAXXZ
text$yd	SEGMENT
??__FTDL_TASKBACKCOLOR@@YAXXZ PROC			; `dynamic atexit destructor for 'TDL_TASKBACKCOLOR'', COMDAT
	push	ebp
	mov	ebp, esp
	push	esi
	mov	esi, esp
	mov	ecx, OFFSET _TDL_TASKBACKCOLOR
	call	DWORD PTR __imp_??1?$CStringT@_WV?$StrTraitMFC_DLL@_WV?$ChTraitsCRT@_W@ATL@@@@@ATL@@QAE@XZ
	cmp	esi, esp
	call	__RTC_CheckEsp
	pop	esi
	cmp	ebp, esp
	call	__RTC_CheckEsp
	pop	ebp
	ret	0
??__FTDL_TASKBACKCOLOR@@YAXXZ ENDP			; `dynamic atexit destructor for 'TDL_TASKBACKCOLOR''
; Function compile flags: /Odtp /RTCsu
text$yd	ENDS
;	COMDAT ??__FTDL_TASKTEXTWEBCOLOR@@YAXXZ
text$yd	SEGMENT
??__FTDL_TASKTEXTWEBCOLOR@@YAXXZ PROC			; `dynamic atexit destructor for 'TDL_TASKTEXTWEBCOLOR'', COMDAT
	push	ebp
	mov	ebp, esp
	push	esi
	mov	esi, esp
	mov	ecx, OFFSET _TDL_TASKTEXTWEBCOLOR
	call	DWORD PTR __imp_??1?$CStringT@_WV?$StrTraitMFC_DLL@_WV?$ChTraitsCRT@_W@ATL@@@@@ATL@@QAE@XZ
	cmp	esi, esp
	call	__RTC_CheckEsp
	pop	esi
	cmp	ebp, esp
	call	__RTC_CheckEsp
	pop	ebp
	ret	0
??__FTDL_TASKTEXTWEBCOLOR@@YAXXZ ENDP			; `dynamic atexit destructor for 'TDL_TASKTEXTWEBCOLOR''
; Function compile flags: /Odtp /RTCsu
text$yd	ENDS
;	COMDAT ??__FTDL_TASKBACKWEBCOLOR@@YAXXZ
text$yd	SEGMENT
??__FTDL_TASKBACKWEBCOLOR@@YAXXZ PROC			; `dynamic atexit destructor for 'TDL_TASKBACKWEBCOLOR'', COMDAT
	push	ebp
	mov	ebp, esp
	push	esi
	mov	esi, esp
	mov	ecx, OFFSET _TDL_TASKBACKWEBCOLOR
	call	DWORD PTR __imp_??1?$CStringT@_WV?$StrTraitMFC_DLL@_WV?$ChTraitsCRT@_W@ATL@@@@@ATL@@QAE@XZ
	cmp	esi, esp
	call	__RTC_CheckEsp
	pop	esi
	cmp	ebp, esp
	call	__RTC_CheckEsp
	pop	ebp
	ret	0
??__FTDL_TASKBACKWEBCOLOR@@YAXXZ ENDP			; `dynamic atexit destructor for 'TDL_TASKBACKWEBCOLOR''
; Function compile flags: /Odtp /RTCsu
text$yd	ENDS
;	COMDAT ??__FTDL_TASKPRIORITYCOLOR@@YAXXZ
text$yd	SEGMENT
??__FTDL_TASKPRIORITYCOLOR@@YAXXZ PROC			; `dynamic atexit destructor for 'TDL_TASKPRIORITYCOLOR'', COMDAT
	push	ebp
	mov	ebp, esp
	push	esi
	mov	esi, esp
	mov	ecx, OFFSET _TDL_TASKPRIORITYCOLOR
	call	DWORD PTR __imp_??1?$CStringT@_WV?$StrTraitMFC_DLL@_WV?$ChTraitsCRT@_W@ATL@@@@@ATL@@QAE@XZ
	cmp	esi, esp
	call	__RTC_CheckEsp
	pop	esi
	cmp	ebp, esp
	call	__RTC_CheckEsp
	pop	ebp
	ret	0
??__FTDL_TASKPRIORITYCOLOR@@YAXXZ ENDP			; `dynamic atexit destructor for 'TDL_TASKPRIORITYCOLOR''
; Function compile flags: /Odtp /RTCsu
text$yd	ENDS
;	COMDAT ??__FTDL_TASKPRIORITYWEBCOLOR@@YAXXZ
text$yd	SEGMENT
??__FTDL_TASKPRIORITYWEBCOLOR@@YAXXZ PROC		; `dynamic atexit destructor for 'TDL_TASKPRIORITYWEBCOLOR'', COMDAT
	push	ebp
	mov	ebp, esp
	push	esi
	mov	esi, esp
	mov	ecx, OFFSET _TDL_TASKPRIORITYWEBCOLOR
	call	DWORD PTR __imp_??1?$CStringT@_WV?$StrTraitMFC_DLL@_WV?$ChTraitsCRT@_W@ATL@@@@@ATL@@QAE@XZ
	cmp	esi, esp
	call	__RTC_CheckEsp
	pop	esi
	cmp	ebp, esp
	call	__RTC_CheckEsp
	pop	ebp
	ret	0
??__FTDL_TASKPRIORITYWEBCOLOR@@YAXXZ ENDP		; `dynamic atexit destructor for 'TDL_TASKPRIORITYWEBCOLOR''
; Function compile flags: /Odtp /RTCsu
text$yd	ENDS
;	COMDAT ??__FTDL_TASKCALCTIMEESTIMATE@@YAXXZ
text$yd	SEGMENT
??__FTDL_TASKCALCTIMEESTIMATE@@YAXXZ PROC		; `dynamic atexit destructor for 'TDL_TASKCALCTIMEESTIMATE'', COMDAT
	push	ebp
	mov	ebp, esp
	push	esi
	mov	esi, esp
	mov	ecx, OFFSET _TDL_TASKCALCTIMEESTIMATE
	call	DWORD PTR __imp_??1?$CStringT@_WV?$StrTraitMFC_DLL@_WV?$ChTraitsCRT@_W@ATL@@@@@ATL@@QAE@XZ
	cmp	esi, esp
	call	__RTC_CheckEsp
	pop	esi
	cmp	ebp, esp
	call	__RTC_CheckEsp
	pop	ebp
	ret	0
??__FTDL_TASKCALCTIMEESTIMATE@@YAXXZ ENDP		; `dynamic atexit destructor for 'TDL_TASKCALCTIMEESTIMATE''
; Function compile flags: /Odtp /RTCsu
text$yd	ENDS
;	COMDAT ??__FTDL_TASKCALCTIMEESTUNITS@@YAXXZ
text$yd	SEGMENT
??__FTDL_TASKCALCTIMEESTUNITS@@YAXXZ PROC		; `dynamic atexit destructor for 'TDL_TASKCALCTIMEESTUNITS'', COMDAT
	push	ebp
	mov	ebp, esp
	push	esi
	mov	esi, esp
	mov	ecx, OFFSET _TDL_TASKCALCTIMEESTUNITS
	call	DWORD PTR __imp_??1?$CStringT@_WV?$StrTraitMFC_DLL@_WV?$ChTraitsCRT@_W@ATL@@@@@ATL@@QAE@XZ
	cmp	esi, esp
	call	__RTC_CheckEsp
	pop	esi
	cmp	ebp, esp
	call	__RTC_CheckEsp
	pop	ebp
	ret	0
??__FTDL_TASKCALCTIMEESTUNITS@@YAXXZ ENDP		; `dynamic atexit destructor for 'TDL_TASKCALCTIMEESTUNITS''
; Function compile flags: /Odtp /RTCsu
text$yd	ENDS
;	COMDAT ??__FTDL_TASKCALCTIMESPENT@@YAXXZ
text$yd	SEGMENT
??__FTDL_TASKCALCTIMESPENT@@YAXXZ PROC			; `dynamic atexit destructor for 'TDL_TASKCALCTIMESPENT'', COMDAT
	push	ebp
	mov	ebp, esp
	push	esi
	mov	esi, esp
	mov	ecx, OFFSET _TDL_TASKCALCTIMESPENT
	call	DWORD PTR __imp_??1?$CStringT@_WV?$StrTraitMFC_DLL@_WV?$ChTraitsCRT@_W@ATL@@@@@ATL@@QAE@XZ
	cmp	esi, esp
	call	__RTC_CheckEsp
	pop	esi
	cmp	ebp, esp
	call	__RTC_CheckEsp
	pop	ebp
	ret	0
??__FTDL_TASKCALCTIMESPENT@@YAXXZ ENDP			; `dynamic atexit destructor for 'TDL_TASKCALCTIMESPENT''
; Function compile flags: /Odtp /RTCsu
text$yd	ENDS
;	COMDAT ??__FTDL_TASKCALCTIMESPENTUNITS@@YAXXZ
text$yd	SEGMENT
??__FTDL_TASKCALCTIMESPENTUNITS@@YAXXZ PROC		; `dynamic atexit destructor for 'TDL_TASKCALCTIMESPENTUNITS'', COMDAT
	push	ebp
	mov	ebp, esp
	push	esi
	mov	esi, esp
	mov	ecx, OFFSET _TDL_TASKCALCTIMESPENTUNITS
	call	DWORD PTR __imp_??1?$CStringT@_WV?$StrTraitMFC_DLL@_WV?$ChTraitsCRT@_W@ATL@@@@@ATL@@QAE@XZ
	cmp	esi, esp
	call	__RTC_CheckEsp
	pop	esi
	cmp	ebp, esp
	call	__RTC_CheckEsp
	pop	ebp
	ret	0
??__FTDL_TASKCALCTIMESPENTUNITS@@YAXXZ ENDP		; `dynamic atexit destructor for 'TDL_TASKCALCTIMESPENTUNITS''
; Function compile flags: /Odtp /RTCsu
text$yd	ENDS
;	COMDAT ??__FTDL_TASKCALCSTARTDATE@@YAXXZ
text$yd	SEGMENT
??__FTDL_TASKCALCSTARTDATE@@YAXXZ PROC			; `dynamic atexit destructor for 'TDL_TASKCALCSTARTDATE'', COMDAT
	push	ebp
	mov	ebp, esp
	push	esi
	mov	esi, esp
	mov	ecx, OFFSET _TDL_TASKCALCSTARTDATE
	call	DWORD PTR __imp_??1?$CStringT@_WV?$StrTraitMFC_DLL@_WV?$ChTraitsCRT@_W@ATL@@@@@ATL@@QAE@XZ
	cmp	esi, esp
	call	__RTC_CheckEsp
	pop	esi
	cmp	ebp, esp
	call	__RTC_CheckEsp
	pop	ebp
	ret	0
??__FTDL_TASKCALCSTARTDATE@@YAXXZ ENDP			; `dynamic atexit destructor for 'TDL_TASKCALCSTARTDATE''
; Function compile flags: /Odtp /RTCsu
text$yd	ENDS
;	COMDAT ??__FTDL_TASKCALCSTARTDATESTRING@@YAXXZ
text$yd	SEGMENT
??__FTDL_TASKCALCSTARTDATESTRING@@YAXXZ PROC		; `dynamic atexit destructor for 'TDL_TASKCALCSTARTDATESTRING'', COMDAT
	push	ebp
	mov	ebp, esp
	push	esi
	mov	esi, esp
	mov	ecx, OFFSET _TDL_TASKCALCSTARTDATESTRING
	call	DWORD PTR __imp_??1?$CStringT@_WV?$StrTraitMFC_DLL@_WV?$ChTraitsCRT@_W@ATL@@@@@ATL@@QAE@XZ
	cmp	esi, esp
	call	__RTC_CheckEsp
	pop	esi
	cmp	ebp, esp
	call	__RTC_CheckEsp
	pop	ebp
	ret	0
??__FTDL_TASKCALCSTARTDATESTRING@@YAXXZ ENDP		; `dynamic atexit destructor for 'TDL_TASKCALCSTARTDATESTRING''
; Function compile flags: /Odtp /RTCsu
text$yd	ENDS
;	COMDAT ??__FTDL_TASKCALCDUEDATE@@YAXXZ
text$yd	SEGMENT
??__FTDL_TASKCALCDUEDATE@@YAXXZ PROC			; `dynamic atexit destructor for 'TDL_TASKCALCDUEDATE'', COMDAT
	push	ebp
	mov	ebp, esp
	push	esi
	mov	esi, esp
	mov	ecx, OFFSET _TDL_TASKCALCDUEDATE
	call	DWORD PTR __imp_??1?$CStringT@_WV?$StrTraitMFC_DLL@_WV?$ChTraitsCRT@_W@ATL@@@@@ATL@@QAE@XZ
	cmp	esi, esp
	call	__RTC_CheckEsp
	pop	esi
	cmp	ebp, esp
	call	__RTC_CheckEsp
	pop	ebp
	ret	0
??__FTDL_TASKCALCDUEDATE@@YAXXZ ENDP			; `dynamic atexit destructor for 'TDL_TASKCALCDUEDATE''
; Function compile flags: /Odtp /RTCsu
text$yd	ENDS
;	COMDAT ??__FTDL_TASKCALCDUEDATESTRING@@YAXXZ
text$yd	SEGMENT
??__FTDL_TASKCALCDUEDATESTRING@@YAXXZ PROC		; `dynamic atexit destructor for 'TDL_TASKCALCDUEDATESTRING'', COMDAT
	push	ebp
	mov	ebp, esp
	push	esi
	mov	esi, esp
	mov	ecx, OFFSET _TDL_TASKCALCDUEDATESTRING
	call	DWORD PTR __imp_??1?$CStringT@_WV?$StrTraitMFC_DLL@_WV?$ChTraitsCRT@_W@ATL@@@@@ATL@@QAE@XZ
	cmp	esi, esp
	call	__RTC_CheckEsp
	pop	esi
	cmp	ebp, esp
	call	__RTC_CheckEsp
	pop	ebp
	ret	0
??__FTDL_TASKCALCDUEDATESTRING@@YAXXZ ENDP		; `dynamic atexit destructor for 'TDL_TASKCALCDUEDATESTRING''
; Function compile flags: /Odtp /RTCsu
text$yd	ENDS
;	COMDAT ??__FTDL_TASKCALCCOMPLETION@@YAXXZ
text$yd	SEGMENT
??__FTDL_TASKCALCCOMPLETION@@YAXXZ PROC			; `dynamic atexit destructor for 'TDL_TASKCALCCOMPLETION'', COMDAT
	push	ebp
	mov	ebp, esp
	push	esi
	mov	esi, esp
	mov	ecx, OFFSET _TDL_TASKCALCCOMPLETION
	call	DWORD PTR __imp_??1?$CStringT@_WV?$StrTraitMFC_DLL@_WV?$ChTraitsCRT@_W@ATL@@@@@ATL@@QAE@XZ
	cmp	esi, esp
	call	__RTC_CheckEsp
	pop	esi
	cmp	ebp, esp
	call	__RTC_CheckEsp
	pop	ebp
	ret	0
??__FTDL_TASKCALCCOMPLETION@@YAXXZ ENDP			; `dynamic atexit destructor for 'TDL_TASKCALCCOMPLETION''
; Function compile flags: /Odtp /RTCsu
text$yd	ENDS
;	COMDAT ??__FTDL_TASKHIGHESTPRIORITY@@YAXXZ
text$yd	SEGMENT
??__FTDL_TASKHIGHESTPRIORITY@@YAXXZ PROC		; `dynamic atexit destructor for 'TDL_TASKHIGHESTPRIORITY'', COMDAT
	push	ebp
	mov	ebp, esp
	push	esi
	mov	esi, esp
	mov	ecx, OFFSET _TDL_TASKHIGHESTPRIORITY
	call	DWORD PTR __imp_??1?$CStringT@_WV?$StrTraitMFC_DLL@_WV?$ChTraitsCRT@_W@ATL@@@@@ATL@@QAE@XZ
	cmp	esi, esp
	call	__RTC_CheckEsp
	pop	esi
	cmp	ebp, esp
	call	__RTC_CheckEsp
	pop	ebp
	ret	0
??__FTDL_TASKHIGHESTPRIORITY@@YAXXZ ENDP		; `dynamic atexit destructor for 'TDL_TASKHIGHESTPRIORITY''
; Function compile flags: /Odtp /RTCsu
text$yd	ENDS
;	COMDAT ??__FTDL_TASKHIGHESTRISK@@YAXXZ
text$yd	SEGMENT
??__FTDL_TASKHIGHESTRISK@@YAXXZ PROC			; `dynamic atexit destructor for 'TDL_TASKHIGHESTRISK'', COMDAT
	push	ebp
	mov	ebp, esp
	push	esi
	mov	esi, esp
	mov	ecx, OFFSET _TDL_TASKHIGHESTRISK
	call	DWORD PTR __imp_??1?$CStringT@_WV?$StrTraitMFC_DLL@_WV?$ChTraitsCRT@_W@ATL@@@@@ATL@@QAE@XZ
	cmp	esi, esp
	call	__RTC_CheckEsp
	pop	esi
	cmp	ebp, esp
	call	__RTC_CheckEsp
	pop	ebp
	ret	0
??__FTDL_TASKHIGHESTRISK@@YAXXZ ENDP			; `dynamic atexit destructor for 'TDL_TASKHIGHESTRISK''
; Function compile flags: /Odtp /RTCsu
text$yd	ENDS
;	COMDAT ??__FTDL_TASKCALCCOST@@YAXXZ
text$yd	SEGMENT
??__FTDL_TASKCALCCOST@@YAXXZ PROC			; `dynamic atexit destructor for 'TDL_TASKCALCCOST'', COMDAT
	push	ebp
	mov	ebp, esp
	push	esi
	mov	esi, esp
	mov	ecx, OFFSET _TDL_TASKCALCCOST
	call	DWORD PTR __imp_??1?$CStringT@_WV?$StrTraitMFC_DLL@_WV?$ChTraitsCRT@_W@ATL@@@@@ATL@@QAE@XZ
	cmp	esi, esp
	call	__RTC_CheckEsp
	pop	esi
	cmp	ebp, esp
	call	__RTC_CheckEsp
	pop	ebp
	ret	0
??__FTDL_TASKCALCCOST@@YAXXZ ENDP			; `dynamic atexit destructor for 'TDL_TASKCALCCOST''
; Function compile flags: /Odtp /RTCsu
text$yd	ENDS
;	COMDAT ??__FTDL_TASKPATH@@YAXXZ
text$yd	SEGMENT
??__FTDL_TASKPATH@@YAXXZ PROC				; `dynamic atexit destructor for 'TDL_TASKPATH'', COMDAT
	push	ebp
	mov	ebp, esp
	push	esi
	mov	esi, esp
	mov	ecx, OFFSET _TDL_TASKPATH
	call	DWORD PTR __imp_??1?$CStringT@_WV?$StrTraitMFC_DLL@_WV?$ChTraitsCRT@_W@ATL@@@@@ATL@@QAE@XZ
	cmp	esi, esp
	call	__RTC_CheckEsp
	pop	esi
	cmp	ebp, esp
	call	__RTC_CheckEsp
	pop	ebp
	ret	0
??__FTDL_TASKPATH@@YAXXZ ENDP				; `dynamic atexit destructor for 'TDL_TASKPATH''
; Function compile flags: /Odtp /RTCsu
text$yd	ENDS
;	COMDAT ??__FTDL_TASKISPARENT@@YAXXZ
text$yd	SEGMENT
??__FTDL_TASKISPARENT@@YAXXZ PROC			; `dynamic atexit destructor for 'TDL_TASKISPARENT'', COMDAT
	push	ebp
	mov	ebp, esp
	push	esi
	mov	esi, esp
	mov	ecx, OFFSET _TDL_TASKISPARENT
	call	DWORD PTR __imp_??1?$CStringT@_WV?$StrTraitMFC_DLL@_WV?$ChTraitsCRT@_W@ATL@@@@@ATL@@QAE@XZ
	cmp	esi, esp
	call	__RTC_CheckEsp
	pop	esi
	cmp	ebp, esp
	call	__RTC_CheckEsp
	pop	ebp
	ret	0
??__FTDL_TASKISPARENT@@YAXXZ ENDP			; `dynamic atexit destructor for 'TDL_TASKISPARENT''
text$yd	ENDS
_BSS	SEGMENT
_PASTE_FMTS DD	08H DUP (?)
_CBF_FILENAME DD 01H DUP (?)
_CBF_EMBEDDEDOBJ DD 01H DUP (?)
_CBF_RETEXTOBJ DD 01H DUP (?)
_CBF_RTF DD	01H DUP (?)
_CBF_MSURL DD	01H DUP (?)
_CBF_HTML DD	01H DUP (?)
_TDL_TASKISPARENT DD 01H DUP (?)
_TDL_TASKPATH DD 01H DUP (?)
_TDL_TASKCALCCOST DD 01H DUP (?)
_TDL_TASKHIGHESTRISK DD 01H DUP (?)
_TDL_TASKHIGHESTPRIORITY DD 01H DUP (?)
_TDL_TASKCALCCOMPLETION DD 01H DUP (?)
_TDL_TASKCALCDUEDATESTRING DD 01H DUP (?)
_TDL_TASKCALCDUEDATE DD 01H DUP (?)
_TDL_TASKCALCSTARTDATESTRING DD 01H DUP (?)
_TDL_TASKCALCSTARTDATE DD 01H DUP (?)
_TDL_TASKCALCTIMESPENTUNITS DD 01H DUP (?)
_TDL_TASKCALCTIMESPENT DD 01H DUP (?)
_TDL_TASKCALCTIMEESTUNITS DD 01H DUP (?)
_TDL_TASKCALCTIMEESTIMATE DD 01H DUP (?)
_TDL_TASKPRIORITYWEBCOLOR DD 01H DUP (?)
_TDL_TASKPRIORITYCOLOR DD 01H DUP (?)
_TDL_TASKBACKWEBCOLOR DD 01H DUP (?)
_TDL_TASKTEXTWEBCOLOR DD 01H DUP (?)
_TDL_TASKBACKCOLOR DD 01H DUP (?)
_TDL_TASKTEXTCOLOR DD 01H DUP (?)
_TDL_TASKLASTMODSTRING DD 01H DUP (?)
_TDL_TASKLASTMOD DD 01H DUP (?)
_TDL_TASKCREATIONDATESTRING DD 01H DUP (?)
_TDL_TASKCREATIONDATE DD 01H DUP (?)
_TDL_TASKSTARTDATESTRING DD 01H DUP (?)
_TDL_TASKSTARTDATE DD 01H DUP (?)
_TDL_TASKDUEDATESTRING DD 01H DUP (?)
_TDL_TASKDUEDATE DD 01H DUP (?)
_TDL_TASKDONEDATESTRING DD 01H DUP (?)
_TDL_TASKDONEDATE DD 01H DUP (?)
_TDL_TASKHTMLCOMMENTS DD 01H DUP (?)
_TDL_TASKCOMMENTSTYPE DD 01H DUP (?)
_TDL_TASKCUSTOMCOMMENTS DD 01H DUP (?)
_TDL_TASKCOMMENTS DD 01H DUP (?)
_TDL_TASKCUSTOMATTRIBDATESTRING DD 01H DUP (?)
_TDL_TASKCUSTOMATTRIBVALUE DD 01H DUP (?)
_TDL_TASKCUSTOMATTRIBNAME DD 01H DUP (?)
_TDL_TASKCUSTOMATTRIBID DD 01H DUP (?)
_TDL_TASKCUSTOMATTRIBDATA DD 01H DUP (?)
_TDL_TASKNUMDEPENDENCY_DEP DD 01H DUP (?)
_TDL_TASKNUMTAGS_DEP DD 01H DUP (?)
_TDL_TASKNUMCATEGORY_DEP DD 01H DUP (?)
_TDL_TASKNUMALLOCTO_DEP DD 01H DUP (?)
_TDL_TASKRECURRENCEFROMDUE_DEP DD 01H DUP (?)
_TDL_TASKRECURRENCESPEC2_DEP DD 01H DUP (?)
_TDL_TASKRECURRENCESPEC1_DEP DD 01H DUP (?)
_TDL_TASKRECURRENCEREG_DEP DD 01H DUP (?)
_TDL_TASKGOODASDONE DD 01H DUP (?)
_TDL_TASKSUBTASKDONE DD 01H DUP (?)
_TDL_TASKEXTERNALID DD 01H DUP (?)
_TDL_TASKCOST DD 01H DUP (?)
_TDL_TASKRISK DD 01H DUP (?)
_TDL_TASKMETADATA DD 01H DUP (?)
_TDL_TASKICONINDEX DD 01H DUP (?)
_TDL_TASKVERSION DD 01H DUP (?)
_TDL_TASKDEPENDENCY DD 01H DUP (?)
_TDL_TASKRECURRENCEREMAINING DD 01H DUP (?)
_TDL_TASKRECURRENCENUM DD 01H DUP (?)
_TDL_TASKRECURRENCEREUSE DD 01H DUP (?)
_TDL_TASKRECURRENCEFROM DD 01H DUP (?)
_TDL_TASKRECURRENCESPEC2 DD 01H DUP (?)
_TDL_TASKRECURRENCESPEC1 DD 01H DUP (?)
_TDL_TASKRECURRENCEFREQ DD 01H DUP (?)
_TDL_TASKRECURRENCE DD 01H DUP (?)
_TDL_TASKTIMESPENTUNITS DD 01H DUP (?)
_TDL_TASKTIMESPENT DD 01H DUP (?)
_TDL_TASKTIMEESTUNITS DD 01H DUP (?)
_TDL_TASKTIMEESTIMATE DD 01H DUP (?)
_TDL_TASKPERCENTDONE DD 01H DUP (?)
_TDL_TASKPRIORITY DD 01H DUP (?)
_TDL_TASKWEBCOLOR DD 01H DUP (?)
_TDL_TASKFLAG DD 01H DUP (?)
_TDL_TASKCOLOR DD 01H DUP (?)
_TDL_TASKCREATEDBY DD 01H DUP (?)
_TDL_TASKFILEREFPATH DD 01H DUP (?)
_TDL_TASKSTATUS DD 01H DUP (?)
_TDL_TASKTAG DD	01H DUP (?)
_TDL_TASKCATEGORY DD 01H DUP (?)
_TDL_TASKALLOCBY DD 01H DUP (?)
_TDL_TASKALLOCTO DD 01H DUP (?)
_TDL_TASKTITLE DD 01H DUP (?)
_TDL_TASKPARENTID DD 01H DUP (?)
_TDL_TASKPOS DD	01H DUP (?)
_TDL_TASKREFID DD 01H DUP (?)
_TDL_TASKID DD	01H DUP (?)
_TDL_TASK DD	01H DUP (?)
_TDL_CUSTOMATTRIBDEFS_DEP DD 01H DUP (?)
_TDL_CUSTOMATTRIBSORTABLE_DEP DD 01H DUP (?)
_TDL_ATTRIBVISSHOWEDITFILTER DD 01H DUP (?)
_TDL_ATTRIBVISFILTER DD 01H DUP (?)
_TDL_ATTRIBVISEDIT DD 01H DUP (?)
_TDL_ATTRIBVISCOL DD 01H DUP (?)
_TDL_ATTRIBVIS DD 01H DUP (?)
_TDL_CUSTOMATTRIBENABLED DD 01H DUP (?)
_TDL_CUSTOMATTRIBLISTDATA DD 01H DUP (?)
_TDL_CUSTOMATTRIBFEATURES DD 01H DUP (?)
_TDL_CUSTOMATTRIBCOLALIGN DD 01H DUP (?)
_TDL_CUSTOMATTRIBCOLTITLE DD 01H DUP (?)
_TDL_CUSTOMATTRIBLABEL DD 01H DUP (?)
_TDL_CUSTOMATTRIBTYPE DD 01H DUP (?)
_TDL_CUSTOMATTRIBID DD 01H DUP (?)
_TDL_CUSTOMATTRIBDEFS DD 01H DUP (?)
_TDL_LASTMODSTRING DD 01H DUP (?)
_TDL_LASTMOD DD	01H DUP (?)
_TDL_EXPORTSTYLE DD 01H DUP (?)
_TDL_EARLIESTDUEDATE DD 01H DUP (?)
_TDL_METADATA DD 01H DUP (?)
_TDL_FILENAME DD 01H DUP (?)
_TDL_REPORTDATEOLE DD 01H DUP (?)
_TDL_REPORTDATE DD 01H DUP (?)
_TDL_REPORTTITLE DD 01H DUP (?)
_TDL_COMMENTSTYPE DD 01H DUP (?)
_TDL_CHECKEDOUTTO DD 01H DUP (?)
_TDL_FILEVERSION DD 01H DUP (?)
_TDL_FILEFORMAT DD 01H DUP (?)
_TDL_ARCHIVE DD	01H DUP (?)
_TDL_NEXTUNIQUEID DD 01H DUP (?)
_TDL_LASTSORTDIR DD 01H DUP (?)
_TDL_LASTSORTBY DD 01H DUP (?)
_TDL_PROJECTNAME DD 01H DUP (?)
_TDL_APPVER DD	01H DUP (?)
_TDL_CHARSET DD	01H DUP (?)
_TDL_ROOT DD	01H DUP (?)
_WM_TDLTTN_LOADDELAYEDTASKLIST DD 01H DUP (?)
_WM_TDLTTN_STOPTRACKING DD 01H DUP (?)
_WM_TDLTTN_STARTTRACKING DD 01H DUP (?)
_WM_FTD_GETLISTITEMS DD 01H DUP (?)
_WM_FTD_DELETESEARCH DD 01H DUP (?)
_WM_FTD_SAVESEARCH DD 01H DUP (?)
_WM_FTD_ADDSEARCH DD 01H DUP (?)
_WM_FTD_APPLYASFILTER DD 01H DUP (?)
_WM_FTD_CLOSE DD 01H DUP (?)
_WM_FTD_SELECTALL DD 01H DUP (?)
_WM_FTD_SELECTRESULT DD 01H DUP (?)
_WM_FTD_FIND DD	01H DUP (?)
_WM_TDCM_LENGTHYOPERATION DD 01H DUP (?)
_WM_TDCM_FAILEDLINK DD 01H DUP (?)
_WM_TDCM_TASKLINK DD 01H DUP (?)
_WM_TDCN_SNOOZEREMINDER DD 01H DUP (?)
_WM_TDCN_DISMISSREMINDER DD 01H DUP (?)
_WM_TDCM_GETTASKREMINDER DD 01H DUP (?)
_WM_TDCM_TASKISDONE DD 01H DUP (?)
_WM_TDCM_HASCLIPBOARD DD 01H DUP (?)
_WM_TDCM_GETCLIPBOARD DD 01H DUP (?)
_WM_TDCN_LISTCHANGE DD 01H DUP (?)
_WM_FBN_FILTERCHNG DD 01H DUP (?)
_WM_TDCN_COLUMNEDITCLICK DD 01H DUP (?)
_WM_TDCN_DOUBLECLKREMINDERCOL DD 01H DUP (?)
_WM_TDCN_RECREATERECURRINGTASK DD 01H DUP (?)
_WM_TDCN_SCROLLCHANGE DD 01H DUP (?)
_WM_TDCN_SELECTIONCHANGE DD 01H DUP (?)
_WM_TDCN_VIEWPOSTCHANGE DD 01H DUP (?)
_WM_TDCN_VIEWPRECHANGE DD 01H DUP (?)
_WM_TDCN_TIMETRACK DD 01H DUP (?)
_WM_TDCN_SORT DD 01H DUP (?)
_WM_TDCN_MODIFY DD 01H DUP (?)
_WM_UREN_FAILEDURL DD 01H DUP (?)
_WM_UREN_CUSTOMURL DD 01H DUP (?)
_WM_ICC_COMMENTSKILLFOCUS DD 01H DUP (?)
_WM_ICC_COMMENTSCHANGE DD 01H DUP (?)
_WM_ICC_WANTSPELLCHECK DD 01H DUP (?)
_BSS	ENDS
CRT$XCU	SEGMENT
_WM_ICC_WANTSPELLCHECK$initializer$ DD FLAT:??__EWM_ICC_WANTSPELLCHECK@@YAXXZ
_WM_ICC_COMMENTSCHANGE$initializer$ DD FLAT:??__EWM_ICC_COMMENTSCHANGE@@YAXXZ
_WM_ICC_COMMENTSKILLFOCUS$initializer$ DD FLAT:??__EWM_ICC_COMMENTSKILLFOCUS@@YAXXZ
_WM_UREN_CUSTOMURL$initializer$ DD FLAT:??__EWM_UREN_CUSTOMURL@@YAXXZ
_WM_UREN_FAILEDURL$initializer$ DD FLAT:??__EWM_UREN_FAILEDURL@@YAXXZ
_WM_TDCN_MODIFY$initializer$ DD FLAT:??__EWM_TDCN_MODIFY@@YAXXZ
_WM_TDCN_SORT$initializer$ DD FLAT:??__EWM_TDCN_SORT@@YAXXZ
_WM_TDCN_TIMETRACK$initializer$ DD FLAT:??__EWM_TDCN_TIMETRACK@@YAXXZ
_WM_TDCN_VIEWPRECHANGE$initializer$ DD FLAT:??__EWM_TDCN_VIEWPRECHANGE@@YAXXZ
_WM_TDCN_VIEWPOSTCHANGE$initializer$ DD FLAT:??__EWM_TDCN_VIEWPOSTCHANGE@@YAXXZ
_WM_TDCN_SELECTIONCHANGE$initializer$ DD FLAT:??__EWM_TDCN_SELECTIONCHANGE@@YAXXZ
_WM_TDCN_SCROLLCHANGE$initializer$ DD FLAT:??__EWM_TDCN_SCROLLCHANGE@@YAXXZ
_WM_TDCN_RECREATERECURRINGTASK$initializer$ DD FLAT:??__EWM_TDCN_RECREATERECURRINGTASK@@YAXXZ
_WM_TDCN_DOUBLECLKREMINDERCOL$initializer$ DD FLAT:??__EWM_TDCN_DOUBLECLKREMINDERCOL@@YAXXZ
_WM_TDCN_COLUMNEDITCLICK$initializer$ DD FLAT:??__EWM_TDCN_COLUMNEDITCLICK@@YAXXZ
_WM_FBN_FILTERCHNG$initializer$ DD FLAT:??__EWM_FBN_FILTERCHNG@@YAXXZ
_WM_TDCN_LISTCHANGE$initializer$ DD FLAT:??__EWM_TDCN_LISTCHANGE@@YAXXZ
_WM_TDCM_GETCLIPBOARD$initializer$ DD FLAT:??__EWM_TDCM_GETCLIPBOARD@@YAXXZ
_WM_TDCM_HASCLIPBOARD$initializer$ DD FLAT:??__EWM_TDCM_HASCLIPBOARD@@YAXXZ
_WM_TDCM_TASKISDONE$initializer$ DD FLAT:??__EWM_TDCM_TASKISDONE@@YAXXZ
_WM_TDCM_GETTASKREMINDER$initializer$ DD FLAT:??__EWM_TDCM_GETTASKREMINDER@@YAXXZ
_WM_TDCN_DISMISSREMINDER$initializer$ DD FLAT:??__EWM_TDCN_DISMISSREMINDER@@YAXXZ
_WM_TDCN_SNOOZEREMINDER$initializer$ DD FLAT:??__EWM_TDCN_SNOOZEREMINDER@@YAXXZ
_WM_TDCM_TASKLINK$initializer$ DD FLAT:??__EWM_TDCM_TASKLINK@@YAXXZ
_WM_TDCM_FAILEDLINK$initializer$ DD FLAT:??__EWM_TDCM_FAILEDLINK@@YAXXZ
_WM_TDCM_LENGTHYOPERATION$initializer$ DD FLAT:??__EWM_TDCM_LENGTHYOPERATION@@YAXXZ
_WM_FTD_FIND$initializer$ DD FLAT:??__EWM_FTD_FIND@@YAXXZ
_WM_FTD_SELECTRESULT$initializer$ DD FLAT:??__EWM_FTD_SELECTRESULT@@YAXXZ
_WM_FTD_SELECTALL$initializer$ DD FLAT:??__EWM_FTD_SELECTALL@@YAXXZ
_WM_FTD_CLOSE$initializer$ DD FLAT:??__EWM_FTD_CLOSE@@YAXXZ
_WM_FTD_APPLYASFILTER$initializer$ DD FLAT:??__EWM_FTD_APPLYASFILTER@@YAXXZ
_WM_FTD_ADDSEARCH$initializer$ DD FLAT:??__EWM_FTD_ADDSEARCH@@YAXXZ
_WM_FTD_SAVESEARCH$initializer$ DD FLAT:??__EWM_FTD_SAVESEARCH@@YAXXZ
_WM_FTD_DELETESEARCH$initializer$ DD FLAT:??__EWM_FTD_DELETESEARCH@@YAXXZ
_WM_FTD_GETLISTITEMS$initializer$ DD FLAT:??__EWM_FTD_GETLISTITEMS@@YAXXZ
_WM_TDLTTN_STARTTRACKING$initializer$ DD FLAT:??__EWM_TDLTTN_STARTTRACKING@@YAXXZ
_WM_TDLTTN_STOPTRACKING$initializer$ DD FLAT:??__EWM_TDLTTN_STOPTRACKING@@YAXXZ
_WM_TDLTTN_LOADDELAYEDTASKLIST$initializer$ DD FLAT:??__EWM_TDLTTN_LOADDELAYEDTASKLIST@@YAXXZ
_TDL_ROOT$initializer$ DD FLAT:??__ETDL_ROOT@@YAXXZ
_TDL_CHARSET$initializer$ DD FLAT:??__ETDL_CHARSET@@YAXXZ
_TDL_APPVER$initializer$ DD FLAT:??__ETDL_APPVER@@YAXXZ
_TDL_PROJECTNAME$initializer$ DD FLAT:??__ETDL_PROJECTNAME@@YAXXZ
_TDL_LASTSORTBY$initializer$ DD FLAT:??__ETDL_LASTSORTBY@@YAXXZ
_TDL_LASTSORTDIR$initializer$ DD FLAT:??__ETDL_LASTSORTDIR@@YAXXZ
_TDL_NEXTUNIQUEID$initializer$ DD FLAT:??__ETDL_NEXTUNIQUEID@@YAXXZ
_TDL_ARCHIVE$initializer$ DD FLAT:??__ETDL_ARCHIVE@@YAXXZ
_TDL_FILEFORMAT$initializer$ DD FLAT:??__ETDL_FILEFORMAT@@YAXXZ
_TDL_FILEVERSION$initializer$ DD FLAT:??__ETDL_FILEVERSION@@YAXXZ
_TDL_CHECKEDOUTTO$initializer$ DD FLAT:??__ETDL_CHECKEDOUTTO@@YAXXZ
_TDL_COMMENTSTYPE$initializer$ DD FLAT:??__ETDL_COMMENTSTYPE@@YAXXZ
_TDL_REPORTTITLE$initializer$ DD FLAT:??__ETDL_REPORTTITLE@@YAXXZ
_TDL_REPORTDATE$initializer$ DD FLAT:??__ETDL_REPORTDATE@@YAXXZ
_TDL_REPORTDATEOLE$initializer$ DD FLAT:??__ETDL_REPORTDATEOLE@@YAXXZ
_TDL_FILENAME$initializer$ DD FLAT:??__ETDL_FILENAME@@YAXXZ
_TDL_METADATA$initializer$ DD FLAT:??__ETDL_METADATA@@YAXXZ
_TDL_EARLIESTDUEDATE$initializer$ DD FLAT:??__ETDL_EARLIESTDUEDATE@@YAXXZ
_TDL_EXPORTSTYLE$initializer$ DD FLAT:??__ETDL_EXPORTSTYLE@@YAXXZ
_TDL_LASTMOD$initializer$ DD FLAT:??__ETDL_LASTMOD@@YAXXZ
_TDL_LASTMODSTRING$initializer$ DD FLAT:??__ETDL_LASTMODSTRING@@YAXXZ
_TDL_CUSTOMATTRIBDEFS$initializer$ DD FLAT:??__ETDL_CUSTOMATTRIBDEFS@@YAXXZ
_TDL_CUSTOMATTRIBID$initializer$ DD FLAT:??__ETDL_CUSTOMATTRIBID@@YAXXZ
_TDL_CUSTOMATTRIBTYPE$initializer$ DD FLAT:??__ETDL_CUSTOMATTRIBTYPE@@YAXXZ
_TDL_CUSTOMATTRIBLABEL$initializer$ DD FLAT:??__ETDL_CUSTOMATTRIBLABEL@@YAXXZ
_TDL_CUSTOMATTRIBCOLTITLE$initializer$ DD FLAT:??__ETDL_CUSTOMATTRIBCOLTITLE@@YAXXZ
_TDL_CUSTOMATTRIBCOLALIGN$initializer$ DD FLAT:??__ETDL_CUSTOMATTRIBCOLALIGN@@YAXXZ
_TDL_CUSTOMATTRIBFEATURES$initializer$ DD FLAT:??__ETDL_CUSTOMATTRIBFEATURES@@YAXXZ
_TDL_CUSTOMATTRIBLISTDATA$initializer$ DD FLAT:??__ETDL_CUSTOMATTRIBLISTDATA@@YAXXZ
_TDL_CUSTOMATTRIBENABLED$initializer$ DD FLAT:??__ETDL_CUSTOMATTRIBENABLED@@YAXXZ
_TDL_ATTRIBVIS$initializer$ DD FLAT:??__ETDL_ATTRIBVIS@@YAXXZ
_TDL_ATTRIBVISCOL$initializer$ DD FLAT:??__ETDL_ATTRIBVISCOL@@YAXXZ
_TDL_ATTRIBVISEDIT$initializer$ DD FLAT:??__ETDL_ATTRIBVISEDIT@@YAXXZ
_TDL_ATTRIBVISFILTER$initializer$ DD FLAT:??__ETDL_ATTRIBVISFILTER@@YAXXZ
_TDL_ATTRIBVISSHOWEDITFILTER$initializer$ DD FLAT:??__ETDL_ATTRIBVISSHOWEDITFILTER@@YAXXZ
_TDL_CUSTOMATTRIBSORTABLE_DEP$initializer$ DD FLAT:??__ETDL_CUSTOMATTRIBSORTABLE_DEP@@YAXXZ
_TDL_CUSTOMATTRIBDEFS_DEP$initializer$ DD FLAT:??__ETDL_CUSTOMATTRIBDEFS_DEP@@YAXXZ
_TDL_TASK$initializer$ DD FLAT:??__ETDL_TASK@@YAXXZ
_TDL_TASKID$initializer$ DD FLAT:??__ETDL_TASKID@@YAXXZ
_TDL_TASKREFID$initializer$ DD FLAT:??__ETDL_TASKREFID@@YAXXZ
_TDL_TASKPOS$initializer$ DD FLAT:??__ETDL_TASKPOS@@YAXXZ
_TDL_TASKPARENTID$initializer$ DD FLAT:??__ETDL_TASKPARENTID@@YAXXZ
_TDL_TASKTITLE$initializer$ DD FLAT:??__ETDL_TASKTITLE@@YAXXZ
_TDL_TASKALLOCTO$initializer$ DD FLAT:??__ETDL_TASKALLOCTO@@YAXXZ
_TDL_TASKALLOCBY$initializer$ DD FLAT:??__ETDL_TASKALLOCBY@@YAXXZ
_TDL_TASKCATEGORY$initializer$ DD FLAT:??__ETDL_TASKCATEGORY@@YAXXZ
_TDL_TASKTAG$initializer$ DD FLAT:??__ETDL_TASKTAG@@YAXXZ
_TDL_TASKSTATUS$initializer$ DD FLAT:??__ETDL_TASKSTATUS@@YAXXZ
_TDL_TASKFILEREFPATH$initializer$ DD FLAT:??__ETDL_TASKFILEREFPATH@@YAXXZ
_TDL_TASKCREATEDBY$initializer$ DD FLAT:??__ETDL_TASKCREATEDBY@@YAXXZ
_TDL_TASKCOLOR$initializer$ DD FLAT:??__ETDL_TASKCOLOR@@YAXXZ
_TDL_TASKFLAG$initializer$ DD FLAT:??__ETDL_TASKFLAG@@YAXXZ
_TDL_TASKWEBCOLOR$initializer$ DD FLAT:??__ETDL_TASKWEBCOLOR@@YAXXZ
_TDL_TASKPRIORITY$initializer$ DD FLAT:??__ETDL_TASKPRIORITY@@YAXXZ
_TDL_TASKPERCENTDONE$initializer$ DD FLAT:??__ETDL_TASKPERCENTDONE@@YAXXZ
_TDL_TASKTIMEESTIMATE$initializer$ DD FLAT:??__ETDL_TASKTIMEESTIMATE@@YAXXZ
_TDL_TASKTIMEESTUNITS$initializer$ DD FLAT:??__ETDL_TASKTIMEESTUNITS@@YAXXZ
_TDL_TASKTIMESPENT$initializer$ DD FLAT:??__ETDL_TASKTIMESPENT@@YAXXZ
_TDL_TASKTIMESPENTUNITS$initializer$ DD FLAT:??__ETDL_TASKTIMESPENTUNITS@@YAXXZ
_TDL_TASKRECURRENCE$initializer$ DD FLAT:??__ETDL_TASKRECURRENCE@@YAXXZ
_TDL_TASKRECURRENCEFREQ$initializer$ DD FLAT:??__ETDL_TASKRECURRENCEFREQ@@YAXXZ
_TDL_TASKRECURRENCESPEC1$initializer$ DD FLAT:??__ETDL_TASKRECURRENCESPEC1@@YAXXZ
_TDL_TASKRECURRENCESPEC2$initializer$ DD FLAT:??__ETDL_TASKRECURRENCESPEC2@@YAXXZ
_TDL_TASKRECURRENCEFROM$initializer$ DD FLAT:??__ETDL_TASKRECURRENCEFROM@@YAXXZ
_TDL_TASKRECURRENCEREUSE$initializer$ DD FLAT:??__ETDL_TASKRECURRENCEREUSE@@YAXXZ
_TDL_TASKRECURRENCENUM$initializer$ DD FLAT:??__ETDL_TASKRECURRENCENUM@@YAXXZ
_TDL_TASKRECURRENCEREMAINING$initializer$ DD FLAT:??__ETDL_TASKRECURRENCEREMAINING@@YAXXZ
_TDL_TASKDEPENDENCY$initializer$ DD FLAT:??__ETDL_TASKDEPENDENCY@@YAXXZ
_TDL_TASKVERSION$initializer$ DD FLAT:??__ETDL_TASKVERSION@@YAXXZ
_TDL_TASKICONINDEX$initializer$ DD FLAT:??__ETDL_TASKICONINDEX@@YAXXZ
_TDL_TASKMETADATA$initializer$ DD FLAT:??__ETDL_TASKMETADATA@@YAXXZ
_TDL_TASKRISK$initializer$ DD FLAT:??__ETDL_TASKRISK@@YAXXZ
_TDL_TASKCOST$initializer$ DD FLAT:??__ETDL_TASKCOST@@YAXXZ
_TDL_TASKEXTERNALID$initializer$ DD FLAT:??__ETDL_TASKEXTERNALID@@YAXXZ
_TDL_TASKSUBTASKDONE$initializer$ DD FLAT:??__ETDL_TASKSUBTASKDONE@@YAXXZ
_TDL_TASKGOODASDONE$initializer$ DD FLAT:??__ETDL_TASKGOODASDONE@@YAXXZ
_TDL_TASKRECURRENCEREG_DEP$initializer$ DD FLAT:??__ETDL_TASKRECURRENCEREG_DEP@@YAXXZ
_TDL_TASKRECURRENCESPEC1_DEP$initializer$ DD FLAT:??__ETDL_TASKRECURRENCESPEC1_DEP@@YAXXZ
_TDL_TASKRECURRENCESPEC2_DEP$initializer$ DD FLAT:??__ETDL_TASKRECURRENCESPEC2_DEP@@YAXXZ
_TDL_TASKRECURRENCEFROMDUE_DEP$initializer$ DD FLAT:??__ETDL_TASKRECURRENCEFROMDUE_DEP@@YAXXZ
_TDL_TASKNUMALLOCTO_DEP$initializer$ DD FLAT:??__ETDL_TASKNUMALLOCTO_DEP@@YAXXZ
_TDL_TASKNUMCATEGORY_DEP$initializer$ DD FLAT:??__ETDL_TASKNUMCATEGORY_DEP@@YAXXZ
_TDL_TASKNUMTAGS_DEP$initializer$ DD FLAT:??__ETDL_TASKNUMTAGS_DEP@@YAXXZ
_TDL_TASKNUMDEPENDENCY_DEP$initializer$ DD FLAT:??__ETDL_TASKNUMDEPENDENCY_DEP@@YAXXZ
_TDL_TASKCUSTOMATTRIBDATA$initializer$ DD FLAT:??__ETDL_TASKCUSTOMATTRIBDATA@@YAXXZ
_TDL_TASKCUSTOMATTRIBID$initializer$ DD FLAT:??__ETDL_TASKCUSTOMATTRIBID@@YAXXZ
_TDL_TASKCUSTOMATTRIBNAME$initializer$ DD FLAT:??__ETDL_TASKCUSTOMATTRIBNAME@@YAXXZ
_TDL_TASKCUSTOMATTRIBVALUE$initializer$ DD FLAT:??__ETDL_TASKCUSTOMATTRIBVALUE@@YAXXZ
_TDL_TASKCUSTOMATTRIBDATESTRING$initializer$ DD FLAT:??__ETDL_TASKCUSTOMATTRIBDATESTRING@@YAXXZ
_TDL_TASKCOMMENTS$initializer$ DD FLAT:??__ETDL_TASKCOMMENTS@@YAXXZ
_TDL_TASKCUSTOMCOMMENTS$initializer$ DD FLAT:??__ETDL_TASKCUSTOMCOMMENTS@@YAXXZ
_TDL_TASKCOMMENTSTYPE$initializer$ DD FLAT:??__ETDL_TASKCOMMENTSTYPE@@YAXXZ
_TDL_TASKHTMLCOMMENTS$initializer$ DD FLAT:??__ETDL_TASKHTMLCOMMENTS@@YAXXZ
_TDL_TASKDONEDATE$initializer$ DD FLAT:??__ETDL_TASKDONEDATE@@YAXXZ
_TDL_TASKDONEDATESTRING$initializer$ DD FLAT:??__ETDL_TASKDONEDATESTRING@@YAXXZ
_TDL_TASKDUEDATE$initializer$ DD FLAT:??__ETDL_TASKDUEDATE@@YAXXZ
_TDL_TASKDUEDATESTRING$initializer$ DD FLAT:??__ETDL_TASKDUEDATESTRING@@YAXXZ
_TDL_TASKSTARTDATE$initializer$ DD FLAT:??__ETDL_TASKSTARTDATE@@YAXXZ
_TDL_TASKSTARTDATESTRING$initializer$ DD FLAT:??__ETDL_TASKSTARTDATESTRING@@YAXXZ
_TDL_TASKCREATIONDATE$initializer$ DD FLAT:??__ETDL_TASKCREATIONDATE@@YAXXZ
_TDL_TASKCREATIONDATESTRING$initializer$ DD FLAT:??__ETDL_TASKCREATIONDATESTRING@@YAXXZ
_TDL_TASKLASTMOD$initializer$ DD FLAT:??__ETDL_TASKLASTMOD@@YAXXZ
_TDL_TASKLASTMODSTRING$initializer$ DD FLAT:??__ETDL_TASKLASTMODSTRING@@YAXXZ
_TDL_TASKTEXTCOLOR$initializer$ DD FLAT:??__ETDL_TASKTEXTCOLOR@@YAXXZ
_TDL_TASKBACKCOLOR$initializer$ DD FLAT:??__ETDL_TASKBACKCOLOR@@YAXXZ
_TDL_TASKTEXTWEBCOLOR$initializer$ DD FLAT:??__ETDL_TASKTEXTWEBCOLOR@@YAXXZ
_TDL_TASKBACKWEBCOLOR$initializer$ DD FLAT:??__ETDL_TASKBACKWEBCOLOR@@YAXXZ
_TDL_TASKPRIORITYCOLOR$initializer$ DD FLAT:??__ETDL_TASKPRIORITYCOLOR@@YAXXZ
_TDL_TASKPRIORITYWEBCOLOR$initializer$ DD FLAT:??__ETDL_TASKPRIORITYWEBCOLOR@@YAXXZ
_TDL_TASKCALCTIMEESTIMATE$initializer$ DD FLAT:??__ETDL_TASKCALCTIMEESTIMATE@@YAXXZ
_TDL_TASKCALCTIMEESTUNITS$initializer$ DD FLAT:??__ETDL_TASKCALCTIMEESTUNITS@@YAXXZ
_TDL_TASKCALCTIMESPENT$initializer$ DD FLAT:??__ETDL_TASKCALCTIMESPENT@@YAXXZ
_TDL_TASKCALCTIMESPENTUNITS$initializer$ DD FLAT:??__ETDL_TASKCALCTIMESPENTUNITS@@YAXXZ
_TDL_TASKCALCSTARTDATE$initializer$ DD FLAT:??__ETDL_TASKCALCSTARTDATE@@YAXXZ
_TDL_TASKCALCSTARTDATESTRING$initializer$ DD FLAT:??__ETDL_TASKCALCSTARTDATESTRING@@YAXXZ
_TDL_TASKCALCDUEDATE$initializer$ DD FLAT:??__ETDL_TASKCALCDUEDATE@@YAXXZ
_TDL_TASKCALCDUEDATESTRING$initializer$ DD FLAT:??__ETDL_TASKCALCDUEDATESTRING@@YAXXZ
_TDL_TASKCALCCOMPLETION$initializer$ DD FLAT:??__ETDL_TASKCALCCOMPLETION@@YAXXZ
_TDL_TASKHIGHESTPRIORITY$initializer$ DD FLAT:??__ETDL_TASKHIGHESTPRIORITY@@YAXXZ
_TDL_TASKHIGHESTRISK$initializer$ DD FLAT:??__ETDL_TASKHIGHESTRISK@@YAXXZ
_TDL_TASKCALCCOST$initializer$ DD FLAT:??__ETDL_TASKCALCCOST@@YAXXZ
_TDL_TASKPATH$initializer$ DD FLAT:??__ETDL_TASKPATH@@YAXXZ
_TDL_TASKISPARENT$initializer$ DD FLAT:??__ETDL_TASKISPARENT@@YAXXZ
_CBF_HTML$initializer$ DD FLAT:??__ECBF_HTML@@YAXXZ
_CBF_MSURL$initializer$ DD FLAT:??__ECBF_MSURL@@YAXXZ
_CBF_RTF$initializer$ DD FLAT:??__ECBF_RTF@@YAXXZ
_CBF_RETEXTOBJ$initializer$ DD FLAT:??__ECBF_RETEXTOBJ@@YAXXZ
_CBF_EMBEDDEDOBJ$initializer$ DD FLAT:??__ECBF_EMBEDDEDOBJ@@YAXXZ
_CBF_FILENAME$initializer$ DD FLAT:??__ECBF_FILENAME@@YAXXZ
_PASTE_FMTS$initializer$ DD FLAT:??__EPASTE_FMTS@@YAXXZ
CRT$XCU	ENDS
END
