; Listing generated by Microsoft (R) Optimizing Compiler Version 16.00.40219.01 

	TITLE	D:\_code\RTFContentCtrl\RTFContentControl.cpp
	.686P
	.XMM
	include listing.inc
	.model	flat

INCLUDELIB MSVCRTD
INCLUDELIB OLDNAMES

PUBLIC	?s_bConvertWithMSWord@CRTFContentControl@@1HA	; CRTFContentControl::s_bConvertWithMSWord
PUBLIC	?s_bInlineSpellChecking@CRTFContentControl@@1HA	; CRTFContentControl::s_bInlineSpellChecking
_BSS	SEGMENT
?s_bConvertWithMSWord@CRTFContentControl@@1HA DD 01H DUP (?) ; CRTFContentControl::s_bConvertWithMSWord
_BSS	ENDS
_DATA	SEGMENT
_TDL_PROTOCOL DD FLAT:$SG174630
_TDL_EXTENSION DD FLAT:$SG174632
_THIS_FILE DB	'RTFContentControl.cpp', 00H
	ORG $+2
?s_bInlineSpellChecking@CRTFContentControl@@1HA DD 01H	; CRTFContentControl::s_bInlineSpellChecking
_DATA	ENDS
CONST	SEGMENT
$SG171208 DB	'W', 00H, 'M', 00H, '_', 00H, 'I', 00H, 'C', 00H, 'C', 00H
	DB	'_', 00H, 'W', 00H, 'A', 00H, 'N', 00H, 'T', 00H, 'S', 00H, 'P'
	DB	00H, 'E', 00H, 'L', 00H, 'L', 00H, 'C', 00H, 'H', 00H, 'E', 00H
	DB	'C', 00H, 'K', 00H, 00H, 00H
$SG171213 DB	'W', 00H, 'M', 00H, '_', 00H, 'I', 00H, 'C', 00H, 'C', 00H
	DB	'_', 00H, 'C', 00H, 'O', 00H, 'M', 00H, 'M', 00H, 'E', 00H, 'N'
	DB	00H, 'T', 00H, 'S', 00H, 'C', 00H, 'H', 00H, 'A', 00H, 'N', 00H
	DB	'G', 00H, 'E', 00H, 00H, 00H
$SG171218 DB	'W', 00H, 'M', 00H, '_', 00H, 'I', 00H, 'C', 00H, 'C', 00H
	DB	'_', 00H, 'C', 00H, 'O', 00H, 'M', 00H, 'M', 00H, 'E', 00H, 'N'
	DB	00H, 'T', 00H, 'S', 00H, 'K', 00H, 'I', 00H, 'L', 00H, 'L', 00H
	DB	'F', 00H, 'O', 00H, 'C', 00H, 'U', 00H, 'S', 00H, 00H, 00H
	ORG $+2
$SG171240 DB	'CreateContentInterface', 00H
	ORG $+1
$SG171245 DB	'GetInterfaceVersion', 00H
$SG171258 DB	'CreateContentInterface', 00H
	ORG $+1
$SG171336 DB	'8', 00H, '4', 00H, '9', 00H, 'C', 00H, 'F', 00H, '9', 00H
	DB	'8', 00H, '8', 00H, '-', 00H, '7', 00H, '9', 00H, 'F', 00H, 'E'
	DB	00H, '-', 00H, '4', 00H, '1', 00H, '8', 00H, 'A', 00H, '-', 00H
	DB	'A', 00H, '4', 00H, '0', 00H, 'D', 00H, '-', 00H, '0', 00H, '1'
	DB	00H, 'F', 00H, 'E', 00H, '3', 00H, 'A', 00H, 'F', 00H, 'C', 00H
	DB	'A', 00H, 'B', 00H, '2', 00H, 'C', 00H, 00H, 00H
	ORG $+2
_RTF_TYPEID DD	FLAT:$SG171336
$SG172007 DB	'W', 00H, 'M', 00H, '_', 00H, 'U', 00H, 'R', 00H, 'E', 00H
	DB	'N', 00H, '_', 00H, 'C', 00H, 'U', 00H, 'S', 00H, 'T', 00H, 'O'
	DB	00H, 'M', 00H, 'U', 00H, 'R', 00H, 'L', 00H, 00H, 00H
$SG172012 DB	'W', 00H, 'M', 00H, '_', 00H, 'U', 00H, 'R', 00H, 'E', 00H
	DB	'N', 00H, '_', 00H, 'F', 00H, 'A', 00H, 'I', 00H, 'L', 00H, 'E'
	DB	00H, 'D', 00H, 'U', 00H, 'R', 00H, 'L', 00H, 00H, 00H
$SG173858 DB	'CreateSpellCheckerInterface', 00H
$SG173865 DB	'GetInterfaceVersion', 00H
$SG173874 DB	'CreateSpellCheckerInterface', 00H
$SG174630 DB	't', 00H, 'd', 00H, 'l', 00H, ':', 00H, '/', 00H, '/', 00H
	DB	00H, 00H
	ORG $+2
$SG174632 DB	'.', 00H, 't', 00H, 'd', 00H, 'l', 00H, 00H, 00H
	ORG $+2
$SG174636 DB	'W', 00H, 'M', 00H, '_', 00H, 'T', 00H, 'D', 00H, 'C', 00H
	DB	'N', 00H, '_', 00H, 'M', 00H, 'O', 00H, 'D', 00H, 'I', 00H, 'F'
	DB	00H, 'Y', 00H, 00H, 00H
	ORG $+2
$SG174641 DB	'W', 00H, 'M', 00H, '_', 00H, 'T', 00H, 'D', 00H, 'C', 00H
	DB	'N', 00H, '_', 00H, 'S', 00H, 'O', 00H, 'R', 00H, 'T', 00H, 00H
	DB	00H
	ORG $+2
$SG174646 DB	'W', 00H, 'M', 00H, '_', 00H, 'T', 00H, 'D', 00H, 'C', 00H
	DB	'N', 00H, '_', 00H, 'T', 00H, 'I', 00H, 'M', 00H, 'E', 00H, 'T'
	DB	00H, 'R', 00H, 'A', 00H, 'C', 00H, 'K', 00H, 00H, 00H
$SG174651 DB	'W', 00H, 'M', 00H, '_', 00H, 'T', 00H, 'D', 00H, 'C', 00H
	DB	'N', 00H, '_', 00H, 'V', 00H, 'I', 00H, 'E', 00H, 'W', 00H, 'P'
	DB	00H, 'R', 00H, 'E', 00H, 'C', 00H, 'H', 00H, 'A', 00H, 'N', 00H
	DB	'G', 00H, 'E', 00H, 00H, 00H
$SG174656 DB	'W', 00H, 'M', 00H, '_', 00H, 'T', 00H, 'D', 00H, 'C', 00H
	DB	'N', 00H, '_', 00H, 'V', 00H, 'I', 00H, 'E', 00H, 'W', 00H, 'P'
	DB	00H, 'O', 00H, 'S', 00H, 'T', 00H, 'C', 00H, 'H', 00H, 'A', 00H
	DB	'N', 00H, 'G', 00H, 'E', 00H, 00H, 00H
	ORG $+2
$SG174661 DB	'W', 00H, 'M', 00H, '_', 00H, 'T', 00H, 'D', 00H, 'C', 00H
	DB	'N', 00H, '_', 00H, 'S', 00H, 'E', 00H, 'L', 00H, 'E', 00H, 'C'
	DB	00H, 'T', 00H, 'I', 00H, 'O', 00H, 'N', 00H, 'C', 00H, 'H', 00H
	DB	'A', 00H, 'N', 00H, 'G', 00H, 'E', 00H, 00H, 00H
$SG174666 DB	'W', 00H, 'M', 00H, '_', 00H, 'T', 00H, 'D', 00H, 'C', 00H
	DB	'N', 00H, '_', 00H, 'S', 00H, 'C', 00H, 'R', 00H, 'O', 00H, 'L'
	DB	00H, 'L', 00H, 'C', 00H, 'H', 00H, 'A', 00H, 'N', 00H, 'G', 00H
	DB	'E', 00H, 00H, 00H
	ORG $+2
$SG174671 DB	'W', 00H, 'M', 00H, '_', 00H, 'T', 00H, 'D', 00H, 'C', 00H
	DB	'N', 00H, '_', 00H, 'R', 00H, 'E', 00H, 'C', 00H, 'R', 00H, 'E'
	DB	00H, 'A', 00H, 'T', 00H, 'E', 00H, 'R', 00H, 'E', 00H, 'C', 00H
	DB	'U', 00H, 'R', 00H, 'R', 00H, 'I', 00H, 'N', 00H, 'G', 00H, 'T'
	DB	00H, 'A', 00H, 'S', 00H, 'K', 00H, 00H, 00H
$SG174676 DB	'W', 00H, 'M', 00H, '_', 00H, 'T', 00H, 'D', 00H, 'C', 00H
	DB	'N', 00H, '_', 00H, 'D', 00H, 'O', 00H, 'U', 00H, 'B', 00H, 'L'
	DB	00H, 'E', 00H, 'C', 00H, 'L', 00H, 'K', 00H, 'R', 00H, 'E', 00H
	DB	'M', 00H, 'I', 00H, 'N', 00H, 'D', 00H, 'E', 00H, 'R', 00H, 'C'
	DB	00H, 'O', 00H, 'L', 00H, 00H, 00H
	ORG $+2
$SG174681 DB	'W', 00H, 'M', 00H, '_', 00H, 'T', 00H, 'D', 00H, 'C', 00H
	DB	'N', 00H, '_', 00H, 'C', 00H, 'O', 00H, 'L', 00H, 'U', 00H, 'M'
	DB	00H, 'N', 00H, 'E', 00H, 'D', 00H, 'I', 00H, 'T', 00H, 'C', 00H
	DB	'L', 00H, 'I', 00H, 'C', 00H, 'K', 00H, 00H, 00H
$SG174686 DB	'W', 00H, 'M', 00H, '_', 00H, 'F', 00H, 'B', 00H, 'N', 00H
	DB	'_', 00H, 'F', 00H, 'I', 00H, 'L', 00H, 'T', 00H, 'E', 00H, 'R'
	DB	00H, 'C', 00H, 'H', 00H, 'N', 00H, 'G', 00H, 00H, 00H
$SG174691 DB	'W', 00H, 'M', 00H, '_', 00H, 'T', 00H, 'D', 00H, 'C', 00H
	DB	'N', 00H, '_', 00H, 'L', 00H, 'I', 00H, 'S', 00H, 'T', 00H, 'C'
	DB	00H, 'H', 00H, 'A', 00H, 'N', 00H, 'G', 00H, 'E', 00H, 00H, 00H
	ORG $+2
$SG174696 DB	'W', 00H, 'M', 00H, '_', 00H, 'T', 00H, 'D', 00H, 'C', 00H
	DB	'M', 00H, '_', 00H, 'G', 00H, 'E', 00H, 'T', 00H, 'C', 00H, 'L'
	DB	00H, 'I', 00H, 'P', 00H, 'B', 00H, 'O', 00H, 'A', 00H, 'R', 00H
	DB	'D', 00H, 00H, 00H
	ORG $+2
$SG174701 DB	'W', 00H, 'M', 00H, '_', 00H, 'T', 00H, 'D', 00H, 'C', 00H
	DB	'M', 00H, '_', 00H, 'H', 00H, 'A', 00H, 'S', 00H, 'C', 00H, 'L'
	DB	00H, 'I', 00H, 'P', 00H, 'B', 00H, 'O', 00H, 'A', 00H, 'R', 00H
	DB	'D', 00H, 00H, 00H
	ORG $+2
$SG174706 DB	'W', 00H, 'M', 00H, '_', 00H, 'T', 00H, 'D', 00H, 'C', 00H
	DB	'M', 00H, '_', 00H, 'T', 00H, 'A', 00H, 'S', 00H, 'K', 00H, 'I'
	DB	00H, 'S', 00H, 'D', 00H, 'O', 00H, 'N', 00H, 'E', 00H, 00H, 00H
	ORG $+2
$SG174711 DB	'W', 00H, 'M', 00H, '_', 00H, 'T', 00H, 'D', 00H, 'C', 00H
	DB	'M', 00H, '_', 00H, 'T', 00H, 'A', 00H, 'S', 00H, 'K', 00H, 'H'
	DB	00H, 'A', 00H, 'S', 00H, 'R', 00H, 'E', 00H, 'M', 00H, 'I', 00H
	DB	'N', 00H, 'D', 00H, 'E', 00H, 'R', 00H, 00H, 00H
$SG174716 DB	'W', 00H, 'M', 00H, '_', 00H, 'T', 00H, 'D', 00H, 'C', 00H
	DB	'N', 00H, '_', 00H, 'D', 00H, 'I', 00H, 'S', 00H, 'M', 00H, 'I'
	DB	00H, 'S', 00H, 'S', 00H, 'R', 00H, 'E', 00H, 'M', 00H, 'I', 00H
	DB	'N', 00H, 'D', 00H, 'E', 00H, 'R', 00H, 00H, 00H
$SG174721 DB	'W', 00H, 'M', 00H, '_', 00H, 'T', 00H, 'D', 00H, 'C', 00H
	DB	'N', 00H, '_', 00H, 'S', 00H, 'N', 00H, 'O', 00H, 'O', 00H, 'Z'
	DB	00H, 'E', 00H, 'R', 00H, 'E', 00H, 'M', 00H, 'I', 00H, 'N', 00H
	DB	'D', 00H, 'E', 00H, 'R', 00H, 00H, 00H
	ORG $+2
$SG174726 DB	'W', 00H, 'M', 00H, '_', 00H, 'T', 00H, 'D', 00H, 'C', 00H
	DB	'M', 00H, '_', 00H, 'T', 00H, 'A', 00H, 'S', 00H, 'K', 00H, 'L'
	DB	00H, 'I', 00H, 'N', 00H, 'K', 00H, 00H, 00H
	ORG $+2
$SG174731 DB	'W', 00H, 'M', 00H, '_', 00H, 'T', 00H, 'D', 00H, 'C', 00H
	DB	'M', 00H, '_', 00H, 'F', 00H, 'A', 00H, 'I', 00H, 'L', 00H, 'E'
	DB	00H, 'D', 00H, 'L', 00H, 'I', 00H, 'N', 00H, 'K', 00H, 00H, 00H
	ORG $+2
$SG174736 DB	'W', 00H, 'M', 00H, '_', 00H, 'T', 00H, 'D', 00H, 'C', 00H
	DB	'M', 00H, '_', 00H, 'L', 00H, 'E', 00H, 'N', 00H, 'G', 00H, 'T'
	DB	00H, 'H', 00H, 'Y', 00H, 'O', 00H, 'P', 00H, 'E', 00H, 'R', 00H
	DB	'A', 00H, 'T', 00H, 'I', 00H, 'O', 00H, 'N', 00H, 00H, 00H
	ORG $+2
$SG174741 DB	'W', 00H, 'M', 00H, '_', 00H, 'F', 00H, 'T', 00H, 'D', 00H
	DB	'_', 00H, 'F', 00H, 'I', 00H, 'N', 00H, 'D', 00H, 00H, 00H
$SG174746 DB	'W', 00H, 'M', 00H, '_', 00H, 'F', 00H, 'T', 00H, 'D', 00H
	DB	'_', 00H, 'S', 00H, 'E', 00H, 'L', 00H, 'E', 00H, 'C', 00H, 'T'
	DB	00H, 'R', 00H, 'E', 00H, 'S', 00H, 'U', 00H, 'L', 00H, 'T', 00H
	DB	00H, 00H
$SG174751 DB	'W', 00H, 'M', 00H, '_', 00H, 'F', 00H, 'T', 00H, 'D', 00H
	DB	'_', 00H, 'S', 00H, 'E', 00H, 'L', 00H, 'E', 00H, 'C', 00H, 'T'
	DB	00H, 'A', 00H, 'L', 00H, 'L', 00H, 00H, 00H
	ORG $+2
$SG174756 DB	'W', 00H, 'M', 00H, '_', 00H, 'F', 00H, 'T', 00H, 'D', 00H
	DB	'_', 00H, 'C', 00H, 'L', 00H, 'O', 00H, 'S', 00H, 'E', 00H, 00H
	DB	00H
	ORG $+2
$SG174761 DB	'W', 00H, 'M', 00H, '_', 00H, 'F', 00H, 'T', 00H, 'D', 00H
	DB	'_', 00H, 'A', 00H, 'P', 00H, 'P', 00H, 'L', 00H, 'Y', 00H, 'A'
	DB	00H, 'S', 00H, 'F', 00H, 'I', 00H, 'L', 00H, 'T', 00H, 'E', 00H
	DB	'R', 00H, 00H, 00H
	ORG $+2
$SG174766 DB	'W', 00H, 'M', 00H, '_', 00H, 'F', 00H, 'T', 00H, 'D', 00H
	DB	'_', 00H, 'A', 00H, 'D', 00H, 'D', 00H, 'S', 00H, 'E', 00H, 'A'
	DB	00H, 'R', 00H, 'C', 00H, 'H', 00H, 00H, 00H
	ORG $+2
$SG174771 DB	'W', 00H, 'M', 00H, '_', 00H, 'F', 00H, 'T', 00H, 'D', 00H
	DB	'_', 00H, 'S', 00H, 'A', 00H, 'V', 00H, 'E', 00H, 'S', 00H, 'E'
	DB	00H, 'A', 00H, 'R', 00H, 'C', 00H, 'H', 00H, 00H, 00H
$SG174776 DB	'W', 00H, 'M', 00H, '_', 00H, 'F', 00H, 'T', 00H, 'D', 00H
	DB	'_', 00H, 'D', 00H, 'E', 00H, 'L', 00H, 'E', 00H, 'T', 00H, 'E'
	DB	00H, 'S', 00H, 'E', 00H, 'A', 00H, 'R', 00H, 'C', 00H, 'H', 00H
	DB	00H, 00H
$SG174781 DB	'W', 00H, 'M', 00H, '_', 00H, 'F', 00H, 'T', 00H, 'D', 00H
	DB	'_', 00H, 'G', 00H, 'E', 00H, 'T', 00H, 'L', 00H, 'I', 00H, 'S'
	DB	00H, 'T', 00H, 'I', 00H, 'T', 00H, 'E', 00H, 'M', 00H, 'S', 00H
	DB	00H, 00H
$SG174786 DB	'W', 00H, 'M', 00H, '_', 00H, 'T', 00H, 'D', 00H, 'L', 00H
	DB	'T', 00H, 'T', 00H, 'N', 00H, '_', 00H, 'S', 00H, 'T', 00H, 'A'
	DB	00H, 'R', 00H, 'T', 00H, 'T', 00H, 'R', 00H, 'A', 00H, 'C', 00H
	DB	'K', 00H, 'I', 00H, 'N', 00H, 'G', 00H, 00H, 00H
$SG174791 DB	'W', 00H, 'M', 00H, '_', 00H, 'T', 00H, 'D', 00H, 'L', 00H
	DB	'T', 00H, 'T', 00H, 'N', 00H, '_', 00H, 'S', 00H, 'T', 00H, 'O'
	DB	00H, 'P', 00H, 'T', 00H, 'R', 00H, 'A', 00H, 'C', 00H, 'K', 00H
	DB	'I', 00H, 'N', 00H, 'G', 00H, 00H, 00H
	ORG $+2
$SG174796 DB	'W', 00H, 'M', 00H, '_', 00H, 'T', 00H, 'D', 00H, 'L', 00H
	DB	'T', 00H, 'T', 00H, 'N', 00H, '_', 00H, 'L', 00H, 'O', 00H, 'A'
	DB	00H, 'D', 00H, 'D', 00H, 'E', 00H, 'L', 00H, 'A', 00H, 'Y', 00H
	DB	'E', 00H, 'D', 00H, 'T', 00H, 'A', 00H, 'S', 00H, 'K', 00H, 'L'
	DB	00H, 'I', 00H, 'S', 00H, 'T', 00H, 00H, 00H
$SG174802 DB	'T', 00H, 'O', 00H, 'D', 00H, 'O', 00H, 'L', 00H, 'I', 00H
	DB	'S', 00H, 'T', 00H, 00H, 00H
	ORG $+2
$SG174810 DB	'C', 00H, 'H', 00H, 'A', 00H, 'R', 00H, 'S', 00H, 'E', 00H
	DB	'T', 00H, 00H, 00H
$SG174817 DB	'A', 00H, 'P', 00H, 'P', 00H, 'V', 00H, 'E', 00H, 'R', 00H
	DB	00H, 00H
	ORG $+2
$SG174824 DB	'P', 00H, 'R', 00H, 'O', 00H, 'J', 00H, 'E', 00H, 'C', 00H
	DB	'T', 00H, 'N', 00H, 'A', 00H, 'M', 00H, 'E', 00H, 00H, 00H
$SG174831 DB	'L', 00H, 'A', 00H, 'S', 00H, 'T', 00H, 'S', 00H, 'O', 00H
	DB	'R', 00H, 'T', 00H, 'B', 00H, 'Y', 00H, 00H, 00H
	ORG $+2
$SG174838 DB	'L', 00H, 'A', 00H, 'S', 00H, 'T', 00H, 'S', 00H, 'O', 00H
	DB	'R', 00H, 'T', 00H, 'D', 00H, 'I', 00H, 'R', 00H, 00H, 00H
$SG174845 DB	'N', 00H, 'E', 00H, 'X', 00H, 'T', 00H, 'U', 00H, 'N', 00H
	DB	'I', 00H, 'Q', 00H, 'U', 00H, 'E', 00H, 'I', 00H, 'D', 00H, 00H
	DB	00H
	ORG $+2
$SG174852 DB	'A', 00H, 'R', 00H, 'C', 00H, 'H', 00H, 'I', 00H, 'V', 00H
	DB	'E', 00H, 00H, 00H
$SG174859 DB	'F', 00H, 'I', 00H, 'L', 00H, 'E', 00H, 'F', 00H, 'O', 00H
	DB	'R', 00H, 'M', 00H, 'A', 00H, 'T', 00H, 00H, 00H
	ORG $+2
$SG174866 DB	'F', 00H, 'I', 00H, 'L', 00H, 'E', 00H, 'V', 00H, 'E', 00H
	DB	'R', 00H, 'S', 00H, 'I', 00H, 'O', 00H, 'N', 00H, 00H, 00H
$SG174873 DB	'C', 00H, 'H', 00H, 'E', 00H, 'C', 00H, 'K', 00H, 'E', 00H
	DB	'D', 00H, 'O', 00H, 'U', 00H, 'T', 00H, 'T', 00H, 'O', 00H, 00H
	DB	00H
	ORG $+2
$SG174880 DB	'C', 00H, 'U', 00H, 'S', 00H, 'T', 00H, 'O', 00H, 'M', 00H
	DB	'C', 00H, 'O', 00H, 'M', 00H, 'M', 00H, 'E', 00H, 'N', 00H, 'T'
	DB	00H, 'S', 00H, 'T', 00H, 'Y', 00H, 'P', 00H, 'E', 00H, 00H, 00H
	ORG $+2
$SG174887 DB	'R', 00H, 'E', 00H, 'P', 00H, 'O', 00H, 'R', 00H, 'T', 00H
	DB	'T', 00H, 'I', 00H, 'T', 00H, 'L', 00H, 'E', 00H, 00H, 00H
$SG174894 DB	'R', 00H, 'E', 00H, 'P', 00H, 'O', 00H, 'R', 00H, 'T', 00H
	DB	'D', 00H, 'A', 00H, 'T', 00H, 'E', 00H, 00H, 00H
	ORG $+2
$SG174901 DB	'R', 00H, 'E', 00H, 'P', 00H, 'O', 00H, 'R', 00H, 'T', 00H
	DB	'D', 00H, 'A', 00H, 'T', 00H, 'E', 00H, 'O', 00H, 'L', 00H, 'E'
	DB	00H, 00H, 00H
$SG174908 DB	'F', 00H, 'I', 00H, 'L', 00H, 'E', 00H, 'N', 00H, 'A', 00H
	DB	'M', 00H, 'E', 00H, 00H, 00H
	ORG $+2
$SG174915 DB	'M', 00H, 'E', 00H, 'T', 00H, 'A', 00H, 'D', 00H, 'A', 00H
	DB	'T', 00H, 'A', 00H, 00H, 00H
	ORG $+2
$SG174922 DB	'E', 00H, 'A', 00H, 'R', 00H, 'L', 00H, 'I', 00H, 'E', 00H
	DB	'S', 00H, 'T', 00H, 'D', 00H, 'U', 00H, 'E', 00H, 'D', 00H, 'A'
	DB	00H, 'T', 00H, 'E', 00H, 00H, 00H
$SG174929 DB	'E', 00H, 'X', 00H, 'P', 00H, 'O', 00H, 'R', 00H, 'T', 00H
	DB	'S', 00H, 'T', 00H, 'Y', 00H, 'L', 00H, 'E', 00H, 00H, 00H
$SG174936 DB	'L', 00H, 'A', 00H, 'S', 00H, 'T', 00H, 'M', 00H, 'O', 00H
	DB	'D', 00H, 00H, 00H
$SG174943 DB	'L', 00H, 'A', 00H, 'S', 00H, 'T', 00H, 'M', 00H, 'O', 00H
	DB	'D', 00H, 'S', 00H, 'T', 00H, 'R', 00H, 'I', 00H, 'N', 00H, 'G'
	DB	00H, 00H, 00H
$SG174950 DB	'C', 00H, 'U', 00H, 'S', 00H, 'T', 00H, 'O', 00H, 'M', 00H
	DB	'A', 00H, 'T', 00H, 'T', 00H, 'R', 00H, 'I', 00H, 'B', 00H, 'D'
	DB	00H, 'E', 00H, 'F', 00H, 00H, 00H
$SG174957 DB	'I', 00H, 'D', 00H, 00H, 00H
	ORG $+2
$SG174964 DB	'T', 00H, 'Y', 00H, 'P', 00H, 'E', 00H, 00H, 00H
	ORG $+2
$SG174971 DB	'L', 00H, 'A', 00H, 'B', 00H, 'E', 00H, 'L', 00H, 00H, 00H
$SG174978 DB	'C', 00H, 'O', 00H, 'L', 00H, 'T', 00H, 'I', 00H, 'T', 00H
	DB	'L', 00H, 'E', 00H, 00H, 00H
	ORG $+2
$SG174985 DB	'C', 00H, 'O', 00H, 'L', 00H, 'A', 00H, 'L', 00H, 'I', 00H
	DB	'G', 00H, 'N', 00H, 00H, 00H
	ORG $+2
$SG174992 DB	'F', 00H, 'E', 00H, 'A', 00H, 'T', 00H, 'U', 00H, 'R', 00H
	DB	'E', 00H, 'S', 00H, 00H, 00H
	ORG $+2
$SG174999 DB	'L', 00H, 'I', 00H, 'S', 00H, 'T', 00H, 'D', 00H, 'A', 00H
	DB	'T', 00H, 'A', 00H, 00H, 00H
	ORG $+2
$SG175006 DB	'E', 00H, 'N', 00H, 'A', 00H, 'B', 00H, 'L', 00H, 'E', 00H
	DB	'D', 00H, 00H, 00H
$SG175013 DB	'A', 00H, 'T', 00H, 'T', 00H, 'R', 00H, 'I', 00H, 'B', 00H
	DB	'V', 00H, 'I', 00H, 'S', 00H, 00H, 00H
$SG175020 DB	'C', 00H, 'O', 00H, 'L', 00H, 00H, 00H
$SG175027 DB	'E', 00H, 'D', 00H, 'I', 00H, 'T', 00H, 00H, 00H
	ORG $+2
$SG175034 DB	'F', 00H, 'I', 00H, 'L', 00H, 'T', 00H, 'E', 00H, 'R', 00H
	DB	00H, 00H
	ORG $+2
$SG175041 DB	'S', 00H, 'H', 00H, 'O', 00H, 'W', 00H, 'E', 00H, 'D', 00H
	DB	'I', 00H, 'T', 00H, 'F', 00H, 'I', 00H, 'L', 00H, 'T', 00H, 'E'
	DB	00H, 'R', 00H, 00H, 00H
	ORG $+2
$SG175048 DB	'S', 00H, 'O', 00H, 'R', 00H, 'T', 00H, 'A', 00H, 'B', 00H
	DB	'L', 00H, 'E', 00H, 00H, 00H
	ORG $+2
$SG175055 DB	'C', 00H, 'U', 00H, 'S', 00H, 'T', 00H, 'O', 00H, 'M', 00H
	DB	'A', 00H, 'T', 00H, 'T', 00H, 'R', 00H, 'I', 00H, 'B', 00H, 00H
	DB	00H
	ORG $+2
$SG175062 DB	'T', 00H, 'A', 00H, 'S', 00H, 'K', 00H, 00H, 00H
	ORG $+2
$SG175069 DB	'I', 00H, 'D', 00H, 00H, 00H
	ORG $+2
$SG175076 DB	'R', 00H, 'E', 00H, 'F', 00H, 'I', 00H, 'D', 00H, 00H, 00H
$SG175083 DB	'P', 00H, 'O', 00H, 'S', 00H, 00H, 00H
$SG175090 DB	'P', 00H, 'A', 00H, 'R', 00H, 'E', 00H, 'N', 00H, 'T', 00H
	DB	'I', 00H, 'D', 00H, 00H, 00H
	ORG $+2
$SG175097 DB	'T', 00H, 'I', 00H, 'T', 00H, 'L', 00H, 'E', 00H, 00H, 00H
$SG175104 DB	'P', 00H, 'E', 00H, 'R', 00H, 'S', 00H, 'O', 00H, 'N', 00H
	DB	00H, 00H
	ORG $+2
$SG175111 DB	'A', 00H, 'L', 00H, 'L', 00H, 'O', 00H, 'C', 00H, 'A', 00H
	DB	'T', 00H, 'E', 00H, 'D', 00H, 'B', 00H, 'Y', 00H, 00H, 00H
$SG175118 DB	'C', 00H, 'A', 00H, 'T', 00H, 'E', 00H, 'G', 00H, 'O', 00H
	DB	'R', 00H, 'Y', 00H, 00H, 00H
	ORG $+2
$SG175125 DB	'T', 00H, 'A', 00H, 'G', 00H, 00H, 00H
$SG175132 DB	'S', 00H, 'T', 00H, 'A', 00H, 'T', 00H, 'U', 00H, 'S', 00H
	DB	00H, 00H
	ORG $+2
$SG175139 DB	'F', 00H, 'I', 00H, 'L', 00H, 'E', 00H, 'R', 00H, 'E', 00H
	DB	'F', 00H, 'P', 00H, 'A', 00H, 'T', 00H, 'H', 00H, 00H, 00H
$SG175146 DB	'C', 00H, 'R', 00H, 'E', 00H, 'A', 00H, 'T', 00H, 'E', 00H
	DB	'D', 00H, 'B', 00H, 'Y', 00H, 00H, 00H
$SG175153 DB	'C', 00H, 'O', 00H, 'L', 00H, 'O', 00H, 'R', 00H, 00H, 00H
$SG175160 DB	'F', 00H, 'L', 00H, 'A', 00H, 'G', 00H, 00H, 00H
	ORG $+2
$SG175167 DB	'W', 00H, 'E', 00H, 'B', 00H, 'C', 00H, 'O', 00H, 'L', 00H
	DB	'O', 00H, 'R', 00H, 00H, 00H
	ORG $+2
$SG175174 DB	'P', 00H, 'R', 00H, 'I', 00H, 'O', 00H, 'R', 00H, 'I', 00H
	DB	'T', 00H, 'Y', 00H, 00H, 00H
	ORG $+2
$SG175181 DB	'P', 00H, 'E', 00H, 'R', 00H, 'C', 00H, 'E', 00H, 'N', 00H
	DB	'T', 00H, 'D', 00H, 'O', 00H, 'N', 00H, 'E', 00H, 00H, 00H
$SG175188 DB	'T', 00H, 'I', 00H, 'M', 00H, 'E', 00H, 'E', 00H, 'S', 00H
	DB	'T', 00H, 'I', 00H, 'M', 00H, 'A', 00H, 'T', 00H, 'E', 00H, 00H
	DB	00H
	ORG $+2
$SG175195 DB	'T', 00H, 'I', 00H, 'M', 00H, 'E', 00H, 'E', 00H, 'S', 00H
	DB	'T', 00H, 'U', 00H, 'N', 00H, 'I', 00H, 'T', 00H, 'S', 00H, 00H
	DB	00H
	ORG $+2
$SG175202 DB	'T', 00H, 'I', 00H, 'M', 00H, 'E', 00H, 'S', 00H, 'P', 00H
	DB	'E', 00H, 'N', 00H, 'T', 00H, 00H, 00H
$SG175209 DB	'T', 00H, 'I', 00H, 'M', 00H, 'E', 00H, 'S', 00H, 'P', 00H
	DB	'E', 00H, 'N', 00H, 'T', 00H, 'U', 00H, 'N', 00H, 'I', 00H, 'T'
	DB	00H, 'S', 00H, 00H, 00H
	ORG $+2
$SG175216 DB	'R', 00H, 'E', 00H, 'C', 00H, 'U', 00H, 'R', 00H, 'R', 00H
	DB	'E', 00H, 'N', 00H, 'C', 00H, 'E', 00H, 00H, 00H
	ORG $+2
$SG175223 DB	'R', 00H, 'E', 00H, 'C', 00H, 'U', 00H, 'R', 00H, 'F', 00H
	DB	'R', 00H, 'E', 00H, 'Q', 00H, 00H, 00H
$SG175230 DB	'R', 00H, 'E', 00H, 'C', 00H, 'U', 00H, 'R', 00H, 'S', 00H
	DB	'P', 00H, 'E', 00H, 'C', 00H, 'I', 00H, 'F', 00H, 'I', 00H, 'C'
	DB	00H, '1', 00H, 00H, 00H
	ORG $+2
$SG175237 DB	'R', 00H, 'E', 00H, 'C', 00H, 'U', 00H, 'R', 00H, 'S', 00H
	DB	'P', 00H, 'E', 00H, 'C', 00H, 'I', 00H, 'F', 00H, 'I', 00H, 'C'
	DB	00H, '2', 00H, 00H, 00H
	ORG $+2
$SG175244 DB	'R', 00H, 'E', 00H, 'C', 00H, 'U', 00H, 'R', 00H, 'F', 00H
	DB	'R', 00H, 'O', 00H, 'M', 00H, 00H, 00H
$SG175251 DB	'R', 00H, 'E', 00H, 'C', 00H, 'U', 00H, 'R', 00H, 'R', 00H
	DB	'E', 00H, 'U', 00H, 'S', 00H, 'E', 00H, 00H, 00H
	ORG $+2
$SG175258 DB	'R', 00H, 'E', 00H, 'C', 00H, 'U', 00H, 'R', 00H, 'N', 00H
	DB	'U', 00H, 'M', 00H, 00H, 00H
	ORG $+2
$SG175265 DB	'R', 00H, 'E', 00H, 'C', 00H, 'U', 00H, 'R', 00H, 'R', 00H
	DB	'E', 00H, 'M', 00H, 'A', 00H, 'I', 00H, 'N', 00H, 'I', 00H, 'N'
	DB	00H, 'G', 00H, 00H, 00H
	ORG $+2
$SG175272 DB	'D', 00H, 'E', 00H, 'P', 00H, 'E', 00H, 'N', 00H, 'D', 00H
	DB	'S', 00H, 00H, 00H
$SG175279 DB	'V', 00H, 'E', 00H, 'R', 00H, 'S', 00H, 'I', 00H, 'O', 00H
	DB	'N', 00H, 00H, 00H
$SG175286 DB	'I', 00H, 'C', 00H, 'O', 00H, 'N', 00H, 'I', 00H, 'N', 00H
	DB	'D', 00H, 'E', 00H, 'X', 00H, 00H, 00H
$SG175293 DB	'M', 00H, 'E', 00H, 'T', 00H, 'A', 00H, 'D', 00H, 'A', 00H
	DB	'T', 00H, 'A', 00H, 00H, 00H
	ORG $+2
$SG175300 DB	'R', 00H, 'I', 00H, 'S', 00H, 'K', 00H, 00H, 00H
	ORG $+2
$SG175307 DB	'C', 00H, 'O', 00H, 'S', 00H, 'T', 00H, 00H, 00H
	ORG $+2
$SG175314 DB	'E', 00H, 'X', 00H, 'T', 00H, 'E', 00H, 'R', 00H, 'N', 00H
	DB	'A', 00H, 'L', 00H, 'I', 00H, 'D', 00H, 00H, 00H
	ORG $+2
$SG175321 DB	'S', 00H, 'U', 00H, 'B', 00H, 'T', 00H, 'A', 00H, 'S', 00H
	DB	'K', 00H, 'D', 00H, 'O', 00H, 'N', 00H, 'E', 00H, 00H, 00H
$SG175328 DB	'G', 00H, 'O', 00H, 'O', 00H, 'D', 00H, 'A', 00H, 'S', 00H
	DB	'D', 00H, 'O', 00H, 'N', 00H, 'E', 00H, 00H, 00H
	ORG $+2
$SG175335 DB	'R', 00H, 'E', 00H, 'G', 00H, 'U', 00H, 'L', 00H, 'A', 00H
	DB	'R', 00H, 'I', 00H, 'T', 00H, 'Y', 00H, 00H, 00H
	ORG $+2
$SG175342 DB	'R', 00H, 'E', 00H, 'G', 00H, 'P', 00H, 'E', 00H, 'C', 00H
	DB	'I', 00H, 'F', 00H, 'I', 00H, 'C', 00H, '1', 00H, 00H, 00H
$SG175349 DB	'R', 00H, 'E', 00H, 'G', 00H, 'P', 00H, 'E', 00H, 'C', 00H
	DB	'I', 00H, 'F', 00H, 'I', 00H, 'C', 00H, '2', 00H, 00H, 00H
$SG175356 DB	'R', 00H, 'E', 00H, 'G', 00H, 'F', 00H, 'R', 00H, 'O', 00H
	DB	'M', 00H, 'D', 00H, 'U', 00H, 'E', 00H, 00H, 00H
	ORG $+2
$SG175363 DB	'N', 00H, 'U', 00H, 'M', 00H, 'P', 00H, 'E', 00H, 'R', 00H
	DB	'S', 00H, 'O', 00H, 'N', 00H, 00H, 00H
$SG175370 DB	'N', 00H, 'U', 00H, 'M', 00H, 'C', 00H, 'A', 00H, 'T', 00H
	DB	'E', 00H, 'G', 00H, 'O', 00H, 'R', 00H, 'Y', 00H, 00H, 00H
$SG175377 DB	'N', 00H, 'U', 00H, 'M', 00H, 'T', 00H, 'A', 00H, 'G', 00H
	DB	'S', 00H, 00H, 00H
$SG175384 DB	'N', 00H, 'U', 00H, 'M', 00H, 'D', 00H, 'E', 00H, 'P', 00H
	DB	'E', 00H, 'N', 00H, 'D', 00H, 'S', 00H, 00H, 00H
	ORG $+2
$SG175391 DB	'C', 00H, 'U', 00H, 'S', 00H, 'T', 00H, 'O', 00H, 'M', 00H
	DB	'A', 00H, 'T', 00H, 'T', 00H, 'R', 00H, 'I', 00H, 'B', 00H, 00H
	DB	00H
	ORG $+2
$SG175398 DB	'I', 00H, 'D', 00H, 00H, 00H
	ORG $+2
$SG175405 DB	'N', 00H, 'A', 00H, 'M', 00H, 'E', 00H, 00H, 00H
	ORG $+2
$SG175412 DB	'V', 00H, 'A', 00H, 'L', 00H, 'U', 00H, 'E', 00H, 00H, 00H
$SG175419 DB	'D', 00H, 'A', 00H, 'T', 00H, 'E', 00H, 'S', 00H, 'T', 00H
	DB	'R', 00H, 'I', 00H, 'N', 00H, 'G', 00H, 00H, 00H
	ORG $+2
$SG175426 DB	'C', 00H, 'O', 00H, 'M', 00H, 'M', 00H, 'E', 00H, 'N', 00H
	DB	'T', 00H, 'S', 00H, 00H, 00H
	ORG $+2
$SG175433 DB	'C', 00H, 'U', 00H, 'S', 00H, 'T', 00H, 'O', 00H, 'M', 00H
	DB	'C', 00H, 'O', 00H, 'M', 00H, 'M', 00H, 'E', 00H, 'N', 00H, 'T'
	DB	00H, 'S', 00H, 00H, 00H
	ORG $+2
$SG175440 DB	'C', 00H, 'O', 00H, 'M', 00H, 'M', 00H, 'E', 00H, 'N', 00H
	DB	'T', 00H, 'S', 00H, 'T', 00H, 'Y', 00H, 'P', 00H, 'E', 00H, 00H
	DB	00H
	ORG $+2
$SG175447 DB	'H', 00H, 'T', 00H, 'M', 00H, 'L', 00H, 'C', 00H, 'O', 00H
	DB	'M', 00H, 'M', 00H, 'E', 00H, 'N', 00H, 'T', 00H, 'S', 00H, 00H
	DB	00H
	ORG $+2
$SG175454 DB	'D', 00H, 'O', 00H, 'N', 00H, 'E', 00H, 'D', 00H, 'A', 00H
	DB	'T', 00H, 'E', 00H, 00H, 00H
	ORG $+2
$SG175461 DB	'D', 00H, 'O', 00H, 'N', 00H, 'E', 00H, 'D', 00H, 'A', 00H
	DB	'T', 00H, 'E', 00H, 'S', 00H, 'T', 00H, 'R', 00H, 'I', 00H, 'N'
	DB	00H, 'G', 00H, 00H, 00H
	ORG $+2
$SG175468 DB	'D', 00H, 'U', 00H, 'E', 00H, 'D', 00H, 'A', 00H, 'T', 00H
	DB	'E', 00H, 00H, 00H
$SG175475 DB	'D', 00H, 'U', 00H, 'E', 00H, 'D', 00H, 'A', 00H, 'T', 00H
	DB	'E', 00H, 'S', 00H, 'T', 00H, 'R', 00H, 'I', 00H, 'N', 00H, 'G'
	DB	00H, 00H, 00H
$SG175482 DB	'S', 00H, 'T', 00H, 'A', 00H, 'R', 00H, 'T', 00H, 'D', 00H
	DB	'A', 00H, 'T', 00H, 'E', 00H, 00H, 00H
$SG175489 DB	'S', 00H, 'T', 00H, 'A', 00H, 'R', 00H, 'T', 00H, 'D', 00H
	DB	'A', 00H, 'T', 00H, 'E', 00H, 'S', 00H, 'T', 00H, 'R', 00H, 'I'
	DB	00H, 'N', 00H, 'G', 00H, 00H, 00H
$SG175496 DB	'C', 00H, 'R', 00H, 'E', 00H, 'A', 00H, 'T', 00H, 'I', 00H
	DB	'O', 00H, 'N', 00H, 'D', 00H, 'A', 00H, 'T', 00H, 'E', 00H, 00H
	DB	00H
	ORG $+2
$SG175503 DB	'C', 00H, 'R', 00H, 'E', 00H, 'A', 00H, 'T', 00H, 'I', 00H
	DB	'O', 00H, 'N', 00H, 'D', 00H, 'A', 00H, 'T', 00H, 'E', 00H, 'S'
	DB	00H, 'T', 00H, 'R', 00H, 'I', 00H, 'N', 00H, 'G', 00H, 00H, 00H
	ORG $+2
$SG175510 DB	'L', 00H, 'A', 00H, 'S', 00H, 'T', 00H, 'M', 00H, 'O', 00H
	DB	'D', 00H, 00H, 00H
$SG175517 DB	'L', 00H, 'A', 00H, 'S', 00H, 'T', 00H, 'M', 00H, 'O', 00H
	DB	'D', 00H, 'S', 00H, 'T', 00H, 'R', 00H, 'I', 00H, 'N', 00H, 'G'
	DB	00H, 00H, 00H
$SG175524 DB	'T', 00H, 'E', 00H, 'X', 00H, 'T', 00H, 'C', 00H, 'O', 00H
	DB	'L', 00H, 'O', 00H, 'R', 00H, 00H, 00H
$SG175531 DB	'B', 00H, 'A', 00H, 'C', 00H, 'K', 00H, 'C', 00H, 'O', 00H
	DB	'L', 00H, 'O', 00H, 'R', 00H, 00H, 00H
$SG175538 DB	'T', 00H, 'E', 00H, 'X', 00H, 'T', 00H, 'W', 00H, 'E', 00H
	DB	'B', 00H, 'C', 00H, 'O', 00H, 'L', 00H, 'O', 00H, 'R', 00H, 00H
	DB	00H
	ORG $+2
$SG175545 DB	'B', 00H, 'A', 00H, 'C', 00H, 'K', 00H, 'W', 00H, 'E', 00H
	DB	'B', 00H, 'C', 00H, 'O', 00H, 'L', 00H, 'O', 00H, 'R', 00H, 00H
	DB	00H
	ORG $+2
$SG175552 DB	'P', 00H, 'R', 00H, 'I', 00H, 'O', 00H, 'R', 00H, 'I', 00H
	DB	'T', 00H, 'Y', 00H, 'C', 00H, 'O', 00H, 'L', 00H, 'O', 00H, 'R'
	DB	00H, 00H, 00H
$SG175559 DB	'P', 00H, 'R', 00H, 'I', 00H, 'O', 00H, 'R', 00H, 'I', 00H
	DB	'T', 00H, 'Y', 00H, 'W', 00H, 'E', 00H, 'B', 00H, 'C', 00H, 'O'
	DB	00H, 'L', 00H, 'O', 00H, 'R', 00H, 00H, 00H
	ORG $+2
$SG175566 DB	'C', 00H, 'A', 00H, 'L', 00H, 'C', 00H, 'T', 00H, 'I', 00H
	DB	'M', 00H, 'E', 00H, 'E', 00H, 'S', 00H, 'T', 00H, 'I', 00H, 'M'
	DB	00H, 'A', 00H, 'T', 00H, 'E', 00H, 00H, 00H
	ORG $+2
$SG175573 DB	'C', 00H, 'A', 00H, 'L', 00H, 'C', 00H, 'T', 00H, 'I', 00H
	DB	'M', 00H, 'E', 00H, 'E', 00H, 'S', 00H, 'T', 00H, 'U', 00H, 'N'
	DB	00H, 'I', 00H, 'T', 00H, 'S', 00H, 00H, 00H
	ORG $+2
$SG175580 DB	'C', 00H, 'A', 00H, 'L', 00H, 'C', 00H, 'T', 00H, 'I', 00H
	DB	'M', 00H, 'E', 00H, 'S', 00H, 'P', 00H, 'E', 00H, 'N', 00H, 'T'
	DB	00H, 00H, 00H
$SG175587 DB	'C', 00H, 'A', 00H, 'L', 00H, 'C', 00H, 'T', 00H, 'I', 00H
	DB	'M', 00H, 'E', 00H, 'S', 00H, 'P', 00H, 'E', 00H, 'N', 00H, 'T'
	DB	00H, 'U', 00H, 'N', 00H, 'I', 00H, 'T', 00H, 'S', 00H, 00H, 00H
	ORG $+2
$SG175594 DB	'C', 00H, 'A', 00H, 'L', 00H, 'C', 00H, 'S', 00H, 'T', 00H
	DB	'A', 00H, 'R', 00H, 'T', 00H, 'D', 00H, 'A', 00H, 'T', 00H, 'E'
	DB	00H, 00H, 00H
$SG175601 DB	'C', 00H, 'A', 00H, 'L', 00H, 'C', 00H, 'S', 00H, 'T', 00H
	DB	'A', 00H, 'R', 00H, 'T', 00H, 'D', 00H, 'A', 00H, 'T', 00H, 'E'
	DB	00H, 'S', 00H, 'T', 00H, 'R', 00H, 'I', 00H, 'N', 00H, 'G', 00H
	DB	00H, 00H
$SG175608 DB	'C', 00H, 'A', 00H, 'L', 00H, 'C', 00H, 'D', 00H, 'U', 00H
	DB	'E', 00H, 'D', 00H, 'A', 00H, 'T', 00H, 'E', 00H, 00H, 00H
$SG175615 DB	'C', 00H, 'A', 00H, 'L', 00H, 'C', 00H, 'D', 00H, 'U', 00H
	DB	'E', 00H, 'D', 00H, 'A', 00H, 'T', 00H, 'E', 00H, 'S', 00H, 'T'
	DB	00H, 'R', 00H, 'I', 00H, 'N', 00H, 'G', 00H, 00H, 00H
$SG175622 DB	'C', 00H, 'A', 00H, 'L', 00H, 'C', 00H, 'P', 00H, 'E', 00H
	DB	'R', 00H, 'C', 00H, 'E', 00H, 'N', 00H, 'T', 00H, 'D', 00H, 'O'
	DB	00H, 'N', 00H, 'E', 00H, 00H, 00H
$SG175629 DB	'H', 00H, 'I', 00H, 'G', 00H, 'H', 00H, 'E', 00H, 'S', 00H
	DB	'T', 00H, 'P', 00H, 'R', 00H, 'I', 00H, 'O', 00H, 'R', 00H, 'I'
	DB	00H, 'T', 00H, 'Y', 00H, 00H, 00H
$SG175636 DB	'H', 00H, 'I', 00H, 'G', 00H, 'H', 00H, 'E', 00H, 'S', 00H
	DB	'T', 00H, 'R', 00H, 'I', 00H, 'S', 00H, 'K', 00H, 00H, 00H
$SG175643 DB	'C', 00H, 'A', 00H, 'L', 00H, 'C', 00H, 'C', 00H, 'O', 00H
	DB	'S', 00H, 'T', 00H, 00H, 00H
	ORG $+2
$SG175650 DB	'P', 00H, 'A', 00H, 'T', 00H, 'H', 00H, 00H, 00H
	ORG $+2
$SG175657 DB	'I', 00H, 'S', 00H, 'P', 00H, 'A', 00H, 'R', 00H, 'E', 00H
	DB	'N', 00H, 'T', 00H, 00H, 00H
	ORG $+2
$SG178251 DB	'H', 00H, 'T', 00H, 'M', 00H, 'L', 00H, ' ', 00H, 'F', 00H
	DB	'o', 00H, 'r', 00H, 'm', 00H, 'a', 00H, 't', 00H, 00H, 00H
$SG178256 DB	'm', 00H, 's', 00H, 'S', 00H, 'o', 00H, 'u', 00H, 'r', 00H
	DB	'c', 00H, 'e', 00H, 'U', 00H, 'r', 00H, 'l', 00H, 00H, 00H
$SG178261 DB	'R', 00H, 'i', 00H, 'c', 00H, 'h', 00H, ' ', 00H, 'T', 00H
	DB	'e', 00H, 'x', 00H, 't', 00H, ' ', 00H, 'F', 00H, 'o', 00H, 'r'
	DB	00H, 'm', 00H, 'a', 00H, 't', 00H, 00H, 00H
	ORG $+2
$SG178266 DB	'R', 00H, 'i', 00H, 'c', 00H, 'h', 00H, 'E', 00H, 'd', 00H
	DB	'i', 00H, 't', 00H, ' ', 00H, 'T', 00H, 'e', 00H, 'x', 00H, 't'
	DB	00H, ' ', 00H, 'a', 00H, 'n', 00H, 'd', 00H, ' ', 00H, 'O', 00H
	DB	'b', 00H, 'j', 00H, 'e', 00H, 'c', 00H, 't', 00H, 's', 00H, 00H
	DB	00H
$SG178271 DB	'E', 00H, 'm', 00H, 'b', 00H, 'e', 00H, 'd', 00H, 'd', 00H
	DB	'e', 00H, 'd', 00H, ' ', 00H, 'O', 00H, 'b', 00H, 'j', 00H, 'e'
	DB	00H, 'c', 00H, 't', 00H, 00H, 00H
$SG178276 DB	'F', 00H, 'i', 00H, 'l', 00H, 'e', 00H, 'N', 00H, 'a', 00H
	DB	'm', 00H, 'e', 00H, 'W', 00H, 00H, 00H
_IID_TASKLIST4 DD 0d063e3deH
	DW	083d1H
	DW	040d7H
	DB	0bcH
	DB	02dH
	DB	0faH
	DB	024H
	DB	04H
	DB	085H
	DB	057H
	DB	0edH
$SG180895 DB	09H, 00H, 00H, 00H
$SG180907 DB	'S', 00H, 'h', 00H, 'o', 00H, 'w', 00H, 'T', 00H, 'o', 00H
	DB	'o', 00H, 'l', 00H, 'b', 00H, 'a', 00H, 'r', 00H, 00H, 00H
$SG180908 DB	'S', 00H, 'h', 00H, 'o', 00H, 'w', 00H, 'R', 00H, 'u', 00H
	DB	'l', 00H, 'e', 00H, 'r', 00H, 00H, 00H
$SG180909 DB	'W', 00H, 'o', 00H, 'r', 00H, 'd', 00H, 'W', 00H, 'r', 00H
	DB	'a', 00H, 'p', 00H, 00H, 00H
	ORG $+2
$SG180910 DB	'F', 00H, 'o', 00H, 'r', 00H, 'e', 00H, 'g', 00H, 'r', 00H
	DB	'o', 00H, 'u', 00H, 'n', 00H, 'd', 00H, 'C', 00H, 'o', 00H, 'l'
	DB	00H, 'o', 00H, 'u', 00H, 'r', 00H, 00H, 00H
	ORG $+2
$SG180911 DB	'B', 00H, 'a', 00H, 'c', 00H, 'k', 00H, 'g', 00H, 'r', 00H
	DB	'o', 00H, 'u', 00H, 'n', 00H, 'd', 00H, 'C', 00H, 'o', 00H, 'l'
	DB	00H, 'o', 00H, 'u', 00H, 'r', 00H, 00H, 00H
	ORG $+2
$SG180920 DB	'S', 00H, 'h', 00H, 'o', 00H, 'w', 00H, 'T', 00H, 'o', 00H
	DB	'o', 00H, 'l', 00H, 'b', 00H, 'a', 00H, 'r', 00H, 00H, 00H
$SG180922 DB	'S', 00H, 'h', 00H, 'o', 00H, 'w', 00H, 'R', 00H, 'u', 00H
	DB	'l', 00H, 'e', 00H, 'r', 00H, 00H, 00H
$SG180924 DB	'W', 00H, 'o', 00H, 'r', 00H, 'd', 00H, 'W', 00H, 'r', 00H
	DB	'a', 00H, 'p', 00H, 00H, 00H
	ORG $+2
$SG180926 DB	'F', 00H, 'o', 00H, 'r', 00H, 'e', 00H, 'g', 00H, 'r', 00H
	DB	'o', 00H, 'u', 00H, 'n', 00H, 'd', 00H, 'C', 00H, 'o', 00H, 'l'
	DB	00H, 'o', 00H, 'u', 00H, 'r', 00H, 00H, 00H
	ORG $+2
$SG180928 DB	'B', 00H, 'a', 00H, 'c', 00H, 'k', 00H, 'g', 00H, 'r', 00H
	DB	'o', 00H, 'u', 00H, 'n', 00H, 'd', 00H, 'C', 00H, 'o', 00H, 'l'
	DB	00H, 'o', 00H, 'u', 00H, 'r', 00H, 00H, 00H
	ORG $+2
$SG180931 DB	'F', 00H, 'i', 00H, 'l', 00H, 'e', 00H, 'L', 00H, 'i', 00H
	DB	'n', 00H, 'k', 00H, 'O', 00H, 'p', 00H, 't', 00H, 'i', 00H, 'o'
	DB	00H, 'n', 00H, 00H, 00H
	ORG $+2
$SG180933 DB	'F', 00H, 'i', 00H, 'l', 00H, 'e', 00H, 'L', 00H, 'i', 00H
	DB	'n', 00H, 'k', 00H, 'O', 00H, 'p', 00H, 't', 00H, 'i', 00H, 'o'
	DB	00H, 'n', 00H, 'I', 00H, 's', 00H, 'D', 00H, 'e', 00H, 'f', 00H
	DB	'a', 00H, 'u', 00H, 'l', 00H, 't', 00H, 00H, 00H
$SG180979 DB	00H, 00H
	ORG $+2
$SG181010 DB	00H, 00H
	ORG $+2
$SG181086 DB	'%', 00H, 's', 00H, ':', 00H, ' ', 00H, '%', 00H, 's', 00H
	DB	00H, 00H
	ORG $+2
$SG181103 DB	'%', 00H, '2', 00H, '0', 00H, 00H, 00H
$SG181104 DB	' ', 00H, 00H, 00H
$SG181115 DB	' ', 00H, '%', 00H, 's', 00H, '%', 00H, 'l', 00H, 'u', 00H
	DB	00H, 00H
	ORG $+2
$SG181117 DB	' ', 00H, '%', 00H, 's', 00H, '%', 00H, 's', 00H, '?', 00H
	DB	'%', 00H, 'l', 00H, 'u', 00H, 00H, 00H
$SG181425 DB	'c:\program files (x86)\microsoft visual studio 10.0\vc\a'
	DB	'tlmfc\include\afxtempl.h', 00H
	ORG $+3
$SG181460 DB	'with ', 00H
	ORG $+2
$SG181461 DB	' elements', 00H
	ORG $+2
$SG181441 DB	'c:\program files (x86)\microsoft visual studio 10.0\vc\a'
	DB	'tlmfc\include\afxtempl.h', 00H
	ORG $+3
$SG181463 DB	0aH, 00H
	ORG $+2
$SG181471 DB	0aH, 00H
	ORG $+2
$SG181537 DB	' elements', 00H
	ORG $+2
$SG181481 DB	'c:\program files (x86)\microsoft visual studio 10.0\vc\a'
	DB	'tlmfc\include\afxtempl.h', 00H
	ORG $+3
$SG181536 DB	'with ', 00H
	ORG $+2
$SG181539 DB	0aH, 00H
	ORG $+2
$SG181483 DB	'c:\program files (x86)\microsoft visual studio 10.0\vc\a'
	DB	'tlmfc\include\afxtempl.h', 00H
	ORG $+3
$SG181547 DB	0aH, 00H
	ORG $+2
$SG181486 DB	'c:\program files (x86)\microsoft visual studio 10.0\vc\a'
	DB	'tlmfc\include\afxtempl.h', 00H
	ORG $+3
$SG181670 DB	'with ', 00H
	ORG $+2
$SG181671 DB	' elements', 00H
	ORG $+2
$SG181488 DB	'c:\program files (x86)\microsoft visual studio 10.0\vc\a'
	DB	'tlmfc\include\afxtempl.h', 00H
	ORG $+3
$SG181679 DB	0aH, 09H, '[', 00H
$SG181490 DB	'c:\program files (x86)\microsoft visual studio 10.0\vc\a'
	DB	'tlmfc\include\afxtempl.h', 00H
	ORG $+3
$SG181695 DB	0aH, 00H
	ORG $+2
$SG181493 DB	'c:\program files (x86)\microsoft visual studio 10.0\vc\a'
	DB	'tlmfc\include\afxtempl.h', 00H
	ORG $+3
$SG181760 DB	'with ', 00H
	ORG $+2
$SG181761 DB	' elements', 00H
	ORG $+2
$SG181501 DB	'c:\program files (x86)\microsoft visual studio 10.0\vc\a'
	DB	'tlmfc\include\afxtempl.h', 00H
	ORG $+3
$SG181763 DB	0aH, 00H
	ORG $+2
$SG181517 DB	'c:\program files (x86)\microsoft visual studio 10.0\vc\a'
	DB	'tlmfc\include\afxtempl.h', 00H
	ORG $+3
$SG181771 DB	0aH, 00H
	ORG $+2
$SG181557 DB	'c:\program files (x86)\microsoft visual studio 10.0\vc\a'
	DB	'tlmfc\include\afxtempl.h', 00H
	ORG $+3
$SG181894 DB	'with ', 00H
	ORG $+2
$SG181895 DB	' elements', 00H
	ORG $+2
$SG181559 DB	'c:\program files (x86)\microsoft visual studio 10.0\vc\a'
	DB	'tlmfc\include\afxtempl.h', 00H
	ORG $+3
$SG181903 DB	0aH, 09H, '[', 00H
$SG181562 DB	'c:\program files (x86)\microsoft visual studio 10.0\vc\a'
	DB	'tlmfc\include\afxtempl.h', 00H
	ORG $+3
$SG181919 DB	0aH, 00H
	ORG $+2
$SG181564 DB	'c:\program files (x86)\microsoft visual studio 10.0\vc\a'
	DB	'tlmfc\include\afxtempl.h', 00H
	ORG $+3
$SG182029 DB	'with ', 00H
	ORG $+2
$SG182030 DB	' elements', 00H
	ORG $+2
$SG181566 DB	'c:\program files (x86)\microsoft visual studio 10.0\vc\a'
	DB	'tlmfc\include\afxtempl.h', 00H
	ORG $+3
$SG182038 DB	0aH, 09H, '[', 00H
$SG181569 DB	'c:\program files (x86)\microsoft visual studio 10.0\vc\a'
	DB	'tlmfc\include\afxtempl.h', 00H
	ORG $+3
$SG182048 DB	0aH, 00H
	ORG $+2
$SG181582 DB	'c:\program files (x86)\microsoft visual studio 10.0\vc\a'
	DB	'tlmfc\include\afxtempl.h', 00H
	ORG $+3
$SG182158 DB	'with ', 00H
	ORG $+2
$SG182159 DB	' elements', 00H
	ORG $+2
$SG181595 DB	'c:\program files (x86)\microsoft visual studio 10.0\vc\a'
	DB	'tlmfc\include\afxtempl.h', 00H
	ORG $+3
$SG182167 DB	0aH, 09H, '[', 00H
$SG181599 DB	'c:\program files (x86)\microsoft visual studio 10.0\vc\a'
	DB	'tlmfc\include\afxtempl.h', 00H
	ORG $+3
$SG181687 DB	'] = ', 00H
	ORG $+3
$SG182177 DB	0aH, 00H
	ORG $+2
$SG181708 DB	'c:\program files (x86)\microsoft visual studio 10.0\vc\a'
	DB	'tlmfc\include\afxtempl.h', 00H
	ORG $+3
$SG182287 DB	'with ', 00H
	ORG $+2
$SG182288 DB	' elements', 00H
	ORG $+2
$SG181710 DB	'c:\program files (x86)\microsoft visual studio 10.0\vc\a'
	DB	'tlmfc\include\afxtempl.h', 00H
	ORG $+3
$SG182296 DB	0aH, 09H, '[', 00H
$SG181725 DB	'c:\program files (x86)\microsoft visual studio 10.0\vc\a'
	DB	'tlmfc\include\afxtempl.h', 00H
	ORG $+3
$SG182306 DB	0aH, 00H
	ORG $+2
$SG181741 DB	'c:\program files (x86)\microsoft visual studio 10.0\vc\a'
	DB	'tlmfc\include\afxtempl.h', 00H
	ORG $+3
$SG182421 DB	'with ', 00H
	ORG $+2
$SG182422 DB	' elements', 00H
	ORG $+2
$SG181781 DB	'c:\program files (x86)\microsoft visual studio 10.0\vc\a'
	DB	'tlmfc\include\afxtempl.h', 00H
	ORG $+3
$SG182430 DB	0aH, 09H, '[', 00H
$SG181783 DB	'c:\program files (x86)\microsoft visual studio 10.0\vc\a'
	DB	'tlmfc\include\afxtempl.h', 00H
	ORG $+3
$SG182434 DB	0aH, 00H
	ORG $+2
$SG181786 DB	'c:\program files (x86)\microsoft visual studio 10.0\vc\a'
	DB	'tlmfc\include\afxtempl.h', 00H
	ORG $+3
$SG182603 DB	'with ', 00H
	ORG $+2
$SG182604 DB	' elements', 00H
	ORG $+2
$SG181788 DB	'c:\program files (x86)\microsoft visual studio 10.0\vc\a'
	DB	'tlmfc\include\afxtempl.h', 00H
	ORG $+3
$SG182618 DB	0aH, 09H, '[', 00H
$SG181790 DB	'c:\program files (x86)\microsoft visual studio 10.0\vc\a'
	DB	'tlmfc\include\afxtempl.h', 00H
	ORG $+3
$SG182634 DB	0aH, 00H
	ORG $+2
$SG181793 DB	'c:\program files (x86)\microsoft visual studio 10.0\vc\a'
	DB	'tlmfc\include\afxtempl.h', 00H
	ORG $+3
$SG182692 DB	'with ', 00H
	ORG $+2
$SG182693 DB	' elements', 00H
	ORG $+2
$SG181806 DB	'c:\program files (x86)\microsoft visual studio 10.0\vc\a'
	DB	'tlmfc\include\afxtempl.h', 00H
	ORG $+3
$SG182695 DB	0aH, 00H
	ORG $+2
$SG181819 DB	'c:\program files (x86)\microsoft visual studio 10.0\vc\a'
	DB	'tlmfc\include\afxtempl.h', 00H
	ORG $+3
$SG182703 DB	0aH, 00H
	ORG $+2
$SG181823 DB	'c:\program files (x86)\microsoft visual studio 10.0\vc\a'
	DB	'tlmfc\include\afxtempl.h', 00H
	ORG $+3
$SG181911 DB	'] = ', 00H
	ORG $+3
$SG182820 DB	'with ', 00H
	ORG $+2
$SG182821 DB	' elements', 00H
	ORG $+2
$SG181932 DB	'c:\program files (x86)\microsoft visual studio 10.0\vc\a'
	DB	'tlmfc\include\afxtempl.h', 00H
	ORG $+3
$SG182829 DB	0aH, 09H, '[', 00H
$SG181934 DB	'c:\program files (x86)\microsoft visual studio 10.0\vc\a'
	DB	'tlmfc\include\afxtempl.h', 00H
	ORG $+3
$SG182839 DB	0aH, 00H
	ORG $+2
$SG181947 DB	'c:\program files (x86)\microsoft visual studio 10.0\vc\a'
	DB	'tlmfc\include\afxtempl.h', 00H
	ORG $+3
$SG182916 DB	'with ', 00H
	ORG $+2
$SG182917 DB	' elements', 00H
	ORG $+2
$SG181960 DB	'c:\program files (x86)\microsoft visual studio 10.0\vc\a'
	DB	'tlmfc\include\afxtempl.h', 00H
	ORG $+3
$SG182925 DB	0aH, 00H
	ORG $+2
$SG181964 DB	'c:\program files (x86)\microsoft visual studio 10.0\vc\a'
	DB	'tlmfc\include\afxtempl.h', 00H
	ORG $+3
$SG182040 DB	'] = ', 00H
	ORG $+3
$SG182933 DB	0aH, 00H
	ORG $+2
$SG182061 DB	'c:\program files (x86)\microsoft visual studio 10.0\vc\a'
	DB	'tlmfc\include\afxtempl.h', 00H
	ORG $+7
$SG182063 DB	'c:\program files (x86)\microsoft visual studio 10.0\vc\a'
	DB	'tlmfc\include\afxtempl.h', 00H
	ORG $+7
$SG182076 DB	'c:\program files (x86)\microsoft visual studio 10.0\vc\a'
	DB	'tlmfc\include\afxtempl.h', 00H
	ORG $+7
$SG182089 DB	'c:\program files (x86)\microsoft visual studio 10.0\vc\a'
	DB	'tlmfc\include\afxtempl.h', 00H
	ORG $+7
$SG182093 DB	'c:\program files (x86)\microsoft visual studio 10.0\vc\a'
	DB	'tlmfc\include\afxtempl.h', 00H
	ORG $+3
$SG182169 DB	'] = ', 00H
	ORG $+7
$SG182190 DB	'c:\program files (x86)\microsoft visual studio 10.0\vc\a'
	DB	'tlmfc\include\afxtempl.h', 00H
	ORG $+7
$SG182192 DB	'c:\program files (x86)\microsoft visual studio 10.0\vc\a'
	DB	'tlmfc\include\afxtempl.h', 00H
	ORG $+7
$SG182205 DB	'c:\program files (x86)\microsoft visual studio 10.0\vc\a'
	DB	'tlmfc\include\afxtempl.h', 00H
	ORG $+7
$SG182218 DB	'c:\program files (x86)\microsoft visual studio 10.0\vc\a'
	DB	'tlmfc\include\afxtempl.h', 00H
	ORG $+7
$SG182222 DB	'c:\program files (x86)\microsoft visual studio 10.0\vc\a'
	DB	'tlmfc\include\afxtempl.h', 00H
	ORG $+3
$SG182304 DB	'] = ', 00H
	ORG $+7
$SG182319 DB	'c:\program files (x86)\microsoft visual studio 10.0\vc\a'
	DB	'tlmfc\include\afxtempl.h', 00H
	ORG $+7
$SG182321 DB	'c:\program files (x86)\microsoft visual studio 10.0\vc\a'
	DB	'tlmfc\include\afxtempl.h', 00H
	ORG $+7
$SG182345 DB	'c:\program files (x86)\microsoft visual studio 10.0\vc\a'
	DB	'tlmfc\include\afxtempl.h', 00H
	ORG $+7
$SG182358 DB	'c:\program files (x86)\microsoft visual studio 10.0\vc\a'
	DB	'tlmfc\include\afxtempl.h', 00H
	ORG $+7
$SG182362 DB	'c:\program files (x86)\microsoft visual studio 10.0\vc\a'
	DB	'tlmfc\include\afxtempl.h', 00H
	ORG $+3
$SG182432 DB	'] = ', 00H
	ORG $+7
$SG182447 DB	'c:\program files (x86)\microsoft visual studio 10.0\vc\a'
	DB	'tlmfc\include\afxtempl.h', 00H
	ORG $+7
$SG182449 DB	'c:\program files (x86)\microsoft visual studio 10.0\vc\a'
	DB	'tlmfc\include\afxtempl.h', 00H
	ORG $+7
$SG182463 DB	'c:\program files (x86)\microsoft visual studio 10.0\vc\a'
	DB	'tlmfc\include\afxtempl.h', 00H
	ORG $+7
$SG182477 DB	'c:\program files (x86)\microsoft visual studio 10.0\vc\a'
	DB	'tlmfc\include\afxtempl.h', 00H
	ORG $+7
$SG182479 DB	'c:\program files (x86)\microsoft visual studio 10.0\vc\a'
	DB	'tlmfc\include\afxtempl.h', 00H
	ORG $+7
$SG182481 DB	'c:\program files (x86)\microsoft visual studio 10.0\vc\a'
	DB	'tlmfc\include\afxtempl.h', 00H
	ORG $+7
$SG182492 DB	'c:\program files (x86)\microsoft visual studio 10.0\vc\a'
	DB	'tlmfc\include\afxtempl.h', 00H
	ORG $+7
$SG182533 DB	'c:\program files (x86)\microsoft visual studio 10.0\vc\a'
	DB	'tlmfc\include\afxtempl.h', 00H
	ORG $+7
$SG182546 DB	'c:\program files (x86)\microsoft visual studio 10.0\vc\a'
	DB	'tlmfc\include\afxtempl.h', 00H
	ORG $+7
$SG182550 DB	'c:\program files (x86)\microsoft visual studio 10.0\vc\a'
	DB	'tlmfc\include\afxtempl.h', 00H
	ORG $+3
$SG182626 DB	'] = ', 00H
	ORG $+7
$SG182647 DB	'c:\program files (x86)\microsoft visual studio 10.0\vc\a'
	DB	'tlmfc\include\afxtempl.h', 00H
	ORG $+7
$SG182649 DB	'c:\program files (x86)\microsoft visual studio 10.0\vc\a'
	DB	'tlmfc\include\afxtempl.h', 00H
	ORG $+7
$SG182657 DB	'c:\program files (x86)\microsoft visual studio 10.0\vc\a'
	DB	'tlmfc\include\afxtempl.h', 00H
	ORG $+7
$SG182673 DB	'c:\program files (x86)\microsoft visual studio 10.0\vc\a'
	DB	'tlmfc\include\afxtempl.h', 00H
	ORG $+7
$SG182713 DB	'c:\program files (x86)\microsoft visual studio 10.0\vc\a'
	DB	'tlmfc\include\afxtempl.h', 00H
	ORG $+7
$SG182715 DB	'c:\program files (x86)\microsoft visual studio 10.0\vc\a'
	DB	'tlmfc\include\afxtempl.h', 00H
	ORG $+7
$SG182718 DB	'c:\program files (x86)\microsoft visual studio 10.0\vc\a'
	DB	'tlmfc\include\afxtempl.h', 00H
	ORG $+7
$SG182720 DB	'c:\program files (x86)\microsoft visual studio 10.0\vc\a'
	DB	'tlmfc\include\afxtempl.h', 00H
	ORG $+7
$SG182722 DB	'c:\program files (x86)\microsoft visual studio 10.0\vc\a'
	DB	'tlmfc\include\afxtempl.h', 00H
	ORG $+7
$SG182725 DB	'c:\program files (x86)\microsoft visual studio 10.0\vc\a'
	DB	'tlmfc\include\afxtempl.h', 00H
	ORG $+7
$SG182738 DB	'c:\program files (x86)\microsoft visual studio 10.0\vc\a'
	DB	'tlmfc\include\afxtempl.h', 00H
	ORG $+7
$SG182751 DB	'c:\program files (x86)\microsoft visual studio 10.0\vc\a'
	DB	'tlmfc\include\afxtempl.h', 00H
	ORG $+7
$SG182755 DB	'c:\program files (x86)\microsoft visual studio 10.0\vc\a'
	DB	'tlmfc\include\afxtempl.h', 00H
	ORG $+3
$SG182831 DB	'] = ', 00H
	ORG $+7
$SG182852 DB	'c:\program files (x86)\microsoft visual studio 10.0\vc\a'
	DB	'tlmfc\include\afxtempl.h', 00H
	ORG $+7
$SG182854 DB	'c:\program files (x86)\microsoft visual studio 10.0\vc\a'
	DB	'tlmfc\include\afxtempl.h', 00H
	ORG $+7
$SG182863 DB	'c:\program files (x86)\microsoft visual studio 10.0\vc\a'
	DB	'tlmfc\include\afxtempl.h', 00H
	ORG $+7
$SG182872 DB	'c:\program files (x86)\microsoft visual studio 10.0\vc\a'
	DB	'tlmfc\include\afxtempl.h', 00H
	ORG $+7
$SG182889 DB	'c:\program files (x86)\microsoft visual studio 10.0\vc\a'
	DB	'tlmfc\include\afxtempl.h', 00H
	ORG $+7
$SG182943 DB	'c:\program files (x86)\microsoft visual studio 10.0\vc\a'
	DB	'tlmfc\include\afxtempl.h', 00H
	ORG $+7
$SG182945 DB	'c:\program files (x86)\microsoft visual studio 10.0\vc\a'
	DB	'tlmfc\include\afxtempl.h', 00H
	ORG $+7
$SG182949 DB	'c:\program files (x86)\microsoft visual studio 10.0\vc\a'
	DB	'tlmfc\include\afxtempl.h', 00H
	ORG $+7
$SG182952 DB	'c:\program files (x86)\microsoft visual studio 10.0\vc\a'
	DB	'tlmfc\include\afxtempl.h', 00H
	ORG $+7
$SG183052 DB	'c:\program files (x86)\microsoft visual studio 10.0\vc\a'
	DB	'tlmfc\include\afxtempl.h', 00H
	ORG $+7
$SG183054 DB	'c:\program files (x86)\microsoft visual studio 10.0\vc\a'
	DB	'tlmfc\include\afxtempl.h', 00H
	ORG $+7
$SG183069 DB	'c:\program files (x86)\microsoft visual studio 10.0\vc\a'
	DB	'tlmfc\include\afxtempl.h', 00H
	ORG $+7
$SG183076 DB	'c:\program files (x86)\microsoft visual studio 10.0\vc\a'
	DB	'tlmfc\include\afxtempl.h', 00H
	ORG $+7
$SG183112 DB	'c:\program files (x86)\microsoft visual studio 10.0\vc\a'
	DB	'tlmfc\include\afxtempl.h', 00H
	ORG $+7
$SG183116 DB	'c:\program files (x86)\microsoft visual studio 10.0\vc\a'
	DB	'tlmfc\include\afxtempl.h', 00H
	ORG $+7
$SG183128 DB	'c:\program files (x86)\microsoft visual studio 10.0\vc\a'
	DB	'tlmfc\include\afxtempl.h', 00H
	ORG $+7
$SG183147 DB	'c:\program files (x86)\microsoft visual studio 10.0\vc\a'
	DB	'tlmfc\include\afxtempl.h', 00H
	ORG $+7
$SG183152 DB	'c:\program files (x86)\microsoft visual studio 10.0\vc\a'
	DB	'tlmfc\include\afxtempl.h', 00H
	ORG $+7
$SG183179 DB	'c:\program files (x86)\microsoft visual studio 10.0\vc\a'
	DB	'tlmfc\include\afxtempl.h', 00H
	ORG $+7
$SG183184 DB	'c:\program files (x86)\microsoft visual studio 10.0\vc\a'
	DB	'tlmfc\include\afxtempl.h', 00H
	ORG $+7
$SG183194 DB	'c:\program files (x86)\microsoft visual studio 10.0\vc\a'
	DB	'tlmfc\include\afxtempl.h', 00H
	ORG $+7
$SG183196 DB	'c:\program files (x86)\microsoft visual studio 10.0\vc\a'
	DB	'tlmfc\include\afxtempl.h', 00H
	ORG $+7
$SG183211 DB	'c:\program files (x86)\microsoft visual studio 10.0\vc\a'
	DB	'tlmfc\include\afxtempl.h', 00H
	ORG $+7
$SG183218 DB	'c:\program files (x86)\microsoft visual studio 10.0\vc\a'
	DB	'tlmfc\include\afxtempl.h', 00H
	ORG $+7
$SG183260 DB	'c:\program files (x86)\microsoft visual studio 10.0\vc\a'
	DB	'tlmfc\include\afxtempl.h', 00H
	ORG $+7
$SG183264 DB	'c:\program files (x86)\microsoft visual studio 10.0\vc\a'
	DB	'tlmfc\include\afxtempl.h', 00H
	ORG $+7
$SG183276 DB	'c:\program files (x86)\microsoft visual studio 10.0\vc\a'
	DB	'tlmfc\include\afxtempl.h', 00H
	ORG $+7
$SG183298 DB	'c:\program files (x86)\microsoft visual studio 10.0\vc\a'
	DB	'tlmfc\include\afxtempl.h', 00H
	ORG $+7
$SG183303 DB	'c:\program files (x86)\microsoft visual studio 10.0\vc\a'
	DB	'tlmfc\include\afxtempl.h', 00H
	ORG $+7
$SG183330 DB	'c:\program files (x86)\microsoft visual studio 10.0\vc\a'
	DB	'tlmfc\include\afxtempl.h', 00H
	ORG $+7
$SG183335 DB	'c:\program files (x86)\microsoft visual studio 10.0\vc\a'
	DB	'tlmfc\include\afxtempl.h', 00H
	ORG $+7
$SG183360 DB	'c:\program files (x86)\microsoft visual studio 10.0\vc\a'
	DB	'tlmfc\include\afxtempl.h', 00H
	ORG $+7
$SG183397 DB	'c:\program files (x86)\microsoft visual studio 10.0\vc\a'
	DB	'tlmfc\include\afxtempl.h', 00H
	ORG $+7
$SG183403 DB	'c:\program files (x86)\microsoft visual studio 10.0\vc\a'
	DB	'tlmfc\include\afxtempl.h', 00H
	ORG $+7
$SG183412 DB	'c:\program files (x86)\microsoft visual studio 10.0\vc\a'
	DB	'tlmfc\include\afxtempl.h', 00H
	ORG $+7
$SG183427 DB	'c:\program files (x86)\microsoft visual studio 10.0\vc\a'
	DB	'tlmfc\include\afxtempl.h', 00H
	ORG $+7
$SG183431 DB	'c:\program files (x86)\microsoft visual studio 10.0\vc\a'
	DB	'tlmfc\include\afxtempl.h', 00H
	ORG $+7
$SG183446 DB	'c:\program files (x86)\microsoft visual studio 10.0\vc\a'
	DB	'tlmfc\include\afxtempl.h', 00H
	ORG $+7
$SG183451 DB	'c:\program files (x86)\microsoft visual studio 10.0\vc\a'
	DB	'tlmfc\include\afxtempl.h', 00H
	ORG $+7
$SG183478 DB	'c:\program files (x86)\microsoft visual studio 10.0\vc\a'
	DB	'tlmfc\include\afxtempl.h', 00H
	ORG $+7
$SG183483 DB	'c:\program files (x86)\microsoft visual studio 10.0\vc\a'
	DB	'tlmfc\include\afxtempl.h', 00H
	ORG $+7
$SG183510 DB	'c:\program files (x86)\microsoft visual studio 10.0\vc\a'
	DB	'tlmfc\include\afxtempl.h', 00H
	ORG $+7
$SG183515 DB	'c:\program files (x86)\microsoft visual studio 10.0\vc\a'
	DB	'tlmfc\include\afxtempl.h', 00H
	ORG $+7
$SG183522 DB	'c:\program files (x86)\microsoft visual studio 10.0\vc\a'
	DB	'tlmfc\include\afxtempl.h', 00H
	ORG $+7
$SG183527 DB	'c:\program files (x86)\microsoft visual studio 10.0\vc\a'
	DB	'tlmfc\include\afxtempl.h', 00H
	ORG $+7
$SG183537 DB	'c:\program files (x86)\microsoft visual studio 10.0\vc\a'
	DB	'tlmfc\include\afxtempl.h', 00H
	ORG $+7
$SG183539 DB	'c:\program files (x86)\microsoft visual studio 10.0\vc\a'
	DB	'tlmfc\include\afxtempl.h', 00H
	ORG $+7
$SG183554 DB	'c:\program files (x86)\microsoft visual studio 10.0\vc\a'
	DB	'tlmfc\include\afxtempl.h', 00H
	ORG $+7
$SG183561 DB	'c:\program files (x86)\microsoft visual studio 10.0\vc\a'
	DB	'tlmfc\include\afxtempl.h', 00H
	ORG $+7
$SG183603 DB	'c:\program files (x86)\microsoft visual studio 10.0\vc\a'
	DB	'tlmfc\include\afxtempl.h', 00H
	ORG $+7
$SG183607 DB	'c:\program files (x86)\microsoft visual studio 10.0\vc\a'
	DB	'tlmfc\include\afxtempl.h', 00H
	ORG $+7
$SG183619 DB	'c:\program files (x86)\microsoft visual studio 10.0\vc\a'
	DB	'tlmfc\include\afxtempl.h', 00H
	ORG $+7
$SG183641 DB	'c:\program files (x86)\microsoft visual studio 10.0\vc\a'
	DB	'tlmfc\include\afxtempl.h', 00H
	ORG $+7
$SG183646 DB	'c:\program files (x86)\microsoft visual studio 10.0\vc\a'
	DB	'tlmfc\include\afxtempl.h', 00H
	ORG $+7
$SG183673 DB	'c:\program files (x86)\microsoft visual studio 10.0\vc\a'
	DB	'tlmfc\include\afxtempl.h', 00H
	ORG $+7
$SG183678 DB	'c:\program files (x86)\microsoft visual studio 10.0\vc\a'
	DB	'tlmfc\include\afxtempl.h', 00H
	ORG $+7
$SG183703 DB	'c:\program files (x86)\microsoft visual studio 10.0\vc\a'
	DB	'tlmfc\include\afxtempl.h', 00H
	ORG $+7
$SG183740 DB	'c:\program files (x86)\microsoft visual studio 10.0\vc\a'
	DB	'tlmfc\include\afxtempl.h', 00H
	ORG $+7
$SG183746 DB	'c:\program files (x86)\microsoft visual studio 10.0\vc\a'
	DB	'tlmfc\include\afxtempl.h', 00H
	ORG $+7
$SG183755 DB	'c:\program files (x86)\microsoft visual studio 10.0\vc\a'
	DB	'tlmfc\include\afxtempl.h', 00H
	ORG $+7
$SG183770 DB	'c:\program files (x86)\microsoft visual studio 10.0\vc\a'
	DB	'tlmfc\include\afxtempl.h', 00H
	ORG $+7
$SG183774 DB	'c:\program files (x86)\microsoft visual studio 10.0\vc\a'
	DB	'tlmfc\include\afxtempl.h', 00H
	ORG $+7
$SG183789 DB	'c:\program files (x86)\microsoft visual studio 10.0\vc\a'
	DB	'tlmfc\include\afxtempl.h', 00H
	ORG $+7
$SG183794 DB	'c:\program files (x86)\microsoft visual studio 10.0\vc\a'
	DB	'tlmfc\include\afxtempl.h', 00H
	ORG $+7
$SG183821 DB	'c:\program files (x86)\microsoft visual studio 10.0\vc\a'
	DB	'tlmfc\include\afxtempl.h', 00H
	ORG $+7
$SG183826 DB	'c:\program files (x86)\microsoft visual studio 10.0\vc\a'
	DB	'tlmfc\include\afxtempl.h', 00H
	ORG $+7
$SG183853 DB	'c:\program files (x86)\microsoft visual studio 10.0\vc\a'
	DB	'tlmfc\include\afxtempl.h', 00H
	ORG $+7
$SG183858 DB	'c:\program files (x86)\microsoft visual studio 10.0\vc\a'
	DB	'tlmfc\include\afxtempl.h', 00H
	ORG $+7
$SG183865 DB	'c:\program files (x86)\microsoft visual studio 10.0\vc\a'
	DB	'tlmfc\include\afxtempl.h', 00H
	ORG $+7
$SG183870 DB	'c:\program files (x86)\microsoft visual studio 10.0\vc\a'
	DB	'tlmfc\include\afxtempl.h', 00H
	ORG $+7
$SG183895 DB	'c:\program files (x86)\microsoft visual studio 10.0\vc\a'
	DB	'tlmfc\include\afxtempl.h', 00H
	ORG $+7
$SG183932 DB	'c:\program files (x86)\microsoft visual studio 10.0\vc\a'
	DB	'tlmfc\include\afxtempl.h', 00H
	ORG $+7
$SG183938 DB	'c:\program files (x86)\microsoft visual studio 10.0\vc\a'
	DB	'tlmfc\include\afxtempl.h', 00H
	ORG $+7
$SG183947 DB	'c:\program files (x86)\microsoft visual studio 10.0\vc\a'
	DB	'tlmfc\include\afxtempl.h', 00H
	ORG $+7
$SG183962 DB	'c:\program files (x86)\microsoft visual studio 10.0\vc\a'
	DB	'tlmfc\include\afxtempl.h', 00H
	ORG $+7
$SG183966 DB	'c:\program files (x86)\microsoft visual studio 10.0\vc\a'
	DB	'tlmfc\include\afxtempl.h', 00H
	ORG $+7
$SG183981 DB	'c:\program files (x86)\microsoft visual studio 10.0\vc\a'
	DB	'tlmfc\include\afxtempl.h', 00H
	ORG $+7
$SG183986 DB	'c:\program files (x86)\microsoft visual studio 10.0\vc\a'
	DB	'tlmfc\include\afxtempl.h', 00H
	ORG $+7
$SG184013 DB	'c:\program files (x86)\microsoft visual studio 10.0\vc\a'
	DB	'tlmfc\include\afxtempl.h', 00H
	ORG $+7
$SG184018 DB	'c:\program files (x86)\microsoft visual studio 10.0\vc\a'
	DB	'tlmfc\include\afxtempl.h', 00H
	ORG $+7
$SG184043 DB	'c:\program files (x86)\microsoft visual studio 10.0\vc\a'
	DB	'tlmfc\include\afxtempl.h', 00H
	ORG $+7
$SG184080 DB	'c:\program files (x86)\microsoft visual studio 10.0\vc\a'
	DB	'tlmfc\include\afxtempl.h', 00H
	ORG $+7
$SG184086 DB	'c:\program files (x86)\microsoft visual studio 10.0\vc\a'
	DB	'tlmfc\include\afxtempl.h', 00H
	ORG $+7
$SG184095 DB	'c:\program files (x86)\microsoft visual studio 10.0\vc\a'
	DB	'tlmfc\include\afxtempl.h', 00H
	ORG $+7
$SG184110 DB	'c:\program files (x86)\microsoft visual studio 10.0\vc\a'
	DB	'tlmfc\include\afxtempl.h', 00H
	ORG $+7
$SG184114 DB	'c:\program files (x86)\microsoft visual studio 10.0\vc\a'
	DB	'tlmfc\include\afxtempl.h', 00H
	ORG $+7
$SG184129 DB	'c:\program files (x86)\microsoft visual studio 10.0\vc\a'
	DB	'tlmfc\include\afxtempl.h', 00H
	ORG $+7
$SG184134 DB	'c:\program files (x86)\microsoft visual studio 10.0\vc\a'
	DB	'tlmfc\include\afxtempl.h', 00H
	ORG $+7
$SG184161 DB	'c:\program files (x86)\microsoft visual studio 10.0\vc\a'
	DB	'tlmfc\include\afxtempl.h', 00H
	ORG $+7
$SG184166 DB	'c:\program files (x86)\microsoft visual studio 10.0\vc\a'
	DB	'tlmfc\include\afxtempl.h', 00H
	ORG $+7
$SG184191 DB	'c:\program files (x86)\microsoft visual studio 10.0\vc\a'
	DB	'tlmfc\include\afxtempl.h', 00H
	ORG $+7
$SG184228 DB	'c:\program files (x86)\microsoft visual studio 10.0\vc\a'
	DB	'tlmfc\include\afxtempl.h', 00H
	ORG $+7
$SG184234 DB	'c:\program files (x86)\microsoft visual studio 10.0\vc\a'
	DB	'tlmfc\include\afxtempl.h', 00H
	ORG $+7
$SG184243 DB	'c:\program files (x86)\microsoft visual studio 10.0\vc\a'
	DB	'tlmfc\include\afxtempl.h', 00H
	ORG $+7
$SG184258 DB	'c:\program files (x86)\microsoft visual studio 10.0\vc\a'
	DB	'tlmfc\include\afxtempl.h', 00H
	ORG $+7
$SG184262 DB	'c:\program files (x86)\microsoft visual studio 10.0\vc\a'
	DB	'tlmfc\include\afxtempl.h', 00H
	ORG $+7
$SG184277 DB	'c:\program files (x86)\microsoft visual studio 10.0\vc\a'
	DB	'tlmfc\include\afxtempl.h', 00H
	ORG $+7
$SG184282 DB	'c:\program files (x86)\microsoft visual studio 10.0\vc\a'
	DB	'tlmfc\include\afxtempl.h', 00H
	ORG $+7
$SG184309 DB	'c:\program files (x86)\microsoft visual studio 10.0\vc\a'
	DB	'tlmfc\include\afxtempl.h', 00H
	ORG $+7
$SG184314 DB	'c:\program files (x86)\microsoft visual studio 10.0\vc\a'
	DB	'tlmfc\include\afxtempl.h', 00H
	ORG $+7
$SG184339 DB	'c:\program files (x86)\microsoft visual studio 10.0\vc\a'
	DB	'tlmfc\include\afxtempl.h', 00H
	ORG $+7
$SG184376 DB	'c:\program files (x86)\microsoft visual studio 10.0\vc\a'
	DB	'tlmfc\include\afxtempl.h', 00H
	ORG $+7
$SG184382 DB	'c:\program files (x86)\microsoft visual studio 10.0\vc\a'
	DB	'tlmfc\include\afxtempl.h', 00H
	ORG $+7
$SG184391 DB	'c:\program files (x86)\microsoft visual studio 10.0\vc\a'
	DB	'tlmfc\include\afxtempl.h', 00H
	ORG $+7
$SG184406 DB	'c:\program files (x86)\microsoft visual studio 10.0\vc\a'
	DB	'tlmfc\include\afxtempl.h', 00H
	ORG $+7
$SG184410 DB	'c:\program files (x86)\microsoft visual studio 10.0\vc\a'
	DB	'tlmfc\include\afxtempl.h', 00H
	ORG $+7
$SG184443 DB	'c:\program files (x86)\microsoft visual studio 10.0\vc\a'
	DB	'tlmfc\include\afxtempl.h', 00H
	ORG $+7
$SG184480 DB	'c:\program files (x86)\microsoft visual studio 10.0\vc\a'
	DB	'tlmfc\include\afxtempl.h', 00H
	ORG $+7
$SG184486 DB	'c:\program files (x86)\microsoft visual studio 10.0\vc\a'
	DB	'tlmfc\include\afxtempl.h', 00H
	ORG $+7
$SG184495 DB	'c:\program files (x86)\microsoft visual studio 10.0\vc\a'
	DB	'tlmfc\include\afxtempl.h', 00H
	ORG $+7
$SG184510 DB	'c:\program files (x86)\microsoft visual studio 10.0\vc\a'
	DB	'tlmfc\include\afxtempl.h', 00H
	ORG $+7
$SG184514 DB	'c:\program files (x86)\microsoft visual studio 10.0\vc\a'
	DB	'tlmfc\include\afxtempl.h', 00H
	ORG $+7
$SG184529 DB	'c:\program files (x86)\microsoft visual studio 10.0\vc\a'
	DB	'tlmfc\include\afxtempl.h', 00H
	ORG $+7
$SG184534 DB	'c:\program files (x86)\microsoft visual studio 10.0\vc\a'
	DB	'tlmfc\include\afxtempl.h', 00H
	ORG $+7
$SG184561 DB	'c:\program files (x86)\microsoft visual studio 10.0\vc\a'
	DB	'tlmfc\include\afxtempl.h', 00H
	ORG $+7
$SG184566 DB	'c:\program files (x86)\microsoft visual studio 10.0\vc\a'
	DB	'tlmfc\include\afxtempl.h', 00H
	ORG $+7
$SG184573 DB	'c:\program files (x86)\microsoft visual studio 10.0\vc\a'
	DB	'tlmfc\include\afxtempl.h', 00H
	ORG $+7
$SG184578 DB	'c:\program files (x86)\microsoft visual studio 10.0\vc\a'
	DB	'tlmfc\include\afxtempl.h', 00H
	ORG $+7
$SG184588 DB	'c:\program files (x86)\microsoft visual studio 10.0\vc\a'
	DB	'tlmfc\include\afxtempl.h', 00H
	ORG $+7
$SG184590 DB	'c:\program files (x86)\microsoft visual studio 10.0\vc\a'
	DB	'tlmfc\include\afxtempl.h', 00H
	ORG $+7
$SG184605 DB	'c:\program files (x86)\microsoft visual studio 10.0\vc\a'
	DB	'tlmfc\include\afxtempl.h', 00H
	ORG $+7
$SG184612 DB	'c:\program files (x86)\microsoft visual studio 10.0\vc\a'
	DB	'tlmfc\include\afxtempl.h', 00H
	ORG $+7
$SG184648 DB	'c:\program files (x86)\microsoft visual studio 10.0\vc\a'
	DB	'tlmfc\include\afxtempl.h', 00H
	ORG $+7
$SG184652 DB	'c:\program files (x86)\microsoft visual studio 10.0\vc\a'
	DB	'tlmfc\include\afxtempl.h', 00H
	ORG $+7
$SG184664 DB	'c:\program files (x86)\microsoft visual studio 10.0\vc\a'
	DB	'tlmfc\include\afxtempl.h', 00H
	ORG $+7
$SG184683 DB	'c:\program files (x86)\microsoft visual studio 10.0\vc\a'
	DB	'tlmfc\include\afxtempl.h', 00H
	ORG $+7
$SG184688 DB	'c:\program files (x86)\microsoft visual studio 10.0\vc\a'
	DB	'tlmfc\include\afxtempl.h', 00H
	ORG $+7
$SG184715 DB	'c:\program files (x86)\microsoft visual studio 10.0\vc\a'
	DB	'tlmfc\include\afxtempl.h', 00H
	ORG $+7
$SG184720 DB	'c:\program files (x86)\microsoft visual studio 10.0\vc\a'
	DB	'tlmfc\include\afxtempl.h', 00H
	ORG $+7
$SG184745 DB	'c:\program files (x86)\microsoft visual studio 10.0\vc\a'
	DB	'tlmfc\include\afxtempl.h', 00H
	ORG $+7
$SG184782 DB	'c:\program files (x86)\microsoft visual studio 10.0\vc\a'
	DB	'tlmfc\include\afxtempl.h', 00H
	ORG $+7
$SG184788 DB	'c:\program files (x86)\microsoft visual studio 10.0\vc\a'
	DB	'tlmfc\include\afxtempl.h', 00H
	ORG $+7
$SG184797 DB	'c:\program files (x86)\microsoft visual studio 10.0\vc\a'
	DB	'tlmfc\include\afxtempl.h', 00H
	ORG $+7
$SG184812 DB	'c:\program files (x86)\microsoft visual studio 10.0\vc\a'
	DB	'tlmfc\include\afxtempl.h', 00H
	ORG $+7
$SG184816 DB	'c:\program files (x86)\microsoft visual studio 10.0\vc\a'
	DB	'tlmfc\include\afxtempl.h', 00H
	ORG $+7
$SG184831 DB	'c:\program files (x86)\microsoft visual studio 10.0\vc\a'
	DB	'tlmfc\include\afxtempl.h', 00H
	ORG $+7
$SG184836 DB	'c:\program files (x86)\microsoft visual studio 10.0\vc\a'
	DB	'tlmfc\include\afxtempl.h', 00H
	ORG $+7
$SG184863 DB	'c:\program files (x86)\microsoft visual studio 10.0\vc\a'
	DB	'tlmfc\include\afxtempl.h', 00H
	ORG $+7
$SG184868 DB	'c:\program files (x86)\microsoft visual studio 10.0\vc\a'
	DB	'tlmfc\include\afxtempl.h', 00H
	ORG $+7
$SG184877 DB	'c:\program files (x86)\microsoft visual studio 10.0\vc\a'
	DB	'tlmfc\include\afxtempl.h', 00H
	ORG $+7
$SG184889 DB	'c:\program files (x86)\microsoft visual studio 10.0\vc\a'
	DB	'tlmfc\include\afxtempl.h', 00H
	ORG $+7
$SG184921 DB	'c:\program files (x86)\microsoft visual studio 10.0\vc\a'
	DB	'tlmfc\include\afxtempl.h', 00H
	ORG $+7
$SG184926 DB	'c:\program files (x86)\microsoft visual studio 10.0\vc\a'
	DB	'tlmfc\include\afxtempl.h', 00H
	ORG $+7
$SG184953 DB	'c:\program files (x86)\microsoft visual studio 10.0\vc\a'
	DB	'tlmfc\include\afxtempl.h', 00H
	ORG $+7
$SG184958 DB	'c:\program files (x86)\microsoft visual studio 10.0\vc\a'
	DB	'tlmfc\include\afxtempl.h', 00H
	ORG $+7
$SG184984 DB	'c:\program files (x86)\microsoft visual studio 10.0\vc\a'
	DB	'tlmfc\include\afxtempl.h', 00H
	ORG $+7
$SG184995 DB	'c:\program files (x86)\microsoft visual studio 10.0\vc\a'
	DB	'tlmfc\include\afxtempl.h', 00H
	ORG $+7
$SG185009 DB	'c:\program files (x86)\microsoft visual studio 10.0\vc\a'
	DB	'tlmfc\include\afxtempl.h', 00H
	ORG $+7
$SG185020 DB	'c:\program files (x86)\microsoft visual studio 10.0\vc\a'
	DB	'tlmfc\include\afxtempl.h', 00H
	ORG $+7
$SG185034 DB	'c:\program files (x86)\microsoft visual studio 10.0\vc\a'
	DB	'tlmfc\include\afxtempl.h', 00H
	ORG $+7
$SG185045 DB	'c:\program files (x86)\microsoft visual studio 10.0\vc\a'
	DB	'tlmfc\include\afxtempl.h', 00H
	ORG $+7
$SG185059 DB	'c:\program files (x86)\microsoft visual studio 10.0\vc\a'
	DB	'tlmfc\include\afxtempl.h', 00H
	ORG $+7
$SG185070 DB	'c:\program files (x86)\microsoft visual studio 10.0\vc\a'
	DB	'tlmfc\include\afxtempl.h', 00H
	ORG $+7
$SG185084 DB	'c:\program files (x86)\microsoft visual studio 10.0\vc\a'
	DB	'tlmfc\include\afxtempl.h', 00H
	ORG $+7
$SG185095 DB	'c:\program files (x86)\microsoft visual studio 10.0\vc\a'
	DB	'tlmfc\include\afxtempl.h', 00H
	ORG $+7
$SG185109 DB	'c:\program files (x86)\microsoft visual studio 10.0\vc\a'
	DB	'tlmfc\include\afxtempl.h', 00H
	ORG $+7
$SG185120 DB	'c:\program files (x86)\microsoft visual studio 10.0\vc\a'
	DB	'tlmfc\include\afxtempl.h', 00H
	ORG $+7
$SG185134 DB	'c:\program files (x86)\microsoft visual studio 10.0\vc\a'
	DB	'tlmfc\include\afxtempl.h', 00H
	ORG $+7
$SG185145 DB	'c:\program files (x86)\microsoft visual studio 10.0\vc\a'
	DB	'tlmfc\include\afxtempl.h', 00H
	ORG $+7
$SG185159 DB	'c:\program files (x86)\microsoft visual studio 10.0\vc\a'
	DB	'tlmfc\include\afxtempl.h', 00H
	ORG $+7
$SG185170 DB	'c:\program files (x86)\microsoft visual studio 10.0\vc\a'
	DB	'tlmfc\include\afxtempl.h', 00H
	ORG $+7
$SG185197 DB	'c:\program files (x86)\microsoft visual studio 10.0\vc\a'
	DB	'tlmfc\include\afxtempl.h', 00H
	ORG $+7
$SG185201 DB	'c:\program files (x86)\microsoft visual studio 10.0\vc\a'
	DB	'tlmfc\include\afxtempl.h', 00H
	ORG $+7
$SG185218 DB	'c:\program files (x86)\microsoft visual studio 10.0\vc\a'
	DB	'tlmfc\include\afxtempl.h', 00H
	ORG $+7
$SG185220 DB	'c:\program files (x86)\microsoft visual studio 10.0\vc\a'
	DB	'tlmfc\include\afxtempl.h', 00H
	ORG $+7
$SG185222 DB	'c:\program files (x86)\microsoft visual studio 10.0\vc\a'
	DB	'tlmfc\include\afxtempl.h', 00H
	ORG $+7
$SG185233 DB	'c:\program files (x86)\microsoft visual studio 10.0\vc\a'
	DB	'tlmfc\include\afxtempl.h', 00H
	ORG $+7
$SG185266 DB	'c:\program files (x86)\microsoft visual studio 10.0\vc\a'
	DB	'tlmfc\include\afxtempl.h', 00H
	ORG $+7
$SG185272 DB	'c:\program files (x86)\microsoft visual studio 10.0\vc\a'
	DB	'tlmfc\include\afxtempl.h', 00H
	ORG $+7
$SG185326 DB	'c:\program files (x86)\microsoft visual studio 10.0\vc\a'
	DB	'tlmfc\include\afxtempl.h', 00H
	ORG $+7
$SG185328 DB	'c:\program files (x86)\microsoft visual studio 10.0\vc\a'
	DB	'tlmfc\include\afxtempl.h', 00H
	ORG $+7
$SG185330 DB	'c:\program files (x86)\microsoft visual studio 10.0\vc\a'
	DB	'tlmfc\include\afxtempl.h', 00H
	ORG $+7
$SG185341 DB	'c:\program files (x86)\microsoft visual studio 10.0\vc\a'
	DB	'tlmfc\include\afxtempl.h', 00H
	ORG $+7
$SG185374 DB	'c:\program files (x86)\microsoft visual studio 10.0\vc\a'
	DB	'tlmfc\include\afxtempl.h', 00H
	ORG $+7
$SG185380 DB	'c:\program files (x86)\microsoft visual studio 10.0\vc\a'
	DB	'tlmfc\include\afxtempl.h', 00H
	ORG $+7
$SG185434 DB	'c:\program files (x86)\microsoft visual studio 10.0\vc\a'
	DB	'tlmfc\include\afxtempl.h', 00H
	ORG $+7
$SG185436 DB	'c:\program files (x86)\microsoft visual studio 10.0\vc\a'
	DB	'tlmfc\include\afxtempl.h', 00H
	ORG $+7
$SG185438 DB	'c:\program files (x86)\microsoft visual studio 10.0\vc\a'
	DB	'tlmfc\include\afxtempl.h', 00H
	ORG $+7
$SG185449 DB	'c:\program files (x86)\microsoft visual studio 10.0\vc\a'
	DB	'tlmfc\include\afxtempl.h', 00H
	ORG $+7
$SG185482 DB	'c:\program files (x86)\microsoft visual studio 10.0\vc\a'
	DB	'tlmfc\include\afxtempl.h', 00H
	ORG $+7
$SG185488 DB	'c:\program files (x86)\microsoft visual studio 10.0\vc\a'
	DB	'tlmfc\include\afxtempl.h', 00H
	ORG $+7
$SG185532 DB	'c:\program files (x86)\microsoft visual studio 10.0\vc\a'
	DB	'tlmfc\include\afxtempl.h', 00H
	ORG $+7
$SG185534 DB	'c:\program files (x86)\microsoft visual studio 10.0\vc\a'
	DB	'tlmfc\include\afxtempl.h', 00H
	ORG $+7
$SG185536 DB	'c:\program files (x86)\microsoft visual studio 10.0\vc\a'
	DB	'tlmfc\include\afxtempl.h', 00H
	ORG $+7
$SG185547 DB	'c:\program files (x86)\microsoft visual studio 10.0\vc\a'
	DB	'tlmfc\include\afxtempl.h', 00H
	ORG $+7
$SG185580 DB	'c:\program files (x86)\microsoft visual studio 10.0\vc\a'
	DB	'tlmfc\include\afxtempl.h', 00H
	ORG $+7
$SG185586 DB	'c:\program files (x86)\microsoft visual studio 10.0\vc\a'
	DB	'tlmfc\include\afxtempl.h', 00H
	ORG $+7
$SG185640 DB	'c:\program files (x86)\microsoft visual studio 10.0\vc\a'
	DB	'tlmfc\include\afxtempl.h', 00H
	ORG $+7
$SG185642 DB	'c:\program files (x86)\microsoft visual studio 10.0\vc\a'
	DB	'tlmfc\include\afxtempl.h', 00H
	ORG $+7
$SG185644 DB	'c:\program files (x86)\microsoft visual studio 10.0\vc\a'
	DB	'tlmfc\include\afxtempl.h', 00H
	ORG $+7
$SG185655 DB	'c:\program files (x86)\microsoft visual studio 10.0\vc\a'
	DB	'tlmfc\include\afxtempl.h', 00H
	ORG $+7
$SG185688 DB	'c:\program files (x86)\microsoft visual studio 10.0\vc\a'
	DB	'tlmfc\include\afxtempl.h', 00H
	ORG $+7
$SG185694 DB	'c:\program files (x86)\microsoft visual studio 10.0\vc\a'
	DB	'tlmfc\include\afxtempl.h', 00H
	ORG $+7
$SG185744 DB	'c:\program files (x86)\microsoft visual studio 10.0\vc\a'
	DB	'tlmfc\include\afxtempl.h', 00H
	ORG $+7
$SG185746 DB	'c:\program files (x86)\microsoft visual studio 10.0\vc\a'
	DB	'tlmfc\include\afxtempl.h', 00H
	ORG $+7
$SG185748 DB	'c:\program files (x86)\microsoft visual studio 10.0\vc\a'
	DB	'tlmfc\include\afxtempl.h', 00H
	ORG $+7
$SG185759 DB	'c:\program files (x86)\microsoft visual studio 10.0\vc\a'
	DB	'tlmfc\include\afxtempl.h', 00H
	ORG $+7
$SG185792 DB	'c:\program files (x86)\microsoft visual studio 10.0\vc\a'
	DB	'tlmfc\include\afxtempl.h', 00H
	ORG $+7
$SG185798 DB	'c:\program files (x86)\microsoft visual studio 10.0\vc\a'
	DB	'tlmfc\include\afxtempl.h', 00H
	ORG $+7
$SG185859 DB	'c:\program files (x86)\microsoft visual studio 10.0\vc\a'
	DB	'tlmfc\include\afxtempl.h', 00H
	ORG $+7
$SG185865 DB	'c:\program files (x86)\microsoft visual studio 10.0\vc\a'
	DB	'tlmfc\include\afxtempl.h', 00H
	ORG $+7
$SG185915 DB	'c:\program files (x86)\microsoft visual studio 10.0\vc\a'
	DB	'tlmfc\include\afxtempl.h', 00H
	ORG $+7
$SG185917 DB	'c:\program files (x86)\microsoft visual studio 10.0\vc\a'
	DB	'tlmfc\include\afxtempl.h', 00H
	ORG $+7
$SG185919 DB	'c:\program files (x86)\microsoft visual studio 10.0\vc\a'
	DB	'tlmfc\include\afxtempl.h', 00H
	ORG $+7
$SG185930 DB	'c:\program files (x86)\microsoft visual studio 10.0\vc\a'
	DB	'tlmfc\include\afxtempl.h', 00H
	ORG $+7
$SG185963 DB	'c:\program files (x86)\microsoft visual studio 10.0\vc\a'
	DB	'tlmfc\include\afxtempl.h', 00H
	ORG $+7
$SG185969 DB	'c:\program files (x86)\microsoft visual studio 10.0\vc\a'
	DB	'tlmfc\include\afxtempl.h', 00H
	ORG $+7
$SG186045 DB	'c:\program files (x86)\microsoft visual studio 10.0\vc\a'
	DB	'tlmfc\include\afxtempl.h', 00H
	ORG $+7
$SG186049 DB	'c:\program files (x86)\microsoft visual studio 10.0\vc\a'
	DB	'tlmfc\include\afxtempl.h', 00H
	ORG $+7
$SG186052 DB	'c:\program files (x86)\microsoft visual studio 10.0\vc\a'
	DB	'tlmfc\include\afxtempl.h', 00H
	ORG $+7
$SG186066 DB	'c:\program files (x86)\microsoft visual studio 10.0\vc\a'
	DB	'tlmfc\include\afxtempl.h', 00H
	ORG $+7
$SG186070 DB	'c:\program files (x86)\microsoft visual studio 10.0\vc\a'
	DB	'tlmfc\include\afxtempl.h', 00H
	ORG $+7
$SG186073 DB	'c:\program files (x86)\microsoft visual studio 10.0\vc\a'
	DB	'tlmfc\include\afxtempl.h', 00H
	ORG $+7
$SG186087 DB	'c:\program files (x86)\microsoft visual studio 10.0\vc\a'
	DB	'tlmfc\include\afxtempl.h', 00H
	ORG $+7
$SG186091 DB	'c:\program files (x86)\microsoft visual studio 10.0\vc\a'
	DB	'tlmfc\include\afxtempl.h', 00H
	ORG $+7
$SG186094 DB	'c:\program files (x86)\microsoft visual studio 10.0\vc\a'
	DB	'tlmfc\include\afxtempl.h', 00H
	ORG $+7
$SG186101 DB	'c:\program files (x86)\microsoft visual studio 10.0\vc\a'
	DB	'tlmfc\include\afxtempl.h', 00H
	ORG $+7
$SG186105 DB	'c:\program files (x86)\microsoft visual studio 10.0\vc\a'
	DB	'tlmfc\include\afxtempl.h', 00H
	ORG $+7
$SG186108 DB	'c:\program files (x86)\microsoft visual studio 10.0\vc\a'
	DB	'tlmfc\include\afxtempl.h', 00H
	ORG $+7
$SG186115 DB	'c:\program files (x86)\microsoft visual studio 10.0\vc\a'
	DB	'tlmfc\include\afxtempl.h', 00H
	ORG $+7
$SG186119 DB	'c:\program files (x86)\microsoft visual studio 10.0\vc\a'
	DB	'tlmfc\include\afxtempl.h', 00H
	ORG $+7
$SG186122 DB	'c:\program files (x86)\microsoft visual studio 10.0\vc\a'
	DB	'tlmfc\include\afxtempl.h', 00H
CONST	ENDS
PUBLIC	??1CRTFPreferencesDlg@@UAE@XZ			; CRTFPreferencesDlg::~CRTFPreferencesDlg
PUBLIC	??0CharFormat@@QAE@K@Z				; CharFormat::CharFormat
PUBLIC	??_7CRTFContentControl@@6BIContentControl@@@	; CRTFContentControl::`vftable'
PUBLIC	??_7CRTFContentControl@@6BCRulerRichEditCtrl@@@	; CRTFContentControl::`vftable'
PUBLIC	??0IContentControl@@QAE@XZ			; IContentControl::IContentControl
PUBLIC	??0CRTFContentControl@@QAE@AAVCRtfHtmlConverter@@@Z ; CRTFContentControl::CRTFContentControl
PUBLIC	??_R4CRTFContentControl@@6BCRulerRichEditCtrl@@@ ; CRTFContentControl::`RTTI Complete Object Locator'
PUBLIC	??_R0?AVCRTFContentControl@@@8			; CRTFContentControl `RTTI Type Descriptor'
PUBLIC	??_R3CRTFContentControl@@8			; CRTFContentControl::`RTTI Class Hierarchy Descriptor'
PUBLIC	??_R2CRTFContentControl@@8			; CRTFContentControl::`RTTI Base Class Array'
PUBLIC	??_R1A@?0A@EA@CRTFContentControl@@8		; CRTFContentControl::`RTTI Base Class Descriptor at (0,-1,0,64)'
PUBLIC	??_R1A@?0A@EA@CRulerRichEditCtrl@@8		; CRulerRichEditCtrl::`RTTI Base Class Descriptor at (0,-1,0,64)'
PUBLIC	??_R0?AVCRulerRichEditCtrl@@@8			; CRulerRichEditCtrl `RTTI Type Descriptor'
PUBLIC	??_R3CRulerRichEditCtrl@@8			; CRulerRichEditCtrl::`RTTI Class Hierarchy Descriptor'
PUBLIC	??_R2CRulerRichEditCtrl@@8			; CRulerRichEditCtrl::`RTTI Base Class Array'
PUBLIC	??_R1A@?0A@EA@CWnd@@8				; CWnd::`RTTI Base Class Descriptor at (0,-1,0,64)'
PUBLIC	??_R0?AVCWnd@@@8				; CWnd `RTTI Type Descriptor'
PUBLIC	??_R3CWnd@@8					; CWnd::`RTTI Class Hierarchy Descriptor'
PUBLIC	??_R2CWnd@@8					; CWnd::`RTTI Base Class Array'
PUBLIC	??_R1A@?0A@EA@CCmdTarget@@8			; CCmdTarget::`RTTI Base Class Descriptor at (0,-1,0,64)'
PUBLIC	??_R0?AVCCmdTarget@@@8				; CCmdTarget `RTTI Type Descriptor'
PUBLIC	??_R3CCmdTarget@@8				; CCmdTarget::`RTTI Class Hierarchy Descriptor'
PUBLIC	??_R2CCmdTarget@@8				; CCmdTarget::`RTTI Base Class Array'
PUBLIC	??_R1A@?0A@EA@CObject@@8			; CObject::`RTTI Base Class Descriptor at (0,-1,0,64)'
PUBLIC	??_R0?AVCObject@@@8				; CObject `RTTI Type Descriptor'
PUBLIC	??_R3CObject@@8					; CObject::`RTTI Class Hierarchy Descriptor'
PUBLIC	??_R2CObject@@8					; CObject::`RTTI Base Class Array'
PUBLIC	??_R1FAE@?0A@EA@IContentControl@@8		; IContentControl::`RTTI Base Class Descriptor at (1284,-1,0,64)'
PUBLIC	??_R0?AVIContentControl@@@8			; IContentControl `RTTI Type Descriptor'
PUBLIC	??_R3IContentControl@@8				; IContentControl::`RTTI Class Hierarchy Descriptor'
PUBLIC	??_R2IContentControl@@8				; IContentControl::`RTTI Base Class Array'
PUBLIC	??_R1A@?0A@EA@IContentControl@@8		; IContentControl::`RTTI Base Class Descriptor at (0,-1,0,64)'
PUBLIC	?GetMessageMap@CRTFContentControl@@MBEPBUAFX_MSGMAP@@XZ ; CRTFContentControl::GetMessageMap
PUBLIC	??_R4CRTFContentControl@@6BIContentControl@@@	; CRTFContentControl::`RTTI Complete Object Locator'
PUBLIC	?GetContent@CRTFContentControl@@UBEHPAE@Z	; CRTFContentControl::GetContent
PUBLIC	?SetContent@CRTFContentControl@@UAE_NPBEH_N@Z	; CRTFContentControl::SetContent
PUBLIC	?GetTypeID@CRTFContentControl@@UBEPB_WXZ	; CRTFContentControl::GetTypeID
PUBLIC	?GetTextContent@CRTFContentControl@@UBEHPA_WH@Z	; CRTFContentControl::GetTextContent
PUBLIC	?SetTextContent@CRTFContentControl@@UAE_NPB_W_N@Z ; CRTFContentControl::SetTextContent
PUBLIC	?SetReadOnly@CRTFContentControl@@UAEX_N@Z	; CRTFContentControl::SetReadOnly
PUBLIC	?GetHwnd@CRTFContentControl@@UBEPAUHWND__@@XZ	; CRTFContentControl::GetHwnd
PUBLIC	?Release@CRTFContentControl@@UAEXXZ		; CRTFContentControl::Release
PUBLIC	?ProcessMessage@CRTFContentControl@@UAE_NPAUtagMSG@@@Z ; CRTFContentControl::ProcessMessage
PUBLIC	?GetSpellCheckInterface@CRTFContentControl@@UAEPAVISpellCheck@@XZ ; CRTFContentControl::GetSpellCheckInterface
PUBLIC	?Undo@CRTFContentControl@@UAE_NXZ		; CRTFContentControl::Undo
PUBLIC	?Redo@CRTFContentControl@@UAE_NXZ		; CRTFContentControl::Redo
PUBLIC	?SetUITheme@CRTFContentControl@@UAEXPBUUITHEME@@@Z ; CRTFContentControl::SetUITheme
PUBLIC	?SavePreferences@CRTFContentControl@@UBEXPAVIPreferences@@PB_W@Z ; CRTFContentControl::SavePreferences
PUBLIC	?LoadPreferences@CRTFContentControl@@UAEXPBVIPreferences@@PB_W@Z ; CRTFContentControl::LoadPreferences
EXTRN	??1CShortcutManager@@UAE@XZ:PROC		; CShortcutManager::~CShortcutManager
EXTRN	??1CMenuIconMgr@@UAE@XZ:PROC			; CMenuIconMgr::~CMenuIconMgr
EXTRN	??1CRichEditSpellCheck@@UAE@XZ:PROC		; CRichEditSpellCheck::~CRichEditSpellCheck
EXTRN	??1CToolbarHelper@@UAE@XZ:PROC			; CToolbarHelper::~CToolbarHelper
EXTRN	??1CRulerRichEditCtrl@@UAE@XZ:PROC		; CRulerRichEditCtrl::~CRulerRichEditCtrl
EXTRN	?AddProtocol@CUrlRichEditCtrl@@QAEHPB_WH@Z:PROC	; CUrlRichEditCtrl::AddProtocol
EXTRN	_memset:PROC
EXTRN	??0CRTFPreferencesDlg@@QAE@PAVCWnd@@@Z:PROC	; CRTFPreferencesDlg::CRTFPreferencesDlg
EXTRN	??0CShortcutManager@@QAE@H@Z:PROC		; CShortcutManager::CShortcutManager
EXTRN	??0CMenuIconMgr@@QAE@XZ:PROC			; CMenuIconMgr::CMenuIconMgr
EXTRN	??0CRichEditSpellCheck@@QAE@AAVCRichEditBaseCtrl@@@Z:PROC ; CRichEditSpellCheck::CRichEditSpellCheck
EXTRN	??0CToolbarHelper@@QAE@XZ:PROC			; CToolbarHelper::CToolbarHelper
EXTRN	??0CRulerRichEditCtrl@@QAE@XZ:PROC		; CRulerRichEditCtrl::CRulerRichEditCtrl
EXTRN	___security_cookie:DWORD
EXTRN	___CxxFrameHandler3:PROC
EXTRN	@__security_check_cookie@4:PROC
EXTRN	__RTC_CheckEsp:PROC
EXTRN	__RTC_Shutdown:PROC
EXTRN	__RTC_InitBase:PROC
EXTRN	??_7type_info@@6B@:QWORD			; type_info::`vftable'
EXTRN	?GetRuntimeClass@CWnd@@UBEPAUCRuntimeClass@@XZ:PROC ; CWnd::GetRuntimeClass
EXTRN	??_ECRTFContentControl@@UAEPAXI@Z:PROC		; CRTFContentControl::`vector deleting destructor'
EXTRN	?Serialize@CObject@@UAEXAAVCArchive@@@Z:PROC	; CObject::Serialize
EXTRN	?AssertValid@CWnd@@UBEXXZ:PROC			; CWnd::AssertValid
EXTRN	?Dump@CWnd@@UBEXAAVCDumpContext@@@Z:PROC	; CWnd::Dump
EXTRN	?OnCmdMsg@CCmdTarget@@UAEHIHPAXPAUAFX_CMDHANDLERINFO@@@Z:PROC ; CCmdTarget::OnCmdMsg
EXTRN	?OnFinalRelease@CWnd@@UAEXXZ:PROC		; CWnd::OnFinalRelease
EXTRN	?IsInvokeAllowed@CCmdTarget@@UAEHJ@Z:PROC	; CCmdTarget::IsInvokeAllowed
EXTRN	?GetDispatchIID@CCmdTarget@@UAEHPAU_GUID@@@Z:PROC ; CCmdTarget::GetDispatchIID
EXTRN	?GetTypeInfoCount@CCmdTarget@@UAEIXZ:PROC	; CCmdTarget::GetTypeInfoCount
EXTRN	?GetTypeLibCache@CCmdTarget@@UAEPAVCTypeLibCache@@XZ:PROC ; CCmdTarget::GetTypeLibCache
EXTRN	?GetTypeLib@CCmdTarget@@UAEJKPAPAUITypeLib@@@Z:PROC ; CCmdTarget::GetTypeLib
EXTRN	?GetCommandMap@CCmdTarget@@MBEPBUAFX_OLECMDMAP@@XZ:PROC ; CCmdTarget::GetCommandMap
EXTRN	?GetDispatchMap@CCmdTarget@@MBEPBUAFX_DISPMAP@@XZ:PROC ; CCmdTarget::GetDispatchMap
EXTRN	?GetConnectionMap@CCmdTarget@@MBEPBUAFX_CONNECTIONMAP@@XZ:PROC ; CCmdTarget::GetConnectionMap
EXTRN	?GetInterfaceMap@CWnd@@MBEPBUAFX_INTERFACEMAP@@XZ:PROC ; CWnd::GetInterfaceMap
EXTRN	?GetEventSinkMap@CCmdTarget@@MBEPBUAFX_EVENTSINKMAP@@XZ:PROC ; CCmdTarget::GetEventSinkMap
EXTRN	?OnCreateAggregates@CCmdTarget@@UAEHXZ:PROC	; CCmdTarget::OnCreateAggregates
EXTRN	?GetInterfaceHook@CCmdTarget@@UAEPAUIUnknown@@PBX@Z:PROC ; CCmdTarget::GetInterfaceHook
EXTRN	?GetExtraConnectionPoints@CCmdTarget@@MAEHPAVCPtrArray@@@Z:PROC ; CCmdTarget::GetExtraConnectionPoints
EXTRN	?GetConnectionHook@CCmdTarget@@MAEPAUIConnectionPoint@@ABU_GUID@@@Z:PROC ; CCmdTarget::GetConnectionHook
EXTRN	?PreSubclassWindow@CWnd@@UAEXXZ:PROC		; CWnd::PreSubclassWindow
EXTRN	?Create@CWnd@@UAEHPB_W0KABUtagRECT@@PAV1@IPAUCCreateContext@@@Z:PROC ; CWnd::Create
EXTRN	?CreateEx@CWnd@@UAEHKPB_W0KABUtagRECT@@PAV1@IPAX@Z:PROC ; CWnd::CreateEx
EXTRN	?CreateEx@CWnd@@UAEHKPB_W0KHHHHPAUHWND__@@PAUHMENU__@@PAX@Z:PROC ; CWnd::CreateEx
EXTRN	?DestroyWindow@CWnd@@UAEHXZ:PROC		; CWnd::DestroyWindow
EXTRN	?PreCreateWindow@CWnd@@UAEHAAUtagCREATESTRUCTW@@@Z:PROC ; CWnd::PreCreateWindow
EXTRN	?CalcWindowRect@CWnd@@UAEXPAUtagRECT@@I@Z:PROC	; CWnd::CalcWindowRect
EXTRN	?GetMenu@CWnd@@UBEPAVCMenu@@XZ:PROC		; CWnd::GetMenu
EXTRN	?SetMenu@CWnd@@UAEHPAVCMenu@@@Z:PROC		; CWnd::SetMenu
EXTRN	?OnToolHitTest@CWnd@@UBEHVCPoint@@PAUtagTOOLINFOW@@@Z:PROC ; CWnd::OnToolHitTest
EXTRN	?GetScrollBarCtrl@CWnd@@UBEPAVCScrollBar@@H@Z:PROC ; CWnd::GetScrollBarCtrl
EXTRN	?WinHelpW@CWnd@@UAEXKI@Z:PROC			; CWnd::WinHelpW
EXTRN	?HtmlHelpW@CWnd@@UAEXKI@Z:PROC			; CWnd::HtmlHelpW
EXTRN	?WinHelpInternal@CWnd@@UAEXKI@Z:PROC		; CWnd::WinHelpInternal
EXTRN	?ContinueModal@CWnd@@UAEHXZ:PROC		; CWnd::ContinueModal
EXTRN	?EndModalLoop@CWnd@@UAEXH@Z:PROC		; CWnd::EndModalLoop
EXTRN	?OnDrawIconicThumbnailOrLivePreview@CWnd@@UAEXAAVCDC@@VCRect@@VCSize@@HAAH@Z:PROC ; CWnd::OnDrawIconicThumbnailOrLivePreview
EXTRN	?EnsureStdObj@CWnd@@UAEJXZ:PROC			; CWnd::EnsureStdObj
EXTRN	?get_accParent@CWnd@@UAEJPAPAUIDispatch@@@Z:PROC ; CWnd::get_accParent
EXTRN	?get_accChildCount@CWnd@@UAEJPAJ@Z:PROC		; CWnd::get_accChildCount
EXTRN	?get_accChild@CWnd@@UAEJUtagVARIANT@@PAPAUIDispatch@@@Z:PROC ; CWnd::get_accChild
EXTRN	?get_accName@CWnd@@UAEJUtagVARIANT@@PAPA_W@Z:PROC ; CWnd::get_accName
EXTRN	?get_accValue@CWnd@@UAEJUtagVARIANT@@PAPA_W@Z:PROC ; CWnd::get_accValue
EXTRN	?get_accDescription@CWnd@@UAEJUtagVARIANT@@PAPA_W@Z:PROC ; CWnd::get_accDescription
EXTRN	?get_accRole@CWnd@@UAEJUtagVARIANT@@PAU2@@Z:PROC ; CWnd::get_accRole
EXTRN	?get_accState@CWnd@@UAEJUtagVARIANT@@PAU2@@Z:PROC ; CWnd::get_accState
EXTRN	?get_accHelp@CWnd@@UAEJUtagVARIANT@@PAPA_W@Z:PROC ; CWnd::get_accHelp
EXTRN	?get_accHelpTopic@CWnd@@UAEJPAPA_WUtagVARIANT@@PAJ@Z:PROC ; CWnd::get_accHelpTopic
EXTRN	?get_accKeyboardShortcut@CWnd@@UAEJUtagVARIANT@@PAPA_W@Z:PROC ; CWnd::get_accKeyboardShortcut
EXTRN	?get_accFocus@CWnd@@UAEJPAUtagVARIANT@@@Z:PROC	; CWnd::get_accFocus
EXTRN	?get_accSelection@CWnd@@UAEJPAUtagVARIANT@@@Z:PROC ; CWnd::get_accSelection
EXTRN	?get_accDefaultAction@CWnd@@UAEJUtagVARIANT@@PAPA_W@Z:PROC ; CWnd::get_accDefaultAction
EXTRN	?accSelect@CWnd@@UAEJJUtagVARIANT@@@Z:PROC	; CWnd::accSelect
EXTRN	?accLocation@CWnd@@UAEJPAJ000UtagVARIANT@@@Z:PROC ; CWnd::accLocation
EXTRN	?accNavigate@CWnd@@UAEJJUtagVARIANT@@PAU2@@Z:PROC ; CWnd::accNavigate
EXTRN	?accHitTest@CWnd@@UAEJJJPAUtagVARIANT@@@Z:PROC	; CWnd::accHitTest
EXTRN	?accDoDefaultAction@CWnd@@UAEJUtagVARIANT@@@Z:PROC ; CWnd::accDoDefaultAction
EXTRN	?put_accName@CWnd@@UAEJUtagVARIANT@@PA_W@Z:PROC	; CWnd::put_accName
EXTRN	?put_accValue@CWnd@@UAEJUtagVARIANT@@PA_W@Z:PROC ; CWnd::put_accValue
EXTRN	?SetProxy@CWnd@@UAEJPAUIAccessibleProxy@@@Z:PROC ; CWnd::SetProxy
EXTRN	?CreateAccessibleProxy@CWnd@@UAEJIJPAJ@Z:PROC	; CWnd::CreateAccessibleProxy
EXTRN	?OnCommand@CRulerRichEditCtrl@@MAEHIJ@Z:PROC	; CRulerRichEditCtrl::OnCommand
EXTRN	?OnNotify@CRulerRichEditCtrl@@MAEHIJPAJ@Z:PROC	; CRulerRichEditCtrl::OnNotify
EXTRN	?GetSuperWndProcAddr@CWnd@@MAEPAP6GJPAUHWND__@@IIJ@ZXZ:PROC ; CWnd::GetSuperWndProcAddr
EXTRN	?DoDataExchange@CWnd@@MAEXPAVCDataExchange@@@Z:PROC ; CWnd::DoDataExchange
EXTRN	?BeginModalState@CWnd@@UAEXXZ:PROC		; CWnd::BeginModalState
EXTRN	?EndModalState@CWnd@@UAEXXZ:PROC		; CWnd::EndModalState
EXTRN	?PreTranslateMessage@CWnd@@UAEHPAUtagMSG@@@Z:PROC ; CWnd::PreTranslateMessage
EXTRN	?OnAmbientProperty@CWnd@@UAEHPAVCOleControlSite@@JPAUtagVARIANT@@@Z:PROC ; CWnd::OnAmbientProperty
EXTRN	?WindowProc@CWnd@@MAEJIIJ@Z:PROC		; CWnd::WindowProc
EXTRN	?OnWndMsg@CWnd@@MAEHIIJPAJ@Z:PROC		; CWnd::OnWndMsg
EXTRN	?DefWindowProcW@CWnd@@MAEJIIJ@Z:PROC		; CWnd::DefWindowProcW
EXTRN	?PostNcDestroy@CWnd@@MAEXXZ:PROC		; CWnd::PostNcDestroy
EXTRN	?OnChildNotify@CWnd@@MAEHIIJPAJ@Z:PROC		; CWnd::OnChildNotify
EXTRN	?OnTouchInputs@CWnd@@MAEHIPAUtagTOUCHINPUT@@@Z:PROC ; CWnd::OnTouchInputs
EXTRN	?OnTouchInput@CWnd@@MAEHVCPoint@@HHPAUtagTOUCHINPUT@@@Z:PROC ; CWnd::OnTouchInput
EXTRN	?GetGestureStatus@CWnd@@MAEKVCPoint@@@Z:PROC	; CWnd::GetGestureStatus
EXTRN	?OnGestureZoom@CWnd@@MAEHVCPoint@@J@Z:PROC	; CWnd::OnGestureZoom
EXTRN	?OnGesturePan@CWnd@@MAEHVCPoint@@0@Z:PROC	; CWnd::OnGesturePan
EXTRN	?OnGestureRotate@CWnd@@MAEHVCPoint@@N@Z:PROC	; CWnd::OnGestureRotate
EXTRN	?OnGestureTwoFingerTap@CWnd@@MAEHVCPoint@@@Z:PROC ; CWnd::OnGestureTwoFingerTap
EXTRN	?OnGesturePressAndTap@CWnd@@MAEHVCPoint@@J@Z:PROC ; CWnd::OnGesturePressAndTap
EXTRN	?CheckAutoCenter@CWnd@@UAEHXZ:PROC		; CWnd::CheckAutoCenter
EXTRN	?IsFrameWnd@CWnd@@UBEHXZ:PROC			; CWnd::IsFrameWnd
EXTRN	?CreateControlContainer@CWnd@@MAEHPAPAVCOleControlContainer@@@Z:PROC ; CWnd::CreateControlContainer
EXTRN	?CreateControlSite@CWnd@@MAEHPAVCOleControlContainer@@PAPAVCOleControlSite@@IABU_GUID@@@Z:PROC ; CWnd::CreateControlSite
EXTRN	?SetOccDialogInfo@CWnd@@MAEHPAU_AFX_OCC_DIALOG_INFO@@@Z:PROC ; CWnd::SetOccDialogInfo
EXTRN	?GetOccDialogInfo@CWnd@@MAEPAU_AFX_OCC_DIALOG_INFO@@XZ:PROC ; CWnd::GetOccDialogInfo
EXTRN	?Create@CRulerRichEditCtrl@@UAEHKABUtagRECT@@PAVCWnd@@IH@Z:PROC ; CRulerRichEditCtrl::Create
;	COMDAT ??_R4CRTFContentControl@@6BIContentControl@@@
; File d:\_code\rtfcontentctrl\rtfcontentcontrol.cpp
rdata$r	SEGMENT
??_R4CRTFContentControl@@6BIContentControl@@@ DD 00H	; CRTFContentControl::`RTTI Complete Object Locator'
	DD	0504H
	DD	00H
	DD	FLAT:??_R0?AVCRTFContentControl@@@8
	DD	FLAT:??_R3CRTFContentControl@@8
rdata$r	ENDS
;	COMDAT ??_R1A@?0A@EA@IContentControl@@8
rdata$r	SEGMENT
??_R1A@?0A@EA@IContentControl@@8 DD FLAT:??_R0?AVIContentControl@@@8 ; IContentControl::`RTTI Base Class Descriptor at (0,-1,0,64)'
	DD	00H
	DD	00H
	DD	0ffffffffH
	DD	00H
	DD	040H
	DD	FLAT:??_R3IContentControl@@8
rdata$r	ENDS
;	COMDAT ??_R2IContentControl@@8
rdata$r	SEGMENT
??_R2IContentControl@@8 DD FLAT:??_R1A@?0A@EA@IContentControl@@8 ; IContentControl::`RTTI Base Class Array'
rdata$r	ENDS
;	COMDAT ??_R3IContentControl@@8
rdata$r	SEGMENT
??_R3IContentControl@@8 DD 00H				; IContentControl::`RTTI Class Hierarchy Descriptor'
	DD	00H
	DD	01H
	DD	FLAT:??_R2IContentControl@@8
rdata$r	ENDS
;	COMDAT ??_R0?AVIContentControl@@@8
_DATA	SEGMENT
??_R0?AVIContentControl@@@8 DD FLAT:??_7type_info@@6B@	; IContentControl `RTTI Type Descriptor'
	DD	00H
	DB	'.?AVIContentControl@@', 00H
_DATA	ENDS
;	COMDAT ??_R1FAE@?0A@EA@IContentControl@@8
rdata$r	SEGMENT
??_R1FAE@?0A@EA@IContentControl@@8 DD FLAT:??_R0?AVIContentControl@@@8 ; IContentControl::`RTTI Base Class Descriptor at (1284,-1,0,64)'
	DD	00H
	DD	0504H
	DD	0ffffffffH
	DD	00H
	DD	040H
	DD	FLAT:??_R3IContentControl@@8
rdata$r	ENDS
;	COMDAT ??_R2CObject@@8
rdata$r	SEGMENT
??_R2CObject@@8 DD FLAT:??_R1A@?0A@EA@CObject@@8	; CObject::`RTTI Base Class Array'
rdata$r	ENDS
;	COMDAT ??_R3CObject@@8
rdata$r	SEGMENT
??_R3CObject@@8 DD 00H					; CObject::`RTTI Class Hierarchy Descriptor'
	DD	00H
	DD	01H
	DD	FLAT:??_R2CObject@@8
rdata$r	ENDS
;	COMDAT ??_R0?AVCObject@@@8
_DATA	SEGMENT
??_R0?AVCObject@@@8 DD FLAT:??_7type_info@@6B@		; CObject `RTTI Type Descriptor'
	DD	00H
	DB	'.?AVCObject@@', 00H
_DATA	ENDS
;	COMDAT ??_R1A@?0A@EA@CObject@@8
rdata$r	SEGMENT
??_R1A@?0A@EA@CObject@@8 DD FLAT:??_R0?AVCObject@@@8	; CObject::`RTTI Base Class Descriptor at (0,-1,0,64)'
	DD	00H
	DD	00H
	DD	0ffffffffH
	DD	00H
	DD	040H
	DD	FLAT:??_R3CObject@@8
rdata$r	ENDS
;	COMDAT ??_R2CCmdTarget@@8
rdata$r	SEGMENT
??_R2CCmdTarget@@8 DD FLAT:??_R1A@?0A@EA@CCmdTarget@@8	; CCmdTarget::`RTTI Base Class Array'
	DD	FLAT:??_R1A@?0A@EA@CObject@@8
rdata$r	ENDS
;	COMDAT ??_R3CCmdTarget@@8
rdata$r	SEGMENT
??_R3CCmdTarget@@8 DD 00H				; CCmdTarget::`RTTI Class Hierarchy Descriptor'
	DD	00H
	DD	02H
	DD	FLAT:??_R2CCmdTarget@@8
rdata$r	ENDS
;	COMDAT ??_R0?AVCCmdTarget@@@8
_DATA	SEGMENT
??_R0?AVCCmdTarget@@@8 DD FLAT:??_7type_info@@6B@	; CCmdTarget `RTTI Type Descriptor'
	DD	00H
	DB	'.?AVCCmdTarget@@', 00H
_DATA	ENDS
;	COMDAT ??_R1A@?0A@EA@CCmdTarget@@8
rdata$r	SEGMENT
??_R1A@?0A@EA@CCmdTarget@@8 DD FLAT:??_R0?AVCCmdTarget@@@8 ; CCmdTarget::`RTTI Base Class Descriptor at (0,-1,0,64)'
	DD	01H
	DD	00H
	DD	0ffffffffH
	DD	00H
	DD	040H
	DD	FLAT:??_R3CCmdTarget@@8
rdata$r	ENDS
;	COMDAT ??_R2CWnd@@8
rdata$r	SEGMENT
??_R2CWnd@@8 DD	FLAT:??_R1A@?0A@EA@CWnd@@8		; CWnd::`RTTI Base Class Array'
	DD	FLAT:??_R1A@?0A@EA@CCmdTarget@@8
	DD	FLAT:??_R1A@?0A@EA@CObject@@8
rdata$r	ENDS
;	COMDAT ??_R3CWnd@@8
rdata$r	SEGMENT
??_R3CWnd@@8 DD	00H					; CWnd::`RTTI Class Hierarchy Descriptor'
	DD	00H
	DD	03H
	DD	FLAT:??_R2CWnd@@8
rdata$r	ENDS
;	COMDAT ??_R0?AVCWnd@@@8
_DATA	SEGMENT
??_R0?AVCWnd@@@8 DD FLAT:??_7type_info@@6B@		; CWnd `RTTI Type Descriptor'
	DD	00H
	DB	'.?AVCWnd@@', 00H
_DATA	ENDS
;	COMDAT ??_R1A@?0A@EA@CWnd@@8
rdata$r	SEGMENT
??_R1A@?0A@EA@CWnd@@8 DD FLAT:??_R0?AVCWnd@@@8		; CWnd::`RTTI Base Class Descriptor at (0,-1,0,64)'
	DD	02H
	DD	00H
	DD	0ffffffffH
	DD	00H
	DD	040H
	DD	FLAT:??_R3CWnd@@8
rdata$r	ENDS
;	COMDAT ??_R2CRulerRichEditCtrl@@8
rdata$r	SEGMENT
??_R2CRulerRichEditCtrl@@8 DD FLAT:??_R1A@?0A@EA@CRulerRichEditCtrl@@8 ; CRulerRichEditCtrl::`RTTI Base Class Array'
	DD	FLAT:??_R1A@?0A@EA@CWnd@@8
	DD	FLAT:??_R1A@?0A@EA@CCmdTarget@@8
	DD	FLAT:??_R1A@?0A@EA@CObject@@8
rdata$r	ENDS
;	COMDAT ??_R3CRulerRichEditCtrl@@8
rdata$r	SEGMENT
??_R3CRulerRichEditCtrl@@8 DD 00H			; CRulerRichEditCtrl::`RTTI Class Hierarchy Descriptor'
	DD	00H
	DD	04H
	DD	FLAT:??_R2CRulerRichEditCtrl@@8
rdata$r	ENDS
;	COMDAT ??_R0?AVCRulerRichEditCtrl@@@8
_DATA	SEGMENT
??_R0?AVCRulerRichEditCtrl@@@8 DD FLAT:??_7type_info@@6B@ ; CRulerRichEditCtrl `RTTI Type Descriptor'
	DD	00H
	DB	'.?AVCRulerRichEditCtrl@@', 00H
_DATA	ENDS
;	COMDAT ??_R1A@?0A@EA@CRulerRichEditCtrl@@8
rdata$r	SEGMENT
??_R1A@?0A@EA@CRulerRichEditCtrl@@8 DD FLAT:??_R0?AVCRulerRichEditCtrl@@@8 ; CRulerRichEditCtrl::`RTTI Base Class Descriptor at (0,-1,0,64)'
	DD	03H
	DD	00H
	DD	0ffffffffH
	DD	00H
	DD	040H
	DD	FLAT:??_R3CRulerRichEditCtrl@@8
rdata$r	ENDS
;	COMDAT ??_R1A@?0A@EA@CRTFContentControl@@8
rdata$r	SEGMENT
??_R1A@?0A@EA@CRTFContentControl@@8 DD FLAT:??_R0?AVCRTFContentControl@@@8 ; CRTFContentControl::`RTTI Base Class Descriptor at (0,-1,0,64)'
	DD	05H
	DD	00H
	DD	0ffffffffH
	DD	00H
	DD	040H
	DD	FLAT:??_R3CRTFContentControl@@8
rdata$r	ENDS
;	COMDAT ??_R2CRTFContentControl@@8
rdata$r	SEGMENT
??_R2CRTFContentControl@@8 DD FLAT:??_R1A@?0A@EA@CRTFContentControl@@8 ; CRTFContentControl::`RTTI Base Class Array'
	DD	FLAT:??_R1A@?0A@EA@CRulerRichEditCtrl@@8
	DD	FLAT:??_R1A@?0A@EA@CWnd@@8
	DD	FLAT:??_R1A@?0A@EA@CCmdTarget@@8
	DD	FLAT:??_R1A@?0A@EA@CObject@@8
	DD	FLAT:??_R1FAE@?0A@EA@IContentControl@@8
rdata$r	ENDS
;	COMDAT ??_R3CRTFContentControl@@8
rdata$r	SEGMENT
??_R3CRTFContentControl@@8 DD 00H			; CRTFContentControl::`RTTI Class Hierarchy Descriptor'
	DD	01H
	DD	06H
	DD	FLAT:??_R2CRTFContentControl@@8
rdata$r	ENDS
;	COMDAT ??_R0?AVCRTFContentControl@@@8
_DATA	SEGMENT
??_R0?AVCRTFContentControl@@@8 DD FLAT:??_7type_info@@6B@ ; CRTFContentControl `RTTI Type Descriptor'
	DD	00H
	DB	'.?AVCRTFContentControl@@', 00H
_DATA	ENDS
;	COMDAT ??_R4CRTFContentControl@@6BCRulerRichEditCtrl@@@
rdata$r	SEGMENT
??_R4CRTFContentControl@@6BCRulerRichEditCtrl@@@ DD 00H	; CRTFContentControl::`RTTI Complete Object Locator'
	DD	00H
	DD	00H
	DD	FLAT:??_R0?AVCRTFContentControl@@@8
	DD	FLAT:??_R3CRTFContentControl@@8
rdata$r	ENDS
;	COMDAT ??_7CRTFContentControl@@6BIContentControl@@@
CONST	SEGMENT
??_7CRTFContentControl@@6BIContentControl@@@ DD FLAT:??_R4CRTFContentControl@@6BIContentControl@@@ ; CRTFContentControl::`vftable'
	DD	FLAT:?GetContent@CRTFContentControl@@UBEHPAE@Z
	DD	FLAT:?SetContent@CRTFContentControl@@UAE_NPBEH_N@Z
	DD	FLAT:?GetTypeID@CRTFContentControl@@UBEPB_WXZ
	DD	FLAT:?GetTextContent@CRTFContentControl@@UBEHPA_WH@Z
	DD	FLAT:?SetTextContent@CRTFContentControl@@UAE_NPB_W_N@Z
	DD	FLAT:?SetReadOnly@CRTFContentControl@@UAEX_N@Z
	DD	FLAT:?GetHwnd@CRTFContentControl@@UBEPAUHWND__@@XZ
	DD	FLAT:?Release@CRTFContentControl@@UAEXXZ
	DD	FLAT:?ProcessMessage@CRTFContentControl@@UAE_NPAUtagMSG@@@Z
	DD	FLAT:?GetSpellCheckInterface@CRTFContentControl@@UAEPAVISpellCheck@@XZ
	DD	FLAT:?Undo@CRTFContentControl@@UAE_NXZ
	DD	FLAT:?Redo@CRTFContentControl@@UAE_NXZ
	DD	FLAT:?SetUITheme@CRTFContentControl@@UAEXPBUUITHEME@@@Z
	DD	FLAT:?SavePreferences@CRTFContentControl@@UBEXPAVIPreferences@@PB_W@Z
	DD	FLAT:?LoadPreferences@CRTFContentControl@@UAEXPBVIPreferences@@PB_W@Z
CONST	ENDS
;	COMDAT ??_7CRTFContentControl@@6BCRulerRichEditCtrl@@@
CONST	SEGMENT
??_7CRTFContentControl@@6BCRulerRichEditCtrl@@@ DD FLAT:??_R4CRTFContentControl@@6BCRulerRichEditCtrl@@@ ; CRTFContentControl::`vftable'
	DD	FLAT:?GetRuntimeClass@CWnd@@UBEPAUCRuntimeClass@@XZ
	DD	FLAT:??_ECRTFContentControl@@UAEPAXI@Z
	DD	FLAT:?Serialize@CObject@@UAEXAAVCArchive@@@Z
	DD	FLAT:?AssertValid@CWnd@@UBEXXZ
	DD	FLAT:?Dump@CWnd@@UBEXAAVCDumpContext@@@Z
	DD	FLAT:?OnCmdMsg@CCmdTarget@@UAEHIHPAXPAUAFX_CMDHANDLERINFO@@@Z
	DD	FLAT:?OnFinalRelease@CWnd@@UAEXXZ
	DD	FLAT:?IsInvokeAllowed@CCmdTarget@@UAEHJ@Z
	DD	FLAT:?GetDispatchIID@CCmdTarget@@UAEHPAU_GUID@@@Z
	DD	FLAT:?GetTypeInfoCount@CCmdTarget@@UAEIXZ
	DD	FLAT:?GetTypeLibCache@CCmdTarget@@UAEPAVCTypeLibCache@@XZ
	DD	FLAT:?GetTypeLib@CCmdTarget@@UAEJKPAPAUITypeLib@@@Z
	DD	FLAT:?GetMessageMap@CRTFContentControl@@MBEPBUAFX_MSGMAP@@XZ
	DD	FLAT:?GetCommandMap@CCmdTarget@@MBEPBUAFX_OLECMDMAP@@XZ
	DD	FLAT:?GetDispatchMap@CCmdTarget@@MBEPBUAFX_DISPMAP@@XZ
	DD	FLAT:?GetConnectionMap@CCmdTarget@@MBEPBUAFX_CONNECTIONMAP@@XZ
	DD	FLAT:?GetInterfaceMap@CWnd@@MBEPBUAFX_INTERFACEMAP@@XZ
	DD	FLAT:?GetEventSinkMap@CCmdTarget@@MBEPBUAFX_EVENTSINKMAP@@XZ
	DD	FLAT:?OnCreateAggregates@CCmdTarget@@UAEHXZ
	DD	FLAT:?GetInterfaceHook@CCmdTarget@@UAEPAUIUnknown@@PBX@Z
	DD	FLAT:?GetExtraConnectionPoints@CCmdTarget@@MAEHPAVCPtrArray@@@Z
	DD	FLAT:?GetConnectionHook@CCmdTarget@@MAEPAUIConnectionPoint@@ABU_GUID@@@Z
	DD	FLAT:?PreSubclassWindow@CWnd@@UAEXXZ
	DD	FLAT:?Create@CWnd@@UAEHPB_W0KABUtagRECT@@PAV1@IPAUCCreateContext@@@Z
	DD	FLAT:?CreateEx@CWnd@@UAEHKPB_W0KABUtagRECT@@PAV1@IPAX@Z
	DD	FLAT:?CreateEx@CWnd@@UAEHKPB_W0KHHHHPAUHWND__@@PAUHMENU__@@PAX@Z
	DD	FLAT:?DestroyWindow@CWnd@@UAEHXZ
	DD	FLAT:?PreCreateWindow@CWnd@@UAEHAAUtagCREATESTRUCTW@@@Z
	DD	FLAT:?CalcWindowRect@CWnd@@UAEXPAUtagRECT@@I@Z
	DD	FLAT:?GetMenu@CWnd@@UBEPAVCMenu@@XZ
	DD	FLAT:?SetMenu@CWnd@@UAEHPAVCMenu@@@Z
	DD	FLAT:?OnToolHitTest@CWnd@@UBEHVCPoint@@PAUtagTOOLINFOW@@@Z
	DD	FLAT:?GetScrollBarCtrl@CWnd@@UBEPAVCScrollBar@@H@Z
	DD	FLAT:?WinHelpW@CWnd@@UAEXKI@Z
	DD	FLAT:?HtmlHelpW@CWnd@@UAEXKI@Z
	DD	FLAT:?WinHelpInternal@CWnd@@UAEXKI@Z
	DD	FLAT:?ContinueModal@CWnd@@UAEHXZ
	DD	FLAT:?EndModalLoop@CWnd@@UAEXH@Z
	DD	FLAT:?OnDrawIconicThumbnailOrLivePreview@CWnd@@UAEXAAVCDC@@VCRect@@VCSize@@HAAH@Z
	DD	FLAT:?EnsureStdObj@CWnd@@UAEJXZ
	DD	FLAT:?get_accParent@CWnd@@UAEJPAPAUIDispatch@@@Z
	DD	FLAT:?get_accChildCount@CWnd@@UAEJPAJ@Z
	DD	FLAT:?get_accChild@CWnd@@UAEJUtagVARIANT@@PAPAUIDispatch@@@Z
	DD	FLAT:?get_accName@CWnd@@UAEJUtagVARIANT@@PAPA_W@Z
	DD	FLAT:?get_accValue@CWnd@@UAEJUtagVARIANT@@PAPA_W@Z
	DD	FLAT:?get_accDescription@CWnd@@UAEJUtagVARIANT@@PAPA_W@Z
	DD	FLAT:?get_accRole@CWnd@@UAEJUtagVARIANT@@PAU2@@Z
	DD	FLAT:?get_accState@CWnd@@UAEJUtagVARIANT@@PAU2@@Z
	DD	FLAT:?get_accHelp@CWnd@@UAEJUtagVARIANT@@PAPA_W@Z
	DD	FLAT:?get_accHelpTopic@CWnd@@UAEJPAPA_WUtagVARIANT@@PAJ@Z
	DD	FLAT:?get_accKeyboardShortcut@CWnd@@UAEJUtagVARIANT@@PAPA_W@Z
	DD	FLAT:?get_accFocus@CWnd@@UAEJPAUtagVARIANT@@@Z
	DD	FLAT:?get_accSelection@CWnd@@UAEJPAUtagVARIANT@@@Z
	DD	FLAT:?get_accDefaultAction@CWnd@@UAEJUtagVARIANT@@PAPA_W@Z
	DD	FLAT:?accSelect@CWnd@@UAEJJUtagVARIANT@@@Z
	DD	FLAT:?accLocation@CWnd@@UAEJPAJ000UtagVARIANT@@@Z
	DD	FLAT:?accNavigate@CWnd@@UAEJJUtagVARIANT@@PAU2@@Z
	DD	FLAT:?accHitTest@CWnd@@UAEJJJPAUtagVARIANT@@@Z
	DD	FLAT:?accDoDefaultAction@CWnd@@UAEJUtagVARIANT@@@Z
	DD	FLAT:?put_accName@CWnd@@UAEJUtagVARIANT@@PA_W@Z
	DD	FLAT:?put_accValue@CWnd@@UAEJUtagVARIANT@@PA_W@Z
	DD	FLAT:?SetProxy@CWnd@@UAEJPAUIAccessibleProxy@@@Z
	DD	FLAT:?CreateAccessibleProxy@CWnd@@UAEJIJPAJ@Z
	DD	FLAT:?OnCommand@CRulerRichEditCtrl@@MAEHIJ@Z
	DD	FLAT:?OnNotify@CRulerRichEditCtrl@@MAEHIJPAJ@Z
	DD	FLAT:?GetSuperWndProcAddr@CWnd@@MAEPAP6GJPAUHWND__@@IIJ@ZXZ
	DD	FLAT:?DoDataExchange@CWnd@@MAEXPAVCDataExchange@@@Z
	DD	FLAT:?BeginModalState@CWnd@@UAEXXZ
	DD	FLAT:?EndModalState@CWnd@@UAEXXZ
	DD	FLAT:?PreTranslateMessage@CWnd@@UAEHPAUtagMSG@@@Z
	DD	FLAT:?OnAmbientProperty@CWnd@@UAEHPAVCOleControlSite@@JPAUtagVARIANT@@@Z
	DD	FLAT:?WindowProc@CWnd@@MAEJIIJ@Z
	DD	FLAT:?OnWndMsg@CWnd@@MAEHIIJPAJ@Z
	DD	FLAT:?DefWindowProcW@CWnd@@MAEJIIJ@Z
	DD	FLAT:?PostNcDestroy@CWnd@@MAEXXZ
	DD	FLAT:?OnChildNotify@CWnd@@MAEHIIJPAJ@Z
	DD	FLAT:?OnTouchInputs@CWnd@@MAEHIPAUtagTOUCHINPUT@@@Z
	DD	FLAT:?OnTouchInput@CWnd@@MAEHVCPoint@@HHPAUtagTOUCHINPUT@@@Z
	DD	FLAT:?GetGestureStatus@CWnd@@MAEKVCPoint@@@Z
	DD	FLAT:?OnGestureZoom@CWnd@@MAEHVCPoint@@J@Z
	DD	FLAT:?OnGesturePan@CWnd@@MAEHVCPoint@@0@Z
	DD	FLAT:?OnGestureRotate@CWnd@@MAEHVCPoint@@N@Z
	DD	FLAT:?OnGestureTwoFingerTap@CWnd@@MAEHVCPoint@@@Z
	DD	FLAT:?OnGesturePressAndTap@CWnd@@MAEHVCPoint@@J@Z
	DD	FLAT:?CheckAutoCenter@CWnd@@UAEHXZ
	DD	FLAT:?IsFrameWnd@CWnd@@UBEHXZ
	DD	FLAT:?CreateControlContainer@CWnd@@MAEHPAPAVCOleControlContainer@@@Z
	DD	FLAT:?CreateControlSite@CWnd@@MAEHPAVCOleControlContainer@@PAPAVCOleControlSite@@IABU_GUID@@@Z
	DD	FLAT:?SetOccDialogInfo@CWnd@@MAEHPAU_AFX_OCC_DIALOG_INFO@@@Z
	DD	FLAT:?GetOccDialogInfo@CWnd@@MAEPAU_AFX_OCC_DIALOG_INFO@@XZ
	DD	FLAT:?Create@CRulerRichEditCtrl@@UAEHKABUtagRECT@@PAVCWnd@@IH@Z
CONST	ENDS
;	COMDAT xdata$x
xdata$x	SEGMENT
__ehfuncinfo$??0CRTFContentControl@@QAE@AAVCRtfHtmlConverter@@@Z DD 019930522H
	DD	06H
	DD	FLAT:__unwindtable$??0CRTFContentControl@@QAE@AAVCRtfHtmlConverter@@@Z
	DD	2 DUP(00H)
	DD	2 DUP(00H)
	DD	00H
	DD	01H
__unwindtable$??0CRTFContentControl@@QAE@AAVCRtfHtmlConverter@@@Z DD 0ffffffffH
	DD	FLAT:__unwindfunclet$??0CRTFContentControl@@QAE@AAVCRtfHtmlConverter@@@Z$0
	DD	00H
	DD	FLAT:__unwindfunclet$??0CRTFContentControl@@QAE@AAVCRtfHtmlConverter@@@Z$1
	DD	01H
	DD	FLAT:__unwindfunclet$??0CRTFContentControl@@QAE@AAVCRtfHtmlConverter@@@Z$2
	DD	02H
	DD	FLAT:__unwindfunclet$??0CRTFContentControl@@QAE@AAVCRtfHtmlConverter@@@Z$3
	DD	03H
	DD	FLAT:__unwindfunclet$??0CRTFContentControl@@QAE@AAVCRtfHtmlConverter@@@Z$4
	DD	04H
	DD	FLAT:__unwindfunclet$??0CRTFContentControl@@QAE@AAVCRtfHtmlConverter@@@Z$5
xdata$x	ENDS
;	COMDAT rtc$TMZ
rtc$TMZ	SEGMENT
__RTC_Shutdown.rtc$TMZ DD FLAT:__RTC_Shutdown
rtc$TMZ	ENDS
;	COMDAT rtc$IMZ
rtc$IMZ	SEGMENT
__RTC_InitBase.rtc$IMZ DD FLAT:__RTC_InitBase
; Function compile flags: /Odtp /RTCsu
rtc$IMZ	ENDS
;	COMDAT ??0CRTFContentControl@@QAE@AAVCRtfHtmlConverter@@@Z
_TEXT	SEGMENT
_this$ = -16						; size = 4
__$EHRec$ = -12						; size = 12
_rtfHtml$ = 8						; size = 4
??0CRTFContentControl@@QAE@AAVCRtfHtmlConverter@@@Z PROC ; CRTFContentControl::CRTFContentControl, COMDAT
; _this$ = ecx

; 76   : {

	push	ebp
	mov	ebp, esp
	push	-1
	push	__ehhandler$??0CRTFContentControl@@QAE@AAVCRtfHtmlConverter@@@Z
	mov	eax, DWORD PTR fs:0
	push	eax
	push	ecx
	mov	DWORD PTR [ebp-16], -858993460		; ccccccccH
	mov	eax, DWORD PTR ___security_cookie
	xor	eax, ebp
	push	eax
	lea	eax, DWORD PTR __$EHRec$[ebp]
	mov	DWORD PTR fs:0, eax
	mov	DWORD PTR _this$[ebp], ecx
	mov	ecx, DWORD PTR _this$[ebp]
	call	??0CRulerRichEditCtrl@@QAE@XZ		; CRulerRichEditCtrl::CRulerRichEditCtrl
	mov	DWORD PTR __$EHRec$[ebp+8], 0
	mov	ecx, DWORD PTR _this$[ebp]
	add	ecx, 1284				; 00000504H
	call	??0IContentControl@@QAE@XZ
	mov	eax, DWORD PTR _this$[ebp]
	mov	DWORD PTR [eax], OFFSET ??_7CRTFContentControl@@6BCRulerRichEditCtrl@@@
	mov	ecx, DWORD PTR _this$[ebp]
	mov	DWORD PTR [ecx+1284], OFFSET ??_7CRTFContentControl@@6BIContentControl@@@
	mov	edx, DWORD PTR _this$[ebp]
	mov	DWORD PTR [edx+1288], 1
	mov	ecx, DWORD PTR _this$[ebp]
	add	ecx, 1292				; 0000050cH
	call	??0CToolbarHelper@@QAE@XZ		; CToolbarHelper::CToolbarHelper
	mov	BYTE PTR __$EHRec$[ebp+8], 1
	mov	eax, DWORD PTR _this$[ebp]
	add	eax, 304				; 00000130H
	push	eax
	mov	ecx, DWORD PTR _this$[ebp]
	add	ecx, 1548				; 0000060cH
	call	??0CRichEditSpellCheck@@QAE@AAVCRichEditBaseCtrl@@@Z ; CRichEditSpellCheck::CRichEditSpellCheck
	mov	BYTE PTR __$EHRec$[ebp+8], 2
	mov	ecx, DWORD PTR _this$[ebp]
	add	ecx, 1576				; 00000628H
	call	??0CMenuIconMgr@@QAE@XZ			; CMenuIconMgr::CMenuIconMgr
	mov	BYTE PTR __$EHRec$[ebp+8], 3
	push	0
	mov	ecx, DWORD PTR _this$[ebp]
	add	ecx, 1696				; 000006a0H
	call	??0CharFormat@@QAE@K@Z			; CharFormat::CharFormat
	push	1
	mov	ecx, DWORD PTR _this$[ebp]
	add	ecx, 1812				; 00000714H
	call	??0CShortcutManager@@QAE@H@Z		; CShortcutManager::CShortcutManager
	mov	BYTE PTR __$EHRec$[ebp+8], 4
	mov	ecx, DWORD PTR _this$[ebp]
	mov	edx, DWORD PTR _rtfHtml$[ebp]
	mov	DWORD PTR [ecx+1908], edx
	push	0
	mov	ecx, DWORD PTR _this$[ebp]
	add	ecx, 2004				; 000007d4H
	call	??0CRTFPreferencesDlg@@QAE@PAVCWnd@@@Z	; CRTFPreferencesDlg::CRTFPreferencesDlg
	mov	BYTE PTR __$EHRec$[ebp+8], 5

; 77   : 	ZeroMemory(&m_lfCurrent, sizeof(LOGFONT));

	push	92					; 0000005cH
	push	0
	mov	eax, DWORD PTR _this$[ebp]
	add	eax, 1912				; 00000778H
	push	eax
	call	_memset
	add	esp, 12					; 0000000cH

; 78   : 
; 79   : 	// add custom protocol to comments field for linking to task IDs
; 80   : 	m_rtf.AddProtocol(TDL_PROTOCOL, TRUE);

	push	1
	mov	ecx, DWORD PTR _TDL_PROTOCOL
	push	ecx
	mov	ecx, DWORD PTR _this$[ebp]
	add	ecx, 304				; 00000130H
	call	?AddProtocol@CUrlRichEditCtrl@@QAEHPB_WH@Z ; CUrlRichEditCtrl::AddProtocol

; 81   : }

	mov	DWORD PTR __$EHRec$[ebp+8], -1
	mov	eax, DWORD PTR _this$[ebp]
	mov	ecx, DWORD PTR __$EHRec$[ebp]
	mov	DWORD PTR fs:0, ecx
	pop	ecx
	add	esp, 16					; 00000010H
	cmp	ebp, esp
	call	__RTC_CheckEsp
	mov	esp, ebp
	pop	ebp
	ret	4
_TEXT	ENDS
;	COMDAT text$x
text$x	SEGMENT
__unwindfunclet$??0CRTFContentControl@@QAE@AAVCRtfHtmlConverter@@@Z$0:
	mov	ecx, DWORD PTR _this$[ebp]
	jmp	??1CRulerRichEditCtrl@@UAE@XZ		; CRulerRichEditCtrl::~CRulerRichEditCtrl
__unwindfunclet$??0CRTFContentControl@@QAE@AAVCRtfHtmlConverter@@@Z$1:
	mov	ecx, DWORD PTR _this$[ebp]
	add	ecx, 1292				; 0000050cH
	jmp	??1CToolbarHelper@@UAE@XZ		; CToolbarHelper::~CToolbarHelper
__unwindfunclet$??0CRTFContentControl@@QAE@AAVCRtfHtmlConverter@@@Z$2:
	mov	ecx, DWORD PTR _this$[ebp]
	add	ecx, 1548				; 0000060cH
	jmp	??1CRichEditSpellCheck@@UAE@XZ		; CRichEditSpellCheck::~CRichEditSpellCheck
__unwindfunclet$??0CRTFContentControl@@QAE@AAVCRtfHtmlConverter@@@Z$3:
	mov	ecx, DWORD PTR _this$[ebp]
	add	ecx, 1576				; 00000628H
	jmp	??1CMenuIconMgr@@UAE@XZ			; CMenuIconMgr::~CMenuIconMgr
__unwindfunclet$??0CRTFContentControl@@QAE@AAVCRtfHtmlConverter@@@Z$4:
	mov	ecx, DWORD PTR _this$[ebp]
	add	ecx, 1812				; 00000714H
	jmp	??1CShortcutManager@@UAE@XZ		; CShortcutManager::~CShortcutManager
__unwindfunclet$??0CRTFContentControl@@QAE@AAVCRtfHtmlConverter@@@Z$5:
	mov	ecx, DWORD PTR _this$[ebp]
	add	ecx, 2004				; 000007d4H
	jmp	??1CRTFPreferencesDlg@@UAE@XZ
__ehhandler$??0CRTFContentControl@@QAE@AAVCRtfHtmlConverter@@@Z:
	mov	edx, DWORD PTR [esp+8]
	lea	eax, DWORD PTR [edx+12]
	mov	ecx, DWORD PTR [edx-8]
	xor	ecx, eax
	call	@__security_check_cookie@4
	mov	eax, OFFSET __ehfuncinfo$??0CRTFContentControl@@QAE@AAVCRtfHtmlConverter@@@Z
	jmp	___CxxFrameHandler3
text$x	ENDS
??0CRTFContentControl@@QAE@AAVCRtfHtmlConverter@@@Z ENDP ; CRTFContentControl::CRTFContentControl
PUBLIC	?Reset@CharFormat@@QAEXK@Z			; CharFormat::Reset
; Function compile flags: /Odtp /RTCsu
; File d:\_code\rtfcontentctrl\rulerrichedit.h
;	COMDAT ??0CharFormat@@QAE@K@Z
_TEXT	SEGMENT
_this$ = -4						; size = 4
_mask$ = 8						; size = 4
??0CharFormat@@QAE@K@Z PROC				; CharFormat::CharFormat, COMDAT
; _this$ = ecx

; 18   : 	CharFormat(DWORD mask = 0)

	push	ebp
	mov	ebp, esp
	push	ecx
	mov	DWORD PTR [ebp-4], -858993460		; ccccccccH
	mov	DWORD PTR _this$[ebp], ecx

; 19   : 	{
; 20   : 		Reset(mask);

	mov	eax, DWORD PTR _mask$[ebp]
	push	eax
	mov	ecx, DWORD PTR _this$[ebp]
	call	?Reset@CharFormat@@QAEXK@Z		; CharFormat::Reset

; 21   : 	};

	mov	eax, DWORD PTR _this$[ebp]
	add	esp, 4
	cmp	ebp, esp
	call	__RTC_CheckEsp
	mov	esp, ebp
	pop	ebp
	ret	4
??0CharFormat@@QAE@K@Z ENDP				; CharFormat::CharFormat
; Function compile flags: /Odtp /RTCsu
_TEXT	ENDS
;	COMDAT ?Reset@CharFormat@@QAEXK@Z
_TEXT	SEGMENT
_this$ = -4						; size = 4
_mask$ = 8						; size = 4
?Reset@CharFormat@@QAEXK@Z PROC				; CharFormat::Reset, COMDAT
; _this$ = ecx

; 24   : 	{

	push	ebp
	mov	ebp, esp
	push	ecx
	mov	DWORD PTR [ebp-4], -858993460		; ccccccccH
	mov	DWORD PTR _this$[ebp], ecx

; 25   : 		memset(this, 0, sizeof (CharFormat));

	push	116					; 00000074H
	push	0
	mov	eax, DWORD PTR _this$[ebp]
	push	eax
	call	_memset
	add	esp, 12					; 0000000cH

; 26   : 		cbSize = sizeof(CharFormat);

	mov	ecx, DWORD PTR _this$[ebp]
	mov	DWORD PTR [ecx], 116			; 00000074H

; 27   : 		dwMask = mask;

	mov	edx, DWORD PTR _this$[ebp]
	mov	eax, DWORD PTR _mask$[ebp]
	mov	DWORD PTR [edx+4], eax

; 28   : 	};

	add	esp, 4
	cmp	ebp, esp
	call	__RTC_CheckEsp
	mov	esp, ebp
	pop	ebp
	ret	4
?Reset@CharFormat@@QAEXK@Z ENDP				; CharFormat::Reset
; Function compile flags: /Odtp /RTCsu
; File d:\_code\rtfcontentctrl\rtfcontentcontrol.h
_TEXT	ENDS
;	COMDAT ?GetTypeID@CRTFContentControl@@UBEPB_WXZ
_TEXT	SEGMENT
_this$ = -4						; size = 4
?GetTypeID@CRTFContentControl@@UBEPB_WXZ PROC		; CRTFContentControl::GetTypeID, COMDAT
; _this$ = ecx

; 40   : 	LPCTSTR GetTypeID() const { return RTF_TYPEID; }

	push	ebp
	mov	ebp, esp
	push	ecx
	mov	DWORD PTR [ebp-4], -858993460		; ccccccccH
	mov	DWORD PTR _this$[ebp], ecx
	mov	eax, DWORD PTR _RTF_TYPEID
	mov	esp, ebp
	pop	ebp
	ret	0
?GetTypeID@CRTFContentControl@@UBEPB_WXZ ENDP		; CRTFContentControl::GetTypeID
; Function compile flags: /Odtp /RTCsu
_TEXT	ENDS
;	COMDAT ?GetSpellCheckInterface@CRTFContentControl@@UAEPAVISpellCheck@@XZ
_TEXT	SEGMENT
_this$ = -4						; size = 4
?GetSpellCheckInterface@CRTFContentControl@@UAEPAVISpellCheck@@XZ PROC ; CRTFContentControl::GetSpellCheckInterface, COMDAT
; _this$ = ecx

; 43   : 	ISpellCheck* GetSpellCheckInterface() { return &m_reSpellCheck; }

	push	ebp
	mov	ebp, esp
	push	ecx
	mov	DWORD PTR [ebp-4], -858993460		; ccccccccH
	mov	DWORD PTR _this$[ebp], ecx
	mov	eax, DWORD PTR _this$[ebp]
	add	eax, 264				; 00000108H
	mov	esp, ebp
	pop	ebp
	ret	0
?GetSpellCheckInterface@CRTFContentControl@@UAEPAVISpellCheck@@XZ ENDP ; CRTFContentControl::GetSpellCheckInterface
_TEXT	ENDS
PUBLIC	??1CRTFContentControl@@UAE@XZ			; CRTFContentControl::~CRTFContentControl
EXTRN	??3CObject@@SGXPAX@Z:PROC			; CObject::operator delete
; Function compile flags: /Odtp /RTCsu
;	COMDAT ??_GCRTFContentControl@@UAEPAXI@Z
_TEXT	SEGMENT
_this$ = -4						; size = 4
___flags$ = 8						; size = 4
??_GCRTFContentControl@@UAEPAXI@Z PROC			; CRTFContentControl::`scalar deleting destructor', COMDAT
; _this$ = ecx
	push	ebp
	mov	ebp, esp
	push	ecx
	mov	DWORD PTR [ebp-4], -858993460		; ccccccccH
	mov	DWORD PTR _this$[ebp], ecx
	mov	ecx, DWORD PTR _this$[ebp]
	call	??1CRTFContentControl@@UAE@XZ		; CRTFContentControl::~CRTFContentControl
	mov	eax, DWORD PTR ___flags$[ebp]
	and	eax, 1
	je	SHORT $LN1@scalar
	mov	ecx, DWORD PTR _this$[ebp]
	push	ecx
	call	??3CObject@@SGXPAX@Z			; CObject::operator delete
$LN1@scalar:
	mov	eax, DWORD PTR _this$[ebp]
	add	esp, 4
	cmp	ebp, esp
	call	__RTC_CheckEsp
	mov	esp, ebp
	pop	ebp
	ret	4
??_GCRTFContentControl@@UAEPAXI@Z ENDP			; CRTFContentControl::`scalar deleting destructor'
_TEXT	ENDS
PUBLIC	??_7IContentControl@@6B@			; IContentControl::`vftable'
PUBLIC	??_R4IContentControl@@6B@			; IContentControl::`RTTI Complete Object Locator'
EXTRN	__purecall:PROC
;	COMDAT ??_R4IContentControl@@6B@
rdata$r	SEGMENT
??_R4IContentControl@@6B@ DD 00H			; IContentControl::`RTTI Complete Object Locator'
	DD	00H
	DD	00H
	DD	FLAT:??_R0?AVIContentControl@@@8
	DD	FLAT:??_R3IContentControl@@8
rdata$r	ENDS
;	COMDAT ??_7IContentControl@@6B@
CONST	SEGMENT
??_7IContentControl@@6B@ DD FLAT:??_R4IContentControl@@6B@ ; IContentControl::`vftable'
	DD	FLAT:__purecall
	DD	FLAT:__purecall
	DD	FLAT:__purecall
	DD	FLAT:__purecall
	DD	FLAT:__purecall
	DD	FLAT:__purecall
	DD	FLAT:__purecall
	DD	FLAT:__purecall
	DD	FLAT:__purecall
	DD	FLAT:__purecall
	DD	FLAT:__purecall
	DD	FLAT:__purecall
	DD	FLAT:__purecall
	DD	FLAT:__purecall
	DD	FLAT:__purecall
; Function compile flags: /Odtp /RTCsu
CONST	ENDS
;	COMDAT ??0IContentControl@@QAE@XZ
_TEXT	SEGMENT
_this$ = -4						; size = 4
??0IContentControl@@QAE@XZ PROC				; IContentControl::IContentControl, COMDAT
; _this$ = ecx
	push	ebp
	mov	ebp, esp
	push	ecx
	mov	DWORD PTR [ebp-4], -858993460		; ccccccccH
	mov	DWORD PTR _this$[ebp], ecx
	mov	eax, DWORD PTR _this$[ebp]
	mov	DWORD PTR [eax], OFFSET ??_7IContentControl@@6B@
	mov	eax, DWORD PTR _this$[ebp]
	mov	esp, ebp
	pop	ebp
	ret	0
??0IContentControl@@QAE@XZ ENDP				; IContentControl::IContentControl
_TEXT	ENDS
PUBLIC	??1CRTFPreferencesPage@@UAE@XZ			; CRTFPreferencesPage::~CRTFPreferencesPage
EXTRN	??1CDialog@@UAE@XZ:PROC				; CDialog::~CDialog
EXTRN	??1CScrollingPropertyPageHost@@UAE@XZ:PROC	; CScrollingPropertyPageHost::~CScrollingPropertyPageHost
;	COMDAT xdata$x
xdata$x	SEGMENT
__unwindtable$??1CRTFPreferencesDlg@@UAE@XZ DD 0ffffffffH
	DD	FLAT:__unwindfunclet$??1CRTFPreferencesDlg@@UAE@XZ$0
	DD	00H
	DD	FLAT:__unwindfunclet$??1CRTFPreferencesDlg@@UAE@XZ$1
__ehfuncinfo$??1CRTFPreferencesDlg@@UAE@XZ DD 019930522H
	DD	02H
	DD	FLAT:__unwindtable$??1CRTFPreferencesDlg@@UAE@XZ
	DD	2 DUP(00H)
	DD	2 DUP(00H)
	DD	00H
	DD	01H
; Function compile flags: /Odtp /RTCsu
xdata$x	ENDS
;	COMDAT ??1CRTFPreferencesDlg@@UAE@XZ
_TEXT	SEGMENT
_this$ = -16						; size = 4
__$EHRec$ = -12						; size = 12
??1CRTFPreferencesDlg@@UAE@XZ PROC			; CRTFPreferencesDlg::~CRTFPreferencesDlg, COMDAT
; _this$ = ecx
	push	ebp
	mov	ebp, esp
	push	-1
	push	__ehhandler$??1CRTFPreferencesDlg@@UAE@XZ
	mov	eax, DWORD PTR fs:0
	push	eax
	push	ecx
	mov	DWORD PTR [ebp-16], -858993460		; ccccccccH
	mov	eax, DWORD PTR ___security_cookie
	xor	eax, ebp
	push	eax
	lea	eax, DWORD PTR __$EHRec$[ebp]
	mov	DWORD PTR fs:0, eax
	mov	DWORD PTR _this$[ebp], ecx
	mov	DWORD PTR __$EHRec$[ebp+8], 1
	mov	ecx, DWORD PTR _this$[ebp]
	add	ecx, 360				; 00000168H
	call	??1CScrollingPropertyPageHost@@UAE@XZ	; CScrollingPropertyPageHost::~CScrollingPropertyPageHost
	mov	BYTE PTR __$EHRec$[ebp+8], 0
	mov	ecx, DWORD PTR _this$[ebp]
	add	ecx, 148				; 00000094H
	call	??1CRTFPreferencesPage@@UAE@XZ
	mov	DWORD PTR __$EHRec$[ebp+8], -1
	mov	ecx, DWORD PTR _this$[ebp]
	call	??1CDialog@@UAE@XZ			; CDialog::~CDialog
	mov	ecx, DWORD PTR __$EHRec$[ebp]
	mov	DWORD PTR fs:0, ecx
	pop	ecx
	add	esp, 16					; 00000010H
	cmp	ebp, esp
	call	__RTC_CheckEsp
	mov	esp, ebp
	pop	ebp
	ret	0
_TEXT	ENDS
;	COMDAT text$x
text$x	SEGMENT
__unwindfunclet$??1CRTFPreferencesDlg@@UAE@XZ$0:
	mov	ecx, DWORD PTR _this$[ebp]
	jmp	??1CDialog@@UAE@XZ			; CDialog::~CDialog
__unwindfunclet$??1CRTFPreferencesDlg@@UAE@XZ$1:
	mov	ecx, DWORD PTR _this$[ebp]
	add	ecx, 148				; 00000094H
	jmp	??1CRTFPreferencesPage@@UAE@XZ
__ehhandler$??1CRTFPreferencesDlg@@UAE@XZ:
	mov	edx, DWORD PTR [esp+8]
	lea	eax, DWORD PTR [edx+12]
	mov	ecx, DWORD PTR [edx-8]
	xor	ecx, eax
	call	@__security_check_cookie@4
	mov	eax, OFFSET __ehfuncinfo$??1CRTFPreferencesDlg@@UAE@XZ
	jmp	___CxxFrameHandler3
text$x	ENDS
??1CRTFPreferencesDlg@@UAE@XZ ENDP			; CRTFPreferencesDlg::~CRTFPreferencesDlg
EXTRN	??1CPropertyPage@@UAE@XZ:PROC			; CPropertyPage::~CPropertyPage
EXTRN	??1CGroupLineManager@@UAE@XZ:PROC		; CGroupLineManager::~CGroupLineManager
;	COMDAT xdata$x
xdata$x	SEGMENT
__unwindtable$??1CRTFPreferencesPage@@UAE@XZ DD 0ffffffffH
	DD	FLAT:__unwindfunclet$??1CRTFPreferencesPage@@UAE@XZ$0
__ehfuncinfo$??1CRTFPreferencesPage@@UAE@XZ DD 019930522H
	DD	01H
	DD	FLAT:__unwindtable$??1CRTFPreferencesPage@@UAE@XZ
	DD	2 DUP(00H)
	DD	2 DUP(00H)
	DD	00H
	DD	01H
; Function compile flags: /Odtp /RTCsu
xdata$x	ENDS
;	COMDAT ??1CRTFPreferencesPage@@UAE@XZ
_TEXT	SEGMENT
_this$ = -16						; size = 4
__$EHRec$ = -12						; size = 12
??1CRTFPreferencesPage@@UAE@XZ PROC			; CRTFPreferencesPage::~CRTFPreferencesPage, COMDAT
; _this$ = ecx
	push	ebp
	mov	ebp, esp
	push	-1
	push	__ehhandler$??1CRTFPreferencesPage@@UAE@XZ
	mov	eax, DWORD PTR fs:0
	push	eax
	push	ecx
	mov	DWORD PTR [ebp-16], -858993460		; ccccccccH
	mov	eax, DWORD PTR ___security_cookie
	xor	eax, ebp
	push	eax
	lea	eax, DWORD PTR __$EHRec$[ebp]
	mov	DWORD PTR fs:0, eax
	mov	DWORD PTR _this$[ebp], ecx
	mov	DWORD PTR __$EHRec$[ebp+8], 0
	mov	ecx, DWORD PTR _this$[ebp]
	add	ecx, 168				; 000000a8H
	call	??1CGroupLineManager@@UAE@XZ		; CGroupLineManager::~CGroupLineManager
	mov	DWORD PTR __$EHRec$[ebp+8], -1
	mov	ecx, DWORD PTR _this$[ebp]
	call	??1CPropertyPage@@UAE@XZ		; CPropertyPage::~CPropertyPage
	mov	ecx, DWORD PTR __$EHRec$[ebp]
	mov	DWORD PTR fs:0, ecx
	pop	ecx
	add	esp, 16					; 00000010H
	cmp	ebp, esp
	call	__RTC_CheckEsp
	mov	esp, ebp
	pop	ebp
	ret	0
_TEXT	ENDS
;	COMDAT text$x
text$x	SEGMENT
__unwindfunclet$??1CRTFPreferencesPage@@UAE@XZ$0:
	mov	ecx, DWORD PTR _this$[ebp]
	jmp	??1CPropertyPage@@UAE@XZ		; CPropertyPage::~CPropertyPage
__ehhandler$??1CRTFPreferencesPage@@UAE@XZ:
	mov	edx, DWORD PTR [esp+8]
	lea	eax, DWORD PTR [edx+12]
	mov	ecx, DWORD PTR [edx-8]
	xor	ecx, eax
	call	@__security_check_cookie@4
	mov	eax, OFFSET __ehfuncinfo$??1CRTFPreferencesPage@@UAE@XZ
	jmp	___CxxFrameHandler3
text$x	ENDS
??1CRTFPreferencesPage@@UAE@XZ ENDP			; CRTFPreferencesPage::~CRTFPreferencesPage
;	COMDAT xdata$x
; File d:\_code\rtfcontentctrl\rtfcontentcontrol.cpp
xdata$x	SEGMENT
__ehfuncinfo$??1CRTFContentControl@@UAE@XZ DD 019930522H
	DD	05H
	DD	FLAT:__unwindtable$??1CRTFContentControl@@UAE@XZ
	DD	2 DUP(00H)
	DD	2 DUP(00H)
	DD	00H
	DD	01H
__unwindtable$??1CRTFContentControl@@UAE@XZ DD 0ffffffffH
	DD	FLAT:__unwindfunclet$??1CRTFContentControl@@UAE@XZ$0
	DD	00H
	DD	FLAT:__unwindfunclet$??1CRTFContentControl@@UAE@XZ$1
	DD	01H
	DD	FLAT:__unwindfunclet$??1CRTFContentControl@@UAE@XZ$2
	DD	02H
	DD	FLAT:__unwindfunclet$??1CRTFContentControl@@UAE@XZ$3
	DD	03H
	DD	FLAT:__unwindfunclet$??1CRTFContentControl@@UAE@XZ$4
; Function compile flags: /Odtp /RTCsu
xdata$x	ENDS
;	COMDAT ??1CRTFContentControl@@UAE@XZ
_TEXT	SEGMENT
_this$ = -16						; size = 4
__$EHRec$ = -12						; size = 12
??1CRTFContentControl@@UAE@XZ PROC			; CRTFContentControl::~CRTFContentControl, COMDAT
; _this$ = ecx

; 84   : {

	push	ebp
	mov	ebp, esp
	push	-1
	push	__ehhandler$??1CRTFContentControl@@UAE@XZ
	mov	eax, DWORD PTR fs:0
	push	eax
	push	ecx
	mov	DWORD PTR [ebp-16], -858993460		; ccccccccH
	mov	eax, DWORD PTR ___security_cookie
	xor	eax, ebp
	push	eax
	lea	eax, DWORD PTR __$EHRec$[ebp]
	mov	DWORD PTR fs:0, eax
	mov	DWORD PTR _this$[ebp], ecx
	mov	eax, DWORD PTR _this$[ebp]
	mov	DWORD PTR [eax], OFFSET ??_7CRTFContentControl@@6BCRulerRichEditCtrl@@@
	mov	ecx, DWORD PTR _this$[ebp]
	mov	DWORD PTR [ecx+1284], OFFSET ??_7CRTFContentControl@@6BIContentControl@@@
	mov	DWORD PTR __$EHRec$[ebp+8], 4

; 85   : }

	mov	ecx, DWORD PTR _this$[ebp]
	add	ecx, 2004				; 000007d4H
	call	??1CRTFPreferencesDlg@@UAE@XZ
	mov	BYTE PTR __$EHRec$[ebp+8], 3
	mov	ecx, DWORD PTR _this$[ebp]
	add	ecx, 1812				; 00000714H
	call	??1CShortcutManager@@UAE@XZ		; CShortcutManager::~CShortcutManager
	mov	BYTE PTR __$EHRec$[ebp+8], 2
	mov	ecx, DWORD PTR _this$[ebp]
	add	ecx, 1576				; 00000628H
	call	??1CMenuIconMgr@@UAE@XZ			; CMenuIconMgr::~CMenuIconMgr
	mov	BYTE PTR __$EHRec$[ebp+8], 1
	mov	ecx, DWORD PTR _this$[ebp]
	add	ecx, 1548				; 0000060cH
	call	??1CRichEditSpellCheck@@UAE@XZ		; CRichEditSpellCheck::~CRichEditSpellCheck
	mov	BYTE PTR __$EHRec$[ebp+8], 0
	mov	ecx, DWORD PTR _this$[ebp]
	add	ecx, 1292				; 0000050cH
	call	??1CToolbarHelper@@UAE@XZ		; CToolbarHelper::~CToolbarHelper
	mov	DWORD PTR __$EHRec$[ebp+8], -1
	mov	ecx, DWORD PTR _this$[ebp]
	call	??1CRulerRichEditCtrl@@UAE@XZ		; CRulerRichEditCtrl::~CRulerRichEditCtrl
	mov	ecx, DWORD PTR __$EHRec$[ebp]
	mov	DWORD PTR fs:0, ecx
	pop	ecx
	add	esp, 16					; 00000010H
	cmp	ebp, esp
	call	__RTC_CheckEsp
	mov	esp, ebp
	pop	ebp
	ret	0
_TEXT	ENDS
;	COMDAT text$x
text$x	SEGMENT
__unwindfunclet$??1CRTFContentControl@@UAE@XZ$0:
	mov	ecx, DWORD PTR _this$[ebp]
	jmp	??1CRulerRichEditCtrl@@UAE@XZ		; CRulerRichEditCtrl::~CRulerRichEditCtrl
__unwindfunclet$??1CRTFContentControl@@UAE@XZ$1:
	mov	ecx, DWORD PTR _this$[ebp]
	add	ecx, 1292				; 0000050cH
	jmp	??1CToolbarHelper@@UAE@XZ		; CToolbarHelper::~CToolbarHelper
__unwindfunclet$??1CRTFContentControl@@UAE@XZ$2:
	mov	ecx, DWORD PTR _this$[ebp]
	add	ecx, 1548				; 0000060cH
	jmp	??1CRichEditSpellCheck@@UAE@XZ		; CRichEditSpellCheck::~CRichEditSpellCheck
__unwindfunclet$??1CRTFContentControl@@UAE@XZ$3:
	mov	ecx, DWORD PTR _this$[ebp]
	add	ecx, 1576				; 00000628H
	jmp	??1CMenuIconMgr@@UAE@XZ			; CMenuIconMgr::~CMenuIconMgr
__unwindfunclet$??1CRTFContentControl@@UAE@XZ$4:
	mov	ecx, DWORD PTR _this$[ebp]
	add	ecx, 1812				; 00000714H
	jmp	??1CShortcutManager@@UAE@XZ		; CShortcutManager::~CShortcutManager
__ehhandler$??1CRTFContentControl@@UAE@XZ:
	mov	edx, DWORD PTR [esp+8]
	lea	eax, DWORD PTR [edx+12]
	mov	ecx, DWORD PTR [edx-8]
	xor	ecx, eax
	call	@__security_check_cookie@4
	mov	eax, OFFSET __ehfuncinfo$??1CRTFContentControl@@UAE@XZ
	jmp	___CxxFrameHandler3
text$x	ENDS
??1CRTFContentControl@@UAE@XZ ENDP			; CRTFContentControl::~CRTFContentControl
PUBLIC	?GetThisMessageMap@CRTFContentControl@@KGPBUAFX_MSGMAP@@XZ ; CRTFContentControl::GetThisMessageMap
; Function compile flags: /Odtp /RTCsu
;	COMDAT ?GetMessageMap@CRTFContentControl@@MBEPBUAFX_MSGMAP@@XZ
_TEXT	SEGMENT
_this$ = -4						; size = 4
?GetMessageMap@CRTFContentControl@@MBEPBUAFX_MSGMAP@@XZ PROC ; CRTFContentControl::GetMessageMap, COMDAT
; _this$ = ecx

; 88   : BEGIN_MESSAGE_MAP(CRTFContentControl, CRulerRichEditCtrl)

	push	ebp
	mov	ebp, esp
	push	ecx
	mov	DWORD PTR [ebp-4], -858993460		; ccccccccH
	mov	DWORD PTR _this$[ebp], ecx
	call	?GetThisMessageMap@CRTFContentControl@@KGPBUAFX_MSGMAP@@XZ ; CRTFContentControl::GetThisMessageMap
	add	esp, 4
	cmp	ebp, esp
	call	__RTC_CheckEsp
	mov	esp, ebp
	pop	ebp
	ret	0
?GetMessageMap@CRTFContentControl@@MBEPBUAFX_MSGMAP@@XZ ENDP ; CRTFContentControl::GetMessageMap
_TEXT	ENDS
PUBLIC	?OnContextMenu@CRTFContentControl@@IAEXPAVCWnd@@VCPoint@@@Z ; CRTFContentControl::OnContextMenu
PUBLIC	?OnCreate@CRTFContentControl@@IAEHPAUtagCREATESTRUCTW@@@Z ; CRTFContentControl::OnCreate
PUBLIC	?OnEditCopy@CRTFContentControl@@IAEXXZ		; CRTFContentControl::OnEditCopy
PUBLIC	?OnEditCopyFormatting@CRTFContentControl@@IAEXXZ ; CRTFContentControl::OnEditCopyFormatting
PUBLIC	?OnEditCopyAsHtml@CRTFContentControl@@IAEXXZ	; CRTFContentControl::OnEditCopyAsHtml
PUBLIC	?OnEditCut@CRTFContentControl@@IAEXXZ		; CRTFContentControl::OnEditCut
PUBLIC	?OnEditDelete@CRTFContentControl@@IAEXXZ	; CRTFContentControl::OnEditDelete
PUBLIC	?OnEditFileBrowse@CRTFContentControl@@IAEXXZ	; CRTFContentControl::OnEditFileBrowse
PUBLIC	?OnEditFind@CRTFContentControl@@IAEXXZ		; CRTFContentControl::OnEditFind
PUBLIC	?OnEditFindReplace@CRTFContentControl@@IAEXXZ	; CRTFContentControl::OnEditFindReplace
PUBLIC	?OnEditHorzRule@CRTFContentControl@@IAEXXZ	; CRTFContentControl::OnEditHorzRule
PUBLIC	?OnEditOpenUrl@CRTFContentControl@@IAEXXZ	; CRTFContentControl::OnEditOpenUrl
PUBLIC	?OnEditCopyUrl@CRTFContentControl@@IAEXXZ	; CRTFContentControl::OnEditCopyUrl
PUBLIC	?OnEditPaste@CRTFContentControl@@IAEXXZ		; CRTFContentControl::OnEditPaste
PUBLIC	?OnEditPasteasRef@CRTFContentControl@@IAEXXZ	; CRTFContentControl::OnEditPasteasRef
PUBLIC	?OnEditPasteFormatting@CRTFContentControl@@IAEXXZ ; CRTFContentControl::OnEditPasteFormatting
PUBLIC	?OnEditPasteSimple@CRTFContentControl@@IAEXXZ	; CRTFContentControl::OnEditPasteSimple
PUBLIC	?OnEditSelectAll@CRTFContentControl@@IAEXXZ	; CRTFContentControl::OnEditSelectAll
PUBLIC	?OnEditShowRuler@CRTFContentControl@@IAEXXZ	; CRTFContentControl::OnEditShowRuler
PUBLIC	?OnEditShowToolbar@CRTFContentControl@@IAEXXZ	; CRTFContentControl::OnEditShowToolbar
PUBLIC	?OnEditSpellcheck@CRTFContentControl@@IAEXXZ	; CRTFContentControl::OnEditSpellcheck
PUBLIC	?OnEditSubscript@CRTFContentControl@@IAEXXZ	; CRTFContentControl::OnEditSubscript
PUBLIC	?OnEditSuperscript@CRTFContentControl@@IAEXXZ	; CRTFContentControl::OnEditSuperscript
PUBLIC	?OnEditInlineSpellcheck@CRTFContentControl@@IAEXXZ ; CRTFContentControl::OnEditInlineSpellcheck
PUBLIC	?OnPreferences@CRTFContentControl@@IAEXXZ	; CRTFContentControl::OnPreferences
PUBLIC	?OnUpdateEditCopy@CRTFContentControl@@IAEXPAVCCmdUI@@@Z ; CRTFContentControl::OnUpdateEditCopy
PUBLIC	?OnUpdateEditCopyFormatting@CRTFContentControl@@IAEXPAVCCmdUI@@@Z ; CRTFContentControl::OnUpdateEditCopyFormatting
PUBLIC	?OnUpdateEditCut@CRTFContentControl@@IAEXPAVCCmdUI@@@Z ; CRTFContentControl::OnUpdateEditCut
PUBLIC	?OnUpdateEditDelete@CRTFContentControl@@IAEXPAVCCmdUI@@@Z ; CRTFContentControl::OnUpdateEditDelete
PUBLIC	?OnUpdateEditFileBrowse@CRTFContentControl@@IAEXPAVCCmdUI@@@Z ; CRTFContentControl::OnUpdateEditFileBrowse
PUBLIC	?OnUpdateEditFind@CRTFContentControl@@IAEXPAVCCmdUI@@@Z ; CRTFContentControl::OnUpdateEditFind
PUBLIC	?OnUpdateEditFindReplace@CRTFContentControl@@IAEXPAVCCmdUI@@@Z ; CRTFContentControl::OnUpdateEditFindReplace
PUBLIC	?OnUpdateEditHorzRule@CRTFContentControl@@IAEXPAVCCmdUI@@@Z ; CRTFContentControl::OnUpdateEditHorzRule
PUBLIC	?OnUpdateEditOpenCopyUrl@CRTFContentControl@@IAEXPAVCCmdUI@@@Z ; CRTFContentControl::OnUpdateEditOpenCopyUrl
PUBLIC	?OnUpdateEditPaste@CRTFContentControl@@IAEXPAVCCmdUI@@@Z ; CRTFContentControl::OnUpdateEditPaste
PUBLIC	?OnUpdateEditPasteasRef@CRTFContentControl@@IAEXPAVCCmdUI@@@Z ; CRTFContentControl::OnUpdateEditPasteasRef
PUBLIC	?OnUpdateEditPasteFormatting@CRTFContentControl@@IAEXPAVCCmdUI@@@Z ; CRTFContentControl::OnUpdateEditPasteFormatting
PUBLIC	?OnUpdateEditPasteSimple@CRTFContentControl@@IAEXPAVCCmdUI@@@Z ; CRTFContentControl::OnUpdateEditPasteSimple
PUBLIC	?OnUpdateEditSelectAll@CRTFContentControl@@IAEXPAVCCmdUI@@@Z ; CRTFContentControl::OnUpdateEditSelectAll
PUBLIC	?OnUpdateEditShowRuler@CRTFContentControl@@IAEXPAVCCmdUI@@@Z ; CRTFContentControl::OnUpdateEditShowRuler
PUBLIC	?OnUpdateEditShowToolbar@CRTFContentControl@@IAEXPAVCCmdUI@@@Z ; CRTFContentControl::OnUpdateEditShowToolbar
PUBLIC	?OnUpdateEditSpellcheck@CRTFContentControl@@IAEXPAVCCmdUI@@@Z ; CRTFContentControl::OnUpdateEditSpellcheck
PUBLIC	?OnUpdateEditSubscript@CRTFContentControl@@IAEXPAVCCmdUI@@@Z ; CRTFContentControl::OnUpdateEditSubscript
PUBLIC	?OnUpdateEditSuperscript@CRTFContentControl@@IAEXPAVCCmdUI@@@Z ; CRTFContentControl::OnUpdateEditSuperscript
PUBLIC	?OnUpdateEditInlineSpellcheck@CRTFContentControl@@IAEXPAVCCmdUI@@@Z ; CRTFContentControl::OnUpdateEditInlineSpellcheck
PUBLIC	?OnChangeText@CRTFContentControl@@IAEXXZ	; CRTFContentControl::OnChangeText
PUBLIC	?OnKillFocus@CRTFContentControl@@IAEXXZ		; CRTFContentControl::OnKillFocus
PUBLIC	?OnSetFont@CRTFContentControl@@IAEJIJ@Z		; CRTFContentControl::OnSetFont
PUBLIC	?OnStyleChanging@CRTFContentControl@@IAEXHPAUtagSTYLESTRUCT@@@Z ; CRTFContentControl::OnStyleChanging
PUBLIC	?OnCustomUrl@CRTFContentControl@@IAEJIJ@Z	; CRTFContentControl::OnCustomUrl
PUBLIC	?OnFailedUrl@CRTFContentControl@@IAEJIJ@Z	; CRTFContentControl::OnFailedUrl
EXTRN	?GetThisMessageMap@CRulerRichEditCtrl@@KGPBUAFX_MSGMAP@@XZ:PROC ; CRulerRichEditCtrl::GetThisMessageMap
EXTRN	?OnEditRightAlign@CRulerRichEditCtrl@@IAEXXZ:PROC ; CRulerRichEditCtrl::OnEditRightAlign
;	COMDAT ?_messageEntries@?1??GetThisMessageMap@CRTFContentControl@@KGPBUAFX_MSGMAP@@XZ@4QBUAFX_MSGMAP_ENTRY@@B
CONST	SEGMENT
?_messageEntries@?1??GetThisMessageMap@CRTFContentControl@@KGPBUAFX_MSGMAP@@XZ@4QBUAFX_MSGMAP_ENTRY@@B DD 07bH ; `CRTFContentControl::GetThisMessageMap'::`2'::_messageEntries
	DD	00H
	DD	00H
	DD	00H
	DD	026H
	DD	FLAT:?OnContextMenu@CRTFContentControl@@IAEXPAVCWnd@@VCPoint@@@Z
	DD	01H
	DD	00H
	DD	00H
	DD	00H
	DD	0dH
	DD	FLAT:?OnCreate@CRTFContentControl@@IAEHPAUtagCREATESTRUCTW@@@Z
	DD	0111H
	DD	00H
	DD	0e122H
	DD	0e122H
	DD	039H
	DD	FLAT:?OnEditCopy@CRTFContentControl@@IAEXXZ
	DD	0111H
	DD	00H
	DD	08029H
	DD	08029H
	DD	039H
	DD	FLAT:?OnEditCopyFormatting@CRTFContentControl@@IAEXXZ
	DD	0111H
	DD	00H
	DD	0802dH
	DD	0802dH
	DD	039H
	DD	FLAT:?OnEditCopyAsHtml@CRTFContentControl@@IAEXXZ
	DD	0111H
	DD	00H
	DD	0e123H
	DD	0e123H
	DD	039H
	DD	FLAT:?OnEditCut@CRTFContentControl@@IAEXXZ
	DD	0111H
	DD	00H
	DD	08006H
	DD	08006H
	DD	039H
	DD	FLAT:?OnEditDelete@CRTFContentControl@@IAEXXZ
	DD	0111H
	DD	00H
	DD	0800dH
	DD	0800dH
	DD	039H
	DD	FLAT:?OnEditFileBrowse@CRTFContentControl@@IAEXXZ
	DD	0111H
	DD	00H
	DD	0e124H
	DD	0e124H
	DD	039H
	DD	FLAT:?OnEditFind@CRTFContentControl@@IAEXXZ
	DD	0111H
	DD	00H
	DD	08024H
	DD	08024H
	DD	039H
	DD	FLAT:?OnEditFindReplace@CRTFContentControl@@IAEXXZ
	DD	0111H
	DD	00H
	DD	08017H
	DD	08017H
	DD	039H
	DD	FLAT:?OnEditHorzRule@CRTFContentControl@@IAEXXZ
	DD	0111H
	DD	00H
	DD	0800cH
	DD	0800cH
	DD	039H
	DD	FLAT:?OnEditOpenUrl@CRTFContentControl@@IAEXXZ
	DD	0111H
	DD	00H
	DD	0802fH
	DD	0802fH
	DD	039H
	DD	FLAT:?OnEditCopyUrl@CRTFContentControl@@IAEXXZ
	DD	0111H
	DD	00H
	DD	0e125H
	DD	0e125H
	DD	039H
	DD	FLAT:?OnEditPaste@CRTFContentControl@@IAEXXZ
	DD	0111H
	DD	00H
	DD	0800eH
	DD	0800eH
	DD	039H
	DD	FLAT:?OnEditPasteasRef@CRTFContentControl@@IAEXXZ
	DD	0111H
	DD	00H
	DD	0802aH
	DD	0802aH
	DD	039H
	DD	FLAT:?OnEditPasteFormatting@CRTFContentControl@@IAEXXZ
	DD	0111H
	DD	00H
	DD	08012H
	DD	08012H
	DD	039H
	DD	FLAT:?OnEditPasteSimple@CRTFContentControl@@IAEXXZ
	DD	0111H
	DD	00H
	DD	08014H
	DD	08014H
	DD	039H
	DD	FLAT:?OnEditRightAlign@CRulerRichEditCtrl@@IAEXXZ
	DD	0111H
	DD	00H
	DD	0e12aH
	DD	0e12aH
	DD	039H
	DD	FLAT:?OnEditSelectAll@CRTFContentControl@@IAEXXZ
	DD	0111H
	DD	00H
	DD	08009H
	DD	08009H
	DD	039H
	DD	FLAT:?OnEditShowRuler@CRTFContentControl@@IAEXXZ
	DD	0111H
	DD	00H
	DD	08008H
	DD	08008H
	DD	039H
	DD	FLAT:?OnEditShowToolbar@CRTFContentControl@@IAEXXZ
	DD	0111H
	DD	00H
	DD	08021H
	DD	08021H
	DD	039H
	DD	FLAT:?OnEditSpellcheck@CRTFContentControl@@IAEXXZ
	DD	0111H
	DD	00H
	DD	08011H
	DD	08011H
	DD	039H
	DD	FLAT:?OnEditSubscript@CRTFContentControl@@IAEXXZ
	DD	0111H
	DD	00H
	DD	08010H
	DD	08010H
	DD	039H
	DD	FLAT:?OnEditSuperscript@CRTFContentControl@@IAEXXZ
	DD	0111H
	DD	00H
	DD	086f1H
	DD	086f1H
	DD	039H
	DD	FLAT:?OnEditInlineSpellcheck@CRTFContentControl@@IAEXXZ
	DD	0111H
	DD	00H
	DD	0801eH
	DD	0801eH
	DD	039H
	DD	FLAT:?OnPreferences@CRTFContentControl@@IAEXXZ
	DD	0111H
	DD	0ffffffffH
	DD	0e122H
	DD	0e122H
	DD	041H
	DD	FLAT:?OnUpdateEditCopy@CRTFContentControl@@IAEXPAVCCmdUI@@@Z
	DD	0111H
	DD	0ffffffffH
	DD	08029H
	DD	08029H
	DD	041H
	DD	FLAT:?OnUpdateEditCopyFormatting@CRTFContentControl@@IAEXPAVCCmdUI@@@Z
	DD	0111H
	DD	0ffffffffH
	DD	0e123H
	DD	0e123H
	DD	041H
	DD	FLAT:?OnUpdateEditCut@CRTFContentControl@@IAEXPAVCCmdUI@@@Z
	DD	0111H
	DD	0ffffffffH
	DD	08006H
	DD	08006H
	DD	041H
	DD	FLAT:?OnUpdateEditDelete@CRTFContentControl@@IAEXPAVCCmdUI@@@Z
	DD	0111H
	DD	0ffffffffH
	DD	0800dH
	DD	0800dH
	DD	041H
	DD	FLAT:?OnUpdateEditFileBrowse@CRTFContentControl@@IAEXPAVCCmdUI@@@Z
	DD	0111H
	DD	0ffffffffH
	DD	0e124H
	DD	0e124H
	DD	041H
	DD	FLAT:?OnUpdateEditFind@CRTFContentControl@@IAEXPAVCCmdUI@@@Z
	DD	0111H
	DD	0ffffffffH
	DD	08024H
	DD	08024H
	DD	041H
	DD	FLAT:?OnUpdateEditFindReplace@CRTFContentControl@@IAEXPAVCCmdUI@@@Z
	DD	0111H
	DD	0ffffffffH
	DD	08017H
	DD	08017H
	DD	041H
	DD	FLAT:?OnUpdateEditHorzRule@CRTFContentControl@@IAEXPAVCCmdUI@@@Z
	DD	0111H
	DD	0ffffffffH
	DD	0800cH
	DD	0800cH
	DD	041H
	DD	FLAT:?OnUpdateEditOpenCopyUrl@CRTFContentControl@@IAEXPAVCCmdUI@@@Z
	DD	0111H
	DD	0ffffffffH
	DD	0802fH
	DD	0802fH
	DD	041H
	DD	FLAT:?OnUpdateEditOpenCopyUrl@CRTFContentControl@@IAEXPAVCCmdUI@@@Z
	DD	0111H
	DD	0ffffffffH
	DD	0e125H
	DD	0e125H
	DD	041H
	DD	FLAT:?OnUpdateEditPaste@CRTFContentControl@@IAEXPAVCCmdUI@@@Z
	DD	0111H
	DD	0ffffffffH
	DD	0800eH
	DD	0800eH
	DD	041H
	DD	FLAT:?OnUpdateEditPasteasRef@CRTFContentControl@@IAEXPAVCCmdUI@@@Z
	DD	0111H
	DD	0ffffffffH
	DD	0802aH
	DD	0802aH
	DD	041H
	DD	FLAT:?OnUpdateEditPasteFormatting@CRTFContentControl@@IAEXPAVCCmdUI@@@Z
	DD	0111H
	DD	0ffffffffH
	DD	08012H
	DD	08012H
	DD	041H
	DD	FLAT:?OnUpdateEditPasteSimple@CRTFContentControl@@IAEXPAVCCmdUI@@@Z
	DD	0111H
	DD	0ffffffffH
	DD	0e12aH
	DD	0e12aH
	DD	041H
	DD	FLAT:?OnUpdateEditSelectAll@CRTFContentControl@@IAEXPAVCCmdUI@@@Z
	DD	0111H
	DD	0ffffffffH
	DD	08009H
	DD	08009H
	DD	041H
	DD	FLAT:?OnUpdateEditShowRuler@CRTFContentControl@@IAEXPAVCCmdUI@@@Z
	DD	0111H
	DD	0ffffffffH
	DD	08008H
	DD	08008H
	DD	041H
	DD	FLAT:?OnUpdateEditShowToolbar@CRTFContentControl@@IAEXPAVCCmdUI@@@Z
	DD	0111H
	DD	0ffffffffH
	DD	08021H
	DD	08021H
	DD	041H
	DD	FLAT:?OnUpdateEditSpellcheck@CRTFContentControl@@IAEXPAVCCmdUI@@@Z
	DD	0111H
	DD	0ffffffffH
	DD	08011H
	DD	08011H
	DD	041H
	DD	FLAT:?OnUpdateEditSubscript@CRTFContentControl@@IAEXPAVCCmdUI@@@Z
	DD	0111H
	DD	0ffffffffH
	DD	08010H
	DD	08010H
	DD	041H
	DD	FLAT:?OnUpdateEditSuperscript@CRTFContentControl@@IAEXPAVCCmdUI@@@Z
	DD	0111H
	DD	0ffffffffH
	DD	086f1H
	DD	086f1H
	DD	041H
	DD	FLAT:?OnUpdateEditInlineSpellcheck@CRTFContentControl@@IAEXPAVCCmdUI@@@Z
	DD	0111H
	DD	0300H
	DD	0cH
	DD	0cH
	DD	039H
	DD	FLAT:?OnChangeText@CRTFContentControl@@IAEXXZ
	DD	0111H
	DD	0200H
	DD	0cH
	DD	0cH
	DD	039H
	DD	FLAT:?OnKillFocus@CRTFContentControl@@IAEXXZ
	DD	030H
	DD	00H
	DD	00H
	DD	00H
	DD	0eH
	DD	FLAT:?OnSetFont@CRTFContentControl@@IAEJIJ@Z
	DD	07cH
	DD	00H
	DD	00H
	DD	00H
	DD	01eH
	DD	FLAT:?OnStyleChanging@CRTFContentControl@@IAEXHPAUtagSTYLESTRUCT@@@Z
	DD	0c000H
	DD	00H
	DD	00H
	DD	00H
	DD	FLAT:_WM_UREN_CUSTOMURL
	DD	FLAT:?OnCustomUrl@CRTFContentControl@@IAEJIJ@Z
	DD	0c000H
	DD	00H
	DD	00H
	DD	00H
	DD	FLAT:_WM_UREN_FAILEDURL
	DD	FLAT:?OnFailedUrl@CRTFContentControl@@IAEJIJ@Z
	DD	00H
	DD	00H
	DD	00H
	DD	00H
	DD	00H
	DD	00H
CONST	ENDS
;	COMDAT ?messageMap@?1??GetThisMessageMap@CRTFContentControl@@KGPBUAFX_MSGMAP@@XZ@4U3@B
CONST	SEGMENT
?messageMap@?1??GetThisMessageMap@CRTFContentControl@@KGPBUAFX_MSGMAP@@XZ@4U3@B DD FLAT:?GetThisMessageMap@CRulerRichEditCtrl@@KGPBUAFX_MSGMAP@@XZ ; `CRTFContentControl::GetThisMessageMap'::`2'::messageMap
	DD	FLAT:?_messageEntries@?1??GetThisMessageMap@CRTFContentControl@@KGPBUAFX_MSGMAP@@XZ@4QBUAFX_MSGMAP_ENTRY@@B
; Function compile flags: /Odtp /RTCsu
CONST	ENDS
;	COMDAT ?GetThisMessageMap@CRTFContentControl@@KGPBUAFX_MSGMAP@@XZ
_TEXT	SEGMENT
?GetThisMessageMap@CRTFContentControl@@KGPBUAFX_MSGMAP@@XZ PROC ; CRTFContentControl::GetThisMessageMap, COMDAT

; 88   : BEGIN_MESSAGE_MAP(CRTFContentControl, CRulerRichEditCtrl)

	push	ebp
	mov	ebp, esp

; 89   : 	//{{AFX_MSG_MAP(CRTFContentControl)
; 90   : 	ON_WM_CONTEXTMENU()
; 91   : 	ON_WM_CREATE()
; 92   : 	//}}AFX_MSG_
; 93   : 	ON_COMMAND(ID_EDIT_COPY, OnEditCopy)
; 94   : 	ON_COMMAND(ID_EDIT_COPYFORMATTING, OnEditCopyFormatting)
; 95   : 	ON_COMMAND(ID_EDIT_COPYASHTML, OnEditCopyAsHtml)
; 96   : 	ON_COMMAND(ID_EDIT_CUT, OnEditCut)
; 97   : 	ON_COMMAND(ID_EDIT_DELETE, OnEditDelete)
; 98   : 	ON_COMMAND(ID_EDIT_FILEBROWSE, OnEditFileBrowse)
; 99   : 	ON_COMMAND(ID_EDIT_FIND, OnEditFind)
; 100  : 	ON_COMMAND(ID_EDIT_FINDREPLACE, OnEditFindReplace)
; 101  : 	ON_COMMAND(ID_EDIT_HORZRULE, OnEditHorzRule)
; 102  : 	ON_COMMAND(ID_EDIT_OPENURL, OnEditOpenUrl)
; 103  : 	ON_COMMAND(ID_EDIT_COPYURL, OnEditCopyUrl)
; 104  : 	ON_COMMAND(ID_EDIT_PASTE, OnEditPaste)
; 105  : 	ON_COMMAND(ID_EDIT_PASTEASREF, OnEditPasteasRef)
; 106  : 	ON_COMMAND(ID_EDIT_PASTEFORMATTING, OnEditPasteFormatting)
; 107  : 	ON_COMMAND(ID_EDIT_PASTESIMPLE, OnEditPasteSimple)
; 108  : 	ON_COMMAND(ID_EDIT_RIGHTALIGN, OnEditRightAlign)
; 109  : 	ON_COMMAND(ID_EDIT_SELECT_ALL, OnEditSelectAll)
; 110  : 	ON_COMMAND(ID_EDIT_SHOWRULER, OnEditShowRuler)
; 111  : 	ON_COMMAND(ID_EDIT_SHOWTOOLBAR, OnEditShowToolbar)
; 112  : 	ON_COMMAND(ID_EDIT_SPELLCHECK, OnEditSpellcheck)
; 113  : 	ON_COMMAND(ID_EDIT_SUBSCRIPT, OnEditSubscript)
; 114  : 	ON_COMMAND(ID_EDIT_SUPERSCRIPT, OnEditSuperscript)
; 115  : 	ON_COMMAND(ID_EDIT_INLINESPELLCHECK, OnEditInlineSpellcheck)
; 116  : 	ON_COMMAND(ID_PREFERENCES, OnPreferences)
; 117  : 	ON_UPDATE_COMMAND_UI(ID_EDIT_COPY, OnUpdateEditCopy)
; 118  : 	ON_UPDATE_COMMAND_UI(ID_EDIT_COPYFORMATTING, OnUpdateEditCopyFormatting)
; 119  : 	ON_UPDATE_COMMAND_UI(ID_EDIT_CUT, OnUpdateEditCut)
; 120  : 	ON_UPDATE_COMMAND_UI(ID_EDIT_DELETE, OnUpdateEditDelete)
; 121  : 	ON_UPDATE_COMMAND_UI(ID_EDIT_FILEBROWSE, OnUpdateEditFileBrowse)
; 122  : 	ON_UPDATE_COMMAND_UI(ID_EDIT_FIND, OnUpdateEditFind)
; 123  : 	ON_UPDATE_COMMAND_UI(ID_EDIT_FINDREPLACE, OnUpdateEditFindReplace)
; 124  : 	ON_UPDATE_COMMAND_UI(ID_EDIT_HORZRULE, OnUpdateEditHorzRule)
; 125  : 	ON_UPDATE_COMMAND_UI(ID_EDIT_OPENURL, OnUpdateEditOpenCopyUrl)
; 126  : 	ON_UPDATE_COMMAND_UI(ID_EDIT_COPYURL, OnUpdateEditOpenCopyUrl)
; 127  : 	ON_UPDATE_COMMAND_UI(ID_EDIT_PASTE, OnUpdateEditPaste)
; 128  : 	ON_UPDATE_COMMAND_UI(ID_EDIT_PASTEASREF, OnUpdateEditPasteasRef)
; 129  : 	ON_UPDATE_COMMAND_UI(ID_EDIT_PASTEFORMATTING, OnUpdateEditPasteFormatting)
; 130  : 	ON_UPDATE_COMMAND_UI(ID_EDIT_PASTESIMPLE, OnUpdateEditPasteSimple)
; 131  : 	ON_UPDATE_COMMAND_UI(ID_EDIT_SELECT_ALL, OnUpdateEditSelectAll)
; 132  : 	ON_UPDATE_COMMAND_UI(ID_EDIT_SHOWRULER, OnUpdateEditShowRuler)
; 133  : 	ON_UPDATE_COMMAND_UI(ID_EDIT_SHOWTOOLBAR, OnUpdateEditShowToolbar)
; 134  : 	ON_UPDATE_COMMAND_UI(ID_EDIT_SPELLCHECK, OnUpdateEditSpellcheck)
; 135  : 	ON_UPDATE_COMMAND_UI(ID_EDIT_SUBSCRIPT, OnUpdateEditSubscript)
; 136  : 	ON_UPDATE_COMMAND_UI(ID_EDIT_SUPERSCRIPT, OnUpdateEditSuperscript)
; 137  : 	ON_UPDATE_COMMAND_UI(ID_EDIT_INLINESPELLCHECK, OnUpdateEditInlineSpellcheck)
; 138  : 	ON_EN_CHANGE(RTF_CONTROL, OnChangeText)
; 139  : 	ON_EN_KILLFOCUS(RTF_CONTROL, OnKillFocus)
; 140  : 	ON_MESSAGE(WM_SETFONT, OnSetFont)
; 141  : 	ON_WM_STYLECHANGING()
; 142  : 	ON_REGISTERED_MESSAGE(WM_UREN_CUSTOMURL, OnCustomUrl)
; 143  : 	ON_REGISTERED_MESSAGE(WM_UREN_FAILEDURL, OnFailedUrl)
; 144  : END_MESSAGE_MAP()

	mov	eax, OFFSET ?messageMap@?1??GetThisMessageMap@CRTFContentControl@@KGPBUAFX_MSGMAP@@XZ@4U3@B
	pop	ebp
	ret	0
?GetThisMessageMap@CRTFContentControl@@KGPBUAFX_MSGMAP@@XZ ENDP ; CRTFContentControl::GetThisMessageMap
_TEXT	ENDS
PUBLIC	?SetFileLinkOption@CRTFPreferencesDlg@@QAEXW4RE_PASTE@@H@Z ; CRTFPreferencesDlg::SetFileLinkOption
PUBLIC	?GetFileLinkOption@CRulerRichEdit@@QBE?AW4RE_PASTE@@XZ ; CRulerRichEdit::GetFileLinkOption
PUBLIC	?IsFileLinkOptionDefault@CRulerRichEdit@@QBEHXZ	; CRulerRichEdit::IsFileLinkOptionDefault
PUBLIC	?IsIMEComposing@CRulerRichEdit@@QBEHXZ		; CRulerRichEdit::IsIMEComposing
EXTRN	?SendMessageW@CWnd@@QBEJIIJ@Z:PROC		; CWnd::SendMessageW
EXTRN	?GetParent@CWnd@@QBEPAV1@XZ:PROC		; CWnd::GetParent
; Function compile flags: /Odtp /RTCsu
;	COMDAT ?OnChangeText@CRTFContentControl@@IAEXXZ
_TEXT	SEGMENT
_this$ = -4						; size = 4
?OnChangeText@CRTFContentControl@@IAEXXZ PROC		; CRTFContentControl::OnChangeText, COMDAT
; _this$ = ecx

; 150  : {

	push	ebp
	mov	ebp, esp
	push	ecx
	mov	DWORD PTR [ebp-4], -858993460		; ccccccccH
	mov	DWORD PTR _this$[ebp], ecx

; 151  : 	if (m_bAllowNotify && !m_rtf.IsIMEComposing())

	mov	eax, DWORD PTR _this$[ebp]
	cmp	DWORD PTR [eax+1288], 0
	je	SHORT $LN1@OnChangeTe
	mov	ecx, DWORD PTR _this$[ebp]
	add	ecx, 304				; 00000130H
	call	?IsIMEComposing@CRulerRichEdit@@QBEHXZ	; CRulerRichEdit::IsIMEComposing
	test	eax, eax
	jne	SHORT $LN1@OnChangeTe

; 152  : 		GetParent()->SendMessage(WM_ICC_COMMENTSCHANGE);

	push	0
	push	0
	mov	ecx, DWORD PTR _WM_ICC_COMMENTSCHANGE
	push	ecx
	mov	ecx, DWORD PTR _this$[ebp]
	call	?GetParent@CWnd@@QBEPAV1@XZ		; CWnd::GetParent
	mov	ecx, eax
	call	?SendMessageW@CWnd@@QBEJIIJ@Z		; CWnd::SendMessageW
$LN1@OnChangeTe:

; 153  : 
; 154  : 	m_prefsDlg.SetFileLinkOption(m_rtf.GetFileLinkOption(), !m_rtf.IsFileLinkOptionDefault());

	mov	ecx, DWORD PTR _this$[ebp]
	add	ecx, 304				; 00000130H
	call	?IsFileLinkOptionDefault@CRulerRichEdit@@QBEHXZ ; CRulerRichEdit::IsFileLinkOptionDefault
	neg	eax
	sbb	eax, eax
	add	eax, 1
	push	eax
	mov	ecx, DWORD PTR _this$[ebp]
	add	ecx, 304				; 00000130H
	call	?GetFileLinkOption@CRulerRichEdit@@QBE?AW4RE_PASTE@@XZ ; CRulerRichEdit::GetFileLinkOption
	push	eax
	mov	ecx, DWORD PTR _this$[ebp]
	add	ecx, 2004				; 000007d4H
	call	?SetFileLinkOption@CRTFPreferencesDlg@@QAEXW4RE_PASTE@@H@Z ; CRTFPreferencesDlg::SetFileLinkOption

; 155  : }

	add	esp, 4
	cmp	ebp, esp
	call	__RTC_CheckEsp
	mov	esp, ebp
	pop	ebp
	ret	0
?OnChangeText@CRTFContentControl@@IAEXXZ ENDP		; CRTFContentControl::OnChangeText
; Function compile flags: /Odtp /RTCsu
; File d:\_code\rtfcontentctrl\rulerrichedit.h
_TEXT	ENDS
;	COMDAT ?IsIMEComposing@CRulerRichEdit@@QBEHXZ
_TEXT	SEGMENT
_this$ = -4						; size = 4
?IsIMEComposing@CRulerRichEdit@@QBEHXZ PROC		; CRulerRichEdit::IsIMEComposing, COMDAT
; _this$ = ecx

; 105  : 	BOOL IsIMEComposing() const { return m_bIMEComposing; }

	push	ebp
	mov	ebp, esp
	push	ecx
	mov	DWORD PTR [ebp-4], -858993460		; ccccccccH
	mov	DWORD PTR _this$[ebp], ecx
	mov	eax, DWORD PTR _this$[ebp]
	mov	eax, DWORD PTR [eax+300]
	mov	esp, ebp
	pop	ebp
	ret	0
?IsIMEComposing@CRulerRichEdit@@QBEHXZ ENDP		; CRulerRichEdit::IsIMEComposing
; Function compile flags: /Odtp /RTCsu
_TEXT	ENDS
;	COMDAT ?GetFileLinkOption@CRulerRichEdit@@QBE?AW4RE_PASTE@@XZ
_TEXT	SEGMENT
_this$ = -4						; size = 4
?GetFileLinkOption@CRulerRichEdit@@QBE?AW4RE_PASTE@@XZ PROC ; CRulerRichEdit::GetFileLinkOption, COMDAT
; _this$ = ecx

; 108  : 	RE_PASTE GetFileLinkOption() const { return m_nFileLinkOption; }

	push	ebp
	mov	ebp, esp
	push	ecx
	mov	DWORD PTR [ebp-4], -858993460		; ccccccccH
	mov	DWORD PTR _this$[ebp], ecx
	mov	eax, DWORD PTR _this$[ebp]
	mov	eax, DWORD PTR [eax+304]
	mov	esp, ebp
	pop	ebp
	ret	0
?GetFileLinkOption@CRulerRichEdit@@QBE?AW4RE_PASTE@@XZ ENDP ; CRulerRichEdit::GetFileLinkOption
; Function compile flags: /Odtp /RTCsu
_TEXT	ENDS
;	COMDAT ?IsFileLinkOptionDefault@CRulerRichEdit@@QBEHXZ
_TEXT	SEGMENT
_this$ = -4						; size = 4
?IsFileLinkOptionDefault@CRulerRichEdit@@QBEHXZ PROC	; CRulerRichEdit::IsFileLinkOptionDefault, COMDAT
; _this$ = ecx

; 109  : 	BOOL IsFileLinkOptionDefault() const { return m_bLinkOptionIsDefault; }

	push	ebp
	mov	ebp, esp
	push	ecx
	mov	DWORD PTR [ebp-4], -858993460		; ccccccccH
	mov	DWORD PTR _this$[ebp], ecx
	mov	eax, DWORD PTR _this$[ebp]
	mov	eax, DWORD PTR [eax+308]
	mov	esp, ebp
	pop	ebp
	ret	0
?IsFileLinkOptionDefault@CRulerRichEdit@@QBEHXZ ENDP	; CRulerRichEdit::IsFileLinkOptionDefault
_TEXT	ENDS
EXTRN	?SetFileLinkOption@CRTFPreferencesPage@@QAEXW4RE_PASTE@@H@Z:PROC ; CRTFPreferencesPage::SetFileLinkOption
; Function compile flags: /Odtp /RTCsu
; File d:\_code\rtfcontentctrl\rtfpreferencesdlg.h
;	COMDAT ?SetFileLinkOption@CRTFPreferencesDlg@@QAEXW4RE_PASTE@@H@Z
_TEXT	SEGMENT
_this$ = -4						; size = 4
_nLinkOption$ = 8					; size = 4
_bPrompt$ = 12						; size = 4
?SetFileLinkOption@CRTFPreferencesDlg@@QAEXW4RE_PASTE@@H@Z PROC ; CRTFPreferencesDlg::SetFileLinkOption, COMDAT
; _this$ = ecx

; 76   : 	void SetFileLinkOption(RE_PASTE nLinkOption, BOOL bPrompt) { m_page.SetFileLinkOption(nLinkOption, bPrompt); }

	push	ebp
	mov	ebp, esp
	push	ecx
	mov	DWORD PTR [ebp-4], -858993460		; ccccccccH
	mov	DWORD PTR _this$[ebp], ecx
	mov	eax, DWORD PTR _bPrompt$[ebp]
	push	eax
	mov	ecx, DWORD PTR _nLinkOption$[ebp]
	push	ecx
	mov	ecx, DWORD PTR _this$[ebp]
	add	ecx, 148				; 00000094H
	call	?SetFileLinkOption@CRTFPreferencesPage@@QAEXW4RE_PASTE@@H@Z ; CRTFPreferencesPage::SetFileLinkOption
	add	esp, 4
	cmp	ebp, esp
	call	__RTC_CheckEsp
	mov	esp, ebp
	pop	ebp
	ret	8
?SetFileLinkOption@CRTFPreferencesDlg@@QAEXW4RE_PASTE@@H@Z ENDP ; CRTFPreferencesDlg::SetFileLinkOption
; Function compile flags: /Odtp /RTCsu
; File d:\_code\rtfcontentctrl\rtfcontentcontrol.cpp
_TEXT	ENDS
;	COMDAT ?OnKillFocus@CRTFContentControl@@IAEXXZ
_TEXT	SEGMENT
_this$ = -4						; size = 4
?OnKillFocus@CRTFContentControl@@IAEXXZ PROC		; CRTFContentControl::OnKillFocus, COMDAT
; _this$ = ecx

; 158  : {

	push	ebp
	mov	ebp, esp
	push	ecx
	mov	DWORD PTR [ebp-4], -858993460		; ccccccccH
	mov	DWORD PTR _this$[ebp], ecx

; 159  : 	if (m_bAllowNotify)

	mov	eax, DWORD PTR _this$[ebp]
	cmp	DWORD PTR [eax+1288], 0
	je	SHORT $LN2@OnKillFocu

; 160  : 		GetParent()->SendMessage(WM_ICC_COMMENTSKILLFOCUS);

	push	0
	push	0
	mov	ecx, DWORD PTR _WM_ICC_COMMENTSKILLFOCUS
	push	ecx
	mov	ecx, DWORD PTR _this$[ebp]
	call	?GetParent@CWnd@@QBEPAV1@XZ		; CWnd::GetParent
	mov	ecx, eax
	call	?SendMessageW@CWnd@@QBEJIIJ@Z		; CWnd::SendMessageW
$LN2@OnKillFocu:

; 161  : }

	add	esp, 4
	cmp	ebp, esp
	call	__RTC_CheckEsp
	mov	esp, ebp
	pop	ebp
	ret	0
?OnKillFocus@CRTFContentControl@@IAEXXZ ENDP		; CRTFContentControl::OnKillFocus
_TEXT	ENDS
EXTRN	??1CAutoFlag@@UAE@XZ:PROC			; CAutoFlag::~CAutoFlag
EXTRN	?OnSetFont@CRulerRichEditCtrl@@IAEJIJ@Z:PROC	; CRulerRichEditCtrl::OnSetFont
EXTRN	__imp__GetObjectW@12:PROC
EXTRN	??0CAutoFlag@@QAE@AAHH@Z:PROC			; CAutoFlag::CAutoFlag
EXTRN	@_RTC_CheckStackVars@8:PROC
;	COMDAT xdata$x
xdata$x	SEGMENT
__unwindtable$?OnSetFont@CRTFContentControl@@IAEJIJ@Z DD 0ffffffffH
	DD	FLAT:__unwindfunclet$?OnSetFont@CRTFContentControl@@IAEJIJ@Z$0
__ehfuncinfo$?OnSetFont@CRTFContentControl@@IAEJIJ@Z DD 019930522H
	DD	01H
	DD	FLAT:__unwindtable$?OnSetFont@CRTFContentControl@@IAEJIJ@Z
	DD	2 DUP(00H)
	DD	2 DUP(00H)
	DD	00H
	DD	01H
; Function compile flags: /Odtp /RTCsu
xdata$x	ENDS
;	COMDAT ?OnSetFont@CRTFContentControl@@IAEJIJ@Z
_TEXT	SEGMENT
$T187291 = -40						; size = 4
_af$ = -32						; size = 12
_this$ = -16						; size = 4
__$EHRec$ = -12						; size = 12
_wp$ = 8						; size = 4
_lp$ = 12						; size = 4
?OnSetFont@CRTFContentControl@@IAEJIJ@Z PROC		; CRTFContentControl::OnSetFont, COMDAT
; _this$ = ecx

; 164  : {

	push	ebp
	mov	ebp, esp
	push	-1
	push	__ehhandler$?OnSetFont@CRTFContentControl@@IAEJIJ@Z
	mov	eax, DWORD PTR fs:0
	push	eax
	sub	esp, 28					; 0000001cH
	push	esi
	mov	eax, -858993460				; ccccccccH
	mov	DWORD PTR [ebp-40], eax
	mov	DWORD PTR [ebp-36], eax
	mov	DWORD PTR [ebp-32], eax
	mov	DWORD PTR [ebp-28], eax
	mov	DWORD PTR [ebp-24], eax
	mov	DWORD PTR [ebp-20], eax
	mov	DWORD PTR [ebp-16], eax
	mov	eax, DWORD PTR ___security_cookie
	xor	eax, ebp
	push	eax
	lea	eax, DWORD PTR __$EHRec$[ebp]
	mov	DWORD PTR fs:0, eax
	mov	DWORD PTR _this$[ebp], ecx

; 165  : 	// richedit2.0 sends a EN_CHANGE notification if it contains
; 166  : 	// text when it receives a font change.
; 167  : 	// to us though this is a bogus change so we prevent a notification
; 168  : 	// being sent
; 169  : 	CAutoFlag af(m_bAllowNotify, FALSE);

	push	0
	mov	eax, DWORD PTR _this$[ebp]
	add	eax, 1288				; 00000508H
	push	eax
	lea	ecx, DWORD PTR _af$[ebp]
	call	??0CAutoFlag@@QAE@AAHH@Z		; CAutoFlag::CAutoFlag
	mov	DWORD PTR __$EHRec$[ebp+8], 0

; 170  : 
; 171  : 	// save off font info
; 172  : 	if (wp)

	cmp	DWORD PTR _wp$[ebp], 0
	je	SHORT $LN2@OnSetFont

; 173  : 		::GetObject((HFONT)wp, sizeof(LOGFONT), &m_lfCurrent);

	mov	ecx, DWORD PTR _this$[ebp]
	add	ecx, 1912				; 00000778H
	mov	esi, esp
	push	ecx
	push	92					; 0000005cH
	mov	edx, DWORD PTR _wp$[ebp]
	push	edx
	call	DWORD PTR __imp__GetObjectW@12
	cmp	esi, esp
	call	__RTC_CheckEsp

; 174  : 	else

	jmp	SHORT $LN1@OnSetFont
$LN2@OnSetFont:

; 175  : 		ZeroMemory(&m_lfCurrent, sizeof(LOGFONT));

	push	92					; 0000005cH
	push	0
	mov	eax, DWORD PTR _this$[ebp]
	add	eax, 1912				; 00000778H
	push	eax
	call	_memset
	add	esp, 12					; 0000000cH
$LN1@OnSetFont:

; 176  : 
; 177  : 	return CRulerRichEditCtrl::OnSetFont(wp, lp);

	mov	ecx, DWORD PTR _lp$[ebp]
	push	ecx
	mov	edx, DWORD PTR _wp$[ebp]
	push	edx
	mov	ecx, DWORD PTR _this$[ebp]
	call	?OnSetFont@CRulerRichEditCtrl@@IAEJIJ@Z	; CRulerRichEditCtrl::OnSetFont
	mov	DWORD PTR $T187291[ebp], eax
	mov	DWORD PTR __$EHRec$[ebp+8], -1
	lea	ecx, DWORD PTR _af$[ebp]
	call	??1CAutoFlag@@UAE@XZ			; CAutoFlag::~CAutoFlag
	mov	eax, DWORD PTR $T187291[ebp]

; 178  : }

	push	edx
	mov	ecx, ebp
	push	eax
	lea	edx, DWORD PTR $LN9@OnSetFont
	call	@_RTC_CheckStackVars@8
	pop	eax
	pop	edx
	mov	ecx, DWORD PTR __$EHRec$[ebp]
	mov	DWORD PTR fs:0, ecx
	pop	ecx
	pop	esi
	add	esp, 40					; 00000028H
	cmp	ebp, esp
	call	__RTC_CheckEsp
	mov	esp, ebp
	pop	ebp
	ret	8
	npad	1
$LN9@OnSetFont:
	DD	1
	DD	$LN8@OnSetFont
$LN8@OnSetFont:
	DD	-32					; ffffffe0H
	DD	12					; 0000000cH
	DD	$LN6@OnSetFont
$LN6@OnSetFont:
	DB	97					; 00000061H
	DB	102					; 00000066H
	DB	0
_TEXT	ENDS
;	COMDAT text$x
text$x	SEGMENT
__unwindfunclet$?OnSetFont@CRTFContentControl@@IAEJIJ@Z$0:
	lea	ecx, DWORD PTR _af$[ebp]
	jmp	??1CAutoFlag@@UAE@XZ			; CAutoFlag::~CAutoFlag
__ehhandler$?OnSetFont@CRTFContentControl@@IAEJIJ@Z:
	mov	edx, DWORD PTR [esp+8]
	lea	eax, DWORD PTR [edx+12]
	mov	ecx, DWORD PTR [edx-36]
	xor	ecx, eax
	call	@__security_check_cookie@4
	mov	eax, OFFSET __ehfuncinfo$?OnSetFont@CRTFContentControl@@IAEJIJ@Z
	jmp	___CxxFrameHandler3
text$x	ENDS
?OnSetFont@CRTFContentControl@@IAEJIJ@Z ENDP		; CRTFContentControl::OnSetFont
EXTRN	?GetRTFLength@CRichEditBaseCtrl@@QBEHXZ:PROC	; CRichEditBaseCtrl::GetRTFLength
EXTRN	??_V@YAXPAX@Z:PROC				; operator delete[]
EXTRN	_memcpy:PROC
EXTRN	?Compress@Compression@@YAHPBEHAAPAEAAH@Z:PROC	; Compression::Compress
EXTRN	__imp_??B?$CSimpleStringT@_W$00@ATL@@QBEPB_WXZ:PROC
EXTRN	__imp_??1?$CStringT@_WV?$StrTraitMFC_DLL@_WV?$ChTraitsCRT@_W@ATL@@@@@ATL@@QAE@XZ:PROC
EXTRN	__imp_?GetLength@?$CSimpleStringT@_W$00@ATL@@QBEHXZ:PROC
EXTRN	?GetRTF@CRichEditBaseCtrl@@QBE?AV?$CStringT@_WV?$StrTraitMFC_DLL@_WV?$ChTraitsCRT@_W@ATL@@@@@ATL@@XZ:PROC ; CRichEditBaseCtrl::GetRTF
;	COMDAT xdata$x
xdata$x	SEGMENT
__unwindtable$?GetContent@CRTFContentControl@@UBEHPAE@Z DD 0ffffffffH
	DD	FLAT:__unwindfunclet$?GetContent@CRTFContentControl@@UBEHPAE@Z$0
__ehfuncinfo$?GetContent@CRTFContentControl@@UBEHPAE@Z DD 019930522H
	DD	01H
	DD	FLAT:__unwindtable$?GetContent@CRTFContentControl@@UBEHPAE@Z
	DD	2 DUP(00H)
	DD	2 DUP(00H)
	DD	00H
	DD	01H
; Function compile flags: /Odtp /RTCsu
xdata$x	ENDS
;	COMDAT ?GetContent@CRTFContentControl@@UBEHPAE@Z
_TEXT	SEGMENT
$T187306 = -64						; size = 4
$T187305 = -60						; size = 4
_nLenCompressed$180653 = -52				; size = 4
_pCompressed$180652 = -40				; size = 4
_sContent$180648 = -28					; size = 4
_nLen$ = -20						; size = 4
_this$ = -16						; size = 4
__$EHRec$ = -12						; size = 12
_pContent$ = 8						; size = 4
?GetContent@CRTFContentControl@@UBEHPAE@Z PROC		; CRTFContentControl::GetContent, COMDAT
; _this$ = ecx

; 182  : {

	push	ebp
	mov	ebp, esp
	push	-1
	push	__ehhandler$?GetContent@CRTFContentControl@@UBEHPAE@Z
	mov	eax, DWORD PTR fs:0
	push	eax
	sub	esp, 52					; 00000034H
	push	esi
	push	edi
	push	ecx
	lea	edi, DWORD PTR [ebp-64]
	mov	ecx, 13					; 0000000dH
	mov	eax, -858993460				; ccccccccH
	rep stosd
	pop	ecx
	mov	eax, DWORD PTR ___security_cookie
	xor	eax, ebp
	push	eax
	lea	eax, DWORD PTR __$EHRec$[ebp]
	mov	DWORD PTR fs:0, eax
	mov	DWORD PTR _this$[ebp], ecx

; 183  : 	int nLen = 0;

	mov	DWORD PTR _nLen$[ebp], 0

; 184  : 	
; 185  : 	if (pContent)

	cmp	DWORD PTR _pContent$[ebp], 0
	je	$LN5@GetContent

; 186  : 	{
; 187  : 		CString sContent = m_rtf.GetRTF();

	lea	eax, DWORD PTR _sContent$180648[ebp]
	push	eax
	mov	ecx, DWORD PTR _this$[ebp]
	sub	ecx, 980				; 000003d4H
	call	?GetRTF@CRichEditBaseCtrl@@QBE?AV?$CStringT@_WV?$StrTraitMFC_DLL@_WV?$ChTraitsCRT@_W@ATL@@@@@ATL@@XZ ; CRichEditBaseCtrl::GetRTF
	mov	DWORD PTR __$EHRec$[ebp+8], 0

; 188  : 		nLen = sContent.GetLength();

	mov	esi, esp
	lea	ecx, DWORD PTR _sContent$180648[ebp]
	call	DWORD PTR __imp_?GetLength@?$CSimpleStringT@_W$00@ATL@@QBEHXZ
	cmp	esi, esp
	call	__RTC_CheckEsp
	mov	DWORD PTR _nLen$[ebp], eax

; 189  : 		
; 190  : 		// compress it
; 191  : 		if (!nLen)

	cmp	DWORD PTR _nLen$[ebp], 0
	jne	SHORT $LN4@GetContent

; 192  : 			return 0;

	mov	DWORD PTR $T187305[ebp], 0
	mov	DWORD PTR __$EHRec$[ebp+8], -1
	mov	esi, esp
	lea	ecx, DWORD PTR _sContent$180648[ebp]
	call	DWORD PTR __imp_??1?$CStringT@_WV?$StrTraitMFC_DLL@_WV?$ChTraitsCRT@_W@ATL@@@@@ATL@@QAE@XZ
	cmp	esi, esp
	call	__RTC_CheckEsp
	mov	eax, DWORD PTR $T187305[ebp]
	jmp	$LN6@GetContent
$LN4@GetContent:

; 193  : 		
; 194  : 		unsigned char* pCompressed = NULL;

	mov	DWORD PTR _pCompressed$180652[ebp], 0

; 195  : 		int nLenCompressed = 0;

	mov	DWORD PTR _nLenCompressed$180653[ebp], 0

; 196  : 		
; 197  : 		if (Compression::Compress((unsigned char*)(LPSTR)(LPCTSTR)sContent, nLen, pCompressed, nLenCompressed) && nLenCompressed)

	lea	ecx, DWORD PTR _nLenCompressed$180653[ebp]
	push	ecx
	lea	edx, DWORD PTR _pCompressed$180652[ebp]
	push	edx
	mov	eax, DWORD PTR _nLen$[ebp]
	push	eax
	mov	esi, esp
	lea	ecx, DWORD PTR _sContent$180648[ebp]
	call	DWORD PTR __imp_??B?$CSimpleStringT@_W$00@ATL@@QBEPB_WXZ
	cmp	esi, esp
	call	__RTC_CheckEsp
	push	eax
	call	?Compress@Compression@@YAHPBEHAAPAEAAH@Z ; Compression::Compress
	add	esp, 16					; 00000010H
	test	eax, eax
	je	SHORT $LN3@GetContent
	cmp	DWORD PTR _nLenCompressed$180653[ebp], 0
	je	SHORT $LN3@GetContent

; 198  : 		{
; 199  : 			CopyMemory(pContent, pCompressed, nLenCompressed);

	mov	ecx, DWORD PTR _nLenCompressed$180653[ebp]
	push	ecx
	mov	edx, DWORD PTR _pCompressed$180652[ebp]
	push	edx
	mov	eax, DWORD PTR _pContent$[ebp]
	push	eax
	call	_memcpy
	add	esp, 12					; 0000000cH

; 200  : 			nLen = nLenCompressed;

	mov	ecx, DWORD PTR _nLenCompressed$180653[ebp]
	mov	DWORD PTR _nLen$[ebp], ecx

; 201  : 			delete [] pCompressed;

	mov	edx, DWORD PTR _pCompressed$180652[ebp]
	mov	DWORD PTR $T187306[ebp], edx
	mov	eax, DWORD PTR $T187306[ebp]
	push	eax
	call	??_V@YAXPAX@Z				; operator delete[]
	add	esp, 4

; 202  : 		}
; 203  : 		else

	jmp	SHORT $LN2@GetContent
$LN3@GetContent:

; 204  : 			nLen = 0;

	mov	DWORD PTR _nLen$[ebp], 0
$LN2@GetContent:

; 205  : 	}

	mov	DWORD PTR __$EHRec$[ebp+8], -1
	mov	esi, esp
	lea	ecx, DWORD PTR _sContent$180648[ebp]
	call	DWORD PTR __imp_??1?$CStringT@_WV?$StrTraitMFC_DLL@_WV?$ChTraitsCRT@_W@ATL@@@@@ATL@@QAE@XZ
	cmp	esi, esp
	call	__RTC_CheckEsp

; 206  : 	else

	jmp	SHORT $LN1@GetContent
$LN5@GetContent:

; 207  : 	{
; 208  : 		nLen = m_rtf.GetRTFLength();

	mov	ecx, DWORD PTR _this$[ebp]
	sub	ecx, 980				; 000003d4H
	call	?GetRTFLength@CRichEditBaseCtrl@@QBEHXZ	; CRichEditBaseCtrl::GetRTFLength
	mov	DWORD PTR _nLen$[ebp], eax
$LN1@GetContent:

; 209  : 	}
; 210  : 	
; 211  : 	return nLen;

	mov	eax, DWORD PTR _nLen$[ebp]
$LN6@GetContent:

; 212  : }

	push	edx
	mov	ecx, ebp
	push	eax
	lea	edx, DWORD PTR $LN14@GetContent
	call	@_RTC_CheckStackVars@8
	pop	eax
	pop	edx
	mov	ecx, DWORD PTR __$EHRec$[ebp]
	mov	DWORD PTR fs:0, ecx
	pop	ecx
	pop	edi
	pop	esi
	add	esp, 64					; 00000040H
	cmp	ebp, esp
	call	__RTC_CheckEsp
	mov	esp, ebp
	pop	ebp
	ret	4
	npad	3
$LN14@GetContent:
	DD	3
	DD	$LN13@GetContent
$LN13@GetContent:
	DD	-28					; ffffffe4H
	DD	4
	DD	$LN9@GetContent
	DD	-40					; ffffffd8H
	DD	4
	DD	$LN10@GetContent
	DD	-52					; ffffffccH
	DD	4
	DD	$LN11@GetContent
$LN11@GetContent:
	DB	110					; 0000006eH
	DB	76					; 0000004cH
	DB	101					; 00000065H
	DB	110					; 0000006eH
	DB	67					; 00000043H
	DB	111					; 0000006fH
	DB	109					; 0000006dH
	DB	112					; 00000070H
	DB	114					; 00000072H
	DB	101					; 00000065H
	DB	115					; 00000073H
	DB	115					; 00000073H
	DB	101					; 00000065H
	DB	100					; 00000064H
	DB	0
$LN10@GetContent:
	DB	112					; 00000070H
	DB	67					; 00000043H
	DB	111					; 0000006fH
	DB	109					; 0000006dH
	DB	112					; 00000070H
	DB	114					; 00000072H
	DB	101					; 00000065H
	DB	115					; 00000073H
	DB	115					; 00000073H
	DB	101					; 00000065H
	DB	100					; 00000064H
	DB	0
$LN9@GetContent:
	DB	115					; 00000073H
	DB	67					; 00000043H
	DB	111					; 0000006fH
	DB	110					; 0000006eH
	DB	116					; 00000074H
	DB	101					; 00000065H
	DB	110					; 0000006eH
	DB	116					; 00000074H
	DB	0
_TEXT	ENDS
;	COMDAT text$x
text$x	SEGMENT
__unwindfunclet$?GetContent@CRTFContentControl@@UBEHPAE@Z$0:
	mov	esi, esp
	lea	ecx, DWORD PTR _sContent$180648[ebp]
	call	DWORD PTR __imp_??1?$CStringT@_WV?$StrTraitMFC_DLL@_WV?$ChTraitsCRT@_W@ATL@@@@@ATL@@QAE@XZ
	cmp	esi, esp
	jmp	__RTC_CheckEsp
__ehhandler$?GetContent@CRTFContentControl@@UBEHPAE@Z:
	mov	edx, DWORD PTR [esp+8]
	lea	eax, DWORD PTR [edx+12]
	mov	ecx, DWORD PTR [edx-64]
	xor	ecx, eax
	call	@__security_check_cookie@4
	mov	eax, OFFSET __ehfuncinfo$?GetContent@CRTFContentControl@@UBEHPAE@Z
	jmp	___CxxFrameHandler3
text$x	ENDS
?GetContent@CRTFContentControl@@UBEHPAE@Z ENDP		; CRTFContentControl::GetContent
PUBLIC	??1CBinaryData@@QAE@XZ				; CBinaryData::~CBinaryData
PUBLIC	?_AfxInitManaged@@YAHXZ				; _AfxInitManaged
EXTRN	??1CReSaveCaret@@UAE@XZ:PROC			; CReSaveCaret::~CReSaveCaret
EXTRN	?SetSel@CRichEditCtrl@@QAEXJJ@Z:PROC		; CRichEditCtrl::SetSel
EXTRN	?SetRTF@CRulerRichEditCtrl@@QAEXABV?$CStringT@_WV?$StrTraitMFC_DLL@_WV?$ChTraitsCRT@_W@ATL@@@@@ATL@@@Z:PROC ; CRulerRichEditCtrl::SetRTF
EXTRN	?Get@CBinaryData@@QBEHAAV?$CStringT@_WV?$StrTraitMFC_DLL@_WV?$ChTraitsCRT@_W@ATL@@@@@ATL@@@Z:PROC ; CBinaryData::Get
EXTRN	??0CBinaryData@@QAE@PBEH@Z:PROC			; CBinaryData::CBinaryData
EXTRN	__imp_??0?$CStringT@_WV?$StrTraitMFC_DLL@_WV?$ChTraitsCRT@_W@ATL@@@@@ATL@@QAE@XZ:PROC
EXTRN	??0CReSaveCaret@@QAE@PAUHWND__@@@Z:PROC		; CReSaveCaret::CReSaveCaret
EXTRN	?GetSafeHwnd@CWnd@@QBEPAUHWND__@@XZ:PROC	; CWnd::GetSafeHwnd
EXTRN	??1AFX_MAINTAIN_STATE2@@QAE@XZ:PROC		; AFX_MAINTAIN_STATE2::~AFX_MAINTAIN_STATE2
EXTRN	?Decompress@Compression@@YAHPBEHAAPAEAAH@Z:PROC	; Compression::Decompress
EXTRN	?IsRTF@CRtfHtmlConverter@@SAHPBD@Z:PROC		; CRtfHtmlConverter::IsRTF
EXTRN	??0AFX_MAINTAIN_STATE2@@QAE@PAVAFX_MODULE_STATE@@@Z:PROC ; AFX_MAINTAIN_STATE2::AFX_MAINTAIN_STATE2
EXTRN	?AfxGetStaticModuleState@@YGPAVAFX_MODULE_STATE@@XZ:PROC ; AfxGetStaticModuleState
;	COMDAT xdata$x
xdata$x	SEGMENT
__ehfuncinfo$?SetContent@CRTFContentControl@@UAE_NPBEH_N@Z DD 019930522H
	DD	05H
	DD	FLAT:__unwindtable$?SetContent@CRTFContentControl@@UAE_NPBEH_N@Z
	DD	2 DUP(00H)
	DD	2 DUP(00H)
	DD	00H
	DD	01H
__unwindtable$?SetContent@CRTFContentControl@@UAE_NPBEH_N@Z DD 0ffffffffH
	DD	FLAT:__unwindfunclet$?SetContent@CRTFContentControl@@UAE_NPBEH_N@Z$0
	DD	00H
	DD	FLAT:__unwindfunclet$?SetContent@CRTFContentControl@@UAE_NPBEH_N@Z$1
	DD	01H
	DD	FLAT:__unwindfunclet$?SetContent@CRTFContentControl@@UAE_NPBEH_N@Z$2
	DD	02H
	DD	FLAT:__unwindfunclet$?SetContent@CRTFContentControl@@UAE_NPBEH_N@Z$3
	DD	03H
	DD	FLAT:__unwindfunclet$?SetContent@CRTFContentControl@@UAE_NPBEH_N@Z$4
; Function compile flags: /Odtp /RTCsu
xdata$x	ENDS
;	COMDAT ?SetContent@CRTFContentControl@@UAE_NPBEH_N@Z
_TEXT	SEGMENT
tv182 = -144						; size = 4
tv84 = -140						; size = 4
tv138 = -136						; size = 4
$T187327 = -129						; size = 1
$T187326 = -128						; size = 4
$T187325 = -124						; size = 4
$T187322 = -118						; size = 1
$T187321 = -117						; size = 1
_sContent$ = -112					; size = 4
_resc$ = -100						; size = 12
_af$ = -80						; size = 12
_nLenDecompressed$180671 = -60				; size = 4
_pDecompressed$ = -48					; size = 4
__ctlState$ = -36					; size = 16
_this$ = -16						; size = 4
__$EHRec$ = -12						; size = 12
_pContent$ = 8						; size = 4
_nLength$ = 12						; size = 4
_bResetSelection$ = 16					; size = 1
?SetContent@CRTFContentControl@@UAE_NPBEH_N@Z PROC	; CRTFContentControl::SetContent, COMDAT
; _this$ = ecx

; 215  : {

	push	ebp
	mov	ebp, esp
	push	-1
	push	__ehhandler$?SetContent@CRTFContentControl@@UAE_NPBEH_N@Z
	mov	eax, DWORD PTR fs:0
	push	eax
	sub	esp, 132				; 00000084H
	push	esi
	push	edi
	push	ecx
	lea	edi, DWORD PTR [ebp-144]
	mov	ecx, 33					; 00000021H
	mov	eax, -858993460				; ccccccccH
	rep stosd
	pop	ecx
	mov	eax, DWORD PTR ___security_cookie
	xor	eax, ebp
	push	eax
	lea	eax, DWORD PTR __$EHRec$[ebp]
	mov	DWORD PTR fs:0, eax
	mov	DWORD PTR _this$[ebp], ecx

; 216  : 	AFX_MANAGE_STATE(AfxGetStaticModuleState());

	call	?_AfxInitManaged@@YAHXZ			; _AfxInitManaged
	call	?AfxGetStaticModuleState@@YGPAVAFX_MODULE_STATE@@XZ ; AfxGetStaticModuleState
	push	eax
	lea	ecx, DWORD PTR __ctlState$[ebp]
	call	??0AFX_MAINTAIN_STATE2@@QAE@PAVAFX_MODULE_STATE@@@Z ; AFX_MAINTAIN_STATE2::AFX_MAINTAIN_STATE2
	mov	DWORD PTR __$EHRec$[ebp+8], 0

; 217  : 	
; 218  : 	unsigned char* pDecompressed = NULL;

	mov	DWORD PTR _pDecompressed$[ebp], 0

; 219  : 
; 220  : 	// content may need decompressing 
; 221  : 	// always work in bytes
; 222  : 	if (nLength && !m_rtfHtml.IsRTF((const char*)pContent))

	cmp	DWORD PTR _nLength$[ebp], 0
	je	SHORT $LN5@SetContent
	mov	eax, DWORD PTR _pContent$[ebp]
	push	eax
	call	?IsRTF@CRtfHtmlConverter@@SAHPBD@Z	; CRtfHtmlConverter::IsRTF
	add	esp, 4
	test	eax, eax
	jne	SHORT $LN5@SetContent

; 223  : 	{
; 224  : 		int nLenDecompressed = 0;

	mov	DWORD PTR _nLenDecompressed$180671[ebp], 0

; 225  : 
; 226  : 		if (Compression::Decompress(pContent, nLength, pDecompressed, nLenDecompressed))

	lea	ecx, DWORD PTR _nLenDecompressed$180671[ebp]
	push	ecx
	lea	edx, DWORD PTR _pDecompressed$[ebp]
	push	edx
	mov	eax, DWORD PTR _nLength$[ebp]
	push	eax
	mov	ecx, DWORD PTR _pContent$[ebp]
	push	ecx
	call	?Decompress@Compression@@YAHPBEHAAPAEAAH@Z ; Compression::Decompress
	add	esp, 16					; 00000010H
	test	eax, eax
	je	SHORT $LN4@SetContent

; 227  : 		{
; 228  : 			pContent = pDecompressed;

	mov	edx, DWORD PTR _pDecompressed$[ebp]
	mov	DWORD PTR _pContent$[ebp], edx

; 229  : 			nLength = nLenDecompressed;

	mov	eax, DWORD PTR _nLenDecompressed$180671[ebp]
	mov	DWORD PTR _nLength$[ebp], eax

; 230  : 		}
; 231  : 		else

	jmp	SHORT $LN5@SetContent
$LN4@SetContent:

; 232  : 			return false;

	mov	BYTE PTR $T187321[ebp], 0
	mov	DWORD PTR __$EHRec$[ebp+8], -1
	lea	ecx, DWORD PTR __ctlState$[ebp]
	call	??1AFX_MAINTAIN_STATE2@@QAE@XZ		; AFX_MAINTAIN_STATE2::~AFX_MAINTAIN_STATE2
	mov	al, BYTE PTR $T187321[ebp]
	jmp	$LN6@SetContent
$LN5@SetContent:

; 233  : 	}
; 234  : 
; 235  : 	// content must begin with rtf tag or be empty
; 236  : 	if (nLength && !m_rtfHtml.IsRTF((const char*)pContent))

	cmp	DWORD PTR _nLength$[ebp], 0
	je	SHORT $LN2@SetContent
	mov	ecx, DWORD PTR _pContent$[ebp]
	push	ecx
	call	?IsRTF@CRtfHtmlConverter@@SAHPBD@Z	; CRtfHtmlConverter::IsRTF
	add	esp, 4
	test	eax, eax
	jne	SHORT $LN2@SetContent

; 237  : 		return false;

	mov	BYTE PTR $T187322[ebp], 0
	mov	DWORD PTR __$EHRec$[ebp+8], -1
	lea	ecx, DWORD PTR __ctlState$[ebp]
	call	??1AFX_MAINTAIN_STATE2@@QAE@XZ		; AFX_MAINTAIN_STATE2::~AFX_MAINTAIN_STATE2
	mov	al, BYTE PTR $T187322[ebp]
	jmp	$LN6@SetContent
$LN2@SetContent:

; 238  : 
; 239  : 	CAutoFlag af(m_bAllowNotify, FALSE);

	push	0
	mov	edx, DWORD PTR _this$[ebp]
	add	edx, 4
	push	edx
	lea	ecx, DWORD PTR _af$[ebp]
	call	??0CAutoFlag@@QAE@AAHH@Z		; CAutoFlag::CAutoFlag
	mov	BYTE PTR __$EHRec$[ebp+8], 1

; 240  : 	CReSaveCaret resc(bResetSelection ? NULL : m_rtf.GetSafeHwnd());

	movzx	eax, BYTE PTR _bResetSelection$[ebp]
	test	eax, eax
	je	SHORT $LN8@SetContent
	mov	DWORD PTR tv138[ebp], 0
	jmp	SHORT $LN9@SetContent
$LN8@SetContent:
	mov	ecx, DWORD PTR _this$[ebp]
	sub	ecx, 980				; 000003d4H
	call	?GetSafeHwnd@CWnd@@QBEPAUHWND__@@XZ	; CWnd::GetSafeHwnd
	mov	DWORD PTR tv138[ebp], eax
$LN9@SetContent:
	mov	ecx, DWORD PTR tv138[ebp]
	push	ecx
	lea	ecx, DWORD PTR _resc$[ebp]
	call	??0CReSaveCaret@@QAE@PAUHWND__@@@Z	; CReSaveCaret::CReSaveCaret
	mov	BYTE PTR __$EHRec$[ebp+8], 2

; 241  : 	CString sContent;

	mov	esi, esp
	lea	ecx, DWORD PTR _sContent$[ebp]
	call	DWORD PTR __imp_??0?$CStringT@_WV?$StrTraitMFC_DLL@_WV?$ChTraitsCRT@_W@ATL@@@@@ATL@@QAE@XZ
	cmp	esi, esp
	call	__RTC_CheckEsp
	mov	BYTE PTR __$EHRec$[ebp+8], 3

; 242  : 
; 243  : #ifdef _UNICODE
; 244  : 	CBinaryData(pContent, nLength).Get(sContent);

	lea	edx, DWORD PTR _sContent$[ebp]
	push	edx
	mov	eax, DWORD PTR _nLength$[ebp]
	push	eax
	mov	ecx, DWORD PTR _pContent$[ebp]
	push	ecx
	lea	ecx, DWORD PTR $T187325[ebp]
	call	??0CBinaryData@@QAE@PBEH@Z		; CBinaryData::CBinaryData
	mov	DWORD PTR tv84[ebp], eax
	mov	edx, DWORD PTR tv84[ebp]
	mov	DWORD PTR tv182[ebp], edx
	mov	BYTE PTR __$EHRec$[ebp+8], 4
	mov	ecx, DWORD PTR tv182[ebp]
	call	?Get@CBinaryData@@QBEHAAV?$CStringT@_WV?$StrTraitMFC_DLL@_WV?$ChTraitsCRT@_W@ATL@@@@@ATL@@@Z ; CBinaryData::Get
	mov	BYTE PTR __$EHRec$[ebp+8], 3
	lea	ecx, DWORD PTR $T187325[ebp]
	call	??1CBinaryData@@QAE@XZ			; CBinaryData::~CBinaryData

; 245  : #else
; 246  : 	memcpy(sContent.GetBufferSetLength(nLength), pContent, nLength);
; 247  : #endif
; 248  : 
; 249  : 	SetRTF(sContent);

	lea	eax, DWORD PTR _sContent$[ebp]
	push	eax
	mov	ecx, DWORD PTR _this$[ebp]
	sub	ecx, 1284				; 00000504H
	call	?SetRTF@CRulerRichEditCtrl@@QAEXABV?$CStringT@_WV?$StrTraitMFC_DLL@_WV?$ChTraitsCRT@_W@ATL@@@@@ATL@@@Z ; CRulerRichEditCtrl::SetRTF

; 250  : 
; 251  : 	delete [] pDecompressed;

	mov	ecx, DWORD PTR _pDecompressed$[ebp]
	mov	DWORD PTR $T187326[ebp], ecx
	mov	edx, DWORD PTR $T187326[ebp]
	push	edx
	call	??_V@YAXPAX@Z				; operator delete[]
	add	esp, 4

; 252  : 	
; 253  : 	// reset caret
; 254  : 	if (bResetSelection)

	movzx	eax, BYTE PTR _bResetSelection$[ebp]
	test	eax, eax
	je	SHORT $LN1@SetContent

; 255  : 		m_rtf.SetSel(0, 0);

	push	0
	push	0
	mov	ecx, DWORD PTR _this$[ebp]
	sub	ecx, 980				; 000003d4H
	call	?SetSel@CRichEditCtrl@@QAEXJJ@Z		; CRichEditCtrl::SetSel
$LN1@SetContent:

; 256  : 
; 257  : 	return true; 

	mov	BYTE PTR $T187327[ebp], 1
	mov	BYTE PTR __$EHRec$[ebp+8], 2
	mov	esi, esp
	lea	ecx, DWORD PTR _sContent$[ebp]
	call	DWORD PTR __imp_??1?$CStringT@_WV?$StrTraitMFC_DLL@_WV?$ChTraitsCRT@_W@ATL@@@@@ATL@@QAE@XZ
	cmp	esi, esp
	call	__RTC_CheckEsp
	mov	BYTE PTR __$EHRec$[ebp+8], 1
	lea	ecx, DWORD PTR _resc$[ebp]
	call	??1CReSaveCaret@@UAE@XZ			; CReSaveCaret::~CReSaveCaret
	mov	BYTE PTR __$EHRec$[ebp+8], 0
	lea	ecx, DWORD PTR _af$[ebp]
	call	??1CAutoFlag@@UAE@XZ			; CAutoFlag::~CAutoFlag
	mov	DWORD PTR __$EHRec$[ebp+8], -1
	lea	ecx, DWORD PTR __ctlState$[ebp]
	call	??1AFX_MAINTAIN_STATE2@@QAE@XZ		; AFX_MAINTAIN_STATE2::~AFX_MAINTAIN_STATE2
	mov	al, BYTE PTR $T187327[ebp]
$LN6@SetContent:

; 258  : }

	push	edx
	mov	ecx, ebp
	push	eax
	lea	edx, DWORD PTR $LN23@SetContent
	call	@_RTC_CheckStackVars@8
	pop	eax
	pop	edx
	mov	ecx, DWORD PTR __$EHRec$[ebp]
	mov	DWORD PTR fs:0, ecx
	pop	ecx
	pop	edi
	pop	esi
	add	esp, 144				; 00000090H
	cmp	ebp, esp
	call	__RTC_CheckEsp
	mov	esp, ebp
	pop	ebp
	ret	12					; 0000000cH
	npad	3
$LN23@SetContent:
	DD	6
	DD	$LN22@SetContent
$LN22@SetContent:
	DD	-36					; ffffffdcH
	DD	16					; 00000010H
	DD	$LN15@SetContent
	DD	-48					; ffffffd0H
	DD	4
	DD	$LN16@SetContent
	DD	-60					; ffffffc4H
	DD	4
	DD	$LN17@SetContent
	DD	-80					; ffffffb0H
	DD	12					; 0000000cH
	DD	$LN18@SetContent
	DD	-100					; ffffff9cH
	DD	12					; 0000000cH
	DD	$LN19@SetContent
	DD	-112					; ffffff90H
	DD	4
	DD	$LN20@SetContent
$LN20@SetContent:
	DB	115					; 00000073H
	DB	67					; 00000043H
	DB	111					; 0000006fH
	DB	110					; 0000006eH
	DB	116					; 00000074H
	DB	101					; 00000065H
	DB	110					; 0000006eH
	DB	116					; 00000074H
	DB	0
$LN19@SetContent:
	DB	114					; 00000072H
	DB	101					; 00000065H
	DB	115					; 00000073H
	DB	99					; 00000063H
	DB	0
$LN18@SetContent:
	DB	97					; 00000061H
	DB	102					; 00000066H
	DB	0
$LN17@SetContent:
	DB	110					; 0000006eH
	DB	76					; 0000004cH
	DB	101					; 00000065H
	DB	110					; 0000006eH
	DB	68					; 00000044H
	DB	101					; 00000065H
	DB	99					; 00000063H
	DB	111					; 0000006fH
	DB	109					; 0000006dH
	DB	112					; 00000070H
	DB	114					; 00000072H
	DB	101					; 00000065H
	DB	115					; 00000073H
	DB	115					; 00000073H
	DB	101					; 00000065H
	DB	100					; 00000064H
	DB	0
$LN16@SetContent:
	DB	112					; 00000070H
	DB	68					; 00000044H
	DB	101					; 00000065H
	DB	99					; 00000063H
	DB	111					; 0000006fH
	DB	109					; 0000006dH
	DB	112					; 00000070H
	DB	114					; 00000072H
	DB	101					; 00000065H
	DB	115					; 00000073H
	DB	115					; 00000073H
	DB	101					; 00000065H
	DB	100					; 00000064H
	DB	0
$LN15@SetContent:
	DB	95					; 0000005fH
	DB	99					; 00000063H
	DB	116					; 00000074H
	DB	108					; 0000006cH
	DB	83					; 00000053H
	DB	116					; 00000074H
	DB	97					; 00000061H
	DB	116					; 00000074H
	DB	101					; 00000065H
	DB	0
_TEXT	ENDS
;	COMDAT text$x
text$x	SEGMENT
__unwindfunclet$?SetContent@CRTFContentControl@@UAE_NPBEH_N@Z$0:
	lea	ecx, DWORD PTR __ctlState$[ebp]
	jmp	??1AFX_MAINTAIN_STATE2@@QAE@XZ		; AFX_MAINTAIN_STATE2::~AFX_MAINTAIN_STATE2
__unwindfunclet$?SetContent@CRTFContentControl@@UAE_NPBEH_N@Z$1:
	lea	ecx, DWORD PTR _af$[ebp]
	jmp	??1CAutoFlag@@UAE@XZ			; CAutoFlag::~CAutoFlag
__unwindfunclet$?SetContent@CRTFContentControl@@UAE_NPBEH_N@Z$2:
	lea	ecx, DWORD PTR _resc$[ebp]
	jmp	??1CReSaveCaret@@UAE@XZ			; CReSaveCaret::~CReSaveCaret
__unwindfunclet$?SetContent@CRTFContentControl@@UAE_NPBEH_N@Z$3:
	mov	esi, esp
	lea	ecx, DWORD PTR _sContent$[ebp]
	call	DWORD PTR __imp_??1?$CStringT@_WV?$StrTraitMFC_DLL@_WV?$ChTraitsCRT@_W@ATL@@@@@ATL@@QAE@XZ
	cmp	esi, esp
	jmp	__RTC_CheckEsp
__unwindfunclet$?SetContent@CRTFContentControl@@UAE_NPBEH_N@Z$4:
	lea	ecx, DWORD PTR $T187325[ebp]
	jmp	??1CBinaryData@@QAE@XZ			; CBinaryData::~CBinaryData
__ehhandler$?SetContent@CRTFContentControl@@UAE_NPBEH_N@Z:
	mov	edx, DWORD PTR [esp+8]
	lea	eax, DWORD PTR [edx+12]
	mov	ecx, DWORD PTR [edx-144]
	xor	ecx, eax
	call	@__security_check_cookie@4
	mov	eax, OFFSET __ehfuncinfo$?SetContent@CRTFContentControl@@UAE_NPBEH_N@Z
	jmp	___CxxFrameHandler3
text$x	ENDS
?SetContent@CRTFContentControl@@UAE_NPBEH_N@Z ENDP	; CRTFContentControl::SetContent
; Function compile flags: /Odtp /RTCsu
; File d:\_code\shared\binarydata.h
;	COMDAT ??1CBinaryData@@QAE@XZ
_TEXT	SEGMENT
_this$ = -4						; size = 4
??1CBinaryData@@QAE@XZ PROC				; CBinaryData::~CBinaryData, COMDAT
; _this$ = ecx

; 20   :   ~CBinaryData() {}

	push	ebp
	mov	ebp, esp
	push	ecx
	push	esi
	mov	DWORD PTR [ebp-4], -858993460		; ccccccccH
	mov	DWORD PTR _this$[ebp], ecx
	mov	esi, esp
	mov	ecx, DWORD PTR _this$[ebp]
	call	DWORD PTR __imp_??1?$CStringT@_WV?$StrTraitMFC_DLL@_WV?$ChTraitsCRT@_W@ATL@@@@@ATL@@QAE@XZ
	cmp	esi, esp
	call	__RTC_CheckEsp
	pop	esi
	add	esp, 4
	cmp	ebp, esp
	call	__RTC_CheckEsp
	mov	esp, ebp
	pop	ebp
	ret	0
??1CBinaryData@@QAE@XZ ENDP				; CBinaryData::~CBinaryData
_TEXT	ENDS
EXTRN	?GetWindowTextW@CWnd@@QBEHPA_WH@Z:PROC		; CWnd::GetWindowTextW
EXTRN	?AfxAssertFailedLine@@YGHPBDH@Z:PROC		; AfxAssertFailedLine
EXTRN	?GetWindowTextLengthW@CWnd@@QBEHXZ:PROC		; CWnd::GetWindowTextLengthW
;	COMDAT xdata$x
; File d:\_code\rtfcontentctrl\rtfcontentcontrol.cpp
xdata$x	SEGMENT
__unwindtable$?GetTextContent@CRTFContentControl@@UBEHPA_WH@Z DD 0ffffffffH
	DD	FLAT:__unwindfunclet$?GetTextContent@CRTFContentControl@@UBEHPA_WH@Z$0
__ehfuncinfo$?GetTextContent@CRTFContentControl@@UBEHPA_WH@Z DD 019930522H
	DD	01H
	DD	FLAT:__unwindtable$?GetTextContent@CRTFContentControl@@UBEHPA_WH@Z
	DD	2 DUP(00H)
	DD	2 DUP(00H)
	DD	00H
	DD	01H
; Function compile flags: /Odtp /RTCsu
xdata$x	ENDS
;	COMDAT ?GetTextContent@CRTFContentControl@@UBEHPA_WH@Z
_TEXT	SEGMENT
$T187354 = -48						; size = 4
$T187352 = -44						; size = 4
__ctlState$ = -36					; size = 16
_this$ = -16						; size = 4
__$EHRec$ = -12						; size = 12
_szContent$ = 8						; size = 4
_nLength$ = 12						; size = 4
?GetTextContent@CRTFContentControl@@UBEHPA_WH@Z PROC	; CRTFContentControl::GetTextContent, COMDAT
; _this$ = ecx

; 261  : {

	push	ebp
	mov	ebp, esp
	push	-1
	push	__ehhandler$?GetTextContent@CRTFContentControl@@UBEHPA_WH@Z
	mov	eax, DWORD PTR fs:0
	push	eax
	sub	esp, 36					; 00000024H
	mov	eax, -858993460				; ccccccccH
	mov	DWORD PTR [ebp-48], eax
	mov	DWORD PTR [ebp-44], eax
	mov	DWORD PTR [ebp-40], eax
	mov	DWORD PTR [ebp-36], eax
	mov	DWORD PTR [ebp-32], eax
	mov	DWORD PTR [ebp-28], eax
	mov	DWORD PTR [ebp-24], eax
	mov	DWORD PTR [ebp-20], eax
	mov	DWORD PTR [ebp-16], eax
	mov	eax, DWORD PTR ___security_cookie
	xor	eax, ebp
	push	eax
	lea	eax, DWORD PTR __$EHRec$[ebp]
	mov	DWORD PTR fs:0, eax
	mov	DWORD PTR _this$[ebp], ecx

; 262  : 	AFX_MANAGE_STATE(AfxGetStaticModuleState());

	call	?_AfxInitManaged@@YAHXZ			; _AfxInitManaged
	call	?AfxGetStaticModuleState@@YGPAVAFX_MODULE_STATE@@XZ ; AfxGetStaticModuleState
	push	eax
	lea	ecx, DWORD PTR __ctlState$[ebp]
	call	??0AFX_MAINTAIN_STATE2@@QAE@PAVAFX_MODULE_STATE@@@Z ; AFX_MAINTAIN_STATE2::AFX_MAINTAIN_STATE2
	mov	DWORD PTR __$EHRec$[ebp+8], 0

; 263  : 	
; 264  : 	if (!szContent)

	cmp	DWORD PTR _szContent$[ebp], 0
	jne	SHORT $LN1@GetTextCon

; 265  : 		return m_rtf.GetWindowTextLength();

	mov	ecx, DWORD PTR _this$[ebp]
	sub	ecx, 980				; 000003d4H
	call	?GetWindowTextLengthW@CWnd@@QBEHXZ	; CWnd::GetWindowTextLengthW
	mov	DWORD PTR $T187352[ebp], eax
	mov	DWORD PTR __$EHRec$[ebp+8], -1
	lea	ecx, DWORD PTR __ctlState$[ebp]
	call	??1AFX_MAINTAIN_STATE2@@QAE@XZ		; AFX_MAINTAIN_STATE2::~AFX_MAINTAIN_STATE2
	mov	eax, DWORD PTR $T187352[ebp]
	jmp	SHORT $LN2@GetTextCon
$LN1@GetTextCon:

; 266  : 
; 267  : 	ASSERT(nLength > 0);

	cmp	DWORD PTR _nLength$[ebp], 0
	jg	SHORT $LN4@GetTextCon
	push	267					; 0000010bH
	push	OFFSET _THIS_FILE
	call	?AfxAssertFailedLine@@YGHPBDH@Z		; AfxAssertFailedLine
	test	eax, eax
	je	SHORT $LN4@GetTextCon
	int	3
$LN4@GetTextCon:

; 268  : 	
; 269  : 	return m_rtf.GetWindowText(szContent, nLength);

	mov	ecx, DWORD PTR _nLength$[ebp]
	push	ecx
	mov	edx, DWORD PTR _szContent$[ebp]
	push	edx
	mov	ecx, DWORD PTR _this$[ebp]
	sub	ecx, 980				; 000003d4H
	call	?GetWindowTextW@CWnd@@QBEHPA_WH@Z	; CWnd::GetWindowTextW
	mov	DWORD PTR $T187354[ebp], eax
	mov	DWORD PTR __$EHRec$[ebp+8], -1
	lea	ecx, DWORD PTR __ctlState$[ebp]
	call	??1AFX_MAINTAIN_STATE2@@QAE@XZ		; AFX_MAINTAIN_STATE2::~AFX_MAINTAIN_STATE2
	mov	eax, DWORD PTR $T187354[ebp]
$LN2@GetTextCon:

; 270  : }

	push	edx
	mov	ecx, ebp
	push	eax
	lea	edx, DWORD PTR $LN9@GetTextCon
	call	@_RTC_CheckStackVars@8
	pop	eax
	pop	edx
	mov	ecx, DWORD PTR __$EHRec$[ebp]
	mov	DWORD PTR fs:0, ecx
	pop	ecx
	add	esp, 48					; 00000030H
	cmp	ebp, esp
	call	__RTC_CheckEsp
	mov	esp, ebp
	pop	ebp
	ret	8
	npad	2
$LN9@GetTextCon:
	DD	1
	DD	$LN8@GetTextCon
$LN8@GetTextCon:
	DD	-36					; ffffffdcH
	DD	16					; 00000010H
	DD	$LN6@GetTextCon
$LN6@GetTextCon:
	DB	95					; 0000005fH
	DB	99					; 00000063H
	DB	116					; 00000074H
	DB	108					; 0000006cH
	DB	83					; 00000053H
	DB	116					; 00000074H
	DB	97					; 00000061H
	DB	116					; 00000074H
	DB	101					; 00000065H
	DB	0
_TEXT	ENDS
;	COMDAT text$x
text$x	SEGMENT
__unwindfunclet$?GetTextContent@CRTFContentControl@@UBEHPA_WH@Z$0:
	lea	ecx, DWORD PTR __ctlState$[ebp]
	jmp	??1AFX_MAINTAIN_STATE2@@QAE@XZ		; AFX_MAINTAIN_STATE2::~AFX_MAINTAIN_STATE2
__ehhandler$?GetTextContent@CRTFContentControl@@UBEHPA_WH@Z:
	mov	edx, DWORD PTR [esp+8]
	lea	eax, DWORD PTR [edx+12]
	mov	ecx, DWORD PTR [edx-40]
	xor	ecx, eax
	call	@__security_check_cookie@4
	mov	eax, OFFSET __ehfuncinfo$?GetTextContent@CRTFContentControl@@UBEHPA_WH@Z
	jmp	___CxxFrameHandler3
text$x	ENDS
?GetTextContent@CRTFContentControl@@UBEHPA_WH@Z ENDP	; CRTFContentControl::GetTextContent
;	COMDAT xdata$x
xdata$x	SEGMENT
__unwindtable$?SetTextContent@CRTFContentControl@@UAE_NPB_W_N@Z DD 0ffffffffH
	DD	FLAT:__unwindfunclet$?SetTextContent@CRTFContentControl@@UAE_NPB_W_N@Z$0
	DD	00H
	DD	FLAT:__unwindfunclet$?SetTextContent@CRTFContentControl@@UAE_NPB_W_N@Z$1
	DD	01H
	DD	FLAT:__unwindfunclet$?SetTextContent@CRTFContentControl@@UAE_NPB_W_N@Z$2
__ehfuncinfo$?SetTextContent@CRTFContentControl@@UAE_NPB_W_N@Z DD 019930522H
	DD	03H
	DD	FLAT:__unwindtable$?SetTextContent@CRTFContentControl@@UAE_NPB_W_N@Z
	DD	2 DUP(00H)
	DD	2 DUP(00H)
	DD	00H
	DD	01H
; Function compile flags: /Odtp /RTCsu
xdata$x	ENDS
;	COMDAT ?SetTextContent@CRTFContentControl@@UAE_NPB_W_N@Z
_TEXT	SEGMENT
tv92 = -88						; size = 4
$T187369 = -81						; size = 1
_resc$ = -76						; size = 12
_af$ = -56						; size = 12
__ctlState$ = -36					; size = 16
_this$ = -16						; size = 4
__$EHRec$ = -12						; size = 12
_szContent$ = 8						; size = 4
_bResetSelection$ = 12					; size = 1
?SetTextContent@CRTFContentControl@@UAE_NPB_W_N@Z PROC	; CRTFContentControl::SetTextContent, COMDAT
; _this$ = ecx

; 273  : {

	push	ebp
	mov	ebp, esp
	push	-1
	push	__ehhandler$?SetTextContent@CRTFContentControl@@UAE_NPB_W_N@Z
	mov	eax, DWORD PTR fs:0
	push	eax
	sub	esp, 76					; 0000004cH
	push	edi
	push	ecx
	lea	edi, DWORD PTR [ebp-88]
	mov	ecx, 19					; 00000013H
	mov	eax, -858993460				; ccccccccH
	rep stosd
	pop	ecx
	mov	eax, DWORD PTR ___security_cookie
	xor	eax, ebp
	push	eax
	lea	eax, DWORD PTR __$EHRec$[ebp]
	mov	DWORD PTR fs:0, eax
	mov	DWORD PTR _this$[ebp], ecx

; 274  : 	AFX_MANAGE_STATE(AfxGetStaticModuleState());

	call	?_AfxInitManaged@@YAHXZ			; _AfxInitManaged
	call	?AfxGetStaticModuleState@@YGPAVAFX_MODULE_STATE@@XZ ; AfxGetStaticModuleState
	push	eax
	lea	ecx, DWORD PTR __ctlState$[ebp]
	call	??0AFX_MAINTAIN_STATE2@@QAE@PAVAFX_MODULE_STATE@@@Z ; AFX_MAINTAIN_STATE2::AFX_MAINTAIN_STATE2
	mov	DWORD PTR __$EHRec$[ebp+8], 0

; 275  : 	
; 276  : 	CAutoFlag af(m_bAllowNotify, TRUE);

	push	1
	mov	eax, DWORD PTR _this$[ebp]
	add	eax, 4
	push	eax
	lea	ecx, DWORD PTR _af$[ebp]
	call	??0CAutoFlag@@QAE@AAHH@Z		; CAutoFlag::CAutoFlag
	mov	BYTE PTR __$EHRec$[ebp+8], 1

; 277  : 	CReSaveCaret resc(bResetSelection ? NULL : m_rtf.GetSafeHwnd());

	movzx	ecx, BYTE PTR _bResetSelection$[ebp]
	test	ecx, ecx
	je	SHORT $LN4@SetTextCon
	mov	DWORD PTR tv92[ebp], 0
	jmp	SHORT $LN5@SetTextCon
$LN4@SetTextCon:
	mov	ecx, DWORD PTR _this$[ebp]
	sub	ecx, 980				; 000003d4H
	call	?GetSafeHwnd@CWnd@@QBEPAUHWND__@@XZ	; CWnd::GetSafeHwnd
	mov	DWORD PTR tv92[ebp], eax
$LN5@SetTextCon:
	mov	edx, DWORD PTR tv92[ebp]
	push	edx
	lea	ecx, DWORD PTR _resc$[ebp]
	call	??0CReSaveCaret@@QAE@PAUHWND__@@@Z	; CReSaveCaret::CReSaveCaret
	mov	BYTE PTR __$EHRec$[ebp+8], 2

; 278  : 
; 279  : 	m_rtf.SendMessage(WM_SETTEXT, 0, (LPARAM)szContent);

	mov	eax, DWORD PTR _szContent$[ebp]
	push	eax
	push	0
	push	12					; 0000000cH
	mov	ecx, DWORD PTR _this$[ebp]
	sub	ecx, 980				; 000003d4H
	call	?SendMessageW@CWnd@@QBEJIIJ@Z		; CWnd::SendMessageW

; 280  : 
; 281  : 	// reset caret
; 282  : 	if (bResetSelection)

	movzx	ecx, BYTE PTR _bResetSelection$[ebp]
	test	ecx, ecx
	je	SHORT $LN1@SetTextCon

; 283  : 		m_rtf.SetSel(0, 0);

	push	0
	push	0
	mov	ecx, DWORD PTR _this$[ebp]
	sub	ecx, 980				; 000003d4H
	call	?SetSel@CRichEditCtrl@@QAEXJJ@Z		; CRichEditCtrl::SetSel
$LN1@SetTextCon:

; 284  : 
; 285  : 	return true; 

	mov	BYTE PTR $T187369[ebp], 1
	mov	BYTE PTR __$EHRec$[ebp+8], 1
	lea	ecx, DWORD PTR _resc$[ebp]
	call	??1CReSaveCaret@@UAE@XZ			; CReSaveCaret::~CReSaveCaret
	mov	BYTE PTR __$EHRec$[ebp+8], 0
	lea	ecx, DWORD PTR _af$[ebp]
	call	??1CAutoFlag@@UAE@XZ			; CAutoFlag::~CAutoFlag
	mov	DWORD PTR __$EHRec$[ebp+8], -1
	lea	ecx, DWORD PTR __ctlState$[ebp]
	call	??1AFX_MAINTAIN_STATE2@@QAE@XZ		; AFX_MAINTAIN_STATE2::~AFX_MAINTAIN_STATE2
	mov	al, BYTE PTR $T187369[ebp]

; 286  : }

	push	edx
	mov	ecx, ebp
	push	eax
	lea	edx, DWORD PTR $LN14@SetTextCon
	call	@_RTC_CheckStackVars@8
	pop	eax
	pop	edx
	mov	ecx, DWORD PTR __$EHRec$[ebp]
	mov	DWORD PTR fs:0, ecx
	pop	ecx
	pop	edi
	add	esp, 88					; 00000058H
	cmp	ebp, esp
	call	__RTC_CheckEsp
	mov	esp, ebp
	pop	ebp
	ret	8
	npad	2
$LN14@SetTextCon:
	DD	3
	DD	$LN13@SetTextCon
$LN13@SetTextCon:
	DD	-36					; ffffffdcH
	DD	16					; 00000010H
	DD	$LN9@SetTextCon
	DD	-56					; ffffffc8H
	DD	12					; 0000000cH
	DD	$LN10@SetTextCon
	DD	-76					; ffffffb4H
	DD	12					; 0000000cH
	DD	$LN11@SetTextCon
$LN11@SetTextCon:
	DB	114					; 00000072H
	DB	101					; 00000065H
	DB	115					; 00000073H
	DB	99					; 00000063H
	DB	0
$LN10@SetTextCon:
	DB	97					; 00000061H
	DB	102					; 00000066H
	DB	0
$LN9@SetTextCon:
	DB	95					; 0000005fH
	DB	99					; 00000063H
	DB	116					; 00000074H
	DB	108					; 0000006cH
	DB	83					; 00000053H
	DB	116					; 00000074H
	DB	97					; 00000061H
	DB	116					; 00000074H
	DB	101					; 00000065H
	DB	0
_TEXT	ENDS
;	COMDAT text$x
text$x	SEGMENT
__unwindfunclet$?SetTextContent@CRTFContentControl@@UAE_NPB_W_N@Z$0:
	lea	ecx, DWORD PTR __ctlState$[ebp]
	jmp	??1AFX_MAINTAIN_STATE2@@QAE@XZ		; AFX_MAINTAIN_STATE2::~AFX_MAINTAIN_STATE2
__unwindfunclet$?SetTextContent@CRTFContentControl@@UAE_NPB_W_N@Z$1:
	lea	ecx, DWORD PTR _af$[ebp]
	jmp	??1CAutoFlag@@UAE@XZ			; CAutoFlag::~CAutoFlag
__unwindfunclet$?SetTextContent@CRTFContentControl@@UAE_NPB_W_N@Z$2:
	lea	ecx, DWORD PTR _resc$[ebp]
	jmp	??1CReSaveCaret@@UAE@XZ			; CReSaveCaret::~CReSaveCaret
__ehhandler$?SetTextContent@CRTFContentControl@@UAE_NPB_W_N@Z:
	mov	edx, DWORD PTR [esp+8]
	lea	eax, DWORD PTR [edx+12]
	mov	ecx, DWORD PTR [edx-84]
	xor	ecx, eax
	call	@__security_check_cookie@4
	mov	eax, OFFSET __ehfuncinfo$?SetTextContent@CRTFContentControl@@UAE_NPB_W_N@Z
	jmp	___CxxFrameHandler3
text$x	ENDS
?SetTextContent@CRTFContentControl@@UAE_NPB_W_N@Z ENDP	; CRTFContentControl::SetTextContent
EXTRN	?Undo@CRichEditBaseCtrl@@QAEHXZ:PROC		; CRichEditBaseCtrl::Undo
; Function compile flags: /Odtp /RTCsu
;	COMDAT ?Undo@CRTFContentControl@@UAE_NXZ
_TEXT	SEGMENT
_this$ = -4						; size = 4
?Undo@CRTFContentControl@@UAE_NXZ PROC			; CRTFContentControl::Undo, COMDAT
; _this$ = ecx

; 289  : { 

	push	ebp
	mov	ebp, esp
	push	ecx
	mov	DWORD PTR [ebp-4], -858993460		; ccccccccH
	mov	DWORD PTR _this$[ebp], ecx

; 290  : 	return (m_rtf.Undo() != FALSE); 

	mov	ecx, DWORD PTR _this$[ebp]
	sub	ecx, 980				; 000003d4H
	call	?Undo@CRichEditBaseCtrl@@QAEHXZ		; CRichEditBaseCtrl::Undo
	neg	eax
	sbb	eax, eax
	neg	eax

; 291  : }

	add	esp, 4
	cmp	ebp, esp
	call	__RTC_CheckEsp
	mov	esp, ebp
	pop	ebp
	ret	0
?Undo@CRTFContentControl@@UAE_NXZ ENDP			; CRTFContentControl::Undo
_TEXT	ENDS
EXTRN	?Redo@CRichEditBaseCtrl@@QAEHXZ:PROC		; CRichEditBaseCtrl::Redo
; Function compile flags: /Odtp /RTCsu
;	COMDAT ?Redo@CRTFContentControl@@UAE_NXZ
_TEXT	SEGMENT
_this$ = -4						; size = 4
?Redo@CRTFContentControl@@UAE_NXZ PROC			; CRTFContentControl::Redo, COMDAT
; _this$ = ecx

; 294  : { 

	push	ebp
	mov	ebp, esp
	push	ecx
	mov	DWORD PTR [ebp-4], -858993460		; ccccccccH
	mov	DWORD PTR _this$[ebp], ecx

; 295  : 	return (m_rtf.Redo() != FALSE); 

	mov	ecx, DWORD PTR _this$[ebp]
	sub	ecx, 980				; 000003d4H
	call	?Redo@CRichEditBaseCtrl@@QAEHXZ		; CRichEditBaseCtrl::Redo
	neg	eax
	sbb	eax, eax
	neg	eax

; 296  : }

	add	esp, 4
	cmp	ebp, esp
	call	__RTC_CheckEsp
	mov	esp, ebp
	pop	ebp
	ret	0
?Redo@CRTFContentControl@@UAE_NXZ ENDP			; CRTFContentControl::Redo
_TEXT	ENDS
PUBLIC	?SetBackgroundColor@CRRECRuler@@QAEXK@Z		; CRRECRuler::SetBackgroundColor
EXTRN	?SetBackgroundColors@CEnToolBar@@QAEXKKHH@Z:PROC ; CEnToolBar::SetBackgroundColors
EXTRN	?Create@CRRECToolBar@@QAEHPAVCWnd@@PB_WK@Z:PROC	; CRRECToolBar::Create
EXTRN	?FileExists@FileMisc@@YAHPB_W@Z:PROC		; FileMisc::FileExists
;	COMDAT xdata$x
xdata$x	SEGMENT
__unwindtable$?SetUITheme@CRTFContentControl@@UAEXPBUUITHEME@@@Z DD 0ffffffffH
	DD	FLAT:__unwindfunclet$?SetUITheme@CRTFContentControl@@UAEXPBUUITHEME@@@Z$0
__ehfuncinfo$?SetUITheme@CRTFContentControl@@UAEXPBUUITHEME@@@Z DD 019930522H
	DD	01H
	DD	FLAT:__unwindtable$?SetUITheme@CRTFContentControl@@UAEXPBUUITHEME@@@Z
	DD	2 DUP(00H)
	DD	2 DUP(00H)
	DD	00H
	DD	01H
; Function compile flags: /Odtp /RTCsu
xdata$x	ENDS
;	COMDAT ?SetUITheme@CRTFContentControl@@UAEXPBUUITHEME@@@Z
_TEXT	SEGMENT
__ctlState$ = -36					; size = 16
_this$ = -16						; size = 4
__$EHRec$ = -12						; size = 12
_pTheme$ = 8						; size = 4
?SetUITheme@CRTFContentControl@@UAEXPBUUITHEME@@@Z PROC	; CRTFContentControl::SetUITheme, COMDAT
; _this$ = ecx

; 299  : {

	push	ebp
	mov	ebp, esp
	push	-1
	push	__ehhandler$?SetUITheme@CRTFContentControl@@UAEXPBUUITHEME@@@Z
	mov	eax, DWORD PTR fs:0
	push	eax
	sub	esp, 28					; 0000001cH
	push	esi
	mov	eax, -858993460				; ccccccccH
	mov	DWORD PTR [ebp-40], eax
	mov	DWORD PTR [ebp-36], eax
	mov	DWORD PTR [ebp-32], eax
	mov	DWORD PTR [ebp-28], eax
	mov	DWORD PTR [ebp-24], eax
	mov	DWORD PTR [ebp-20], eax
	mov	DWORD PTR [ebp-16], eax
	mov	eax, DWORD PTR ___security_cookie
	xor	eax, ebp
	push	eax
	lea	eax, DWORD PTR __$EHRec$[ebp]
	mov	DWORD PTR fs:0, eax
	mov	DWORD PTR _this$[ebp], ecx

; 300  : 	AFX_MANAGE_STATE(AfxGetStaticModuleState());

	call	?_AfxInitManaged@@YAHXZ			; _AfxInitManaged
	call	?AfxGetStaticModuleState@@YGPAVAFX_MODULE_STATE@@XZ ; AfxGetStaticModuleState
	push	eax
	lea	ecx, DWORD PTR __ctlState$[ebp]
	call	??0AFX_MAINTAIN_STATE2@@QAE@PAVAFX_MODULE_STATE@@@Z ; AFX_MAINTAIN_STATE2::AFX_MAINTAIN_STATE2
	mov	DWORD PTR __$EHRec$[ebp+8], 0

; 301  : 	
; 302  :  	if (FileMisc::FileExists(pTheme->szToolbarImage))

	mov	eax, DWORD PTR _pTheme$[ebp]
	add	eax, 48					; 00000030H
	push	eax
	call	?FileExists@FileMisc@@YAHPB_W@Z		; FileMisc::FileExists
	add	esp, 4
	test	eax, eax
	je	SHORT $LN1@SetUITheme

; 303  :  	{
; 304  :  		m_toolbar.DestroyWindow();

	mov	ecx, DWORD PTR _this$[ebp]
	sub	ecx, 668				; 0000029cH
	mov	edx, DWORD PTR _this$[ebp]
	mov	eax, DWORD PTR [edx-668]
	mov	esi, esp
	mov	edx, DWORD PTR [eax+104]
	call	edx
	cmp	esi, esp
	call	__RTC_CheckEsp

; 305  :  		m_toolbar.Create(this, pTheme->szToolbarImage, pTheme->crToolbarTransparency);

	mov	eax, DWORD PTR _pTheme$[ebp]
	mov	ecx, DWORD PTR [eax+568]
	push	ecx
	mov	edx, DWORD PTR _pTheme$[ebp]
	add	edx, 48					; 00000030H
	push	edx
	mov	eax, DWORD PTR _this$[ebp]
	sub	eax, 1284				; 00000504H
	push	eax
	mov	ecx, DWORD PTR _this$[ebp]
	sub	ecx, 668				; 0000029cH
	call	?Create@CRRECToolBar@@QAEHPAVCWnd@@PB_WK@Z ; CRRECToolBar::Create
$LN1@SetUITheme:

; 306  :  	}
; 307  : 
; 308  : 	m_toolbar.SetBackgroundColors(pTheme->crToolbarLight, pTheme->crToolbarDark, pTheme->nRenderStyle != UIRS_GLASS, pTheme->nRenderStyle != UIRS_GRADIENT);

	mov	ecx, DWORD PTR _pTheme$[ebp]
	xor	edx, edx
	cmp	DWORD PTR [ecx], 0
	setne	dl
	push	edx
	mov	eax, DWORD PTR _pTheme$[ebp]
	xor	ecx, ecx
	cmp	DWORD PTR [eax], 1
	setne	cl
	push	ecx
	mov	edx, DWORD PTR _pTheme$[ebp]
	mov	eax, DWORD PTR [edx+28]
	push	eax
	mov	ecx, DWORD PTR _pTheme$[ebp]
	mov	edx, DWORD PTR [ecx+32]
	push	edx
	mov	ecx, DWORD PTR _this$[ebp]
	sub	ecx, 668				; 0000029cH
	call	?SetBackgroundColors@CEnToolBar@@QAEXKKHH@Z ; CEnToolBar::SetBackgroundColors

; 309  : 	m_ruler.SetBackgroundColor(pTheme->crToolbarLight);

	mov	eax, DWORD PTR _pTheme$[ebp]
	mov	ecx, DWORD PTR [eax+32]
	push	ecx
	mov	ecx, DWORD PTR _this$[ebp]
	sub	ecx, 152				; 00000098H
	call	?SetBackgroundColor@CRRECRuler@@QAEXK@Z	; CRRECRuler::SetBackgroundColor

; 310  : }

	mov	DWORD PTR __$EHRec$[ebp+8], -1
	lea	ecx, DWORD PTR __ctlState$[ebp]
	call	??1AFX_MAINTAIN_STATE2@@QAE@XZ		; AFX_MAINTAIN_STATE2::~AFX_MAINTAIN_STATE2
	push	edx
	mov	ecx, ebp
	push	eax
	lea	edx, DWORD PTR $LN8@SetUITheme
	call	@_RTC_CheckStackVars@8
	pop	eax
	pop	edx
	mov	ecx, DWORD PTR __$EHRec$[ebp]
	mov	DWORD PTR fs:0, ecx
	pop	ecx
	pop	esi
	add	esp, 40					; 00000028H
	cmp	ebp, esp
	call	__RTC_CheckEsp
	mov	esp, ebp
	pop	ebp
	ret	4
	npad	3
$LN8@SetUITheme:
	DD	1
	DD	$LN7@SetUITheme
$LN7@SetUITheme:
	DD	-36					; ffffffdcH
	DD	16					; 00000010H
	DD	$LN5@SetUITheme
$LN5@SetUITheme:
	DB	95					; 0000005fH
	DB	99					; 00000063H
	DB	116					; 00000074H
	DB	108					; 0000006cH
	DB	83					; 00000053H
	DB	116					; 00000074H
	DB	97					; 00000061H
	DB	116					; 00000074H
	DB	101					; 00000065H
	DB	0
_TEXT	ENDS
;	COMDAT text$x
text$x	SEGMENT
__unwindfunclet$?SetUITheme@CRTFContentControl@@UAEXPBUUITHEME@@@Z$0:
	lea	ecx, DWORD PTR __ctlState$[ebp]
	jmp	??1AFX_MAINTAIN_STATE2@@QAE@XZ		; AFX_MAINTAIN_STATE2::~AFX_MAINTAIN_STATE2
__ehhandler$?SetUITheme@CRTFContentControl@@UAEXPBUUITHEME@@@Z:
	mov	edx, DWORD PTR [esp+8]
	lea	eax, DWORD PTR [edx+12]
	mov	ecx, DWORD PTR [edx-36]
	xor	ecx, eax
	call	@__security_check_cookie@4
	mov	eax, OFFSET __ehfuncinfo$?SetUITheme@CRTFContentControl@@UAEXPBUUITHEME@@@Z
	jmp	___CxxFrameHandler3
text$x	ENDS
?SetUITheme@CRTFContentControl@@UAEXPBUUITHEME@@@Z ENDP	; CRTFContentControl::SetUITheme
EXTRN	?Invalidate@CWnd@@QAEXH@Z:PROC			; CWnd::Invalidate
; Function compile flags: /Odtp /RTCsu
; File d:\_code\rtfcontentctrl\rrecruler.h
;	COMDAT ?SetBackgroundColor@CRRECRuler@@QAEXK@Z
_TEXT	SEGMENT
_this$ = -4						; size = 4
_color$ = 8						; size = 4
?SetBackgroundColor@CRRECRuler@@QAEXK@Z PROC		; CRRECRuler::SetBackgroundColor, COMDAT
; _this$ = ecx

; 18   : 	void    SetBackgroundColor(COLORREF color) { m_crBack = color; Invalidate(); }

	push	ebp
	mov	ebp, esp
	push	ecx
	mov	DWORD PTR [ebp-4], -858993460		; ccccccccH
	mov	DWORD PTR _this$[ebp], ecx
	mov	eax, DWORD PTR _this$[ebp]
	mov	ecx, DWORD PTR _color$[ebp]
	mov	DWORD PTR [eax+148], ecx
	push	1
	mov	ecx, DWORD PTR _this$[ebp]
	call	?Invalidate@CWnd@@QAEXH@Z		; CWnd::Invalidate
	add	esp, 4
	cmp	ebp, esp
	call	__RTC_CheckEsp
	mov	esp, ebp
	pop	ebp
	ret	4
?SetBackgroundColor@CRRECRuler@@QAEXK@Z ENDP		; CRRECRuler::SetBackgroundColor
_TEXT	ENDS
;	COMDAT xdata$x
; File d:\_code\rtfcontentctrl\rtfcontentcontrol.cpp
xdata$x	SEGMENT
__unwindtable$?GetHwnd@CRTFContentControl@@UBEPAUHWND__@@XZ DD 0ffffffffH
	DD	FLAT:__unwindfunclet$?GetHwnd@CRTFContentControl@@UBEPAUHWND__@@XZ$0
__ehfuncinfo$?GetHwnd@CRTFContentControl@@UBEPAUHWND__@@XZ DD 019930522H
	DD	01H
	DD	FLAT:__unwindtable$?GetHwnd@CRTFContentControl@@UBEPAUHWND__@@XZ
	DD	2 DUP(00H)
	DD	2 DUP(00H)
	DD	00H
	DD	01H
; Function compile flags: /Odtp /RTCsu
xdata$x	ENDS
;	COMDAT ?GetHwnd@CRTFContentControl@@UBEPAUHWND__@@XZ
_TEXT	SEGMENT
$T187404 = -44						; size = 4
__ctlState$ = -36					; size = 16
_this$ = -16						; size = 4
__$EHRec$ = -12						; size = 12
?GetHwnd@CRTFContentControl@@UBEPAUHWND__@@XZ PROC	; CRTFContentControl::GetHwnd, COMDAT
; _this$ = ecx

; 313  : {

	push	ebp
	mov	ebp, esp
	push	-1
	push	__ehhandler$?GetHwnd@CRTFContentControl@@UBEPAUHWND__@@XZ
	mov	eax, DWORD PTR fs:0
	push	eax
	sub	esp, 32					; 00000020H
	mov	eax, -858993460				; ccccccccH
	mov	DWORD PTR [ebp-44], eax
	mov	DWORD PTR [ebp-40], eax
	mov	DWORD PTR [ebp-36], eax
	mov	DWORD PTR [ebp-32], eax
	mov	DWORD PTR [ebp-28], eax
	mov	DWORD PTR [ebp-24], eax
	mov	DWORD PTR [ebp-20], eax
	mov	DWORD PTR [ebp-16], eax
	mov	eax, DWORD PTR ___security_cookie
	xor	eax, ebp
	push	eax
	lea	eax, DWORD PTR __$EHRec$[ebp]
	mov	DWORD PTR fs:0, eax
	mov	DWORD PTR _this$[ebp], ecx

; 314  : 	AFX_MANAGE_STATE(AfxGetStaticModuleState());

	call	?_AfxInitManaged@@YAHXZ			; _AfxInitManaged
	call	?AfxGetStaticModuleState@@YGPAVAFX_MODULE_STATE@@XZ ; AfxGetStaticModuleState
	push	eax
	lea	ecx, DWORD PTR __ctlState$[ebp]
	call	??0AFX_MAINTAIN_STATE2@@QAE@PAVAFX_MODULE_STATE@@@Z ; AFX_MAINTAIN_STATE2::AFX_MAINTAIN_STATE2
	mov	DWORD PTR __$EHRec$[ebp+8], 0

; 315  : 	
; 316  : 	return GetSafeHwnd();

	mov	ecx, DWORD PTR _this$[ebp]
	sub	ecx, 1284				; 00000504H
	call	?GetSafeHwnd@CWnd@@QBEPAUHWND__@@XZ	; CWnd::GetSafeHwnd
	mov	DWORD PTR $T187404[ebp], eax
	mov	DWORD PTR __$EHRec$[ebp+8], -1
	lea	ecx, DWORD PTR __ctlState$[ebp]
	call	??1AFX_MAINTAIN_STATE2@@QAE@XZ		; AFX_MAINTAIN_STATE2::~AFX_MAINTAIN_STATE2
	mov	eax, DWORD PTR $T187404[ebp]

; 317  : }

	push	edx
	mov	ecx, ebp
	push	eax
	lea	edx, DWORD PTR $LN7@GetHwnd
	call	@_RTC_CheckStackVars@8
	pop	eax
	pop	edx
	mov	ecx, DWORD PTR __$EHRec$[ebp]
	mov	DWORD PTR fs:0, ecx
	pop	ecx
	add	esp, 44					; 0000002cH
	cmp	ebp, esp
	call	__RTC_CheckEsp
	mov	esp, ebp
	pop	ebp
	ret	0
$LN7@GetHwnd:
	DD	1
	DD	$LN6@GetHwnd
$LN6@GetHwnd:
	DD	-36					; ffffffdcH
	DD	16					; 00000010H
	DD	$LN4@GetHwnd
$LN4@GetHwnd:
	DB	95					; 0000005fH
	DB	99					; 00000063H
	DB	116					; 00000074H
	DB	108					; 0000006cH
	DB	83					; 00000053H
	DB	116					; 00000074H
	DB	97					; 00000061H
	DB	116					; 00000074H
	DB	101					; 00000065H
	DB	0
_TEXT	ENDS
;	COMDAT text$x
text$x	SEGMENT
__unwindfunclet$?GetHwnd@CRTFContentControl@@UBEPAUHWND__@@XZ$0:
	lea	ecx, DWORD PTR __ctlState$[ebp]
	jmp	??1AFX_MAINTAIN_STATE2@@QAE@XZ		; AFX_MAINTAIN_STATE2::~AFX_MAINTAIN_STATE2
__ehhandler$?GetHwnd@CRTFContentControl@@UBEPAUHWND__@@XZ:
	mov	edx, DWORD PTR [esp+8]
	lea	eax, DWORD PTR [edx+12]
	mov	ecx, DWORD PTR [edx-36]
	xor	ecx, eax
	call	@__security_check_cookie@4
	mov	eax, OFFSET __ehfuncinfo$?GetHwnd@CRTFContentControl@@UBEPAUHWND__@@XZ
	jmp	___CxxFrameHandler3
text$x	ENDS
?GetHwnd@CRTFContentControl@@UBEPAUHWND__@@XZ ENDP	; CRTFContentControl::GetHwnd
EXTRN	?SetReadOnly@CRulerRichEditCtrl@@QAEXH@Z:PROC	; CRulerRichEditCtrl::SetReadOnly
;	COMDAT xdata$x
xdata$x	SEGMENT
__unwindtable$?SetReadOnly@CRTFContentControl@@UAEX_N@Z DD 0ffffffffH
	DD	FLAT:__unwindfunclet$?SetReadOnly@CRTFContentControl@@UAEX_N@Z$0
__ehfuncinfo$?SetReadOnly@CRTFContentControl@@UAEX_N@Z DD 019930522H
	DD	01H
	DD	FLAT:__unwindtable$?SetReadOnly@CRTFContentControl@@UAEX_N@Z
	DD	2 DUP(00H)
	DD	2 DUP(00H)
	DD	00H
	DD	01H
; Function compile flags: /Odtp /RTCsu
xdata$x	ENDS
;	COMDAT ?SetReadOnly@CRTFContentControl@@UAEX_N@Z
_TEXT	SEGMENT
__ctlState$ = -36					; size = 16
_this$ = -16						; size = 4
__$EHRec$ = -12						; size = 12
_bReadOnly$ = 8						; size = 1
?SetReadOnly@CRTFContentControl@@UAEX_N@Z PROC		; CRTFContentControl::SetReadOnly, COMDAT
; _this$ = ecx

; 320  : {

	push	ebp
	mov	ebp, esp
	push	-1
	push	__ehhandler$?SetReadOnly@CRTFContentControl@@UAEX_N@Z
	mov	eax, DWORD PTR fs:0
	push	eax
	sub	esp, 28					; 0000001cH
	mov	eax, -858993460				; ccccccccH
	mov	DWORD PTR [ebp-40], eax
	mov	DWORD PTR [ebp-36], eax
	mov	DWORD PTR [ebp-32], eax
	mov	DWORD PTR [ebp-28], eax
	mov	DWORD PTR [ebp-24], eax
	mov	DWORD PTR [ebp-20], eax
	mov	DWORD PTR [ebp-16], eax
	mov	eax, DWORD PTR ___security_cookie
	xor	eax, ebp
	push	eax
	lea	eax, DWORD PTR __$EHRec$[ebp]
	mov	DWORD PTR fs:0, eax
	mov	DWORD PTR _this$[ebp], ecx

; 321  : 	AFX_MANAGE_STATE(AfxGetStaticModuleState());

	call	?_AfxInitManaged@@YAHXZ			; _AfxInitManaged
	call	?AfxGetStaticModuleState@@YGPAVAFX_MODULE_STATE@@XZ ; AfxGetStaticModuleState
	push	eax
	lea	ecx, DWORD PTR __ctlState$[ebp]
	call	??0AFX_MAINTAIN_STATE2@@QAE@PAVAFX_MODULE_STATE@@@Z ; AFX_MAINTAIN_STATE2::AFX_MAINTAIN_STATE2
	mov	DWORD PTR __$EHRec$[ebp+8], 0

; 322  : 
; 323  : 	CRulerRichEditCtrl::SetReadOnly((BOOL)bReadOnly);

	movzx	eax, BYTE PTR _bReadOnly$[ebp]
	push	eax
	mov	ecx, DWORD PTR _this$[ebp]
	sub	ecx, 1284				; 00000504H
	call	?SetReadOnly@CRulerRichEditCtrl@@QAEXH@Z ; CRulerRichEditCtrl::SetReadOnly

; 324  : }

	mov	DWORD PTR __$EHRec$[ebp+8], -1
	lea	ecx, DWORD PTR __ctlState$[ebp]
	call	??1AFX_MAINTAIN_STATE2@@QAE@XZ		; AFX_MAINTAIN_STATE2::~AFX_MAINTAIN_STATE2
	push	edx
	mov	ecx, ebp
	push	eax
	lea	edx, DWORD PTR $LN7@SetReadOnl
	call	@_RTC_CheckStackVars@8
	pop	eax
	pop	edx
	mov	ecx, DWORD PTR __$EHRec$[ebp]
	mov	DWORD PTR fs:0, ecx
	pop	ecx
	add	esp, 40					; 00000028H
	cmp	ebp, esp
	call	__RTC_CheckEsp
	mov	esp, ebp
	pop	ebp
	ret	4
	npad	2
$LN7@SetReadOnl:
	DD	1
	DD	$LN6@SetReadOnl
$LN6@SetReadOnl:
	DD	-36					; ffffffdcH
	DD	16					; 00000010H
	DD	$LN4@SetReadOnl
$LN4@SetReadOnl:
	DB	95					; 0000005fH
	DB	99					; 00000063H
	DB	116					; 00000074H
	DB	108					; 0000006cH
	DB	83					; 00000053H
	DB	116					; 00000074H
	DB	97					; 00000061H
	DB	116					; 00000074H
	DB	101					; 00000065H
	DB	0
_TEXT	ENDS
;	COMDAT text$x
text$x	SEGMENT
__unwindfunclet$?SetReadOnly@CRTFContentControl@@UAEX_N@Z$0:
	lea	ecx, DWORD PTR __ctlState$[ebp]
	jmp	??1AFX_MAINTAIN_STATE2@@QAE@XZ		; AFX_MAINTAIN_STATE2::~AFX_MAINTAIN_STATE2
__ehhandler$?SetReadOnly@CRTFContentControl@@UAEX_N@Z:
	mov	edx, DWORD PTR [esp+8]
	lea	eax, DWORD PTR [edx+12]
	mov	ecx, DWORD PTR [edx-32]
	xor	ecx, eax
	call	@__security_check_cookie@4
	mov	eax, OFFSET __ehfuncinfo$?SetReadOnly@CRTFContentControl@@UAEX_N@Z
	jmp	___CxxFrameHandler3
text$x	ENDS
?SetReadOnly@CRTFContentControl@@UAEX_N@Z ENDP		; CRTFContentControl::SetReadOnly
;	COMDAT xdata$x
xdata$x	SEGMENT
__unwindtable$?Release@CRTFContentControl@@UAEXXZ DD 0ffffffffH
	DD	FLAT:__unwindfunclet$?Release@CRTFContentControl@@UAEXXZ$0
__ehfuncinfo$?Release@CRTFContentControl@@UAEXXZ DD 019930522H
	DD	01H
	DD	FLAT:__unwindtable$?Release@CRTFContentControl@@UAEXXZ
	DD	2 DUP(00H)
	DD	2 DUP(00H)
	DD	00H
	DD	01H
; Function compile flags: /Odtp /RTCsu
xdata$x	ENDS
;	COMDAT ?Release@CRTFContentControl@@UAEXXZ
_TEXT	SEGMENT
tv89 = -52						; size = 4
$T187430 = -48						; size = 4
$T187429 = -44						; size = 4
__ctlState$ = -36					; size = 16
_this$ = -16						; size = 4
__$EHRec$ = -12						; size = 12
?Release@CRTFContentControl@@UAEXXZ PROC		; CRTFContentControl::Release, COMDAT
; _this$ = ecx

; 327  : {

	push	ebp
	mov	ebp, esp
	push	-1
	push	__ehhandler$?Release@CRTFContentControl@@UAEXXZ
	mov	eax, DWORD PTR fs:0
	push	eax
	sub	esp, 40					; 00000028H
	push	esi
	push	edi
	push	ecx
	lea	edi, DWORD PTR [ebp-52]
	mov	ecx, 10					; 0000000aH
	mov	eax, -858993460				; ccccccccH
	rep stosd
	pop	ecx
	mov	eax, DWORD PTR ___security_cookie
	xor	eax, ebp
	push	eax
	lea	eax, DWORD PTR __$EHRec$[ebp]
	mov	DWORD PTR fs:0, eax
	mov	DWORD PTR _this$[ebp], ecx

; 328  : 	AFX_MANAGE_STATE(AfxGetStaticModuleState());

	call	?_AfxInitManaged@@YAHXZ			; _AfxInitManaged
	call	?AfxGetStaticModuleState@@YGPAVAFX_MODULE_STATE@@XZ ; AfxGetStaticModuleState
	push	eax
	lea	ecx, DWORD PTR __ctlState$[ebp]
	call	??0AFX_MAINTAIN_STATE2@@QAE@PAVAFX_MODULE_STATE@@@Z ; AFX_MAINTAIN_STATE2::AFX_MAINTAIN_STATE2
	mov	DWORD PTR __$EHRec$[ebp+8], 0

; 329  : 
; 330  : 	DestroyWindow();

	mov	ecx, DWORD PTR _this$[ebp]
	sub	ecx, 1284				; 00000504H
	mov	eax, DWORD PTR _this$[ebp]
	mov	edx, DWORD PTR [eax-1284]
	mov	esi, esp
	mov	eax, DWORD PTR [edx+104]
	call	eax
	cmp	esi, esp
	call	__RTC_CheckEsp

; 331  : 	delete this;

	mov	ecx, DWORD PTR _this$[ebp]
	sub	ecx, 1284				; 00000504H
	mov	DWORD PTR $T187430[ebp], ecx
	mov	edx, DWORD PTR $T187430[ebp]
	mov	DWORD PTR $T187429[ebp], edx
	cmp	DWORD PTR $T187429[ebp], 0
	je	SHORT $LN3@Release
	mov	esi, esp
	push	1
	mov	eax, DWORD PTR $T187429[ebp]
	mov	edx, DWORD PTR [eax]
	mov	ecx, DWORD PTR $T187429[ebp]
	mov	eax, DWORD PTR [edx+4]
	call	eax
	cmp	esi, esp
	call	__RTC_CheckEsp
	mov	DWORD PTR tv89[ebp], eax
	jmp	SHORT $LN4@Release
$LN3@Release:
	mov	DWORD PTR tv89[ebp], 0
$LN4@Release:

; 332  : }

	mov	DWORD PTR __$EHRec$[ebp+8], -1
	lea	ecx, DWORD PTR __ctlState$[ebp]
	call	??1AFX_MAINTAIN_STATE2@@QAE@XZ		; AFX_MAINTAIN_STATE2::~AFX_MAINTAIN_STATE2
	push	edx
	mov	ecx, ebp
	push	eax
	lea	edx, DWORD PTR $LN9@Release
	call	@_RTC_CheckStackVars@8
	pop	eax
	pop	edx
	mov	ecx, DWORD PTR __$EHRec$[ebp]
	mov	DWORD PTR fs:0, ecx
	pop	ecx
	pop	edi
	pop	esi
	add	esp, 52					; 00000034H
	cmp	ebp, esp
	call	__RTC_CheckEsp
	mov	esp, ebp
	pop	ebp
	ret	0
$LN9@Release:
	DD	1
	DD	$LN8@Release
$LN8@Release:
	DD	-36					; ffffffdcH
	DD	16					; 00000010H
	DD	$LN6@Release
$LN6@Release:
	DB	95					; 0000005fH
	DB	99					; 00000063H
	DB	116					; 00000074H
	DB	108					; 0000006cH
	DB	83					; 00000053H
	DB	116					; 00000074H
	DB	97					; 00000061H
	DB	116					; 00000074H
	DB	101					; 00000065H
	DB	0
_TEXT	ENDS
;	COMDAT text$x
text$x	SEGMENT
__unwindfunclet$?Release@CRTFContentControl@@UAEXXZ$0:
	lea	ecx, DWORD PTR __ctlState$[ebp]
	jmp	??1AFX_MAINTAIN_STATE2@@QAE@XZ		; AFX_MAINTAIN_STATE2::~AFX_MAINTAIN_STATE2
__ehhandler$?Release@CRTFContentControl@@UAEXXZ:
	mov	edx, DWORD PTR [esp+8]
	lea	eax, DWORD PTR [edx+12]
	mov	ecx, DWORD PTR [edx-52]
	xor	ecx, eax
	call	@__security_check_cookie@4
	mov	eax, OFFSET __ehfuncinfo$?Release@CRTFContentControl@@UAEXXZ
	jmp	___CxxFrameHandler3
text$x	ENDS
?Release@CRTFContentControl@@UAEXXZ ENDP		; CRTFContentControl::Release
PUBLIC	?EnableMenuItem@CRTFContentControl@@KAXPAVCMenu@@IH@Z ; CRTFContentControl::EnableMenuItem
EXTRN	?EnableMenuItem@CMenu@@QAEIII@Z:PROC		; CMenu::EnableMenuItem
; Function compile flags: /Odtp /RTCsu
;	COMDAT ?EnableMenuItem@CRTFContentControl@@KAXPAVCMenu@@IH@Z
_TEXT	SEGMENT
_pMenu$ = 8						; size = 4
_nCmdID$ = 12						; size = 4
_bEnable$ = 16						; size = 4
?EnableMenuItem@CRTFContentControl@@KAXPAVCMenu@@IH@Z PROC ; CRTFContentControl::EnableMenuItem, COMDAT

; 335  : {

	push	ebp
	mov	ebp, esp

; 336  : 	pMenu->EnableMenuItem(nCmdID, MF_BYCOMMAND | (bEnable ? MF_ENABLED : MF_GRAYED));

	xor	eax, eax
	cmp	DWORD PTR _bEnable$[ebp], 0
	sete	al
	push	eax
	mov	ecx, DWORD PTR _nCmdID$[ebp]
	push	ecx
	mov	ecx, DWORD PTR _pMenu$[ebp]
	call	?EnableMenuItem@CMenu@@QAEIII@Z		; CMenu::EnableMenuItem

; 337  : }

	cmp	ebp, esp
	call	__RTC_CheckEsp
	pop	ebp
	ret	0
?EnableMenuItem@CRTFContentControl@@KAXPAVCMenu@@IH@Z ENDP ; CRTFContentControl::EnableMenuItem
_TEXT	ENDS
PUBLIC	?CheckMenuItem@CRTFContentControl@@KAXPAVCMenu@@IH@Z ; CRTFContentControl::CheckMenuItem
EXTRN	?CheckMenuItem@CMenu@@QAEIII@Z:PROC		; CMenu::CheckMenuItem
; Function compile flags: /Odtp /RTCsu
;	COMDAT ?CheckMenuItem@CRTFContentControl@@KAXPAVCMenu@@IH@Z
_TEXT	SEGMENT
_pMenu$ = 8						; size = 4
_nCmdID$ = 12						; size = 4
_bCheck$ = 16						; size = 4
?CheckMenuItem@CRTFContentControl@@KAXPAVCMenu@@IH@Z PROC ; CRTFContentControl::CheckMenuItem, COMDAT

; 340  : {

	push	ebp
	mov	ebp, esp

; 341  : 	pMenu->CheckMenuItem(nCmdID, MF_BYCOMMAND | (bCheck ? MF_CHECKED  : MF_UNCHECKED));

	mov	eax, DWORD PTR _bCheck$[ebp]
	neg	eax
	sbb	eax, eax
	and	eax, 8
	push	eax
	mov	ecx, DWORD PTR _nCmdID$[ebp]
	push	ecx
	mov	ecx, DWORD PTR _pMenu$[ebp]
	call	?CheckMenuItem@CMenu@@QAEIII@Z		; CMenu::CheckMenuItem

; 342  : }

	cmp	ebp, esp
	call	__RTC_CheckEsp
	pop	ebp
	ret	0
?CheckMenuItem@CRTFContentControl@@KAXPAVCMenu@@IH@Z ENDP ; CRTFContentControl::CheckMenuItem
_TEXT	ENDS
PUBLIC	?RemoveAdvancedFeatures@CRTFContentControl@@IBEXPAVCMenu@@@Z ; CRTFContentControl::RemoveAdvancedFeatures
; Function compile flags: /Odtp /RTCsu
;	COMDAT ?RemoveAdvancedFeatures@CRTFContentControl@@IBEXPAVCMenu@@@Z
_TEXT	SEGMENT
_this$ = -4						; size = 4
_pMenu$ = 8						; size = 4
?RemoveAdvancedFeatures@CRTFContentControl@@IBEXPAVCMenu@@@Z PROC ; CRTFContentControl::RemoveAdvancedFeatures, COMDAT
; _this$ = ecx

; 345  : {

	push	ebp
	mov	ebp, esp
	push	ecx
	mov	DWORD PTR [ebp-4], -858993460		; ccccccccH
	mov	DWORD PTR _this$[ebp], ecx

; 346  : #ifdef _DEBUG
; 347  : 	UNREFERENCED_PARAMETER(pMenu);
; 348  : #else
; 349  : 	BOOL bRemoveAdvancedFeatures = ((FileMisc::GetModuleDriveType() == DRIVE_FIXED) && 
; 350  : 									!CMSWordHelper::IsWordInstalled(12));
; 351  : 	
; 352  : 	if (bRemoveAdvancedFeatures)
; 353  : 	{
; 354  : 		CEnMenu::DeleteMenu(*pMenu, ID_EDIT_SUPERSCRIPT, MF_BYCOMMAND, TRUE);
; 355  : 		CEnMenu::DeleteMenu(*pMenu, ID_EDIT_SUBSCRIPT, MF_BYCOMMAND, TRUE);
; 356  : 		CEnMenu::DeleteMenu(*pMenu, ID_EDIT_INSERTTABLE, MF_BYCOMMAND, TRUE);
; 357  : 		CEnMenu::DeleteMenu(*pMenu, ID_EDIT_HORZRULE, MF_BYCOMMAND, TRUE);
; 358  : 	}
; 359  : 	
; 360  : 	if (!m_rtf.SupportsInlineSpellChecking())
; 361  : 		pMenu->DeleteMenu(ID_EDIT_INLINESPELLCHECK, MF_BYCOMMAND);
; 362  : #endif
; 363  : }

	mov	esp, ebp
	pop	ebp
	ret	4
?RemoveAdvancedFeatures@CRTFContentControl@@IBEXPAVCMenu@@@Z ENDP ; CRTFContentControl::RemoveAdvancedFeatures
_TEXT	ENDS
PUBLIC	?GetContextUrl@CUrlRichEditCtrl@@QAEHXZ		; CUrlRichEditCtrl::GetContextUrl
EXTRN	??1CMenu@@UAE@XZ:PROC				; CMenu::~CMenu
EXTRN	?TrackPopupMenu@CMenu@@QAEHIHHPAVCWnd@@PBUtagRECT@@@Z:PROC ; CMenu::TrackPopupMenu
EXTRN	?PrepareMenuItems@CToolbarHelper@@SAXPAVCMenu@@PAVCWnd@@@Z:PROC ; CToolbarHelper::PrepareMenuItems
EXTRN	?DeleteMenu@CMenu@@QAEHII@Z:PROC		; CMenu::DeleteMenu
EXTRN	__imp__ClientToScreen@8:PROC
EXTRN	??BCWnd@@QBEPAUHWND__@@XZ:PROC			; CWnd::operator HWND__ *
EXTRN	?GetCaretPos@CWnd@@SG?AVCPoint@@XZ:PROC		; CWnd::GetCaretPos
EXTRN	?GetSubMenu@CMenu@@QBEPAV1@H@Z:PROC		; CMenu::GetSubMenu
EXTRN	?LoadMenuW@CMenu@@QAEHI@Z:PROC			; CMenu::LoadMenuW
EXTRN	??0CMenu@@QAE@XZ:PROC				; CMenu::CMenu
;	COMDAT xdata$x
xdata$x	SEGMENT
__unwindtable$?OnContextMenu@CRTFContentControl@@IAEXPAVCWnd@@VCPoint@@@Z DD 0ffffffffH
	DD	FLAT:__unwindfunclet$?OnContextMenu@CRTFContentControl@@IAEXPAVCWnd@@VCPoint@@@Z$0
__ehfuncinfo$?OnContextMenu@CRTFContentControl@@IAEXPAVCWnd@@VCPoint@@@Z DD 019930522H
	DD	01H
	DD	FLAT:__unwindtable$?OnContextMenu@CRTFContentControl@@IAEXPAVCWnd@@VCPoint@@@Z
	DD	2 DUP(00H)
	DD	2 DUP(00H)
	DD	00H
	DD	01H
; Function compile flags: /Odtp /RTCsu
xdata$x	ENDS
;	COMDAT ?OnContextMenu@CRTFContentControl@@IAEXPAVCWnd@@VCPoint@@@Z
_TEXT	SEGMENT
$T187451 = -44						; size = 8
_pPopup$180757 = -36					; size = 4
_menu$180755 = -28					; size = 8
_this$ = -16						; size = 4
__$EHRec$ = -12						; size = 12
_pWnd$ = 8						; size = 4
_point$ = 12						; size = 8
?OnContextMenu@CRTFContentControl@@IAEXPAVCWnd@@VCPoint@@@Z PROC ; CRTFContentControl::OnContextMenu, COMDAT
; _this$ = ecx

; 366  : {

	push	ebp
	mov	ebp, esp
	push	-1
	push	__ehhandler$?OnContextMenu@CRTFContentControl@@IAEXPAVCWnd@@VCPoint@@@Z
	mov	eax, DWORD PTR fs:0
	push	eax
	sub	esp, 32					; 00000020H
	push	esi
	mov	eax, -858993460				; ccccccccH
	mov	DWORD PTR [ebp-44], eax
	mov	DWORD PTR [ebp-40], eax
	mov	DWORD PTR [ebp-36], eax
	mov	DWORD PTR [ebp-32], eax
	mov	DWORD PTR [ebp-28], eax
	mov	DWORD PTR [ebp-24], eax
	mov	DWORD PTR [ebp-20], eax
	mov	DWORD PTR [ebp-16], eax
	mov	eax, DWORD PTR ___security_cookie
	xor	eax, ebp
	push	eax
	lea	eax, DWORD PTR __$EHRec$[ebp]
	mov	DWORD PTR fs:0, eax
	mov	DWORD PTR _this$[ebp], ecx

; 367  : 	if (pWnd == &m_rtf)

	mov	eax, DWORD PTR _this$[ebp]
	add	eax, 304				; 00000130H
	cmp	DWORD PTR _pWnd$[ebp], eax
	jne	$LN6@OnContextM

; 368  : 	{
; 369  : 		// prepare a simple edit menu
; 370  : 		CMenu menu;

	lea	ecx, DWORD PTR _menu$180755[ebp]
	call	??0CMenu@@QAE@XZ			; CMenu::CMenu
	mov	DWORD PTR __$EHRec$[ebp+8], 0

; 371  : 
; 372  : 		if (menu.LoadMenu(IDR_POPUP))

	push	16000					; 00003e80H
	lea	ecx, DWORD PTR _menu$180755[ebp]
	call	?LoadMenuW@CMenu@@QAEHI@Z		; CMenu::LoadMenuW
	test	eax, eax
	je	$LN4@OnContextM

; 373  : 		{
; 374  : 			CMenu* pPopup = menu.GetSubMenu(0);

	push	0
	lea	ecx, DWORD PTR _menu$180755[ebp]
	call	?GetSubMenu@CMenu@@QBEPAV1@H@Z		; CMenu::GetSubMenu
	mov	DWORD PTR _pPopup$180757[ebp], eax

; 375  : 
; 376  : 			if (pPopup)

	cmp	DWORD PTR _pPopup$180757[ebp], 0
	je	$LN4@OnContextM

; 377  : 			{
; 378  : 				RemoveAdvancedFeatures(pPopup);

	mov	ecx, DWORD PTR _pPopup$180757[ebp]
	push	ecx
	mov	ecx, DWORD PTR _this$[ebp]
	call	?RemoveAdvancedFeatures@CRTFContentControl@@IBEXPAVCMenu@@@Z ; CRTFContentControl::RemoveAdvancedFeatures

; 379  : 
; 380  : 				// check pos
; 381  : 				if (point.x == -1 && point.y == -1)

	cmp	DWORD PTR _point$[ebp], -1
	jne	SHORT $LN2@OnContextM
	cmp	DWORD PTR _point$[ebp+4], -1
	jne	SHORT $LN2@OnContextM

; 382  : 				{
; 383  : 					point = GetCaretPos();

	lea	edx, DWORD PTR $T187451[ebp]
	push	edx
	call	?GetCaretPos@CWnd@@SG?AVCPoint@@XZ	; CWnd::GetCaretPos
	mov	ecx, DWORD PTR [eax]
	mov	edx, DWORD PTR [eax+4]
	mov	DWORD PTR _point$[ebp], ecx
	mov	DWORD PTR _point$[ebp+4], edx

; 384  : 					::ClientToScreen(m_rtf, &point);

	mov	esi, esp
	lea	eax, DWORD PTR _point$[ebp]
	push	eax
	mov	ecx, DWORD PTR _this$[ebp]
	add	ecx, 304				; 00000130H
	call	??BCWnd@@QBEPAUHWND__@@XZ		; CWnd::operator HWND__ *
	push	eax
	call	DWORD PTR __imp__ClientToScreen@8
	cmp	esi, esp
	call	__RTC_CheckEsp
$LN2@OnContextM:

; 385  : 				}
; 386  : 
; 387  : 				// Remove URL commands if URL not clicked on
; 388  : 				if (m_rtf.GetContextUrl() == -1)

	mov	ecx, DWORD PTR _this$[ebp]
	add	ecx, 304				; 00000130H
	call	?GetContextUrl@CUrlRichEditCtrl@@QAEHXZ	; CUrlRichEditCtrl::GetContextUrl
	cmp	eax, -1
	jne	SHORT $LN1@OnContextM

; 389  : 				{
; 390  : 					pPopup->DeleteMenu(ID_EDIT_OPENURL, MF_BYCOMMAND);

	push	0
	push	32780					; 0000800cH
	mov	ecx, DWORD PTR _pPopup$180757[ebp]
	call	?DeleteMenu@CMenu@@QAEHII@Z		; CMenu::DeleteMenu

; 391  : 					pPopup->DeleteMenu(ID_EDIT_COPYURL, MF_BYCOMMAND);

	push	0
	push	32815					; 0000802fH
	mov	ecx, DWORD PTR _pPopup$180757[ebp]
	call	?DeleteMenu@CMenu@@QAEHII@Z		; CMenu::DeleteMenu
$LN1@OnContextM:

; 392  : 				}
; 393  : 
; 394  : 				CToolbarHelper::PrepareMenuItems(pPopup, this);

	mov	ecx, DWORD PTR _this$[ebp]
	push	ecx
	mov	edx, DWORD PTR _pPopup$180757[ebp]
	push	edx
	call	?PrepareMenuItems@CToolbarHelper@@SAXPAVCMenu@@PAVCWnd@@@Z ; CToolbarHelper::PrepareMenuItems
	add	esp, 8

; 395  : 				pPopup->TrackPopupMenu(TPM_LEFTALIGN | TPM_LEFTBUTTON, point.x, point.y, this);

	push	0
	mov	eax, DWORD PTR _this$[ebp]
	push	eax
	mov	ecx, DWORD PTR _point$[ebp+4]
	push	ecx
	mov	edx, DWORD PTR _point$[ebp]
	push	edx
	push	0
	mov	ecx, DWORD PTR _pPopup$180757[ebp]
	call	?TrackPopupMenu@CMenu@@QAEHIHHPAVCWnd@@PBUtagRECT@@@Z ; CMenu::TrackPopupMenu
$LN4@OnContextM:

; 396  : 			}
; 397  : 		}
; 398  : 	}

	mov	DWORD PTR __$EHRec$[ebp+8], -1
	lea	ecx, DWORD PTR _menu$180755[ebp]
	call	??1CMenu@@UAE@XZ			; CMenu::~CMenu
$LN6@OnContextM:

; 399  : }

	push	edx
	mov	ecx, ebp
	push	eax
	lea	edx, DWORD PTR $LN12@OnContextM
	call	@_RTC_CheckStackVars@8
	pop	eax
	pop	edx
	mov	ecx, DWORD PTR __$EHRec$[ebp]
	mov	DWORD PTR fs:0, ecx
	pop	ecx
	pop	esi
	add	esp, 44					; 0000002cH
	cmp	ebp, esp
	call	__RTC_CheckEsp
	mov	esp, ebp
	pop	ebp
	ret	12					; 0000000cH
	npad	3
$LN12@OnContextM:
	DD	1
	DD	$LN11@OnContextM
$LN11@OnContextM:
	DD	-28					; ffffffe4H
	DD	8
	DD	$LN9@OnContextM
$LN9@OnContextM:
	DB	109					; 0000006dH
	DB	101					; 00000065H
	DB	110					; 0000006eH
	DB	117					; 00000075H
	DB	0
_TEXT	ENDS
;	COMDAT text$x
text$x	SEGMENT
__unwindfunclet$?OnContextMenu@CRTFContentControl@@IAEXPAVCWnd@@VCPoint@@@Z$0:
	lea	ecx, DWORD PTR _menu$180755[ebp]
	jmp	??1CMenu@@UAE@XZ			; CMenu::~CMenu
__ehhandler$?OnContextMenu@CRTFContentControl@@IAEXPAVCWnd@@VCPoint@@@Z:
	mov	edx, DWORD PTR [esp+8]
	lea	eax, DWORD PTR [edx+12]
	mov	ecx, DWORD PTR [edx-40]
	xor	ecx, eax
	call	@__security_check_cookie@4
	mov	eax, OFFSET __ehfuncinfo$?OnContextMenu@CRTFContentControl@@IAEXPAVCWnd@@VCPoint@@@Z
	jmp	___CxxFrameHandler3
text$x	ENDS
?OnContextMenu@CRTFContentControl@@IAEXPAVCWnd@@VCPoint@@@Z ENDP ; CRTFContentControl::OnContextMenu
; Function compile flags: /Odtp /RTCsu
; File d:\_code\shared\urlricheditctrl.h
;	COMDAT ?GetContextUrl@CUrlRichEditCtrl@@QAEHXZ
_TEXT	SEGMENT
_this$ = -4						; size = 4
?GetContextUrl@CUrlRichEditCtrl@@QAEHXZ PROC		; CUrlRichEditCtrl::GetContextUrl, COMDAT
; _this$ = ecx

; 53   : 	int GetContextUrl() { return m_nContextUrl; }

	push	ebp
	mov	ebp, esp
	push	ecx
	mov	DWORD PTR [ebp-4], -858993460		; ccccccccH
	mov	DWORD PTR _this$[ebp], ecx
	mov	eax, DWORD PTR _this$[ebp]
	mov	eax, DWORD PTR [eax+276]
	mov	esp, ebp
	pop	ebp
	ret	0
?GetContextUrl@CUrlRichEditCtrl@@QAEHXZ ENDP		; CUrlRichEditCtrl::GetContextUrl
_TEXT	ENDS
PUBLIC	?InitShortcutManager@CRTFContentControl@@IAEXXZ	; CRTFContentControl::InitShortcutManager
EXTRN	?AddShortcut@CShortcutManager@@QAEHIGG@Z:PROC	; CShortcutManager::AddShortcut
EXTRN	?Initialize@CShortcutManager@@QAEHPAVCWnd@@PBVIPreferences@@GG@Z:PROC ; CShortcutManager::Initialize
; Function compile flags: /Odtp /RTCsu
; File d:\_code\rtfcontentctrl\rtfcontentcontrol.cpp
;	COMDAT ?InitShortcutManager@CRTFContentControl@@IAEXXZ
_TEXT	SEGMENT
_this$ = -4						; size = 4
?InitShortcutManager@CRTFContentControl@@IAEXXZ PROC	; CRTFContentControl::InitShortcutManager, COMDAT
; _this$ = ecx

; 402  : {

	push	ebp
	mov	ebp, esp
	push	ecx
	mov	DWORD PTR [ebp-4], -858993460		; ccccccccH
	mov	DWORD PTR _this$[ebp], ecx

; 403  : 	if (!m_mgrShortcuts.Initialize(this, NULL, 0))

	push	0
	push	0
	push	0
	mov	eax, DWORD PTR _this$[ebp]
	push	eax
	mov	ecx, DWORD PTR _this$[ebp]
	add	ecx, 1812				; 00000714H
	call	?Initialize@CShortcutManager@@QAEHPAVCWnd@@PBVIPreferences@@GG@Z ; CShortcutManager::Initialize
	test	eax, eax
	jne	SHORT $LN1@InitShortc

; 404  : 		return;

	jmp	$LN2@InitShortc
$LN1@InitShortc:

; 405  : 
; 406  : 	m_mgrShortcuts.AddShortcut(ID_EDIT_COPYFORMATTING,	'C',		HOTKEYF_CONTROL | HOTKEYF_SHIFT);

	push	3
	push	67					; 00000043H
	push	32809					; 00008029H
	mov	ecx, DWORD PTR _this$[ebp]
	add	ecx, 1812				; 00000714H
	call	?AddShortcut@CShortcutManager@@QAEHIGG@Z ; CShortcutManager::AddShortcut

; 407  : 	m_mgrShortcuts.AddShortcut(ID_EDIT_PASTEFORMATTING,	'V',		HOTKEYF_CONTROL | HOTKEYF_SHIFT);

	push	3
	push	86					; 00000056H
	push	32810					; 0000802aH
	mov	ecx, DWORD PTR _this$[ebp]
	add	ecx, 1812				; 00000714H
	call	?AddShortcut@CShortcutManager@@QAEHIGG@Z ; CShortcutManager::AddShortcut

; 408  : 	m_mgrShortcuts.AddShortcut(ID_EDIT_PASTESIMPLE,		'P',		HOTKEYF_CONTROL | HOTKEYF_SHIFT);

	push	3
	push	80					; 00000050H
	push	32786					; 00008012H
	mov	ecx, DWORD PTR _this$[ebp]
	add	ecx, 1812				; 00000714H
	call	?AddShortcut@CShortcutManager@@QAEHIGG@Z ; CShortcutManager::AddShortcut

; 409  : 	m_mgrShortcuts.AddShortcut(ID_EDIT_OUTDENT,			'J',		HOTKEYF_CONTROL | HOTKEYF_SHIFT); 

	push	3
	push	74					; 0000004aH
	push	32790					; 00008016H
	mov	ecx, DWORD PTR _this$[ebp]
	add	ecx, 1812				; 00000714H
	call	?AddShortcut@CShortcutManager@@QAEHIGG@Z ; CShortcutManager::AddShortcut

; 410  : 	m_mgrShortcuts.AddShortcut(ID_EDIT_COPY,			'C',		HOTKEYF_CONTROL); 

	push	2
	push	67					; 00000043H
	push	57634					; 0000e122H
	mov	ecx, DWORD PTR _this$[ebp]
	add	ecx, 1812				; 00000714H
	call	?AddShortcut@CShortcutManager@@QAEHIGG@Z ; CShortcutManager::AddShortcut

; 411  : 	m_mgrShortcuts.AddShortcut(ID_EDIT_COPYASHTML,		'C',		HOTKEYF_CONTROL | HOTKEYF_ALT); 

	push	6
	push	67					; 00000043H
	push	32813					; 0000802dH
	mov	ecx, DWORD PTR _this$[ebp]
	add	ecx, 1812				; 00000714H
	call	?AddShortcut@CShortcutManager@@QAEHIGG@Z ; CShortcutManager::AddShortcut

; 412  : 	m_mgrShortcuts.AddShortcut(ID_EDIT_PASTE,			'V',		HOTKEYF_CONTROL); 

	push	2
	push	86					; 00000056H
	push	57637					; 0000e125H
	mov	ecx, DWORD PTR _this$[ebp]
	add	ecx, 1812				; 00000714H
	call	?AddShortcut@CShortcutManager@@QAEHIGG@Z ; CShortcutManager::AddShortcut

; 413  : 	m_mgrShortcuts.AddShortcut(ID_EDIT_PASTESIMPLE,		VK_INSERT,	HOTKEYF_SHIFT | HOTKEYF_EXT); 

	push	9
	push	45					; 0000002dH
	push	32786					; 00008012H
	mov	ecx, DWORD PTR _this$[ebp]
	add	ecx, 1812				; 00000714H
	call	?AddShortcut@CShortcutManager@@QAEHIGG@Z ; CShortcutManager::AddShortcut

; 414  : 	m_mgrShortcuts.AddShortcut(ID_EDIT_CUT,				'X',		HOTKEYF_CONTROL); 

	push	2
	push	88					; 00000058H
	push	57635					; 0000e123H
	mov	ecx, DWORD PTR _this$[ebp]
	add	ecx, 1812				; 00000714H
	call	?AddShortcut@CShortcutManager@@QAEHIGG@Z ; CShortcutManager::AddShortcut

; 415  : 	m_mgrShortcuts.AddShortcut(ID_EDIT_SELECT_ALL,		'A',		HOTKEYF_CONTROL); 

	push	2
	push	65					; 00000041H
	push	57642					; 0000e12aH
	mov	ecx, DWORD PTR _this$[ebp]
	add	ecx, 1812				; 00000714H
	call	?AddShortcut@CShortcutManager@@QAEHIGG@Z ; CShortcutManager::AddShortcut

; 416  : 	m_mgrShortcuts.AddShortcut(ID_EDIT_BOLD,			'B',		HOTKEYF_CONTROL); 

	push	2
	push	66					; 00000042H
	push	32773					; 00008005H
	mov	ecx, DWORD PTR _this$[ebp]
	add	ecx, 1812				; 00000714H
	call	?AddShortcut@CShortcutManager@@QAEHIGG@Z ; CShortcutManager::AddShortcut

; 417  : 	m_mgrShortcuts.AddShortcut(ID_EDIT_ITALIC,			'I',		HOTKEYF_CONTROL); 

	push	2
	push	73					; 00000049H
	push	32775					; 00008007H
	mov	ecx, DWORD PTR _this$[ebp]
	add	ecx, 1812				; 00000714H
	call	?AddShortcut@CShortcutManager@@QAEHIGG@Z ; CShortcutManager::AddShortcut

; 418  : 	m_mgrShortcuts.AddShortcut(ID_EDIT_UNDERLINE,		'U',		HOTKEYF_CONTROL); 

	push	2
	push	85					; 00000055H
	push	32778					; 0000800aH
	mov	ecx, DWORD PTR _this$[ebp]
	add	ecx, 1812				; 00000714H
	call	?AddShortcut@CShortcutManager@@QAEHIGG@Z ; CShortcutManager::AddShortcut

; 419  : 	m_mgrShortcuts.AddShortcut(ID_EDIT_LEFTALIGN,		'L',		HOTKEYF_CONTROL); 

	push	2
	push	76					; 0000004cH
	push	32783					; 0000800fH
	mov	ecx, DWORD PTR _this$[ebp]
	add	ecx, 1812				; 00000714H
	call	?AddShortcut@CShortcutManager@@QAEHIGG@Z ; CShortcutManager::AddShortcut

; 420  : 	m_mgrShortcuts.AddShortcut(ID_EDIT_CENTERALIGN,		'E',		HOTKEYF_CONTROL); 

	push	2
	push	69					; 00000045H
	push	32787					; 00008013H
	mov	ecx, DWORD PTR _this$[ebp]
	add	ecx, 1812				; 00000714H
	call	?AddShortcut@CShortcutManager@@QAEHIGG@Z ; CShortcutManager::AddShortcut

; 421  : 	m_mgrShortcuts.AddShortcut(ID_EDIT_RIGHTALIGN,		'R',		HOTKEYF_CONTROL); 

	push	2
	push	82					; 00000052H
	push	32788					; 00008014H
	mov	ecx, DWORD PTR _this$[ebp]
	add	ecx, 1812				; 00000714H
	call	?AddShortcut@CShortcutManager@@QAEHIGG@Z ; CShortcutManager::AddShortcut

; 422  : 	m_mgrShortcuts.AddShortcut(ID_EDIT_STRIKETHRU,		0xBD,		HOTKEYF_CONTROL); 

	push	2
	push	189					; 000000bdH
	push	32793					; 00008019H
	mov	ecx, DWORD PTR _this$[ebp]
	add	ecx, 1812				; 00000714H
	call	?AddShortcut@CShortcutManager@@QAEHIGG@Z ; CShortcutManager::AddShortcut

; 423  : 	m_mgrShortcuts.AddShortcut(ID_EDIT_GROWFONT,		0xBE,		HOTKEYF_CONTROL | HOTKEYF_EXT); 

	push	10					; 0000000aH
	push	190					; 000000beH
	push	32806					; 00008026H
	mov	ecx, DWORD PTR _this$[ebp]
	add	ecx, 1812				; 00000714H
	call	?AddShortcut@CShortcutManager@@QAEHIGG@Z ; CShortcutManager::AddShortcut

; 424  : 	m_mgrShortcuts.AddShortcut(ID_EDIT_SHRINKFONT,		0xBC,		HOTKEYF_CONTROL | HOTKEYF_EXT); 

	push	10					; 0000000aH
	push	188					; 000000bcH
	push	32803					; 00008023H
	mov	ecx, DWORD PTR _this$[ebp]
	add	ecx, 1812				; 00000714H
	call	?AddShortcut@CShortcutManager@@QAEHIGG@Z ; CShortcutManager::AddShortcut

; 425  : 	m_mgrShortcuts.AddShortcut(ID_EDIT_FINDREPLACE,		'H',		HOTKEYF_CONTROL); 

	push	2
	push	72					; 00000048H
	push	32804					; 00008024H
	mov	ecx, DWORD PTR _this$[ebp]
	add	ecx, 1812				; 00000714H
	call	?AddShortcut@CShortcutManager@@QAEHIGG@Z ; CShortcutManager::AddShortcut

; 426  : 	m_mgrShortcuts.AddShortcut(ID_EDIT_FIND,			'F',		HOTKEYF_CONTROL); 

	push	2
	push	70					; 00000046H
	push	57636					; 0000e124H
	mov	ecx, DWORD PTR _this$[ebp]
	add	ecx, 1812				; 00000714H
	call	?AddShortcut@CShortcutManager@@QAEHIGG@Z ; CShortcutManager::AddShortcut

; 427  : 	m_mgrShortcuts.AddShortcut(ID_EDIT_INDENT,			'J',		HOTKEYF_CONTROL); 

	push	2
	push	74					; 0000004aH
	push	32789					; 00008015H
	mov	ecx, DWORD PTR _this$[ebp]
	add	ecx, 1812				; 00000714H
	call	?AddShortcut@CShortcutManager@@QAEHIGG@Z ; CShortcutManager::AddShortcut
$LN2@InitShortc:

; 428  : }

	add	esp, 4
	cmp	ebp, esp
	call	__RTC_CheckEsp
	mov	esp, ebp
	pop	ebp
	ret	0
?InitShortcutManager@CRTFContentControl@@IAEXXZ ENDP	; CRTFContentControl::InitShortcutManager
_TEXT	ENDS
PUBLIC	?InitMenuIconManager@CRTFContentControl@@IAEXXZ	; CRTFContentControl::InitMenuIconManager
EXTRN	??1CUIntArray@@UAE@XZ:PROC			; CUIntArray::~CUIntArray
EXTRN	?AddImages@CMenuIconMgr@@QAEHABVCUIntArray@@IK@Z:PROC ; CMenuIconMgr::AddImages
EXTRN	?Add@CUIntArray@@QAEHI@Z:PROC			; CUIntArray::Add
EXTRN	??0CUIntArray@@QAE@XZ:PROC			; CUIntArray::CUIntArray
EXTRN	?ClearImages@CMenuIconMgr@@QAEXXZ:PROC		; CMenuIconMgr::ClearImages
EXTRN	?Initialize@CMenuIconMgr@@QAEHPAVCWnd@@@Z:PROC	; CMenuIconMgr::Initialize
;	COMDAT xdata$x
xdata$x	SEGMENT
__unwindtable$?InitMenuIconManager@CRTFContentControl@@IAEXXZ DD 0ffffffffH
	DD	FLAT:__unwindfunclet$?InitMenuIconManager@CRTFContentControl@@IAEXXZ$0
__ehfuncinfo$?InitMenuIconManager@CRTFContentControl@@IAEXXZ DD 019930522H
	DD	01H
	DD	FLAT:__unwindtable$?InitMenuIconManager@CRTFContentControl@@IAEXXZ
	DD	2 DUP(00H)
	DD	2 DUP(00H)
	DD	00H
	DD	01H
; Function compile flags: /Odtp /RTCsu
xdata$x	ENDS
;	COMDAT ?InitMenuIconManager@CRTFContentControl@@IAEXXZ
_TEXT	SEGMENT
_aCmdIDs$ = -40						; size = 20
_this$ = -16						; size = 4
__$EHRec$ = -12						; size = 12
?InitMenuIconManager@CRTFContentControl@@IAEXXZ PROC	; CRTFContentControl::InitMenuIconManager, COMDAT
; _this$ = ecx

; 431  : {

	push	ebp
	mov	ebp, esp
	push	-1
	push	__ehhandler$?InitMenuIconManager@CRTFContentControl@@IAEXXZ
	mov	eax, DWORD PTR fs:0
	push	eax
	sub	esp, 32					; 00000020H
	mov	eax, -858993460				; ccccccccH
	mov	DWORD PTR [ebp-44], eax
	mov	DWORD PTR [ebp-40], eax
	mov	DWORD PTR [ebp-36], eax
	mov	DWORD PTR [ebp-32], eax
	mov	DWORD PTR [ebp-28], eax
	mov	DWORD PTR [ebp-24], eax
	mov	DWORD PTR [ebp-20], eax
	mov	DWORD PTR [ebp-16], eax
	mov	eax, DWORD PTR ___security_cookie
	xor	eax, ebp
	push	eax
	lea	eax, DWORD PTR __$EHRec$[ebp]
	mov	DWORD PTR fs:0, eax
	mov	DWORD PTR _this$[ebp], ecx

; 432  : 	if (!m_mgrMenuIcons.Initialize(this))

	mov	eax, DWORD PTR _this$[ebp]
	push	eax
	mov	ecx, DWORD PTR _this$[ebp]
	add	ecx, 1576				; 00000628H
	call	?Initialize@CMenuIconMgr@@QAEHPAVCWnd@@@Z ; CMenuIconMgr::Initialize
	test	eax, eax
	jne	SHORT $LN1@InitMenuIc

; 433  : 		return;

	jmp	$LN2@InitMenuIc
$LN1@InitMenuIc:

; 434  : 	
; 435  : 	m_mgrMenuIcons.ClearImages();

	mov	ecx, DWORD PTR _this$[ebp]
	add	ecx, 1576				; 00000628H
	call	?ClearImages@CMenuIconMgr@@QAEXXZ	; CMenuIconMgr::ClearImages

; 436  : 	
; 437  : 	CUIntArray aCmdIDs;

	lea	ecx, DWORD PTR _aCmdIDs$[ebp]
	call	??0CUIntArray@@QAE@XZ			; CUIntArray::CUIntArray
	mov	DWORD PTR __$EHRec$[ebp+8], 0

; 438  : 	
; 439  : 	aCmdIDs.Add(ID_EDIT_FONT);

	push	32771					; 00008003H
	lea	ecx, DWORD PTR _aCmdIDs$[ebp]
	call	?Add@CUIntArray@@QAEHI@Z		; CUIntArray::Add

; 440  : 	aCmdIDs.Add(ID_EDIT_BOLD);

	push	32773					; 00008005H
	lea	ecx, DWORD PTR _aCmdIDs$[ebp]
	call	?Add@CUIntArray@@QAEHI@Z		; CUIntArray::Add

; 441  : 	aCmdIDs.Add(ID_EDIT_ITALIC);

	push	32775					; 00008007H
	lea	ecx, DWORD PTR _aCmdIDs$[ebp]
	call	?Add@CUIntArray@@QAEHI@Z		; CUIntArray::Add

; 442  : 	aCmdIDs.Add(ID_EDIT_UNDERLINE);

	push	32778					; 0000800aH
	lea	ecx, DWORD PTR _aCmdIDs$[ebp]
	call	?Add@CUIntArray@@QAEHI@Z		; CUIntArray::Add

; 443  : 	aCmdIDs.Add(ID_EDIT_STRIKETHRU);

	push	32793					; 00008019H
	lea	ecx, DWORD PTR _aCmdIDs$[ebp]
	call	?Add@CUIntArray@@QAEHI@Z		; CUIntArray::Add

; 444  : 	aCmdIDs.Add(ID_EDIT_GROWFONT);

	push	32806					; 00008026H
	lea	ecx, DWORD PTR _aCmdIDs$[ebp]
	call	?Add@CUIntArray@@QAEHI@Z		; CUIntArray::Add

; 445  : 	aCmdIDs.Add(ID_EDIT_SHRINKFONT);

	push	32803					; 00008023H
	lea	ecx, DWORD PTR _aCmdIDs$[ebp]
	call	?Add@CUIntArray@@QAEHI@Z		; CUIntArray::Add

; 446  : 	aCmdIDs.Add(ID_EDIT_LEFTALIGN);

	push	32783					; 0000800fH
	lea	ecx, DWORD PTR _aCmdIDs$[ebp]
	call	?Add@CUIntArray@@QAEHI@Z		; CUIntArray::Add

; 447  : 	aCmdIDs.Add(ID_EDIT_CENTERALIGN);

	push	32787					; 00008013H
	lea	ecx, DWORD PTR _aCmdIDs$[ebp]
	call	?Add@CUIntArray@@QAEHI@Z		; CUIntArray::Add

; 448  : 	aCmdIDs.Add(ID_EDIT_RIGHTALIGN);

	push	32788					; 00008014H
	lea	ecx, DWORD PTR _aCmdIDs$[ebp]
	call	?Add@CUIntArray@@QAEHI@Z		; CUIntArray::Add

; 449  : 	aCmdIDs.Add(ID_EDIT_JUSTIFY);

	push	32802					; 00008022H
	lea	ecx, DWORD PTR _aCmdIDs$[ebp]
	call	?Add@CUIntArray@@QAEHI@Z		; CUIntArray::Add

; 450  : 	aCmdIDs.Add(ID_EDIT_BULLET);

	push	32792					; 00008018H
	lea	ecx, DWORD PTR _aCmdIDs$[ebp]
	call	?Add@CUIntArray@@QAEHI@Z		; CUIntArray::Add

; 451  : 	aCmdIDs.Add(ID_EDIT_NUMBER);

	push	32795					; 0000801bH
	lea	ecx, DWORD PTR _aCmdIDs$[ebp]
	call	?Add@CUIntArray@@QAEHI@Z		; CUIntArray::Add

; 452  : 	aCmdIDs.Add(ID_EDIT_OUTDENT);

	push	32790					; 00008016H
	lea	ecx, DWORD PTR _aCmdIDs$[ebp]
	call	?Add@CUIntArray@@QAEHI@Z		; CUIntArray::Add

; 453  : 	aCmdIDs.Add(ID_EDIT_INDENT);

	push	32789					; 00008015H
	lea	ecx, DWORD PTR _aCmdIDs$[ebp]
	call	?Add@CUIntArray@@QAEHI@Z		; CUIntArray::Add

; 454  : 	aCmdIDs.Add(ID_EDIT_INSERTTABLE);

	push	32799					; 0000801fH
	lea	ecx, DWORD PTR _aCmdIDs$[ebp]
	call	?Add@CUIntArray@@QAEHI@Z		; CUIntArray::Add

; 455  : 	aCmdIDs.Add(ID_EDIT_TEXTCOLOR);

	push	32797					; 0000801dH
	lea	ecx, DWORD PTR _aCmdIDs$[ebp]
	call	?Add@CUIntArray@@QAEHI@Z		; CUIntArray::Add

; 456  : 	aCmdIDs.Add(ID_EDIT_BACKCOLOR);

	push	32800					; 00008020H
	lea	ecx, DWORD PTR _aCmdIDs$[ebp]
	call	?Add@CUIntArray@@QAEHI@Z		; CUIntArray::Add

; 457  : 	aCmdIDs.Add(ID_EDIT_WORDWRAP);

	push	32794					; 0000801aH
	lea	ecx, DWORD PTR _aCmdIDs$[ebp]
	call	?Add@CUIntArray@@QAEHI@Z		; CUIntArray::Add

; 458  : 	aCmdIDs.Add(ID_EDIT_INLINESPELLCHECK);

	push	34545					; 000086f1H
	lea	ecx, DWORD PTR _aCmdIDs$[ebp]
	call	?Add@CUIntArray@@QAEHI@Z		; CUIntArray::Add

; 459  : 	aCmdIDs.Add(ID_PREFERENCES);

	push	32798					; 0000801eH
	lea	ecx, DWORD PTR _aCmdIDs$[ebp]
	call	?Add@CUIntArray@@QAEHI@Z		; CUIntArray::Add

; 460  : 		
; 461  : 	m_mgrMenuIcons.AddImages(aCmdIDs, IDB_TOOLBAR, RGB(255, 0, 255));

	push	16711935				; 00ff00ffH
	push	16003					; 00003e83H
	lea	ecx, DWORD PTR _aCmdIDs$[ebp]
	push	ecx
	mov	ecx, DWORD PTR _this$[ebp]
	add	ecx, 1576				; 00000628H
	call	?AddImages@CMenuIconMgr@@QAEHABVCUIntArray@@IK@Z ; CMenuIconMgr::AddImages

; 462  : }

	mov	DWORD PTR __$EHRec$[ebp+8], -1
	lea	ecx, DWORD PTR _aCmdIDs$[ebp]
	call	??1CUIntArray@@UAE@XZ			; CUIntArray::~CUIntArray
$LN2@InitMenuIc:
	push	edx
	mov	ecx, ebp
	push	eax
	lea	edx, DWORD PTR $LN8@InitMenuIc
	call	@_RTC_CheckStackVars@8
	pop	eax
	pop	edx
	mov	ecx, DWORD PTR __$EHRec$[ebp]
	mov	DWORD PTR fs:0, ecx
	pop	ecx
	add	esp, 44					; 0000002cH
	cmp	ebp, esp
	call	__RTC_CheckEsp
	mov	esp, ebp
	pop	ebp
	ret	0
	npad	1
$LN8@InitMenuIc:
	DD	1
	DD	$LN7@InitMenuIc
$LN7@InitMenuIc:
	DD	-40					; ffffffd8H
	DD	20					; 00000014H
	DD	$LN5@InitMenuIc
$LN5@InitMenuIc:
	DB	97					; 00000061H
	DB	67					; 00000043H
	DB	109					; 0000006dH
	DB	100					; 00000064H
	DB	73					; 00000049H
	DB	68					; 00000044H
	DB	115					; 00000073H
	DB	0
_TEXT	ENDS
;	COMDAT text$x
text$x	SEGMENT
__unwindfunclet$?InitMenuIconManager@CRTFContentControl@@IAEXXZ$0:
	lea	ecx, DWORD PTR _aCmdIDs$[ebp]
	jmp	??1CUIntArray@@UAE@XZ			; CUIntArray::~CUIntArray
__ehhandler$?InitMenuIconManager@CRTFContentControl@@IAEXXZ:
	mov	edx, DWORD PTR [esp+8]
	lea	eax, DWORD PTR [edx+12]
	mov	ecx, DWORD PTR [edx-36]
	xor	ecx, eax
	call	@__security_check_cookie@4
	mov	eax, OFFSET __ehfuncinfo$?InitMenuIconManager@CRTFContentControl@@IAEXXZ
	jmp	___CxxFrameHandler3
text$x	ENDS
?InitMenuIconManager@CRTFContentControl@@IAEXXZ ENDP	; CRTFContentControl::InitMenuIconManager
PUBLIC	??$GetITLInterface@VITaskList4@@@@YAPAVITaskList4@@PAVITaskList@@ABU_GUID@@@Z ; GetITLInterface<ITaskList4>
PUBLIC	?IsTDLClipboardEmpty@CRTFContentControl@@IBEHXZ	; CRTFContentControl::IsTDLClipboardEmpty
; Function compile flags: /Odtp /RTCsu
;	COMDAT ?IsTDLClipboardEmpty@CRTFContentControl@@IBEHXZ
_TEXT	SEGMENT
_pClip4$ = -12						; size = 4
_pClipboard$ = -8					; size = 4
_this$ = -4						; size = 4
?IsTDLClipboardEmpty@CRTFContentControl@@IBEHXZ PROC	; CRTFContentControl::IsTDLClipboardEmpty, COMDAT
; _this$ = ecx

; 465  : { 

	push	ebp
	mov	ebp, esp
	sub	esp, 12					; 0000000cH
	push	esi
	mov	DWORD PTR [ebp-12], -858993460		; ccccccccH
	mov	DWORD PTR [ebp-8], -858993460		; ccccccccH
	mov	DWORD PTR [ebp-4], -858993460		; ccccccccH
	mov	DWORD PTR _this$[ebp], ecx

; 466  : 	// try for any clipboard first
; 467  : 	ITaskList* pClipboard = (ITaskList*)GetParent()->SendMessage(WM_TDCM_GETCLIPBOARD, 0, FALSE);

	push	0
	push	0
	mov	eax, DWORD PTR _WM_TDCM_GETCLIPBOARD
	push	eax
	mov	ecx, DWORD PTR _this$[ebp]
	call	?GetParent@CWnd@@QBEPAV1@XZ		; CWnd::GetParent
	mov	ecx, eax
	call	?SendMessageW@CWnd@@QBEJIIJ@Z		; CWnd::SendMessageW
	mov	DWORD PTR _pClipboard$[ebp], eax

; 468  : 	ITaskList4* pClip4 = GetITLInterface<ITaskList4>(pClipboard, IID_TASKLIST4);

	push	OFFSET _IID_TASKLIST4
	mov	ecx, DWORD PTR _pClipboard$[ebp]
	push	ecx
	call	??$GetITLInterface@VITaskList4@@@@YAPAVITaskList4@@PAVITaskList@@ABU_GUID@@@Z ; GetITLInterface<ITaskList4>
	add	esp, 8
	mov	DWORD PTR _pClip4$[ebp], eax

; 469  : 
; 470  : 	if (pClip4)

	cmp	DWORD PTR _pClip4$[ebp], 0
	je	SHORT $LN1@IsTDLClipb

; 471  : 		return (pClipboard->GetFirstTask() == NULL);

	mov	esi, esp
	push	0
	mov	edx, DWORD PTR _pClipboard$[ebp]
	mov	eax, DWORD PTR [edx]
	mov	ecx, DWORD PTR _pClipboard$[ebp]
	mov	edx, DWORD PTR [eax+52]
	call	edx
	cmp	esi, esp
	call	__RTC_CheckEsp
	neg	eax
	sbb	eax, eax
	add	eax, 1
	jmp	SHORT $LN2@IsTDLClipb
$LN1@IsTDLClipb:

; 472  : 
; 473  : 	// else try for 'our' clipboard only
; 474  : 	return (!GetParent()->SendMessage(WM_TDCM_HASCLIPBOARD, 0, TRUE)); 

	push	1
	push	0
	mov	eax, DWORD PTR _WM_TDCM_HASCLIPBOARD
	push	eax
	mov	ecx, DWORD PTR _this$[ebp]
	call	?GetParent@CWnd@@QBEPAV1@XZ		; CWnd::GetParent
	mov	ecx, eax
	call	?SendMessageW@CWnd@@QBEJIIJ@Z		; CWnd::SendMessageW
	neg	eax
	sbb	eax, eax
	add	eax, 1
$LN2@IsTDLClipb:

; 475  : }

	pop	esi
	add	esp, 12					; 0000000cH
	cmp	ebp, esp
	call	__RTC_CheckEsp
	mov	esp, ebp
	pop	ebp
	ret	0
?IsTDLClipboardEmpty@CRTFContentControl@@IBEHXZ ENDP	; CRTFContentControl::IsTDLClipboardEmpty
_TEXT	ENDS
PUBLIC	?GetClipboardHtmlForPasting@CRTFContentControl@@KAHAAV?$CStringT@_WV?$StrTraitMFC_DLL@_WV?$ChTraitsCRT@_W@ATL@@@@@ATL@@0@Z ; CRTFContentControl::GetClipboardHtmlForPasting
EXTRN	??1CClipboard@@QAE@XZ:PROC			; CClipboard::~CClipboard
EXTRN	?EncodeAsMultiByte@Misc@@YAAAV?$CStringT@_WV?$StrTraitMFC_DLL@_WV?$ChTraitsCRT@_W@ATL@@@@@ATL@@AAV23@I@Z:PROC ; Misc::EncodeAsMultiByte
EXTRN	__imp_?IsEmpty@?$CSimpleStringT@_W$00@ATL@@QBE_NXZ:PROC
EXTRN	?Close@CClipboard@@QAEHXZ:PROC			; CClipboard::Close
EXTRN	?UnpackageHTMLFragment@CClipboard@@SAAAV?$CStringT@_WV?$StrTraitMFC_DLL@_WV?$ChTraitsCRT@_W@ATL@@@@@ATL@@AAV23@0@Z:PROC ; CClipboard::UnpackageHTMLFragment
EXTRN	?Trim@Misc@@YAAAV?$CStringT@_WV?$StrTraitMFC_DLL@_WV?$ChTraitsCRT@_W@ATL@@@@@ATL@@AAV23@PB_W@Z:PROC ; Misc::Trim
EXTRN	?EncodeAsUnicode@Misc@@YAAAV?$CStringT@_WV?$StrTraitMFC_DLL@_WV?$ChTraitsCRT@_W@ATL@@@@@ATL@@AAV23@I@Z:PROC ; Misc::EncodeAsUnicode
EXTRN	?GetText@CClipboard@@QBEHAAV?$CStringT@_WV?$StrTraitMFC_DLL@_WV?$ChTraitsCRT@_W@ATL@@@@@ATL@@I@Z:PROC ; CClipboard::GetText
EXTRN	?HasFormat@CClipboard@@SAHI@Z:PROC		; CClipboard::HasFormat
EXTRN	??0CClipboard@@QAE@XZ:PROC			; CClipboard::CClipboard
;	COMDAT xdata$x
xdata$x	SEGMENT
__unwindtable$?GetClipboardHtmlForPasting@CRTFContentControl@@KAHAAV?$CStringT@_WV?$StrTraitMFC_DLL@_WV?$ChTraitsCRT@_W@ATL@@@@@ATL@@0@Z DD 0ffffffffH
	DD	FLAT:__unwindfunclet$?GetClipboardHtmlForPasting@CRTFContentControl@@KAHAAV?$CStringT@_WV?$StrTraitMFC_DLL@_WV?$ChTraitsCRT@_W@ATL@@@@@ATL@@0@Z$0
__ehfuncinfo$?GetClipboardHtmlForPasting@CRTFContentControl@@KAHAAV?$CStringT@_WV?$StrTraitMFC_DLL@_WV?$ChTraitsCRT@_W@ATL@@@@@ATL@@0@Z DD 019930522H
	DD	01H
	DD	FLAT:__unwindtable$?GetClipboardHtmlForPasting@CRTFContentControl@@KAHAAV?$CStringT@_WV?$StrTraitMFC_DLL@_WV?$ChTraitsCRT@_W@ATL@@@@@ATL@@0@Z
	DD	2 DUP(00H)
	DD	2 DUP(00H)
	DD	00H
	DD	01H
; Function compile flags: /Odtp /RTCsu
xdata$x	ENDS
;	COMDAT ?GetClipboardHtmlForPasting@CRTFContentControl@@KAHAAV?$CStringT@_WV?$StrTraitMFC_DLL@_WV?$ChTraitsCRT@_W@ATL@@@@@ATL@@0@Z
_TEXT	SEGMENT
$T187483 = -36						; size = 4
$T187482 = -32						; size = 4
_cb$ = -24						; size = 8
__$EHRec$ = -12						; size = 12
_sHtml$ = 8						; size = 4
_sSourceUrl$ = 12					; size = 4
?GetClipboardHtmlForPasting@CRTFContentControl@@KAHAAV?$CStringT@_WV?$StrTraitMFC_DLL@_WV?$ChTraitsCRT@_W@ATL@@@@@ATL@@0@Z PROC ; CRTFContentControl::GetClipboardHtmlForPasting, COMDAT

; 478  : {

	push	ebp
	mov	ebp, esp
	push	-1
	push	__ehhandler$?GetClipboardHtmlForPasting@CRTFContentControl@@KAHAAV?$CStringT@_WV?$StrTraitMFC_DLL@_WV?$ChTraitsCRT@_W@ATL@@@@@ATL@@0@Z
	mov	eax, DWORD PTR fs:0
	push	eax
	sub	esp, 24					; 00000018H
	push	esi
	mov	eax, -858993460				; ccccccccH
	mov	DWORD PTR [ebp-36], eax
	mov	DWORD PTR [ebp-32], eax
	mov	DWORD PTR [ebp-28], eax
	mov	DWORD PTR [ebp-24], eax
	mov	DWORD PTR [ebp-20], eax
	mov	DWORD PTR [ebp-16], eax
	mov	eax, DWORD PTR ___security_cookie
	xor	eax, ebp
	push	eax
	lea	eax, DWORD PTR __$EHRec$[ebp]
	mov	DWORD PTR fs:0, eax

; 479  : 	CClipboard cb;

	lea	ecx, DWORD PTR _cb$[ebp]
	call	??0CClipboard@@QAE@XZ			; CClipboard::CClipboard
	mov	DWORD PTR __$EHRec$[ebp+8], 0

; 480  : 	
; 481  : 	if (!cb.HasFormat(CBF_RTF) && 
; 482  : 		!cb.HasFormat(CBF_RETEXTOBJ) && 
; 483  : 		!cb.HasFormat(CBF_EMBEDDEDOBJ) &&
; 484  : 		cb.GetText(sHtml, CBF_HTML))

	mov	eax, DWORD PTR _CBF_RTF
	push	eax
	call	?HasFormat@CClipboard@@SAHI@Z		; CClipboard::HasFormat
	add	esp, 4
	test	eax, eax
	jne	$LN2@GetClipboa
	mov	ecx, DWORD PTR _CBF_RETEXTOBJ
	push	ecx
	call	?HasFormat@CClipboard@@SAHI@Z		; CClipboard::HasFormat
	add	esp, 4
	test	eax, eax
	jne	$LN2@GetClipboa
	mov	edx, DWORD PTR _CBF_EMBEDDEDOBJ
	push	edx
	call	?HasFormat@CClipboard@@SAHI@Z		; CClipboard::HasFormat
	add	esp, 4
	test	eax, eax
	jne	$LN2@GetClipboa
	mov	eax, DWORD PTR _CBF_HTML
	push	eax
	mov	ecx, DWORD PTR _sHtml$[ebp]
	push	ecx
	lea	ecx, DWORD PTR _cb$[ebp]
	call	?GetText@CClipboard@@QBEHAAV?$CStringT@_WV?$StrTraitMFC_DLL@_WV?$ChTraitsCRT@_W@ATL@@@@@ATL@@I@Z ; CClipboard::GetText
	test	eax, eax
	je	SHORT $LN2@GetClipboa

; 485  : 	{
; 486  : #ifdef _UNICODE
; 487  : 		// convert to unicode for unpackaging because
; 488  : 		// CF_HTML is saved to the clipboard as UTF8
; 489  : 		Misc::EncodeAsUnicode(sHtml, CP_UTF8);

	push	65001					; 0000fde9H
	mov	edx, DWORD PTR _sHtml$[ebp]
	push	edx
	call	?EncodeAsUnicode@Misc@@YAAAV?$CStringT@_WV?$StrTraitMFC_DLL@_WV?$ChTraitsCRT@_W@ATL@@@@@ATL@@AAV23@I@Z ; Misc::EncodeAsUnicode
	add	esp, 8

; 490  : #endif
; 491  : 		Misc::Trim(sHtml);

	push	0
	mov	eax, DWORD PTR _sHtml$[ebp]
	push	eax
	call	?Trim@Misc@@YAAAV?$CStringT@_WV?$StrTraitMFC_DLL@_WV?$ChTraitsCRT@_W@ATL@@@@@ATL@@AAV23@PB_W@Z ; Misc::Trim
	add	esp, 8

; 492  : 
; 493  : 		cb.UnpackageHTMLFragment(sHtml, sSourceUrl);

	mov	ecx, DWORD PTR _sSourceUrl$[ebp]
	push	ecx
	mov	edx, DWORD PTR _sHtml$[ebp]
	push	edx
	call	?UnpackageHTMLFragment@CClipboard@@SAAAV?$CStringT@_WV?$StrTraitMFC_DLL@_WV?$ChTraitsCRT@_W@ATL@@@@@ATL@@AAV23@0@Z ; CClipboard::UnpackageHTMLFragment
	add	esp, 8

; 494  : 		cb.Close();

	lea	ecx, DWORD PTR _cb$[ebp]
	call	?Close@CClipboard@@QAEHXZ		; CClipboard::Close

; 495  : 		
; 496  : 		if (!sHtml.IsEmpty())

	mov	esi, esp
	mov	ecx, DWORD PTR _sHtml$[ebp]
	call	DWORD PTR __imp_?IsEmpty@?$CSimpleStringT@_W$00@ATL@@QBE_NXZ
	cmp	esi, esp
	call	__RTC_CheckEsp
	movzx	eax, al
	test	eax, eax
	jne	SHORT $LN2@GetClipboa

; 497  : 		{
; 498  : #ifdef _UNICODE
; 499  : 			// convert back to Ansi for translation
; 500  : 			Misc::EncodeAsMultiByte(sHtml);

	push	0
	mov	ecx, DWORD PTR _sHtml$[ebp]
	push	ecx
	call	?EncodeAsMultiByte@Misc@@YAAAV?$CStringT@_WV?$StrTraitMFC_DLL@_WV?$ChTraitsCRT@_W@ATL@@@@@ATL@@AAV23@I@Z ; Misc::EncodeAsMultiByte
	add	esp, 8

; 501  : #endif
; 502  : 			return TRUE;

	mov	DWORD PTR $T187482[ebp], 1
	mov	DWORD PTR __$EHRec$[ebp+8], -1
	lea	ecx, DWORD PTR _cb$[ebp]
	call	??1CClipboard@@QAE@XZ			; CClipboard::~CClipboard
	mov	eax, DWORD PTR $T187482[ebp]
	jmp	SHORT $LN3@GetClipboa
$LN2@GetClipboa:

; 503  : 		}
; 504  : 	}
; 505  : 
; 506  : 	// all else
; 507  : 	return FALSE;

	mov	DWORD PTR $T187483[ebp], 0
	mov	DWORD PTR __$EHRec$[ebp+8], -1
	lea	ecx, DWORD PTR _cb$[ebp]
	call	??1CClipboard@@QAE@XZ			; CClipboard::~CClipboard
	mov	eax, DWORD PTR $T187483[ebp]
$LN3@GetClipboa:

; 508  : }

	push	edx
	mov	ecx, ebp
	push	eax
	lea	edx, DWORD PTR $LN9@GetClipboa
	call	@_RTC_CheckStackVars@8
	pop	eax
	pop	edx
	mov	ecx, DWORD PTR __$EHRec$[ebp]
	mov	DWORD PTR fs:0, ecx
	pop	ecx
	pop	esi
	add	esp, 36					; 00000024H
	cmp	ebp, esp
	call	__RTC_CheckEsp
	mov	esp, ebp
	pop	ebp
	ret	0
	npad	1
$LN9@GetClipboa:
	DD	1
	DD	$LN8@GetClipboa
$LN8@GetClipboa:
	DD	-24					; ffffffe8H
	DD	8
	DD	$LN6@GetClipboa
$LN6@GetClipboa:
	DB	99					; 00000063H
	DB	98					; 00000062H
	DB	0
_TEXT	ENDS
;	COMDAT text$x
text$x	SEGMENT
__unwindfunclet$?GetClipboardHtmlForPasting@CRTFContentControl@@KAHAAV?$CStringT@_WV?$StrTraitMFC_DLL@_WV?$ChTraitsCRT@_W@ATL@@@@@ATL@@0@Z$0:
	lea	ecx, DWORD PTR _cb$[ebp]
	jmp	??1CClipboard@@QAE@XZ			; CClipboard::~CClipboard
__ehhandler$?GetClipboardHtmlForPasting@CRTFContentControl@@KAHAAV?$CStringT@_WV?$StrTraitMFC_DLL@_WV?$ChTraitsCRT@_W@ATL@@@@@ATL@@0@Z:
	mov	edx, DWORD PTR [esp+8]
	lea	eax, DWORD PTR [edx+12]
	mov	ecx, DWORD PTR [edx-32]
	xor	ecx, eax
	call	@__security_check_cookie@4
	mov	eax, OFFSET __ehfuncinfo$?GetClipboardHtmlForPasting@CRTFContentControl@@KAHAAV?$CStringT@_WV?$StrTraitMFC_DLL@_WV?$ChTraitsCRT@_W@ATL@@@@@ATL@@0@Z
	jmp	___CxxFrameHandler3
text$x	ENDS
?GetClipboardHtmlForPasting@CRTFContentControl@@KAHAAV?$CStringT@_WV?$StrTraitMFC_DLL@_WV?$ChTraitsCRT@_W@ATL@@@@@ATL@@0@Z ENDP ; CRTFContentControl::GetClipboardHtmlForPasting
PUBLIC	?GetMakeLinkOptionDefault@CCreateFileLinkDlg@@QBEHXZ ; CCreateFileLinkDlg::GetMakeLinkOptionDefault
PUBLIC	?GetLinkOption@CCreateFileLinkDlg@@QBE?AW4RE_PASTE@@XZ ; CCreateFileLinkDlg::GetLinkOption
PUBLIC	??1CCreateFileLinkDlg@@UAE@XZ			; CCreateFileLinkDlg::~CCreateFileLinkDlg
PUBLIC	?Paste@CRTFContentControl@@IAEHH@Z		; CRTFContentControl::Paste
EXTRN	?SetFileLinkOption@CRulerRichEdit@@QAEXW4RE_PASTE@@H@Z:PROC ; CRulerRichEdit::SetFileLinkOption
EXTRN	?DoModal@CDialog@@UAEHXZ:PROC			; CDialog::DoModal
EXTRN	??0CCreateFileLinkDlg@@QAE@PB_WW4RE_PASTE@@HPAVCWnd@@@Z:PROC ; CCreateFileLinkDlg::CCreateFileLinkDlg
EXTRN	??ACStringArray@@QAEAAV?$CStringT@_WV?$StrTraitMFC_DLL@_WV?$ChTraitsCRT@_W@ATL@@@@@ATL@@H@Z:PROC ; CStringArray::operator[]
EXTRN	?PasteFiles@CRichEditHelper@@SAHPAUHWND__@@ABVCStringArray@@W4RE_PASTE@@@Z:PROC ; CRichEditHelper::PasteFiles
EXTRN	??1CClipboardBackup@@QAE@XZ:PROC		; CClipboardBackup::~CClipboardBackup
EXTRN	?Restore@CClipboardBackup@@QAEHXZ:PROC		; CClipboardBackup::Restore
EXTRN	?AppendSourceUrls@CRulerRichEdit@@QAEHPB_W@Z:PROC ; CRulerRichEdit::AppendSourceUrls
EXTRN	?Paste@CUrlRichEditCtrl@@QAEXXZ:PROC		; CUrlRichEditCtrl::Paste
EXTRN	?SetText@CClipboard@@QBEHABV?$CStringT@_WV?$StrTraitMFC_DLL@_WV?$ChTraitsCRT@_W@ATL@@@@@ATL@@I@Z:PROC ; CClipboard::SetText
EXTRN	??0CClipboard@@QAE@PAUHWND__@@@Z:PROC		; CClipboard::CClipboard
EXTRN	?Backup@CClipboardBackup@@QAEHXZ:PROC		; CClipboardBackup::Backup
EXTRN	?ConvertHtmlToRtf@CRtfHtmlConverter@@QAEHPBDPB_WAAV?$CStringT@_WV?$StrTraitMFC_DLL@_WV?$ChTraitsCRT@_W@ATL@@@@@ATL@@1@Z:PROC ; CRtfHtmlConverter::ConvertHtmlToRtf
EXTRN	??0CClipboardBackup@@QAE@PAUHWND__@@@Z:PROC	; CClipboardBackup::CClipboardBackup
EXTRN	?PasteSimpleText@CUrlRichEditCtrl@@QAEHXZ:PROC	; CUrlRichEditCtrl::PasteSimpleText
EXTRN	??1CStringArray@@UAE@XZ:PROC			; CStringArray::~CStringArray
EXTRN	?AfxMessageBox@@YGHIII@Z:PROC			; AfxMessageBox
EXTRN	?GetDropFilePaths@CClipboard@@QBEHAAVCStringArray@@@Z:PROC ; CClipboard::GetDropFilePaths
EXTRN	??0CStringArray@@QAE@XZ:PROC			; CStringArray::CStringArray
;	COMDAT xdata$x
xdata$x	SEGMENT
__ehfuncinfo$?Paste@CRTFContentControl@@IAEHH@Z DD 019930522H
	DD	08H
	DD	FLAT:__unwindtable$?Paste@CRTFContentControl@@IAEHH@Z
	DD	2 DUP(00H)
	DD	2 DUP(00H)
	DD	00H
	DD	01H
__unwindtable$?Paste@CRTFContentControl@@IAEHH@Z DD 0ffffffffH
	DD	FLAT:__unwindfunclet$?Paste@CRTFContentControl@@IAEHH@Z$0
	DD	00H
	DD	FLAT:__unwindfunclet$?Paste@CRTFContentControl@@IAEHH@Z$1
	DD	00H
	DD	FLAT:__unwindfunclet$?Paste@CRTFContentControl@@IAEHH@Z$2
	DD	02H
	DD	FLAT:__unwindfunclet$?Paste@CRTFContentControl@@IAEHH@Z$3
	DD	03H
	DD	FLAT:__unwindfunclet$?Paste@CRTFContentControl@@IAEHH@Z$4
	DD	04H
	DD	FLAT:__unwindfunclet$?Paste@CRTFContentControl@@IAEHH@Z$5
	DD	05H
	DD	FLAT:__unwindfunclet$?Paste@CRTFContentControl@@IAEHH@Z$6
	DD	00H
	DD	FLAT:__unwindfunclet$?Paste@CRTFContentControl@@IAEHH@Z$7
; Function compile flags: /Odtp /RTCsu
xdata$x	ENDS
;	COMDAT ?Paste@CRTFContentControl@@IAEHH@Z
_TEXT	SEGMENT
tv321 = -364						; size = 4
tv330 = -360						; size = 4
tv74 = -356						; size = 4
tv314 = -352						; size = 4
tv65 = -348						; size = 4
$T187504 = -344						; size = 4
$T187503 = -340						; size = 4
$T187502 = -336						; size = 4
$T187501 = -332						; size = 4
$T187499 = -328						; size = 8
$T187497 = -320						; size = 4
$T187496 = -316						; size = 8
_bDefault$180844 = -308					; size = 4
_nLinkOption$180843 = -304				; size = 4
_dialog$180840 = -296					; size = 160
_sRTF$180825 = -128					; size = 4
_sSourceUrl$180823 = -116				; size = 4
_sHtml$180822 = -104					; size = 4
_bClipboardSaved$180821 = -96				; size = 4
_cbb$180820 = -88					; size = 36
_nNumFiles$ = -48					; size = 4
_aFiles$ = -40						; size = 20
_this$ = -16						; size = 4
__$EHRec$ = -12						; size = 12
_bSimple$ = 8						; size = 4
?Paste@CRTFContentControl@@IAEHH@Z PROC			; CRTFContentControl::Paste, COMDAT
; _this$ = ecx

; 511  : {

	push	ebp
	mov	ebp, esp
	push	-1
	push	__ehhandler$?Paste@CRTFContentControl@@IAEHH@Z
	mov	eax, DWORD PTR fs:0
	push	eax
	sub	esp, 352				; 00000160H
	push	esi
	push	edi
	push	ecx
	lea	edi, DWORD PTR [ebp-364]
	mov	ecx, 88					; 00000058H
	mov	eax, -858993460				; ccccccccH
	rep stosd
	pop	ecx
	mov	eax, DWORD PTR ___security_cookie
	xor	eax, ebp
	push	eax
	lea	eax, DWORD PTR __$EHRec$[ebp]
	mov	DWORD PTR fs:0, eax
	mov	DWORD PTR _this$[ebp], ecx

; 512  : 	CStringArray aFiles;

	lea	ecx, DWORD PTR _aFiles$[ebp]
	call	??0CStringArray@@QAE@XZ			; CStringArray::CStringArray
	mov	DWORD PTR __$EHRec$[ebp+8], 0

; 513  : 	int nNumFiles = CClipboard().GetDropFilePaths(aFiles);

	lea	eax, DWORD PTR _aFiles$[ebp]
	push	eax
	lea	ecx, DWORD PTR $T187496[ebp]
	call	??0CClipboard@@QAE@XZ			; CClipboard::CClipboard
	mov	DWORD PTR tv65[ebp], eax
	mov	ecx, DWORD PTR tv65[ebp]
	mov	DWORD PTR tv314[ebp], ecx
	mov	BYTE PTR __$EHRec$[ebp+8], 1
	mov	ecx, DWORD PTR tv314[ebp]
	call	?GetDropFilePaths@CClipboard@@QBEHAAVCStringArray@@@Z ; CClipboard::GetDropFilePaths
	mov	DWORD PTR _nNumFiles$[ebp], eax
	mov	BYTE PTR __$EHRec$[ebp+8], 0
	lea	ecx, DWORD PTR $T187496[ebp]
	call	??1CClipboard@@QAE@XZ			; CClipboard::~CClipboard

; 514  : 	
; 515  : 	switch (nNumFiles)

	mov	edx, DWORD PTR _nNumFiles$[ebp]
	mov	DWORD PTR tv74[ebp], edx
	cmp	DWORD PTR tv74[ebp], -1
	je	SHORT $LN13@Paste
	cmp	DWORD PTR tv74[ebp], 0
	je	SHORT $LN12@Paste
	jmp	$LN5@Paste
$LN13@Paste:

; 516  : 	{
; 517  : 	case -1:
; 518  : 		AfxMessageBox(IDS_PASTE_ERROR, MB_OK | MB_ICONERROR);

	push	-1
	push	16					; 00000010H
	push	5006					; 0000138eH
	call	?AfxMessageBox@@YGHIII@Z		; AfxMessageBox

; 519  : 		return FALSE;

	mov	DWORD PTR $T187497[ebp], 0
	mov	DWORD PTR __$EHRec$[ebp+8], -1
	lea	ecx, DWORD PTR _aFiles$[ebp]
	call	??1CStringArray@@UAE@XZ			; CStringArray::~CStringArray
	mov	eax, DWORD PTR $T187497[ebp]
	jmp	$LN16@Paste
$LN12@Paste:

; 520  : 		
; 521  : 	case 0:
; 522  : 		if (bSimple)

	cmp	DWORD PTR _bSimple$[ebp], 0
	je	SHORT $LN11@Paste

; 523  : 		{
; 524  : 			m_rtf.PasteSimpleText();

	mov	ecx, DWORD PTR _this$[ebp]
	add	ecx, 304				; 00000130H
	call	?PasteSimpleText@CUrlRichEditCtrl@@QAEHXZ ; CUrlRichEditCtrl::PasteSimpleText

; 525  : 		}
; 526  : 		else // may need conversion

	jmp	$LN10@Paste
$LN11@Paste:

; 527  : 		{
; 528  : 			// if there is HTML but not RTF then convert the HTML to RTF
; 529  : 			// and add it to the current clipboard contents
; 530  : 			CClipboardBackup cbb(*this);

	mov	ecx, DWORD PTR _this$[ebp]
	call	??BCWnd@@QBEPAUHWND__@@XZ		; CWnd::operator HWND__ *
	push	eax
	lea	ecx, DWORD PTR _cbb$180820[ebp]
	call	??0CClipboardBackup@@QAE@PAUHWND__@@@Z	; CClipboardBackup::CClipboardBackup
	mov	BYTE PTR __$EHRec$[ebp+8], 2

; 531  : 			BOOL bClipboardSaved = FALSE;

	mov	DWORD PTR _bClipboardSaved$180821[ebp], 0

; 532  : 
; 533  : 			CString sHtml, sSourceUrl;

	mov	esi, esp
	lea	ecx, DWORD PTR _sHtml$180822[ebp]
	call	DWORD PTR __imp_??0?$CStringT@_WV?$StrTraitMFC_DLL@_WV?$ChTraitsCRT@_W@ATL@@@@@ATL@@QAE@XZ
	cmp	esi, esp
	call	__RTC_CheckEsp
	mov	BYTE PTR __$EHRec$[ebp+8], 3
	mov	esi, esp
	lea	ecx, DWORD PTR _sSourceUrl$180823[ebp]
	call	DWORD PTR __imp_??0?$CStringT@_WV?$StrTraitMFC_DLL@_WV?$ChTraitsCRT@_W@ATL@@@@@ATL@@QAE@XZ
	cmp	esi, esp
	call	__RTC_CheckEsp
	mov	BYTE PTR __$EHRec$[ebp+8], 4

; 534  : 			
; 535  : 			if (GetClipboardHtmlForPasting(sHtml, sSourceUrl))

	lea	eax, DWORD PTR _sSourceUrl$180823[ebp]
	push	eax
	lea	ecx, DWORD PTR _sHtml$180822[ebp]
	push	ecx
	call	?GetClipboardHtmlForPasting@CRTFContentControl@@KAHAAV?$CStringT@_WV?$StrTraitMFC_DLL@_WV?$ChTraitsCRT@_W@ATL@@@@@ATL@@0@Z ; CRTFContentControl::GetClipboardHtmlForPasting
	add	esp, 8
	test	eax, eax
	je	$LN9@Paste

; 536  : 			{
; 537  : 				CString sRTF;

	mov	esi, esp
	lea	ecx, DWORD PTR _sRTF$180825[ebp]
	call	DWORD PTR __imp_??0?$CStringT@_WV?$StrTraitMFC_DLL@_WV?$ChTraitsCRT@_W@ATL@@@@@ATL@@QAE@XZ
	cmp	esi, esp
	call	__RTC_CheckEsp
	mov	BYTE PTR __$EHRec$[ebp+8], 5

; 538  : 				
; 539  : 				if (m_rtfHtml.ConvertHtmlToRtf((LPCSTR)(LPCTSTR)sHtml, NULL, sRTF, NULL))

	push	0
	lea	edx, DWORD PTR _sRTF$180825[ebp]
	push	edx
	push	0
	mov	esi, esp
	lea	ecx, DWORD PTR _sHtml$180822[ebp]
	call	DWORD PTR __imp_??B?$CSimpleStringT@_W$00@ATL@@QBEPB_WXZ
	cmp	esi, esp
	call	__RTC_CheckEsp
	push	eax
	mov	eax, DWORD PTR _this$[ebp]
	mov	ecx, DWORD PTR [eax+1908]
	call	?ConvertHtmlToRtf@CRtfHtmlConverter@@QAEHPBDPB_WAAV?$CStringT@_WV?$StrTraitMFC_DLL@_WV?$ChTraitsCRT@_W@ATL@@@@@ATL@@1@Z ; CRtfHtmlConverter::ConvertHtmlToRtf
	test	eax, eax
	je	$LN8@Paste

; 540  : 				{
; 541  : #ifdef _UNICODE
; 542  : 					// convert back to Ansi (not UTF8) for clipboard
; 543  : 					Misc::EncodeAsMultiByte(sRTF);

	push	0
	lea	ecx, DWORD PTR _sRTF$180825[ebp]
	push	ecx
	call	?EncodeAsMultiByte@Misc@@YAAAV?$CStringT@_WV?$StrTraitMFC_DLL@_WV?$ChTraitsCRT@_W@ATL@@@@@ATL@@AAV23@I@Z ; Misc::EncodeAsMultiByte
	add	esp, 8

; 544  : #endif
; 545  : 					// backup the current clipboard
; 546  : 					bClipboardSaved = cbb.Backup();

	lea	ecx, DWORD PTR _cbb$180820[ebp]
	call	?Backup@CClipboardBackup@@QAEHXZ	; CClipboardBackup::Backup
	mov	DWORD PTR _bClipboardSaved$180821[ebp], eax

; 547  : 					ASSERT(bClipboardSaved);

	cmp	DWORD PTR _bClipboardSaved$180821[ebp], 0
	jne	SHORT $LN18@Paste
	push	547					; 00000223H
	push	OFFSET _THIS_FILE
	call	?AfxAssertFailedLine@@YGHPBDH@Z		; AfxAssertFailedLine
	test	eax, eax
	je	SHORT $LN18@Paste
	int	3
$LN18@Paste:

; 548  : 					
; 549  : 					// overwrite with RTF
; 550  : 					CClipboard(*this).SetText(sRTF, CBF_RTF);

	mov	eax, DWORD PTR _CBF_RTF
	push	eax
	lea	ecx, DWORD PTR _sRTF$180825[ebp]
	push	ecx
	mov	ecx, DWORD PTR _this$[ebp]
	call	??BCWnd@@QBEPAUHWND__@@XZ		; CWnd::operator HWND__ *
	push	eax
	lea	ecx, DWORD PTR $T187499[ebp]
	call	??0CClipboard@@QAE@PAUHWND__@@@Z	; CClipboard::CClipboard
	mov	DWORD PTR tv330[ebp], eax
	mov	edx, DWORD PTR tv330[ebp]
	mov	DWORD PTR tv321[ebp], edx
	mov	BYTE PTR __$EHRec$[ebp+8], 6
	mov	ecx, DWORD PTR tv321[ebp]
	call	?SetText@CClipboard@@QBEHABV?$CStringT@_WV?$StrTraitMFC_DLL@_WV?$ChTraitsCRT@_W@ATL@@@@@ATL@@I@Z ; CClipboard::SetText
	mov	BYTE PTR __$EHRec$[ebp+8], 5
	lea	ecx, DWORD PTR $T187499[ebp]
	call	??1CClipboard@@QAE@XZ			; CClipboard::~CClipboard
$LN8@Paste:

; 551  : 				}
; 552  : 			}

	mov	BYTE PTR __$EHRec$[ebp+8], 4
	mov	esi, esp
	lea	ecx, DWORD PTR _sRTF$180825[ebp]
	call	DWORD PTR __imp_??1?$CStringT@_WV?$StrTraitMFC_DLL@_WV?$ChTraitsCRT@_W@ATL@@@@@ATL@@QAE@XZ
	cmp	esi, esp
	call	__RTC_CheckEsp
$LN9@Paste:

; 553  : 
; 554  : 			// do the actual paste
; 555  : 			m_rtf.Paste();

	mov	ecx, DWORD PTR _this$[ebp]
	add	ecx, 304				; 00000130H
	call	?Paste@CUrlRichEditCtrl@@QAEXXZ		; CUrlRichEditCtrl::Paste

; 556  : 
; 557  : 			// In the case where we overwrote the clipboard
; 558  : 			// we also need handle any source Url 
; 559  : 			if (!sSourceUrl.IsEmpty())

	mov	esi, esp
	lea	ecx, DWORD PTR _sSourceUrl$180823[ebp]
	call	DWORD PTR __imp_?IsEmpty@?$CSimpleStringT@_W$00@ATL@@QBE_NXZ
	cmp	esi, esp
	call	__RTC_CheckEsp
	movzx	eax, al
	test	eax, eax
	jne	SHORT $LN7@Paste

; 560  : 				m_rtf.AppendSourceUrls(sSourceUrl);

	mov	esi, esp
	lea	ecx, DWORD PTR _sSourceUrl$180823[ebp]
	call	DWORD PTR __imp_??B?$CSimpleStringT@_W$00@ATL@@QBEPB_WXZ
	cmp	esi, esp
	call	__RTC_CheckEsp
	push	eax
	mov	ecx, DWORD PTR _this$[ebp]
	add	ecx, 304				; 00000130H
	call	?AppendSourceUrls@CRulerRichEdit@@QAEHPB_W@Z ; CRulerRichEdit::AppendSourceUrls
$LN7@Paste:

; 561  : 			
; 562  : 			// restore the clipboard
; 563  : 			if (bClipboardSaved)

	cmp	DWORD PTR _bClipboardSaved$180821[ebp], 0
	je	SHORT $LN6@Paste

; 564  : 				VERIFY(cbb.Restore());

	lea	ecx, DWORD PTR _cbb$180820[ebp]
	call	?Restore@CClipboardBackup@@QAEHXZ	; CClipboardBackup::Restore
	test	eax, eax
	jne	SHORT $LN6@Paste
	push	564					; 00000234H
	push	OFFSET _THIS_FILE
	call	?AfxAssertFailedLine@@YGHPBDH@Z		; AfxAssertFailedLine
	test	eax, eax
	je	SHORT $LN6@Paste
	int	3
$LN6@Paste:

; 565  : 		}

	mov	BYTE PTR __$EHRec$[ebp+8], 3
	mov	esi, esp
	lea	ecx, DWORD PTR _sSourceUrl$180823[ebp]
	call	DWORD PTR __imp_??1?$CStringT@_WV?$StrTraitMFC_DLL@_WV?$ChTraitsCRT@_W@ATL@@@@@ATL@@QAE@XZ
	cmp	esi, esp
	call	__RTC_CheckEsp
	mov	BYTE PTR __$EHRec$[ebp+8], 2
	mov	esi, esp
	lea	ecx, DWORD PTR _sHtml$180822[ebp]
	call	DWORD PTR __imp_??1?$CStringT@_WV?$StrTraitMFC_DLL@_WV?$ChTraitsCRT@_W@ATL@@@@@ATL@@QAE@XZ
	cmp	esi, esp
	call	__RTC_CheckEsp
	mov	BYTE PTR __$EHRec$[ebp+8], 0
	lea	ecx, DWORD PTR _cbb$180820[ebp]
	call	??1CClipboardBackup@@QAE@XZ		; CClipboardBackup::~CClipboardBackup
$LN10@Paste:

; 566  : 		return TRUE;

	mov	DWORD PTR $T187501[ebp], 1
	mov	DWORD PTR __$EHRec$[ebp+8], -1
	lea	ecx, DWORD PTR _aFiles$[ebp]
	call	??1CStringArray@@UAE@XZ			; CStringArray::~CStringArray
	mov	eax, DWORD PTR $T187501[ebp]
	jmp	$LN16@Paste
$LN5@Paste:

; 567  : 		
; 568  : 	default: // 1 or more filenames 
; 569  : 		if (bSimple)

	cmp	DWORD PTR _bSimple$[ebp], 0
	je	SHORT $LN4@Paste

; 570  : 		{
; 571  : 			return CRichEditHelper::PasteFiles(m_rtf, aFiles, REP_ASFILEURL);

	push	0
	lea	edx, DWORD PTR _aFiles$[ebp]
	push	edx
	mov	ecx, DWORD PTR _this$[ebp]
	add	ecx, 304				; 00000130H
	call	??BCWnd@@QBEPAUHWND__@@XZ		; CWnd::operator HWND__ *
	push	eax
	call	?PasteFiles@CRichEditHelper@@SAHPAUHWND__@@ABVCStringArray@@W4RE_PASTE@@@Z ; CRichEditHelper::PasteFiles
	add	esp, 12					; 0000000cH
	mov	DWORD PTR $T187502[ebp], eax
	mov	DWORD PTR __$EHRec$[ebp+8], -1
	lea	ecx, DWORD PTR _aFiles$[ebp]
	call	??1CStringArray@@UAE@XZ			; CStringArray::~CStringArray
	mov	eax, DWORD PTR $T187502[ebp]
	jmp	$LN16@Paste

; 572  : 		}
; 573  : 		else

	jmp	$LN14@Paste
$LN4@Paste:

; 574  : 		{
; 575  : 			if (!m_rtf.IsFileLinkOptionDefault())

	mov	ecx, DWORD PTR _this$[ebp]
	add	ecx, 304				; 00000130H
	call	?IsFileLinkOptionDefault@CRulerRichEdit@@QBEHXZ ; CRulerRichEdit::IsFileLinkOptionDefault
	test	eax, eax
	jne	$LN2@Paste

; 576  : 			{
; 577  : 				CCreateFileLinkDlg dialog(aFiles[0], m_rtf.GetFileLinkOption(), FALSE);

	push	0
	push	0
	mov	ecx, DWORD PTR _this$[ebp]
	add	ecx, 304				; 00000130H
	call	?GetFileLinkOption@CRulerRichEdit@@QBE?AW4RE_PASTE@@XZ ; CRulerRichEdit::GetFileLinkOption
	push	eax
	push	0
	lea	ecx, DWORD PTR _aFiles$[ebp]
	call	??ACStringArray@@QAEAAV?$CStringT@_WV?$StrTraitMFC_DLL@_WV?$ChTraitsCRT@_W@ATL@@@@@ATL@@H@Z ; CStringArray::operator[]
	mov	esi, esp
	mov	ecx, eax
	call	DWORD PTR __imp_??B?$CSimpleStringT@_W$00@ATL@@QBEPB_WXZ
	cmp	esi, esp
	call	__RTC_CheckEsp
	push	eax
	lea	ecx, DWORD PTR _dialog$180840[ebp]
	call	??0CCreateFileLinkDlg@@QAE@PB_WW4RE_PASTE@@HPAVCWnd@@@Z ; CCreateFileLinkDlg::CCreateFileLinkDlg
	mov	BYTE PTR __$EHRec$[ebp+8], 7

; 578  : 				
; 579  : 				if (dialog.DoModal() != IDOK)

	lea	ecx, DWORD PTR _dialog$180840[ebp]
	call	?DoModal@CDialog@@UAEHXZ		; CDialog::DoModal
	cmp	eax, 1
	je	SHORT $LN1@Paste

; 580  : 					return FALSE; // cancelled

	mov	DWORD PTR $T187503[ebp], 0
	mov	BYTE PTR __$EHRec$[ebp+8], 0
	lea	ecx, DWORD PTR _dialog$180840[ebp]
	call	??1CCreateFileLinkDlg@@UAE@XZ
	mov	DWORD PTR __$EHRec$[ebp+8], -1
	lea	ecx, DWORD PTR _aFiles$[ebp]
	call	??1CStringArray@@UAE@XZ			; CStringArray::~CStringArray
	mov	eax, DWORD PTR $T187503[ebp]
	jmp	$LN16@Paste
$LN1@Paste:

; 581  : 
; 582  : 				// else
; 583  : 				RE_PASTE nLinkOption = dialog.GetLinkOption();

	lea	ecx, DWORD PTR _dialog$180840[ebp]
	call	?GetLinkOption@CCreateFileLinkDlg@@QBE?AW4RE_PASTE@@XZ ; CCreateFileLinkDlg::GetLinkOption
	mov	DWORD PTR _nLinkOption$180843[ebp], eax

; 584  : 				BOOL bDefault = dialog.GetMakeLinkOptionDefault();

	lea	ecx, DWORD PTR _dialog$180840[ebp]
	call	?GetMakeLinkOptionDefault@CCreateFileLinkDlg@@QBEHXZ ; CCreateFileLinkDlg::GetMakeLinkOptionDefault
	mov	DWORD PTR _bDefault$180844[ebp], eax

; 585  : 					
; 586  : 				m_rtf.SetFileLinkOption(nLinkOption, bDefault);

	mov	eax, DWORD PTR _bDefault$180844[ebp]
	push	eax
	mov	ecx, DWORD PTR _nLinkOption$180843[ebp]
	push	ecx
	mov	ecx, DWORD PTR _this$[ebp]
	add	ecx, 304				; 00000130H
	call	?SetFileLinkOption@CRulerRichEdit@@QAEXW4RE_PASTE@@H@Z ; CRulerRichEdit::SetFileLinkOption

; 587  : 			}

	mov	BYTE PTR __$EHRec$[ebp+8], 0
	lea	ecx, DWORD PTR _dialog$180840[ebp]
	call	??1CCreateFileLinkDlg@@UAE@XZ
$LN2@Paste:

; 588  : 			
; 589  : 			return CRichEditHelper::PasteFiles(m_rtf, aFiles, m_rtf.GetFileLinkOption());

	mov	ecx, DWORD PTR _this$[ebp]
	add	ecx, 304				; 00000130H
	call	?GetFileLinkOption@CRulerRichEdit@@QBE?AW4RE_PASTE@@XZ ; CRulerRichEdit::GetFileLinkOption
	push	eax
	lea	edx, DWORD PTR _aFiles$[ebp]
	push	edx
	mov	ecx, DWORD PTR _this$[ebp]
	add	ecx, 304				; 00000130H
	call	??BCWnd@@QBEPAUHWND__@@XZ		; CWnd::operator HWND__ *
	push	eax
	call	?PasteFiles@CRichEditHelper@@SAHPAUHWND__@@ABVCStringArray@@W4RE_PASTE@@@Z ; CRichEditHelper::PasteFiles
	add	esp, 12					; 0000000cH
	mov	DWORD PTR $T187504[ebp], eax
	mov	DWORD PTR __$EHRec$[ebp+8], -1
	lea	ecx, DWORD PTR _aFiles$[ebp]
	call	??1CStringArray@@UAE@XZ			; CStringArray::~CStringArray
	mov	eax, DWORD PTR $T187504[ebp]
	jmp	SHORT $LN16@Paste
$LN14@Paste:

; 590  : 		}
; 591  : 	}
; 592  : }

	mov	DWORD PTR __$EHRec$[ebp+8], -1
	lea	ecx, DWORD PTR _aFiles$[ebp]
	call	??1CStringArray@@UAE@XZ			; CStringArray::~CStringArray
$LN16@Paste:
	push	edx
	mov	ecx, ebp
	push	eax
	lea	edx, DWORD PTR $LN36@Paste
	call	@_RTC_CheckStackVars@8
	pop	eax
	pop	edx
	mov	ecx, DWORD PTR __$EHRec$[ebp]
	mov	DWORD PTR fs:0, ecx
	pop	ecx
	pop	edi
	pop	esi
	add	esp, 364				; 0000016cH
	cmp	ebp, esp
	call	__RTC_CheckEsp
	mov	esp, ebp
	pop	ebp
	ret	4
$LN36@Paste:
	DD	6
	DD	$LN35@Paste
$LN35@Paste:
	DD	-40					; ffffffd8H
	DD	20					; 00000014H
	DD	$LN28@Paste
	DD	-88					; ffffffa8H
	DD	36					; 00000024H
	DD	$LN29@Paste
	DD	-104					; ffffff98H
	DD	4
	DD	$LN30@Paste
	DD	-116					; ffffff8cH
	DD	4
	DD	$LN31@Paste
	DD	-128					; ffffff80H
	DD	4
	DD	$LN32@Paste
	DD	-296					; fffffed8H
	DD	160					; 000000a0H
	DD	$LN33@Paste
$LN33@Paste:
	DB	100					; 00000064H
	DB	105					; 00000069H
	DB	97					; 00000061H
	DB	108					; 0000006cH
	DB	111					; 0000006fH
	DB	103					; 00000067H
	DB	0
$LN32@Paste:
	DB	115					; 00000073H
	DB	82					; 00000052H
	DB	84					; 00000054H
	DB	70					; 00000046H
	DB	0
$LN31@Paste:
	DB	115					; 00000073H
	DB	83					; 00000053H
	DB	111					; 0000006fH
	DB	117					; 00000075H
	DB	114					; 00000072H
	DB	99					; 00000063H
	DB	101					; 00000065H
	DB	85					; 00000055H
	DB	114					; 00000072H
	DB	108					; 0000006cH
	DB	0
$LN30@Paste:
	DB	115					; 00000073H
	DB	72					; 00000048H
	DB	116					; 00000074H
	DB	109					; 0000006dH
	DB	108					; 0000006cH
	DB	0
$LN29@Paste:
	DB	99					; 00000063H
	DB	98					; 00000062H
	DB	98					; 00000062H
	DB	0
$LN28@Paste:
	DB	97					; 00000061H
	DB	70					; 00000046H
	DB	105					; 00000069H
	DB	108					; 0000006cH
	DB	101					; 00000065H
	DB	115					; 00000073H
	DB	0
_TEXT	ENDS
;	COMDAT text$x
text$x	SEGMENT
__unwindfunclet$?Paste@CRTFContentControl@@IAEHH@Z$0:
	lea	ecx, DWORD PTR _aFiles$[ebp]
	jmp	??1CStringArray@@UAE@XZ			; CStringArray::~CStringArray
__unwindfunclet$?Paste@CRTFContentControl@@IAEHH@Z$1:
	lea	ecx, DWORD PTR $T187496[ebp]
	jmp	??1CClipboard@@QAE@XZ			; CClipboard::~CClipboard
__unwindfunclet$?Paste@CRTFContentControl@@IAEHH@Z$2:
	lea	ecx, DWORD PTR _cbb$180820[ebp]
	jmp	??1CClipboardBackup@@QAE@XZ		; CClipboardBackup::~CClipboardBackup
__unwindfunclet$?Paste@CRTFContentControl@@IAEHH@Z$3:
	mov	esi, esp
	lea	ecx, DWORD PTR _sHtml$180822[ebp]
	call	DWORD PTR __imp_??1?$CStringT@_WV?$StrTraitMFC_DLL@_WV?$ChTraitsCRT@_W@ATL@@@@@ATL@@QAE@XZ
	cmp	esi, esp
	jmp	__RTC_CheckEsp
__unwindfunclet$?Paste@CRTFContentControl@@IAEHH@Z$4:
	mov	esi, esp
	lea	ecx, DWORD PTR _sSourceUrl$180823[ebp]
	call	DWORD PTR __imp_??1?$CStringT@_WV?$StrTraitMFC_DLL@_WV?$ChTraitsCRT@_W@ATL@@@@@ATL@@QAE@XZ
	cmp	esi, esp
	jmp	__RTC_CheckEsp
__unwindfunclet$?Paste@CRTFContentControl@@IAEHH@Z$5:
	mov	esi, esp
	lea	ecx, DWORD PTR _sRTF$180825[ebp]
	call	DWORD PTR __imp_??1?$CStringT@_WV?$StrTraitMFC_DLL@_WV?$ChTraitsCRT@_W@ATL@@@@@ATL@@QAE@XZ
	cmp	esi, esp
	jmp	__RTC_CheckEsp
__unwindfunclet$?Paste@CRTFContentControl@@IAEHH@Z$6:
	lea	ecx, DWORD PTR $T187499[ebp]
	jmp	??1CClipboard@@QAE@XZ			; CClipboard::~CClipboard
__unwindfunclet$?Paste@CRTFContentControl@@IAEHH@Z$7:
	lea	ecx, DWORD PTR _dialog$180840[ebp]
	jmp	??1CCreateFileLinkDlg@@UAE@XZ
__ehhandler$?Paste@CRTFContentControl@@IAEHH@Z:
	mov	edx, DWORD PTR [esp+8]
	lea	eax, DWORD PTR [edx+12]
	mov	ecx, DWORD PTR [edx-364]
	xor	ecx, eax
	call	@__security_check_cookie@4
	mov	eax, OFFSET __ehfuncinfo$?Paste@CRTFContentControl@@IAEHH@Z
	jmp	___CxxFrameHandler3
text$x	ENDS
?Paste@CRTFContentControl@@IAEHH@Z ENDP			; CRTFContentControl::Paste
; Function compile flags: /Odtp /RTCsu
; File d:\_code\rtfcontentctrl\createfilelinkdlg.h
;	COMDAT ?GetLinkOption@CCreateFileLinkDlg@@QBE?AW4RE_PASTE@@XZ
_TEXT	SEGMENT
_this$ = -4						; size = 4
?GetLinkOption@CCreateFileLinkDlg@@QBE?AW4RE_PASTE@@XZ PROC ; CCreateFileLinkDlg::GetLinkOption, COMDAT
; _this$ = ecx

; 21   : 	RE_PASTE GetLinkOption() const { return (RE_PASTE)m_nLinkOption; }

	push	ebp
	mov	ebp, esp
	push	ecx
	mov	DWORD PTR [ebp-4], -858993460		; ccccccccH
	mov	DWORD PTR _this$[ebp], ecx
	mov	eax, DWORD PTR _this$[ebp]
	mov	eax, DWORD PTR [eax+152]
	mov	esp, ebp
	pop	ebp
	ret	0
?GetLinkOption@CCreateFileLinkDlg@@QBE?AW4RE_PASTE@@XZ ENDP ; CCreateFileLinkDlg::GetLinkOption
; Function compile flags: /Odtp /RTCsu
_TEXT	ENDS
;	COMDAT ?GetMakeLinkOptionDefault@CCreateFileLinkDlg@@QBEHXZ
_TEXT	SEGMENT
_this$ = -4						; size = 4
?GetMakeLinkOptionDefault@CCreateFileLinkDlg@@QBEHXZ PROC ; CCreateFileLinkDlg::GetMakeLinkOptionDefault, COMDAT
; _this$ = ecx

; 22   : 	BOOL GetMakeLinkOptionDefault() const { return m_bMakeDefault; }

	push	ebp
	mov	ebp, esp
	push	ecx
	mov	DWORD PTR [ebp-4], -858993460		; ccccccccH
	mov	DWORD PTR _this$[ebp], ecx
	mov	eax, DWORD PTR _this$[ebp]
	mov	eax, DWORD PTR [eax+148]
	mov	esp, ebp
	pop	ebp
	ret	0
?GetMakeLinkOptionDefault@CCreateFileLinkDlg@@QBEHXZ ENDP ; CCreateFileLinkDlg::GetMakeLinkOptionDefault
; Function compile flags: /Odtp /RTCsu
_TEXT	ENDS
;	COMDAT ??1CCreateFileLinkDlg@@UAE@XZ
_TEXT	SEGMENT
_this$ = -4						; size = 4
??1CCreateFileLinkDlg@@UAE@XZ PROC			; CCreateFileLinkDlg::~CCreateFileLinkDlg, COMDAT
; _this$ = ecx
	push	ebp
	mov	ebp, esp
	push	ecx
	push	esi
	mov	DWORD PTR [ebp-4], -858993460		; ccccccccH
	mov	DWORD PTR _this$[ebp], ecx
	mov	ecx, DWORD PTR _this$[ebp]
	add	ecx, 156				; 0000009cH
	mov	esi, esp
	call	DWORD PTR __imp_??1?$CStringT@_WV?$StrTraitMFC_DLL@_WV?$ChTraitsCRT@_W@ATL@@@@@ATL@@QAE@XZ
	cmp	esi, esp
	call	__RTC_CheckEsp
	mov	ecx, DWORD PTR _this$[ebp]
	call	??1CDialog@@UAE@XZ			; CDialog::~CDialog
	pop	esi
	add	esp, 4
	cmp	ebp, esp
	call	__RTC_CheckEsp
	mov	esp, ebp
	pop	ebp
	ret	0
??1CCreateFileLinkDlg@@UAE@XZ ENDP			; CCreateFileLinkDlg::~CCreateFileLinkDlg
_TEXT	ENDS
PUBLIC	?CanPaste@CRTFContentControl@@IAEHXZ		; CRTFContentControl::CanPaste
EXTRN	?CanPaste@CRichEditCtrl@@QBEHI@Z:PROC		; CRichEditCtrl::CanPaste
; Function compile flags: /Odtp /RTCsu
; File d:\_code\rtfcontentctrl\rtfcontentcontrol.cpp
;	COMDAT ?CanPaste@CRTFContentControl@@IAEHXZ
_TEXT	SEGMENT
_i$180853 = -12						; size = 4
_bCanPaste$ = -8					; size = 4
_this$ = -4						; size = 4
?CanPaste@CRTFContentControl@@IAEHXZ PROC		; CRTFContentControl::CanPaste, COMDAT
; _this$ = ecx

; 595  : {

	push	ebp
	mov	ebp, esp
	sub	esp, 12					; 0000000cH
	mov	DWORD PTR [ebp-12], -858993460		; ccccccccH
	mov	DWORD PTR [ebp-8], -858993460		; ccccccccH
	mov	DWORD PTR [ebp-4], -858993460		; ccccccccH
	mov	DWORD PTR _this$[ebp], ecx

; 596  : 	// for reasons that I'm not entirely clear on even if we 
; 597  : 	// return that CF_HDROP is okay, the richedit itself will
; 598  : 	// veto the drop. So I'm experimenting with handling this ourselves
; 599  : 	if (CClipboard::HasFormat(CF_HDROP))

	push	15					; 0000000fH
	call	?HasFormat@CClipboard@@SAHI@Z		; CClipboard::HasFormat
	add	esp, 4
	test	eax, eax
	je	SHORT $LN5@CanPaste

; 600  : 		return TRUE;

	mov	eax, 1
	jmp	SHORT $LN6@CanPaste
$LN5@CanPaste:

; 601  : 
; 602  : 	// else try richedit itself
; 603  : 	BOOL bCanPaste = FALSE;

	mov	DWORD PTR _bCanPaste$[ebp], 0

; 604  : 	
; 605  : 	for (int i=0; i < NUM_PASTE_FMTS; i++)

	mov	DWORD PTR _i$180853[ebp], 0
	jmp	SHORT $LN4@CanPaste
$LN3@CanPaste:
	mov	eax, DWORD PTR _i$180853[ebp]
	add	eax, 1
	mov	DWORD PTR _i$180853[ebp], eax
$LN4@CanPaste:
	cmp	DWORD PTR _i$180853[ebp], 8
	jge	SHORT $LN2@CanPaste

; 606  : 		bCanPaste |= m_rtf.CanPaste(PASTE_FMTS[i]);

	mov	ecx, DWORD PTR _i$180853[ebp]
	mov	edx, DWORD PTR _PASTE_FMTS[ecx*4]
	push	edx
