; Listing generated by Microsoft (R) Optimizing Compiler Version 16.00.40219.01 

	TITLE	D:\_code\RTFContentCtrl\RTFContentCtrl.cpp
	.686P
	.XMM
	include listing.inc
	.model	flat

INCLUDELIB MSVCRTD
INCLUDELIB OLDNAMES

_DATA	SEGMENT
_THIS_FILE DB	'RTFContentCtrl.cpp', 00H
_DATA	ENDS
CONST	SEGMENT
$SG171208 DB	'W', 00H, 'M', 00H, '_', 00H, 'I', 00H, 'C', 00H, 'C', 00H
	DB	'_', 00H, 'W', 00H, 'A', 00H, 'N', 00H, 'T', 00H, 'S', 00H, 'P'
	DB	00H, 'E', 00H, 'L', 00H, 'L', 00H, 'C', 00H, 'H', 00H, 'E', 00H
	DB	'C', 00H, 'K', 00H, 00H, 00H
$SG171213 DB	'W', 00H, 'M', 00H, '_', 00H, 'I', 00H, 'C', 00H, 'C', 00H
	DB	'_', 00H, 'C', 00H, 'O', 00H, 'M', 00H, 'M', 00H, 'E', 00H, 'N'
	DB	00H, 'T', 00H, 'S', 00H, 'C', 00H, 'H', 00H, 'A', 00H, 'N', 00H
	DB	'G', 00H, 'E', 00H, 00H, 00H
$SG171218 DB	'W', 00H, 'M', 00H, '_', 00H, 'I', 00H, 'C', 00H, 'C', 00H
	DB	'_', 00H, 'C', 00H, 'O', 00H, 'M', 00H, 'M', 00H, 'E', 00H, 'N'
	DB	00H, 'T', 00H, 'S', 00H, 'K', 00H, 'I', 00H, 'L', 00H, 'L', 00H
	DB	'F', 00H, 'O', 00H, 'C', 00H, 'U', 00H, 'S', 00H, 00H, 00H
	ORG $+2
$SG171240 DB	'CreateContentInterface', 00H
	ORG $+1
$SG171245 DB	'GetInterfaceVersion', 00H
$SG171258 DB	'CreateContentInterface', 00H
	ORG $+1
$SG171336 DB	'8', 00H, '4', 00H, '9', 00H, 'C', 00H, 'F', 00H, '9', 00H
	DB	'8', 00H, '8', 00H, '-', 00H, '7', 00H, '9', 00H, 'F', 00H, 'E'
	DB	00H, '-', 00H, '4', 00H, '1', 00H, '8', 00H, 'A', 00H, '-', 00H
	DB	'A', 00H, '4', 00H, '0', 00H, 'D', 00H, '-', 00H, '0', 00H, '1'
	DB	00H, 'F', 00H, 'E', 00H, '3', 00H, 'A', 00H, 'F', 00H, 'C', 00H
	DB	'A', 00H, 'B', 00H, '2', 00H, 'C', 00H, 00H, 00H
	ORG $+2
_RTF_TYPEID DD	FLAT:$SG171336
$SG172007 DB	'W', 00H, 'M', 00H, '_', 00H, 'U', 00H, 'R', 00H, 'E', 00H
	DB	'N', 00H, '_', 00H, 'C', 00H, 'U', 00H, 'S', 00H, 'T', 00H, 'O'
	DB	00H, 'M', 00H, 'U', 00H, 'R', 00H, 'L', 00H, 00H, 00H
$SG172012 DB	'W', 00H, 'M', 00H, '_', 00H, 'U', 00H, 'R', 00H, 'E', 00H
	DB	'N', 00H, '_', 00H, 'F', 00H, 'A', 00H, 'I', 00H, 'L', 00H, 'E'
	DB	00H, 'D', 00H, 'U', 00H, 'R', 00H, 'L', 00H, 00H, 00H
$SG173858 DB	'CreateSpellCheckerInterface', 00H
$SG173865 DB	'GetInterfaceVersion', 00H
$SG173874 DB	'CreateSpellCheckerInterface', 00H
$SG175790 DB	'CreateTransTextInterface', 00H
	ORG $+3
$SG175797 DB	'GetInterfaceVersion', 00H
$SG175806 DB	'CreateTransTextInterface', 00H
	ORG $+3
$SG176071 DB	'C', 00H, 'o', 00H, 'n', 00H, 'v', 00H, 'e', 00H, 'r', 00H
	DB	't', 00H, 'W', 00H, 'i', 00H, 't', 00H, 'h', 00H, 'M', 00H, 'S'
	DB	00H, 'W', 00H, 'o', 00H, 'r', 00H, 'd', 00H, 00H, 00H
$SG176072 DB	'I', 00H, 'n', 00H, 'l', 00H, 'i', 00H, 'n', 00H, 'e', 00H
	DB	'S', 00H, 'p', 00H, 'e', 00H, 'l', 00H, 'l', 00H, 'C', 00H, 'h'
	DB	00H, 'e', 00H, 'c', 00H, 'k', 00H, 'i', 00H, 'n', 00H, 'g', 00H
	DB	00H, 00H
$SG176080 DB	'C', 00H, 'o', 00H, 'n', 00H, 'v', 00H, 'e', 00H, 'r', 00H
	DB	't', 00H, 'W', 00H, 'i', 00H, 't', 00H, 'h', 00H, 'M', 00H, 'S'
	DB	00H, 'W', 00H, 'o', 00H, 'r', 00H, 'd', 00H, 00H, 00H
$SG176082 DB	'I', 00H, 'n', 00H, 'l', 00H, 'i', 00H, 'n', 00H, 'e', 00H
	DB	'S', 00H, 'p', 00H, 'e', 00H, 'l', 00H, 'l', 00H, 'C', 00H, 'h'
	DB	00H, 'e', 00H, 'c', 00H, 'k', 00H, 'i', 00H, 'n', 00H, 'g', 00H
	DB	00H, 00H
$SG176097 DB	'c:\program files (x86)\microsoft visual studio 10.0\vc\a'
	DB	'tlmfc\include\afxtempl.h', 00H
	ORG $+3
$SG176132 DB	'with ', 00H
	ORG $+2
$SG176133 DB	' elements', 00H
	ORG $+2
$SG176113 DB	'c:\program files (x86)\microsoft visual studio 10.0\vc\a'
	DB	'tlmfc\include\afxtempl.h', 00H
	ORG $+3
$SG176135 DB	0aH, 00H
	ORG $+2
$SG176143 DB	0aH, 00H
	ORG $+2
$SG176209 DB	' elements', 00H
	ORG $+2
$SG176153 DB	'c:\program files (x86)\microsoft visual studio 10.0\vc\a'
	DB	'tlmfc\include\afxtempl.h', 00H
	ORG $+3
$SG176208 DB	'with ', 00H
	ORG $+2
$SG176211 DB	0aH, 00H
	ORG $+2
$SG176155 DB	'c:\program files (x86)\microsoft visual studio 10.0\vc\a'
	DB	'tlmfc\include\afxtempl.h', 00H
	ORG $+3
$SG176219 DB	0aH, 00H
	ORG $+2
$SG176158 DB	'c:\program files (x86)\microsoft visual studio 10.0\vc\a'
	DB	'tlmfc\include\afxtempl.h', 00H
	ORG $+3
$SG176342 DB	'with ', 00H
	ORG $+2
$SG176343 DB	' elements', 00H
	ORG $+2
$SG176160 DB	'c:\program files (x86)\microsoft visual studio 10.0\vc\a'
	DB	'tlmfc\include\afxtempl.h', 00H
	ORG $+3
$SG176351 DB	0aH, 09H, '[', 00H
$SG176162 DB	'c:\program files (x86)\microsoft visual studio 10.0\vc\a'
	DB	'tlmfc\include\afxtempl.h', 00H
	ORG $+3
$SG176367 DB	0aH, 00H
	ORG $+2
$SG176165 DB	'c:\program files (x86)\microsoft visual studio 10.0\vc\a'
	DB	'tlmfc\include\afxtempl.h', 00H
	ORG $+3
$SG176432 DB	'with ', 00H
	ORG $+2
$SG176433 DB	' elements', 00H
	ORG $+2
$SG176173 DB	'c:\program files (x86)\microsoft visual studio 10.0\vc\a'
	DB	'tlmfc\include\afxtempl.h', 00H
	ORG $+3
$SG176435 DB	0aH, 00H
	ORG $+2
$SG176189 DB	'c:\program files (x86)\microsoft visual studio 10.0\vc\a'
	DB	'tlmfc\include\afxtempl.h', 00H
	ORG $+3
$SG176443 DB	0aH, 00H
	ORG $+2
$SG176229 DB	'c:\program files (x86)\microsoft visual studio 10.0\vc\a'
	DB	'tlmfc\include\afxtempl.h', 00H
	ORG $+3
$SG176566 DB	'with ', 00H
	ORG $+2
$SG176567 DB	' elements', 00H
	ORG $+2
$SG176231 DB	'c:\program files (x86)\microsoft visual studio 10.0\vc\a'
	DB	'tlmfc\include\afxtempl.h', 00H
	ORG $+3
$SG176575 DB	0aH, 09H, '[', 00H
$SG176234 DB	'c:\program files (x86)\microsoft visual studio 10.0\vc\a'
	DB	'tlmfc\include\afxtempl.h', 00H
	ORG $+3
$SG176591 DB	0aH, 00H
	ORG $+2
$SG176236 DB	'c:\program files (x86)\microsoft visual studio 10.0\vc\a'
	DB	'tlmfc\include\afxtempl.h', 00H
	ORG $+3
$SG176701 DB	'with ', 00H
	ORG $+2
$SG176702 DB	' elements', 00H
	ORG $+2
$SG176238 DB	'c:\program files (x86)\microsoft visual studio 10.0\vc\a'
	DB	'tlmfc\include\afxtempl.h', 00H
	ORG $+3
$SG176710 DB	0aH, 09H, '[', 00H
$SG176241 DB	'c:\program files (x86)\microsoft visual studio 10.0\vc\a'
	DB	'tlmfc\include\afxtempl.h', 00H
	ORG $+3
$SG176720 DB	0aH, 00H
	ORG $+2
$SG176254 DB	'c:\program files (x86)\microsoft visual studio 10.0\vc\a'
	DB	'tlmfc\include\afxtempl.h', 00H
	ORG $+3
$SG176830 DB	'with ', 00H
	ORG $+2
$SG176831 DB	' elements', 00H
	ORG $+2
$SG176267 DB	'c:\program files (x86)\microsoft visual studio 10.0\vc\a'
	DB	'tlmfc\include\afxtempl.h', 00H
	ORG $+3
$SG176839 DB	0aH, 09H, '[', 00H
$SG176271 DB	'c:\program files (x86)\microsoft visual studio 10.0\vc\a'
	DB	'tlmfc\include\afxtempl.h', 00H
	ORG $+3
$SG176359 DB	'] = ', 00H
	ORG $+3
$SG176849 DB	0aH, 00H
	ORG $+2
$SG176380 DB	'c:\program files (x86)\microsoft visual studio 10.0\vc\a'
	DB	'tlmfc\include\afxtempl.h', 00H
	ORG $+3
$SG176959 DB	'with ', 00H
	ORG $+2
$SG176960 DB	' elements', 00H
	ORG $+2
$SG176382 DB	'c:\program files (x86)\microsoft visual studio 10.0\vc\a'
	DB	'tlmfc\include\afxtempl.h', 00H
	ORG $+3
$SG176968 DB	0aH, 09H, '[', 00H
$SG176397 DB	'c:\program files (x86)\microsoft visual studio 10.0\vc\a'
	DB	'tlmfc\include\afxtempl.h', 00H
	ORG $+3
$SG176978 DB	0aH, 00H
	ORG $+2
$SG176413 DB	'c:\program files (x86)\microsoft visual studio 10.0\vc\a'
	DB	'tlmfc\include\afxtempl.h', 00H
	ORG $+3
$SG177093 DB	'with ', 00H
	ORG $+2
$SG177094 DB	' elements', 00H
	ORG $+2
$SG176453 DB	'c:\program files (x86)\microsoft visual studio 10.0\vc\a'
	DB	'tlmfc\include\afxtempl.h', 00H
	ORG $+3
$SG177102 DB	0aH, 09H, '[', 00H
$SG176455 DB	'c:\program files (x86)\microsoft visual studio 10.0\vc\a'
	DB	'tlmfc\include\afxtempl.h', 00H
	ORG $+3
$SG177106 DB	0aH, 00H
	ORG $+2
$SG176458 DB	'c:\program files (x86)\microsoft visual studio 10.0\vc\a'
	DB	'tlmfc\include\afxtempl.h', 00H
	ORG $+7
$SG176460 DB	'c:\program files (x86)\microsoft visual studio 10.0\vc\a'
	DB	'tlmfc\include\afxtempl.h', 00H
	ORG $+7
$SG176462 DB	'c:\program files (x86)\microsoft visual studio 10.0\vc\a'
	DB	'tlmfc\include\afxtempl.h', 00H
	ORG $+7
$SG176465 DB	'c:\program files (x86)\microsoft visual studio 10.0\vc\a'
	DB	'tlmfc\include\afxtempl.h', 00H
	ORG $+7
$SG176478 DB	'c:\program files (x86)\microsoft visual studio 10.0\vc\a'
	DB	'tlmfc\include\afxtempl.h', 00H
	ORG $+7
$SG176491 DB	'c:\program files (x86)\microsoft visual studio 10.0\vc\a'
	DB	'tlmfc\include\afxtempl.h', 00H
	ORG $+7
$SG176495 DB	'c:\program files (x86)\microsoft visual studio 10.0\vc\a'
	DB	'tlmfc\include\afxtempl.h', 00H
	ORG $+3
$SG176583 DB	'] = ', 00H
	ORG $+7
$SG176604 DB	'c:\program files (x86)\microsoft visual studio 10.0\vc\a'
	DB	'tlmfc\include\afxtempl.h', 00H
	ORG $+7
$SG176606 DB	'c:\program files (x86)\microsoft visual studio 10.0\vc\a'
	DB	'tlmfc\include\afxtempl.h', 00H
	ORG $+7
$SG176619 DB	'c:\program files (x86)\microsoft visual studio 10.0\vc\a'
	DB	'tlmfc\include\afxtempl.h', 00H
	ORG $+7
$SG176632 DB	'c:\program files (x86)\microsoft visual studio 10.0\vc\a'
	DB	'tlmfc\include\afxtempl.h', 00H
	ORG $+7
$SG176636 DB	'c:\program files (x86)\microsoft visual studio 10.0\vc\a'
	DB	'tlmfc\include\afxtempl.h', 00H
	ORG $+3
$SG176712 DB	'] = ', 00H
	ORG $+7
$SG176733 DB	'c:\program files (x86)\microsoft visual studio 10.0\vc\a'
	DB	'tlmfc\include\afxtempl.h', 00H
	ORG $+7
$SG176735 DB	'c:\program files (x86)\microsoft visual studio 10.0\vc\a'
	DB	'tlmfc\include\afxtempl.h', 00H
	ORG $+7
$SG176748 DB	'c:\program files (x86)\microsoft visual studio 10.0\vc\a'
	DB	'tlmfc\include\afxtempl.h', 00H
	ORG $+7
$SG176761 DB	'c:\program files (x86)\microsoft visual studio 10.0\vc\a'
	DB	'tlmfc\include\afxtempl.h', 00H
	ORG $+7
$SG176765 DB	'c:\program files (x86)\microsoft visual studio 10.0\vc\a'
	DB	'tlmfc\include\afxtempl.h', 00H
	ORG $+3
$SG176841 DB	'] = ', 00H
	ORG $+7
$SG176862 DB	'c:\program files (x86)\microsoft visual studio 10.0\vc\a'
	DB	'tlmfc\include\afxtempl.h', 00H
	ORG $+7
$SG176864 DB	'c:\program files (x86)\microsoft visual studio 10.0\vc\a'
	DB	'tlmfc\include\afxtempl.h', 00H
	ORG $+7
$SG176877 DB	'c:\program files (x86)\microsoft visual studio 10.0\vc\a'
	DB	'tlmfc\include\afxtempl.h', 00H
	ORG $+7
$SG176890 DB	'c:\program files (x86)\microsoft visual studio 10.0\vc\a'
	DB	'tlmfc\include\afxtempl.h', 00H
	ORG $+7
$SG176894 DB	'c:\program files (x86)\microsoft visual studio 10.0\vc\a'
	DB	'tlmfc\include\afxtempl.h', 00H
	ORG $+3
$SG176976 DB	'] = ', 00H
	ORG $+7
$SG176991 DB	'c:\program files (x86)\microsoft visual studio 10.0\vc\a'
	DB	'tlmfc\include\afxtempl.h', 00H
	ORG $+7
$SG176993 DB	'c:\program files (x86)\microsoft visual studio 10.0\vc\a'
	DB	'tlmfc\include\afxtempl.h', 00H
	ORG $+7
$SG177017 DB	'c:\program files (x86)\microsoft visual studio 10.0\vc\a'
	DB	'tlmfc\include\afxtempl.h', 00H
	ORG $+7
$SG177030 DB	'c:\program files (x86)\microsoft visual studio 10.0\vc\a'
	DB	'tlmfc\include\afxtempl.h', 00H
	ORG $+7
$SG177034 DB	'c:\program files (x86)\microsoft visual studio 10.0\vc\a'
	DB	'tlmfc\include\afxtempl.h', 00H
	ORG $+3
$SG177104 DB	'] = ', 00H
	ORG $+7
$SG177119 DB	'c:\program files (x86)\microsoft visual studio 10.0\vc\a'
	DB	'tlmfc\include\afxtempl.h', 00H
	ORG $+7
$SG177121 DB	'c:\program files (x86)\microsoft visual studio 10.0\vc\a'
	DB	'tlmfc\include\afxtempl.h', 00H
	ORG $+7
$SG177185 DB	'c:\program files (x86)\microsoft visual studio 10.0\vc\a'
	DB	'tlmfc\include\afxtempl.h', 00H
	ORG $+7
$SG177187 DB	'c:\program files (x86)\microsoft visual studio 10.0\vc\a'
	DB	'tlmfc\include\afxtempl.h', 00H
	ORG $+7
$SG177202 DB	'c:\program files (x86)\microsoft visual studio 10.0\vc\a'
	DB	'tlmfc\include\afxtempl.h', 00H
	ORG $+7
$SG177209 DB	'c:\program files (x86)\microsoft visual studio 10.0\vc\a'
	DB	'tlmfc\include\afxtempl.h', 00H
	ORG $+7
$SG177245 DB	'c:\program files (x86)\microsoft visual studio 10.0\vc\a'
	DB	'tlmfc\include\afxtempl.h', 00H
	ORG $+7
$SG177249 DB	'c:\program files (x86)\microsoft visual studio 10.0\vc\a'
	DB	'tlmfc\include\afxtempl.h', 00H
	ORG $+7
$SG177261 DB	'c:\program files (x86)\microsoft visual studio 10.0\vc\a'
	DB	'tlmfc\include\afxtempl.h', 00H
	ORG $+7
$SG177280 DB	'c:\program files (x86)\microsoft visual studio 10.0\vc\a'
	DB	'tlmfc\include\afxtempl.h', 00H
	ORG $+7
$SG177285 DB	'c:\program files (x86)\microsoft visual studio 10.0\vc\a'
	DB	'tlmfc\include\afxtempl.h', 00H
	ORG $+7
$SG177312 DB	'c:\program files (x86)\microsoft visual studio 10.0\vc\a'
	DB	'tlmfc\include\afxtempl.h', 00H
	ORG $+7
$SG177317 DB	'c:\program files (x86)\microsoft visual studio 10.0\vc\a'
	DB	'tlmfc\include\afxtempl.h', 00H
	ORG $+7
$SG177327 DB	'c:\program files (x86)\microsoft visual studio 10.0\vc\a'
	DB	'tlmfc\include\afxtempl.h', 00H
	ORG $+7
$SG177329 DB	'c:\program files (x86)\microsoft visual studio 10.0\vc\a'
	DB	'tlmfc\include\afxtempl.h', 00H
	ORG $+7
$SG177344 DB	'c:\program files (x86)\microsoft visual studio 10.0\vc\a'
	DB	'tlmfc\include\afxtempl.h', 00H
	ORG $+7
$SG177351 DB	'c:\program files (x86)\microsoft visual studio 10.0\vc\a'
	DB	'tlmfc\include\afxtempl.h', 00H
	ORG $+7
$SG177393 DB	'c:\program files (x86)\microsoft visual studio 10.0\vc\a'
	DB	'tlmfc\include\afxtempl.h', 00H
	ORG $+7
$SG177397 DB	'c:\program files (x86)\microsoft visual studio 10.0\vc\a'
	DB	'tlmfc\include\afxtempl.h', 00H
	ORG $+7
$SG177409 DB	'c:\program files (x86)\microsoft visual studio 10.0\vc\a'
	DB	'tlmfc\include\afxtempl.h', 00H
	ORG $+7
$SG177431 DB	'c:\program files (x86)\microsoft visual studio 10.0\vc\a'
	DB	'tlmfc\include\afxtempl.h', 00H
	ORG $+7
$SG177436 DB	'c:\program files (x86)\microsoft visual studio 10.0\vc\a'
	DB	'tlmfc\include\afxtempl.h', 00H
	ORG $+7
$SG177463 DB	'c:\program files (x86)\microsoft visual studio 10.0\vc\a'
	DB	'tlmfc\include\afxtempl.h', 00H
	ORG $+7
$SG177468 DB	'c:\program files (x86)\microsoft visual studio 10.0\vc\a'
	DB	'tlmfc\include\afxtempl.h', 00H
	ORG $+7
$SG177493 DB	'c:\program files (x86)\microsoft visual studio 10.0\vc\a'
	DB	'tlmfc\include\afxtempl.h', 00H
	ORG $+7
$SG177530 DB	'c:\program files (x86)\microsoft visual studio 10.0\vc\a'
	DB	'tlmfc\include\afxtempl.h', 00H
	ORG $+7
$SG177536 DB	'c:\program files (x86)\microsoft visual studio 10.0\vc\a'
	DB	'tlmfc\include\afxtempl.h', 00H
	ORG $+7
$SG177545 DB	'c:\program files (x86)\microsoft visual studio 10.0\vc\a'
	DB	'tlmfc\include\afxtempl.h', 00H
	ORG $+7
$SG177560 DB	'c:\program files (x86)\microsoft visual studio 10.0\vc\a'
	DB	'tlmfc\include\afxtempl.h', 00H
	ORG $+7
$SG177564 DB	'c:\program files (x86)\microsoft visual studio 10.0\vc\a'
	DB	'tlmfc\include\afxtempl.h', 00H
	ORG $+7
$SG177579 DB	'c:\program files (x86)\microsoft visual studio 10.0\vc\a'
	DB	'tlmfc\include\afxtempl.h', 00H
	ORG $+7
$SG177584 DB	'c:\program files (x86)\microsoft visual studio 10.0\vc\a'
	DB	'tlmfc\include\afxtempl.h', 00H
	ORG $+7
$SG177611 DB	'c:\program files (x86)\microsoft visual studio 10.0\vc\a'
	DB	'tlmfc\include\afxtempl.h', 00H
	ORG $+7
$SG177616 DB	'c:\program files (x86)\microsoft visual studio 10.0\vc\a'
	DB	'tlmfc\include\afxtempl.h', 00H
	ORG $+7
$SG177643 DB	'c:\program files (x86)\microsoft visual studio 10.0\vc\a'
	DB	'tlmfc\include\afxtempl.h', 00H
	ORG $+7
$SG177648 DB	'c:\program files (x86)\microsoft visual studio 10.0\vc\a'
	DB	'tlmfc\include\afxtempl.h', 00H
	ORG $+7
$SG177655 DB	'c:\program files (x86)\microsoft visual studio 10.0\vc\a'
	DB	'tlmfc\include\afxtempl.h', 00H
	ORG $+7
$SG177660 DB	'c:\program files (x86)\microsoft visual studio 10.0\vc\a'
	DB	'tlmfc\include\afxtempl.h', 00H
	ORG $+7
$SG177670 DB	'c:\program files (x86)\microsoft visual studio 10.0\vc\a'
	DB	'tlmfc\include\afxtempl.h', 00H
	ORG $+7
$SG177672 DB	'c:\program files (x86)\microsoft visual studio 10.0\vc\a'
	DB	'tlmfc\include\afxtempl.h', 00H
	ORG $+7
$SG177687 DB	'c:\program files (x86)\microsoft visual studio 10.0\vc\a'
	DB	'tlmfc\include\afxtempl.h', 00H
	ORG $+7
$SG177694 DB	'c:\program files (x86)\microsoft visual studio 10.0\vc\a'
	DB	'tlmfc\include\afxtempl.h', 00H
	ORG $+7
$SG177736 DB	'c:\program files (x86)\microsoft visual studio 10.0\vc\a'
	DB	'tlmfc\include\afxtempl.h', 00H
	ORG $+7
$SG177740 DB	'c:\program files (x86)\microsoft visual studio 10.0\vc\a'
	DB	'tlmfc\include\afxtempl.h', 00H
	ORG $+7
$SG177752 DB	'c:\program files (x86)\microsoft visual studio 10.0\vc\a'
	DB	'tlmfc\include\afxtempl.h', 00H
	ORG $+7
$SG177774 DB	'c:\program files (x86)\microsoft visual studio 10.0\vc\a'
	DB	'tlmfc\include\afxtempl.h', 00H
	ORG $+7
$SG177779 DB	'c:\program files (x86)\microsoft visual studio 10.0\vc\a'
	DB	'tlmfc\include\afxtempl.h', 00H
	ORG $+7
$SG177806 DB	'c:\program files (x86)\microsoft visual studio 10.0\vc\a'
	DB	'tlmfc\include\afxtempl.h', 00H
	ORG $+7
$SG177811 DB	'c:\program files (x86)\microsoft visual studio 10.0\vc\a'
	DB	'tlmfc\include\afxtempl.h', 00H
	ORG $+7
$SG177836 DB	'c:\program files (x86)\microsoft visual studio 10.0\vc\a'
	DB	'tlmfc\include\afxtempl.h', 00H
	ORG $+7
$SG177873 DB	'c:\program files (x86)\microsoft visual studio 10.0\vc\a'
	DB	'tlmfc\include\afxtempl.h', 00H
	ORG $+7
$SG177879 DB	'c:\program files (x86)\microsoft visual studio 10.0\vc\a'
	DB	'tlmfc\include\afxtempl.h', 00H
	ORG $+7
$SG177888 DB	'c:\program files (x86)\microsoft visual studio 10.0\vc\a'
	DB	'tlmfc\include\afxtempl.h', 00H
	ORG $+7
$SG177903 DB	'c:\program files (x86)\microsoft visual studio 10.0\vc\a'
	DB	'tlmfc\include\afxtempl.h', 00H
	ORG $+7
$SG177907 DB	'c:\program files (x86)\microsoft visual studio 10.0\vc\a'
	DB	'tlmfc\include\afxtempl.h', 00H
	ORG $+7
$SG177922 DB	'c:\program files (x86)\microsoft visual studio 10.0\vc\a'
	DB	'tlmfc\include\afxtempl.h', 00H
	ORG $+7
$SG177927 DB	'c:\program files (x86)\microsoft visual studio 10.0\vc\a'
	DB	'tlmfc\include\afxtempl.h', 00H
	ORG $+7
$SG177954 DB	'c:\program files (x86)\microsoft visual studio 10.0\vc\a'
	DB	'tlmfc\include\afxtempl.h', 00H
	ORG $+7
$SG177959 DB	'c:\program files (x86)\microsoft visual studio 10.0\vc\a'
	DB	'tlmfc\include\afxtempl.h', 00H
	ORG $+7
$SG177986 DB	'c:\program files (x86)\microsoft visual studio 10.0\vc\a'
	DB	'tlmfc\include\afxtempl.h', 00H
	ORG $+7
$SG177991 DB	'c:\program files (x86)\microsoft visual studio 10.0\vc\a'
	DB	'tlmfc\include\afxtempl.h', 00H
	ORG $+7
$SG177998 DB	'c:\program files (x86)\microsoft visual studio 10.0\vc\a'
	DB	'tlmfc\include\afxtempl.h', 00H
	ORG $+7
$SG178003 DB	'c:\program files (x86)\microsoft visual studio 10.0\vc\a'
	DB	'tlmfc\include\afxtempl.h', 00H
	ORG $+7
$SG178028 DB	'c:\program files (x86)\microsoft visual studio 10.0\vc\a'
	DB	'tlmfc\include\afxtempl.h', 00H
	ORG $+7
$SG178065 DB	'c:\program files (x86)\microsoft visual studio 10.0\vc\a'
	DB	'tlmfc\include\afxtempl.h', 00H
	ORG $+7
$SG178071 DB	'c:\program files (x86)\microsoft visual studio 10.0\vc\a'
	DB	'tlmfc\include\afxtempl.h', 00H
	ORG $+7
$SG178080 DB	'c:\program files (x86)\microsoft visual studio 10.0\vc\a'
	DB	'tlmfc\include\afxtempl.h', 00H
	ORG $+7
$SG178095 DB	'c:\program files (x86)\microsoft visual studio 10.0\vc\a'
	DB	'tlmfc\include\afxtempl.h', 00H
	ORG $+7
$SG178099 DB	'c:\program files (x86)\microsoft visual studio 10.0\vc\a'
	DB	'tlmfc\include\afxtempl.h', 00H
	ORG $+7
$SG178114 DB	'c:\program files (x86)\microsoft visual studio 10.0\vc\a'
	DB	'tlmfc\include\afxtempl.h', 00H
	ORG $+7
$SG178119 DB	'c:\program files (x86)\microsoft visual studio 10.0\vc\a'
	DB	'tlmfc\include\afxtempl.h', 00H
	ORG $+7
$SG178146 DB	'c:\program files (x86)\microsoft visual studio 10.0\vc\a'
	DB	'tlmfc\include\afxtempl.h', 00H
	ORG $+7
$SG178151 DB	'c:\program files (x86)\microsoft visual studio 10.0\vc\a'
	DB	'tlmfc\include\afxtempl.h', 00H
	ORG $+7
$SG178176 DB	'c:\program files (x86)\microsoft visual studio 10.0\vc\a'
	DB	'tlmfc\include\afxtempl.h', 00H
	ORG $+7
$SG178213 DB	'c:\program files (x86)\microsoft visual studio 10.0\vc\a'
	DB	'tlmfc\include\afxtempl.h', 00H
	ORG $+7
$SG178219 DB	'c:\program files (x86)\microsoft visual studio 10.0\vc\a'
	DB	'tlmfc\include\afxtempl.h', 00H
	ORG $+7
$SG178228 DB	'c:\program files (x86)\microsoft visual studio 10.0\vc\a'
	DB	'tlmfc\include\afxtempl.h', 00H
	ORG $+7
$SG178243 DB	'c:\program files (x86)\microsoft visual studio 10.0\vc\a'
	DB	'tlmfc\include\afxtempl.h', 00H
	ORG $+7
$SG178247 DB	'c:\program files (x86)\microsoft visual studio 10.0\vc\a'
	DB	'tlmfc\include\afxtempl.h', 00H
	ORG $+7
$SG178262 DB	'c:\program files (x86)\microsoft visual studio 10.0\vc\a'
	DB	'tlmfc\include\afxtempl.h', 00H
	ORG $+7
$SG178267 DB	'c:\program files (x86)\microsoft visual studio 10.0\vc\a'
	DB	'tlmfc\include\afxtempl.h', 00H
	ORG $+7
$SG178294 DB	'c:\program files (x86)\microsoft visual studio 10.0\vc\a'
	DB	'tlmfc\include\afxtempl.h', 00H
	ORG $+7
$SG178299 DB	'c:\program files (x86)\microsoft visual studio 10.0\vc\a'
	DB	'tlmfc\include\afxtempl.h', 00H
	ORG $+7
$SG178324 DB	'c:\program files (x86)\microsoft visual studio 10.0\vc\a'
	DB	'tlmfc\include\afxtempl.h', 00H
	ORG $+7
$SG178361 DB	'c:\program files (x86)\microsoft visual studio 10.0\vc\a'
	DB	'tlmfc\include\afxtempl.h', 00H
	ORG $+7
$SG178367 DB	'c:\program files (x86)\microsoft visual studio 10.0\vc\a'
	DB	'tlmfc\include\afxtempl.h', 00H
	ORG $+7
$SG178376 DB	'c:\program files (x86)\microsoft visual studio 10.0\vc\a'
	DB	'tlmfc\include\afxtempl.h', 00H
	ORG $+7
$SG178391 DB	'c:\program files (x86)\microsoft visual studio 10.0\vc\a'
	DB	'tlmfc\include\afxtempl.h', 00H
	ORG $+7
$SG178395 DB	'c:\program files (x86)\microsoft visual studio 10.0\vc\a'
	DB	'tlmfc\include\afxtempl.h', 00H
	ORG $+7
$SG178410 DB	'c:\program files (x86)\microsoft visual studio 10.0\vc\a'
	DB	'tlmfc\include\afxtempl.h', 00H
	ORG $+7
$SG178415 DB	'c:\program files (x86)\microsoft visual studio 10.0\vc\a'
	DB	'tlmfc\include\afxtempl.h', 00H
	ORG $+7
$SG178442 DB	'c:\program files (x86)\microsoft visual studio 10.0\vc\a'
	DB	'tlmfc\include\afxtempl.h', 00H
	ORG $+7
$SG178447 DB	'c:\program files (x86)\microsoft visual studio 10.0\vc\a'
	DB	'tlmfc\include\afxtempl.h', 00H
	ORG $+7
$SG178472 DB	'c:\program files (x86)\microsoft visual studio 10.0\vc\a'
	DB	'tlmfc\include\afxtempl.h', 00H
	ORG $+7
$SG178509 DB	'c:\program files (x86)\microsoft visual studio 10.0\vc\a'
	DB	'tlmfc\include\afxtempl.h', 00H
	ORG $+7
$SG178515 DB	'c:\program files (x86)\microsoft visual studio 10.0\vc\a'
	DB	'tlmfc\include\afxtempl.h', 00H
	ORG $+7
$SG178524 DB	'c:\program files (x86)\microsoft visual studio 10.0\vc\a'
	DB	'tlmfc\include\afxtempl.h', 00H
	ORG $+7
$SG178539 DB	'c:\program files (x86)\microsoft visual studio 10.0\vc\a'
	DB	'tlmfc\include\afxtempl.h', 00H
	ORG $+7
$SG178543 DB	'c:\program files (x86)\microsoft visual studio 10.0\vc\a'
	DB	'tlmfc\include\afxtempl.h', 00H
	ORG $+7
$SG178566 DB	'c:\program files (x86)\microsoft visual studio 10.0\vc\a'
	DB	'tlmfc\include\afxtempl.h', 00H
	ORG $+7
$SG178577 DB	'c:\program files (x86)\microsoft visual studio 10.0\vc\a'
	DB	'tlmfc\include\afxtempl.h', 00H
	ORG $+7
$SG178591 DB	'c:\program files (x86)\microsoft visual studio 10.0\vc\a'
	DB	'tlmfc\include\afxtempl.h', 00H
	ORG $+7
$SG178602 DB	'c:\program files (x86)\microsoft visual studio 10.0\vc\a'
	DB	'tlmfc\include\afxtempl.h', 00H
	ORG $+7
$SG178616 DB	'c:\program files (x86)\microsoft visual studio 10.0\vc\a'
	DB	'tlmfc\include\afxtempl.h', 00H
	ORG $+7
$SG178627 DB	'c:\program files (x86)\microsoft visual studio 10.0\vc\a'
	DB	'tlmfc\include\afxtempl.h', 00H
	ORG $+7
$SG178641 DB	'c:\program files (x86)\microsoft visual studio 10.0\vc\a'
	DB	'tlmfc\include\afxtempl.h', 00H
	ORG $+7
$SG178652 DB	'c:\program files (x86)\microsoft visual studio 10.0\vc\a'
	DB	'tlmfc\include\afxtempl.h', 00H
	ORG $+7
$SG178666 DB	'c:\program files (x86)\microsoft visual studio 10.0\vc\a'
	DB	'tlmfc\include\afxtempl.h', 00H
	ORG $+7
$SG178677 DB	'c:\program files (x86)\microsoft visual studio 10.0\vc\a'
	DB	'tlmfc\include\afxtempl.h', 00H
	ORG $+7
$SG178691 DB	'c:\program files (x86)\microsoft visual studio 10.0\vc\a'
	DB	'tlmfc\include\afxtempl.h', 00H
	ORG $+7
$SG178702 DB	'c:\program files (x86)\microsoft visual studio 10.0\vc\a'
	DB	'tlmfc\include\afxtempl.h', 00H
	ORG $+7
$SG178717 DB	'c:\program files (x86)\microsoft visual studio 10.0\vc\a'
	DB	'tlmfc\include\afxtempl.h', 00H
	ORG $+7
$SG178719 DB	'c:\program files (x86)\microsoft visual studio 10.0\vc\a'
	DB	'tlmfc\include\afxtempl.h', 00H
	ORG $+7
$SG178721 DB	'c:\program files (x86)\microsoft visual studio 10.0\vc\a'
	DB	'tlmfc\include\afxtempl.h', 00H
	ORG $+7
$SG178732 DB	'c:\program files (x86)\microsoft visual studio 10.0\vc\a'
	DB	'tlmfc\include\afxtempl.h', 00H
	ORG $+7
$SG178765 DB	'c:\program files (x86)\microsoft visual studio 10.0\vc\a'
	DB	'tlmfc\include\afxtempl.h', 00H
	ORG $+7
$SG178771 DB	'c:\program files (x86)\microsoft visual studio 10.0\vc\a'
	DB	'tlmfc\include\afxtempl.h', 00H
	ORG $+7
$SG178825 DB	'c:\program files (x86)\microsoft visual studio 10.0\vc\a'
	DB	'tlmfc\include\afxtempl.h', 00H
	ORG $+7
$SG178827 DB	'c:\program files (x86)\microsoft visual studio 10.0\vc\a'
	DB	'tlmfc\include\afxtempl.h', 00H
	ORG $+7
$SG178829 DB	'c:\program files (x86)\microsoft visual studio 10.0\vc\a'
	DB	'tlmfc\include\afxtempl.h', 00H
	ORG $+7
$SG178840 DB	'c:\program files (x86)\microsoft visual studio 10.0\vc\a'
	DB	'tlmfc\include\afxtempl.h', 00H
	ORG $+7
$SG178873 DB	'c:\program files (x86)\microsoft visual studio 10.0\vc\a'
	DB	'tlmfc\include\afxtempl.h', 00H
	ORG $+7
$SG178879 DB	'c:\program files (x86)\microsoft visual studio 10.0\vc\a'
	DB	'tlmfc\include\afxtempl.h', 00H
	ORG $+7
$SG178933 DB	'c:\program files (x86)\microsoft visual studio 10.0\vc\a'
	DB	'tlmfc\include\afxtempl.h', 00H
	ORG $+7
$SG178935 DB	'c:\program files (x86)\microsoft visual studio 10.0\vc\a'
	DB	'tlmfc\include\afxtempl.h', 00H
	ORG $+7
$SG178937 DB	'c:\program files (x86)\microsoft visual studio 10.0\vc\a'
	DB	'tlmfc\include\afxtempl.h', 00H
	ORG $+7
$SG178948 DB	'c:\program files (x86)\microsoft visual studio 10.0\vc\a'
	DB	'tlmfc\include\afxtempl.h', 00H
	ORG $+7
$SG178981 DB	'c:\program files (x86)\microsoft visual studio 10.0\vc\a'
	DB	'tlmfc\include\afxtempl.h', 00H
	ORG $+7
$SG178987 DB	'c:\program files (x86)\microsoft visual studio 10.0\vc\a'
	DB	'tlmfc\include\afxtempl.h', 00H
	ORG $+7
$SG179031 DB	'c:\program files (x86)\microsoft visual studio 10.0\vc\a'
	DB	'tlmfc\include\afxtempl.h', 00H
	ORG $+7
$SG179033 DB	'c:\program files (x86)\microsoft visual studio 10.0\vc\a'
	DB	'tlmfc\include\afxtempl.h', 00H
	ORG $+7
$SG179035 DB	'c:\program files (x86)\microsoft visual studio 10.0\vc\a'
	DB	'tlmfc\include\afxtempl.h', 00H
	ORG $+7
$SG179046 DB	'c:\program files (x86)\microsoft visual studio 10.0\vc\a'
	DB	'tlmfc\include\afxtempl.h', 00H
	ORG $+7
$SG179079 DB	'c:\program files (x86)\microsoft visual studio 10.0\vc\a'
	DB	'tlmfc\include\afxtempl.h', 00H
	ORG $+7
$SG179085 DB	'c:\program files (x86)\microsoft visual studio 10.0\vc\a'
	DB	'tlmfc\include\afxtempl.h', 00H
	ORG $+7
$SG179139 DB	'c:\program files (x86)\microsoft visual studio 10.0\vc\a'
	DB	'tlmfc\include\afxtempl.h', 00H
	ORG $+7
$SG179141 DB	'c:\program files (x86)\microsoft visual studio 10.0\vc\a'
	DB	'tlmfc\include\afxtempl.h', 00H
	ORG $+7
$SG179143 DB	'c:\program files (x86)\microsoft visual studio 10.0\vc\a'
	DB	'tlmfc\include\afxtempl.h', 00H
	ORG $+7
$SG179154 DB	'c:\program files (x86)\microsoft visual studio 10.0\vc\a'
	DB	'tlmfc\include\afxtempl.h', 00H
	ORG $+7
$SG179187 DB	'c:\program files (x86)\microsoft visual studio 10.0\vc\a'
	DB	'tlmfc\include\afxtempl.h', 00H
	ORG $+7
$SG179193 DB	'c:\program files (x86)\microsoft visual studio 10.0\vc\a'
	DB	'tlmfc\include\afxtempl.h', 00H
	ORG $+7
$SG179243 DB	'c:\program files (x86)\microsoft visual studio 10.0\vc\a'
	DB	'tlmfc\include\afxtempl.h', 00H
	ORG $+7
$SG179245 DB	'c:\program files (x86)\microsoft visual studio 10.0\vc\a'
	DB	'tlmfc\include\afxtempl.h', 00H
	ORG $+7
$SG179247 DB	'c:\program files (x86)\microsoft visual studio 10.0\vc\a'
	DB	'tlmfc\include\afxtempl.h', 00H
	ORG $+7
$SG179258 DB	'c:\program files (x86)\microsoft visual studio 10.0\vc\a'
	DB	'tlmfc\include\afxtempl.h', 00H
	ORG $+7
$SG179291 DB	'c:\program files (x86)\microsoft visual studio 10.0\vc\a'
	DB	'tlmfc\include\afxtempl.h', 00H
	ORG $+7
$SG179297 DB	'c:\program files (x86)\microsoft visual studio 10.0\vc\a'
	DB	'tlmfc\include\afxtempl.h', 00H
	ORG $+7
$SG179365 DB	'c:\program files (x86)\microsoft visual studio 10.0\vc\a'
	DB	'tlmfc\include\afxtempl.h', 00H
	ORG $+7
$SG179369 DB	'c:\program files (x86)\microsoft visual studio 10.0\vc\a'
	DB	'tlmfc\include\afxtempl.h', 00H
	ORG $+7
$SG179372 DB	'c:\program files (x86)\microsoft visual studio 10.0\vc\a'
	DB	'tlmfc\include\afxtempl.h', 00H
	ORG $+7
$SG179386 DB	'c:\program files (x86)\microsoft visual studio 10.0\vc\a'
	DB	'tlmfc\include\afxtempl.h', 00H
	ORG $+7
$SG179390 DB	'c:\program files (x86)\microsoft visual studio 10.0\vc\a'
	DB	'tlmfc\include\afxtempl.h', 00H
	ORG $+7
$SG179393 DB	'c:\program files (x86)\microsoft visual studio 10.0\vc\a'
	DB	'tlmfc\include\afxtempl.h', 00H
	ORG $+7
$SG179407 DB	'c:\program files (x86)\microsoft visual studio 10.0\vc\a'
	DB	'tlmfc\include\afxtempl.h', 00H
	ORG $+7
$SG179411 DB	'c:\program files (x86)\microsoft visual studio 10.0\vc\a'
	DB	'tlmfc\include\afxtempl.h', 00H
	ORG $+7
$SG179414 DB	'c:\program files (x86)\microsoft visual studio 10.0\vc\a'
	DB	'tlmfc\include\afxtempl.h', 00H
	ORG $+7
$SG179421 DB	'c:\program files (x86)\microsoft visual studio 10.0\vc\a'
	DB	'tlmfc\include\afxtempl.h', 00H
	ORG $+7
$SG179425 DB	'c:\program files (x86)\microsoft visual studio 10.0\vc\a'
	DB	'tlmfc\include\afxtempl.h', 00H
	ORG $+7
$SG179428 DB	'c:\program files (x86)\microsoft visual studio 10.0\vc\a'
	DB	'tlmfc\include\afxtempl.h', 00H
CONST	ENDS
PUBLIC	?_AfxInitManaged@@YAHXZ				; _AfxInitManaged
PUBLIC	_CreateContentInterface
EXTRN	??1AFX_MAINTAIN_STATE2@@QAE@XZ:PROC		; AFX_MAINTAIN_STATE2::~AFX_MAINTAIN_STATE2
EXTRN	??0AFX_MAINTAIN_STATE2@@QAE@PAVAFX_MODULE_STATE@@@Z:PROC ; AFX_MAINTAIN_STATE2::AFX_MAINTAIN_STATE2
EXTRN	?AfxGetStaticModuleState@@YGPAVAFX_MODULE_STATE@@XZ:PROC ; AfxGetStaticModuleState
EXTRN	__RTC_CheckEsp:PROC
EXTRN	@_RTC_CheckStackVars@8:PROC
EXTRN	__RTC_Shutdown:PROC
EXTRN	__RTC_InitBase:PROC
;	COMDAT rtc$TMZ
; File d:\_code\rtfcontentctrl\rtfcontentctrl.cpp
rtc$TMZ	SEGMENT
__RTC_Shutdown.rtc$TMZ DD FLAT:__RTC_Shutdown
rtc$TMZ	ENDS
;	COMDAT rtc$IMZ
rtc$IMZ	SEGMENT
__RTC_InitBase.rtc$IMZ DD FLAT:__RTC_InitBase
; Function compile flags: /Odtp /RTCsu
rtc$IMZ	ENDS
;	COMDAT _CreateContentInterface
_TEXT	SEGMENT
$T179930 = -28						; size = 4
__ctlState$ = -20					; size = 16
_CreateContentInterface PROC				; COMDAT

; 31   : {

	push	ebp
	mov	ebp, esp
	sub	esp, 28					; 0000001cH
	mov	eax, -858993460				; ccccccccH
	mov	DWORD PTR [ebp-28], eax
	mov	DWORD PTR [ebp-24], eax
	mov	DWORD PTR [ebp-20], eax
	mov	DWORD PTR [ebp-16], eax
	mov	DWORD PTR [ebp-12], eax
	mov	DWORD PTR [ebp-8], eax
	mov	DWORD PTR [ebp-4], eax

; 32   : 	AFX_MANAGE_STATE(AfxGetStaticModuleState());

	call	?_AfxInitManaged@@YAHXZ			; _AfxInitManaged
	call	?AfxGetStaticModuleState@@YGPAVAFX_MODULE_STATE@@XZ ; AfxGetStaticModuleState
	push	eax
	lea	ecx, DWORD PTR __ctlState$[ebp]
	call	??0AFX_MAINTAIN_STATE2@@QAE@PAVAFX_MODULE_STATE@@@Z ; AFX_MAINTAIN_STATE2::AFX_MAINTAIN_STATE2

; 33   : 
; 34   : 	return &theApp;

	mov	DWORD PTR $T179930[ebp], OFFSET _theApp
	lea	ecx, DWORD PTR __ctlState$[ebp]
	call	??1AFX_MAINTAIN_STATE2@@QAE@XZ		; AFX_MAINTAIN_STATE2::~AFX_MAINTAIN_STATE2
	mov	eax, DWORD PTR $T179930[ebp]

; 35   : }

	push	edx
	mov	ecx, ebp
	push	eax
	lea	edx, DWORD PTR $LN5@CreateCont
	call	@_RTC_CheckStackVars@8
	pop	eax
	pop	edx
	add	esp, 28					; 0000001cH
	cmp	ebp, esp
	call	__RTC_CheckEsp
	mov	esp, ebp
	pop	ebp
	ret	0
$LN5@CreateCont:
	DD	1
	DD	$LN4@CreateCont
$LN4@CreateCont:
	DD	-20					; ffffffecH
	DD	16					; 00000010H
	DD	$LN3@CreateCont
$LN3@CreateCont:
	DB	95					; 0000005fH
	DB	99					; 00000063H
	DB	116					; 00000074H
	DB	108					; 0000006cH
	DB	83					; 00000053H
	DB	116					; 00000074H
	DB	97					; 00000061H
	DB	116					; 00000074H
	DB	101					; 00000065H
	DB	0
_CreateContentInterface ENDP
_TEXT	ENDS
PUBLIC	_GetInterfaceVersion
; Function compile flags: /Odtp /RTCsu
;	COMDAT _GetInterfaceVersion
_TEXT	SEGMENT
$T179946 = -28						; size = 4
__ctlState$ = -20					; size = 16
_GetInterfaceVersion PROC				; COMDAT

; 38   : { 

	push	ebp
	mov	ebp, esp
	sub	esp, 28					; 0000001cH
	mov	eax, -858993460				; ccccccccH
	mov	DWORD PTR [ebp-28], eax
	mov	DWORD PTR [ebp-24], eax
	mov	DWORD PTR [ebp-20], eax
	mov	DWORD PTR [ebp-16], eax
	mov	DWORD PTR [ebp-12], eax
	mov	DWORD PTR [ebp-8], eax
	mov	DWORD PTR [ebp-4], eax

; 39   : 	AFX_MANAGE_STATE(AfxGetStaticModuleState());

	call	?_AfxInitManaged@@YAHXZ			; _AfxInitManaged
	call	?AfxGetStaticModuleState@@YGPAVAFX_MODULE_STATE@@XZ ; AfxGetStaticModuleState
	push	eax
	lea	ecx, DWORD PTR __ctlState$[ebp]
	call	??0AFX_MAINTAIN_STATE2@@QAE@PAVAFX_MODULE_STATE@@@Z ; AFX_MAINTAIN_STATE2::AFX_MAINTAIN_STATE2

; 40   : 
; 41   : 	return ICONTENTCTRL_VERSION; 

	mov	DWORD PTR $T179946[ebp], 2
	lea	ecx, DWORD PTR __ctlState$[ebp]
	call	??1AFX_MAINTAIN_STATE2@@QAE@XZ		; AFX_MAINTAIN_STATE2::~AFX_MAINTAIN_STATE2
	mov	eax, DWORD PTR $T179946[ebp]

; 42   : }

	push	edx
	mov	ecx, ebp
	push	eax
	lea	edx, DWORD PTR $LN5@GetInterfa
	call	@_RTC_CheckStackVars@8
	pop	eax
	pop	edx
	add	esp, 28					; 0000001cH
	cmp	ebp, esp
	call	__RTC_CheckEsp
	mov	esp, ebp
	pop	ebp
	ret	0
$LN5@GetInterfa:
	DD	1
	DD	$LN4@GetInterfa
$LN4@GetInterfa:
	DD	-20					; ffffffecH
	DD	16					; 00000010H
	DD	$LN3@GetInterfa
$LN3@GetInterfa:
	DB	95					; 0000005fH
	DB	99					; 00000063H
	DB	116					; 00000074H
	DB	108					; 0000006cH
	DB	83					; 00000053H
	DB	116					; 00000074H
	DB	97					; 00000061H
	DB	116					; 00000074H
	DB	101					; 00000065H
	DB	0
_GetInterfaceVersion ENDP
_TEXT	ENDS
PUBLIC	??_7CRTFContentCtrlApp@@6BCWinApp@@@		; CRTFContentCtrlApp::`vftable'
PUBLIC	??_7CRTFContentCtrlApp@@6BIContent@@@		; CRTFContentCtrlApp::`vftable'
PUBLIC	??0IContent@@QAE@XZ				; IContent::IContent
PUBLIC	??0CRTFContentCtrlApp@@QAE@XZ			; CRTFContentCtrlApp::CRTFContentCtrlApp
PUBLIC	??_R4CRTFContentCtrlApp@@6BIContent@@@		; CRTFContentCtrlApp::`RTTI Complete Object Locator'
PUBLIC	??_R0?AVCRTFContentCtrlApp@@@8			; CRTFContentCtrlApp `RTTI Type Descriptor'
PUBLIC	??_R3CRTFContentCtrlApp@@8			; CRTFContentCtrlApp::`RTTI Class Hierarchy Descriptor'
PUBLIC	??_R2CRTFContentCtrlApp@@8			; CRTFContentCtrlApp::`RTTI Base Class Array'
PUBLIC	??_R1A@?0A@EA@CRTFContentCtrlApp@@8		; CRTFContentCtrlApp::`RTTI Base Class Descriptor at (0,-1,0,64)'
PUBLIC	??_R1A@?0A@EA@IContent@@8			; IContent::`RTTI Base Class Descriptor at (0,-1,0,64)'
PUBLIC	??_R0?AVIContent@@@8				; IContent `RTTI Type Descriptor'
PUBLIC	??_R3IContent@@8				; IContent::`RTTI Class Hierarchy Descriptor'
PUBLIC	??_R2IContent@@8				; IContent::`RTTI Base Class Array'
PUBLIC	??_R13?0A@EA@CWinApp@@8				; CWinApp::`RTTI Base Class Descriptor at (4,-1,0,64)'
PUBLIC	??_R0?AVCWinApp@@@8				; CWinApp `RTTI Type Descriptor'
PUBLIC	??_R3CWinApp@@8					; CWinApp::`RTTI Class Hierarchy Descriptor'
PUBLIC	??_R2CWinApp@@8					; CWinApp::`RTTI Base Class Array'
PUBLIC	??_R1A@?0A@EA@CWinApp@@8			; CWinApp::`RTTI Base Class Descriptor at (0,-1,0,64)'
PUBLIC	??_R1A@?0A@EA@CWinThread@@8			; CWinThread::`RTTI Base Class Descriptor at (0,-1,0,64)'
PUBLIC	??_R0?AVCWinThread@@@8				; CWinThread `RTTI Type Descriptor'
PUBLIC	??_R3CWinThread@@8				; CWinThread::`RTTI Class Hierarchy Descriptor'
PUBLIC	??_R2CWinThread@@8				; CWinThread::`RTTI Base Class Array'
PUBLIC	??_R1A@?0A@EA@CCmdTarget@@8			; CCmdTarget::`RTTI Base Class Descriptor at (0,-1,0,64)'
PUBLIC	??_R0?AVCCmdTarget@@@8				; CCmdTarget `RTTI Type Descriptor'
PUBLIC	??_R3CCmdTarget@@8				; CCmdTarget::`RTTI Class Hierarchy Descriptor'
PUBLIC	??_R2CCmdTarget@@8				; CCmdTarget::`RTTI Base Class Array'
PUBLIC	??_R1A@?0A@EA@CObject@@8			; CObject::`RTTI Base Class Descriptor at (0,-1,0,64)'
PUBLIC	??_R0?AVCObject@@@8				; CObject `RTTI Type Descriptor'
PUBLIC	??_R3CObject@@8					; CObject::`RTTI Class Hierarchy Descriptor'
PUBLIC	??_R2CObject@@8					; CObject::`RTTI Base Class Array'
PUBLIC	??_R13?0A@EA@CWinThread@@8			; CWinThread::`RTTI Base Class Descriptor at (4,-1,0,64)'
PUBLIC	??_R13?0A@EA@CCmdTarget@@8			; CCmdTarget::`RTTI Base Class Descriptor at (4,-1,0,64)'
PUBLIC	??_R13?0A@EA@CObject@@8				; CObject::`RTTI Base Class Descriptor at (4,-1,0,64)'
PUBLIC	?GetTypeID@CRTFContentCtrlApp@@UBEPB_WXZ	; CRTFContentCtrlApp::GetTypeID
PUBLIC	?GetTypeDescription@CRTFContentCtrlApp@@UBEPB_WXZ ; CRTFContentCtrlApp::GetTypeDescription
PUBLIC	?GetTypeIcon@CRTFContentCtrlApp@@UBEPAUHICON__@@XZ ; CRTFContentCtrlApp::GetTypeIcon
PUBLIC	?SetLocalizer@CRTFContentCtrlApp@@UAEXPAVITransText@@@Z ; CRTFContentCtrlApp::SetLocalizer
PUBLIC	?CreateCtrl@CRTFContentCtrlApp@@UAEPAVIContentControl@@GKJJJJPAUHWND__@@@Z ; CRTFContentCtrlApp::CreateCtrl
PUBLIC	?Release@CRTFContentCtrlApp@@UAEXXZ		; CRTFContentCtrlApp::Release
PUBLIC	?ConvertToHtml@CRTFContentCtrlApp@@UAEHPBEHPB_WAAPA_W1@Z ; CRTFContentCtrlApp::ConvertToHtml
PUBLIC	?FreeHtmlBuffer@CRTFContentCtrlApp@@UAEXAAPA_W@Z ; CRTFContentCtrlApp::FreeHtmlBuffer
PUBLIC	?SavePreferences@CRTFContentCtrlApp@@UBEXPAVIPreferences@@PB_W@Z ; CRTFContentCtrlApp::SavePreferences
PUBLIC	?LoadPreferences@CRTFContentCtrlApp@@UAEXPBVIPreferences@@PB_W@Z ; CRTFContentCtrlApp::LoadPreferences
PUBLIC	??_R4CRTFContentCtrlApp@@6BCWinApp@@@		; CRTFContentCtrlApp::`RTTI Complete Object Locator'
PUBLIC	??_ECRTFContentCtrlApp@@W3AEPAXI@Z		; [thunk]:CRTFContentCtrlApp::`vector deleting destructor'
PUBLIC	?InitInstance@CRTFContentCtrlApp@@MAEHXZ	; CRTFContentCtrlApp::InitInstance
PUBLIC	?SupportsRestartManager@CWinApp@@UBEHXZ		; CWinApp::SupportsRestartManager
PUBLIC	?SupportsApplicationRecovery@CWinApp@@UBEHXZ	; CWinApp::SupportsApplicationRecovery
PUBLIC	?SupportsAutosaveAtRestart@CWinApp@@UBEHXZ	; CWinApp::SupportsAutosaveAtRestart
PUBLIC	?SupportsAutosaveAtInterval@CWinApp@@UBEHXZ	; CWinApp::SupportsAutosaveAtInterval
PUBLIC	?ReopenPreviousFilesAtRestart@CWinApp@@UBEHXZ	; CWinApp::ReopenPreviousFilesAtRestart
PUBLIC	?RestoreAutosavedFilesAtRestart@CWinApp@@UBEHXZ	; CWinApp::RestoreAutosavedFilesAtRestart
PUBLIC	?GetApplicationRestartFlags@CWinApp@@UAEKXZ	; CWinApp::GetApplicationRestartFlags
PUBLIC	?GetApplicationRecoveryParameter@CWinApp@@UAEPAXXZ ; CWinApp::GetApplicationRecoveryParameter
PUBLIC	?GetApplicationRecoveryPingInterval@CWinApp@@UAEKXZ ; CWinApp::GetApplicationRecoveryPingInterval
EXTRN	??1CWinApp@@UAE@XZ:PROC				; CWinApp::~CWinApp
EXTRN	??0CRtfHtmlConverter@@QAE@H@Z:PROC		; CRtfHtmlConverter::CRtfHtmlConverter
EXTRN	??0CWinApp@@QAE@PB_W@Z:PROC			; CWinApp::CWinApp
EXTRN	___security_cookie:DWORD
EXTRN	___CxxFrameHandler3:PROC
EXTRN	@__security_check_cookie@4:PROC
EXTRN	??_7type_info@@6B@:QWORD			; type_info::`vftable'
EXTRN	?GetRuntimeClass@CWinApp@@UBEPAUCRuntimeClass@@XZ:PROC ; CWinApp::GetRuntimeClass
EXTRN	?Serialize@CObject@@UAEXAAVCArchive@@@Z:PROC	; CObject::Serialize
EXTRN	?AssertValid@CWinApp@@UBEXXZ:PROC		; CWinApp::AssertValid
EXTRN	?Dump@CWinApp@@UBEXAAVCDumpContext@@@Z:PROC	; CWinApp::Dump
EXTRN	?OnCmdMsg@CCmdTarget@@UAEHIHPAXPAUAFX_CMDHANDLERINFO@@@Z:PROC ; CCmdTarget::OnCmdMsg
EXTRN	?OnFinalRelease@CCmdTarget@@UAEXXZ:PROC		; CCmdTarget::OnFinalRelease
EXTRN	?IsInvokeAllowed@CCmdTarget@@UAEHJ@Z:PROC	; CCmdTarget::IsInvokeAllowed
EXTRN	?GetDispatchIID@CCmdTarget@@UAEHPAU_GUID@@@Z:PROC ; CCmdTarget::GetDispatchIID
EXTRN	?GetTypeInfoCount@CCmdTarget@@UAEIXZ:PROC	; CCmdTarget::GetTypeInfoCount
EXTRN	?GetTypeLibCache@CCmdTarget@@UAEPAVCTypeLibCache@@XZ:PROC ; CCmdTarget::GetTypeLibCache
EXTRN	?GetTypeLib@CCmdTarget@@UAEJKPAPAUITypeLib@@@Z:PROC ; CCmdTarget::GetTypeLib
EXTRN	?GetMessageMap@CWinApp@@MBEPBUAFX_MSGMAP@@XZ:PROC ; CWinApp::GetMessageMap
EXTRN	?GetCommandMap@CCmdTarget@@MBEPBUAFX_OLECMDMAP@@XZ:PROC ; CCmdTarget::GetCommandMap
EXTRN	?GetDispatchMap@CCmdTarget@@MBEPBUAFX_DISPMAP@@XZ:PROC ; CCmdTarget::GetDispatchMap
EXTRN	?GetConnectionMap@CCmdTarget@@MBEPBUAFX_CONNECTIONMAP@@XZ:PROC ; CCmdTarget::GetConnectionMap
EXTRN	?GetInterfaceMap@CCmdTarget@@MBEPBUAFX_INTERFACEMAP@@XZ:PROC ; CCmdTarget::GetInterfaceMap
EXTRN	?GetEventSinkMap@CCmdTarget@@MBEPBUAFX_EVENTSINKMAP@@XZ:PROC ; CCmdTarget::GetEventSinkMap
EXTRN	?OnCreateAggregates@CCmdTarget@@UAEHXZ:PROC	; CCmdTarget::OnCreateAggregates
EXTRN	?GetInterfaceHook@CCmdTarget@@UAEPAUIUnknown@@PBX@Z:PROC ; CCmdTarget::GetInterfaceHook
EXTRN	?GetExtraConnectionPoints@CCmdTarget@@MAEHPAVCPtrArray@@@Z:PROC ; CCmdTarget::GetExtraConnectionPoints
EXTRN	?GetConnectionHook@CCmdTarget@@MAEPAUIConnectionPoint@@ABU_GUID@@@Z:PROC ; CCmdTarget::GetConnectionHook
EXTRN	?Run@CWinApp@@UAEHXZ:PROC			; CWinApp::Run
EXTRN	?PreTranslateMessage@CWinThread@@UAEHPAUtagMSG@@@Z:PROC ; CWinThread::PreTranslateMessage
EXTRN	?PumpMessage@CWinThread@@UAEHXZ:PROC		; CWinThread::PumpMessage
EXTRN	?OnIdle@CWinApp@@UAEHJ@Z:PROC			; CWinApp::OnIdle
EXTRN	?IsIdleMessage@CWinThread@@UAEHPAUtagMSG@@@Z:PROC ; CWinThread::IsIdleMessage
EXTRN	?ExitInstance@CWinApp@@UAEHXZ:PROC		; CWinApp::ExitInstance
EXTRN	?ProcessWndProcException@CWinApp@@UAEJPAVCException@@PBUtagMSG@@@Z:PROC ; CWinApp::ProcessWndProcException
EXTRN	?ProcessMessageFilter@CWinThread@@UAEHHPAUtagMSG@@@Z:PROC ; CWinThread::ProcessMessageFilter
EXTRN	?GetMainWnd@CWinThread@@UAEPAVCWnd@@XZ:PROC	; CWinThread::GetMainWnd
EXTRN	?Delete@CWinThread@@UAEXXZ:PROC			; CWinThread::Delete
EXTRN	?GetProfileIntW@CWinApp@@UAEIPB_W0H@Z:PROC	; CWinApp::GetProfileIntW
EXTRN	?WriteProfileInt@CWinApp@@UAEHPB_W0H@Z:PROC	; CWinApp::WriteProfileInt
EXTRN	?GetProfileStringW@CWinApp@@UAE?AV?$CStringT@_WV?$StrTraitMFC_DLL@_WV?$ChTraitsCRT@_W@ATL@@@@@ATL@@PB_W00@Z:PROC ; CWinApp::GetProfileStringW
EXTRN	?WriteProfileStringW@CWinApp@@UAEHPB_W00@Z:PROC	; CWinApp::WriteProfileStringW
EXTRN	?GetProfileBinary@CWinApp@@UAEHPB_W0PAPAEPAI@Z:PROC ; CWinApp::GetProfileBinary
EXTRN	?WriteProfileBinary@CWinApp@@UAEHPB_W0PAEI@Z:PROC ; CWinApp::WriteProfileBinary
EXTRN	?InitLibId@CWinApp@@UAEXXZ:PROC			; CWinApp::InitLibId
EXTRN	?Register@CWinApp@@UAEHXZ:PROC			; CWinApp::Register
EXTRN	?Unregister@CWinApp@@UAEHXZ:PROC		; CWinApp::Unregister
EXTRN	?OpenDocumentFile@CWinApp@@UAEPAVCDocument@@PB_WH@Z:PROC ; CWinApp::OpenDocumentFile
EXTRN	?OpenDocumentFile@CWinApp@@UAEPAVCDocument@@PB_W@Z:PROC ; CWinApp::OpenDocumentFile
EXTRN	?AddToRecentFileList@CWinApp@@UAEXPB_W@Z:PROC	; CWinApp::AddToRecentFileList
EXTRN	?InitApplication@CWinApp@@UAEHXZ:PROC		; CWinApp::InitApplication
EXTRN	?SaveAllModified@CWinApp@@UAEHXZ:PROC		; CWinApp::SaveAllModified
EXTRN	?DoMessageBox@CWinApp@@UAEHPB_WII@Z:PROC	; CWinApp::DoMessageBox
EXTRN	?DoWaitCursor@CWinApp@@UAEXH@Z:PROC		; CWinApp::DoWaitCursor
EXTRN	?OnDDECommand@CWinApp@@UAEHPA_W@Z:PROC		; CWinApp::OnDDECommand
EXTRN	?WinHelpW@CWinApp@@UAEXKI@Z:PROC		; CWinApp::WinHelpW
EXTRN	?HtmlHelpW@CWinApp@@UAEXKI@Z:PROC		; CWinApp::HtmlHelpW
EXTRN	?WinHelpInternal@CWinApp@@UAEXKI@Z:PROC		; CWinApp::WinHelpInternal
EXTRN	?RegisterWithRestartManager@CWinApp@@UAEJPB_WKP6GKPAX@Z1KK@Z:PROC ; CWinApp::RegisterWithRestartManager
EXTRN	?RegisterWithRestartManager@CWinApp@@UAEJHABV?$CStringT@_WV?$StrTraitMFC_DLL@_WV?$ChTraitsCRT@_W@ATL@@@@@ATL@@@Z:PROC ; CWinApp::RegisterWithRestartManager
EXTRN	?ApplicationRecoveryCallback@CWinApp@@UAEKPAX@Z:PROC ; CWinApp::ApplicationRecoveryCallback
EXTRN	?GetDataRecoveryHandler@CWinApp@@UAEPAVCDataRecoveryHandler@@XZ:PROC ; CWinApp::GetDataRecoveryHandler
EXTRN	?IsTaskbarInteractionEnabled@CWinApp@@UAEHXZ:PROC ; CWinApp::IsTaskbarInteractionEnabled
EXTRN	?RestartInstance@CWinApp@@UAEHXZ:PROC		; CWinApp::RestartInstance
EXTRN	?LoadAppLangResourceDLL@CWinApp@@UAEPAUHINSTANCE__@@XZ:PROC ; CWinApp::LoadAppLangResourceDLL
EXTRN	?LoadSysPolicies@CWinApp@@UAEHXZ:PROC		; CWinApp::LoadSysPolicies
;	COMDAT ??_R4CRTFContentCtrlApp@@6BCWinApp@@@
rdata$r	SEGMENT
??_R4CRTFContentCtrlApp@@6BCWinApp@@@ DD 00H		; CRTFContentCtrlApp::`RTTI Complete Object Locator'
	DD	04H
	DD	00H
	DD	FLAT:??_R0?AVCRTFContentCtrlApp@@@8
	DD	FLAT:??_R3CRTFContentCtrlApp@@8
rdata$r	ENDS
;	COMDAT ??_R13?0A@EA@CObject@@8
rdata$r	SEGMENT
??_R13?0A@EA@CObject@@8 DD FLAT:??_R0?AVCObject@@@8	; CObject::`RTTI Base Class Descriptor at (4,-1,0,64)'
	DD	00H
	DD	04H
	DD	0ffffffffH
	DD	00H
	DD	040H
	DD	FLAT:??_R3CObject@@8
rdata$r	ENDS
;	COMDAT ??_R13?0A@EA@CCmdTarget@@8
rdata$r	SEGMENT
??_R13?0A@EA@CCmdTarget@@8 DD FLAT:??_R0?AVCCmdTarget@@@8 ; CCmdTarget::`RTTI Base Class Descriptor at (4,-1,0,64)'
	DD	01H
	DD	04H
	DD	0ffffffffH
	DD	00H
	DD	040H
	DD	FLAT:??_R3CCmdTarget@@8
rdata$r	ENDS
;	COMDAT ??_R13?0A@EA@CWinThread@@8
rdata$r	SEGMENT
??_R13?0A@EA@CWinThread@@8 DD FLAT:??_R0?AVCWinThread@@@8 ; CWinThread::`RTTI Base Class Descriptor at (4,-1,0,64)'
	DD	02H
	DD	04H
	DD	0ffffffffH
	DD	00H
	DD	040H
	DD	FLAT:??_R3CWinThread@@8
rdata$r	ENDS
;	COMDAT ??_R2CObject@@8
rdata$r	SEGMENT
??_R2CObject@@8 DD FLAT:??_R1A@?0A@EA@CObject@@8	; CObject::`RTTI Base Class Array'
rdata$r	ENDS
;	COMDAT ??_R3CObject@@8
rdata$r	SEGMENT
??_R3CObject@@8 DD 00H					; CObject::`RTTI Class Hierarchy Descriptor'
	DD	00H
	DD	01H
	DD	FLAT:??_R2CObject@@8
rdata$r	ENDS
;	COMDAT ??_R0?AVCObject@@@8
_DATA	SEGMENT
??_R0?AVCObject@@@8 DD FLAT:??_7type_info@@6B@		; CObject `RTTI Type Descriptor'
	DD	00H
	DB	'.?AVCObject@@', 00H
_DATA	ENDS
;	COMDAT ??_R1A@?0A@EA@CObject@@8
rdata$r	SEGMENT
??_R1A@?0A@EA@CObject@@8 DD FLAT:??_R0?AVCObject@@@8	; CObject::`RTTI Base Class Descriptor at (0,-1,0,64)'
	DD	00H
	DD	00H
	DD	0ffffffffH
	DD	00H
	DD	040H
	DD	FLAT:??_R3CObject@@8
rdata$r	ENDS
;	COMDAT ??_R2CCmdTarget@@8
rdata$r	SEGMENT
??_R2CCmdTarget@@8 DD FLAT:??_R1A@?0A@EA@CCmdTarget@@8	; CCmdTarget::`RTTI Base Class Array'
	DD	FLAT:??_R1A@?0A@EA@CObject@@8
rdata$r	ENDS
;	COMDAT ??_R3CCmdTarget@@8
rdata$r	SEGMENT
??_R3CCmdTarget@@8 DD 00H				; CCmdTarget::`RTTI Class Hierarchy Descriptor'
	DD	00H
	DD	02H
	DD	FLAT:??_R2CCmdTarget@@8
rdata$r	ENDS
;	COMDAT ??_R0?AVCCmdTarget@@@8
_DATA	SEGMENT
??_R0?AVCCmdTarget@@@8 DD FLAT:??_7type_info@@6B@	; CCmdTarget `RTTI Type Descriptor'
	DD	00H
	DB	'.?AVCCmdTarget@@', 00H
_DATA	ENDS
;	COMDAT ??_R1A@?0A@EA@CCmdTarget@@8
rdata$r	SEGMENT
??_R1A@?0A@EA@CCmdTarget@@8 DD FLAT:??_R0?AVCCmdTarget@@@8 ; CCmdTarget::`RTTI Base Class Descriptor at (0,-1,0,64)'
	DD	01H
	DD	00H
	DD	0ffffffffH
	DD	00H
	DD	040H
	DD	FLAT:??_R3CCmdTarget@@8
rdata$r	ENDS
;	COMDAT ??_R2CWinThread@@8
rdata$r	SEGMENT
??_R2CWinThread@@8 DD FLAT:??_R1A@?0A@EA@CWinThread@@8	; CWinThread::`RTTI Base Class Array'
	DD	FLAT:??_R1A@?0A@EA@CCmdTarget@@8
	DD	FLAT:??_R1A@?0A@EA@CObject@@8
rdata$r	ENDS
;	COMDAT ??_R3CWinThread@@8
rdata$r	SEGMENT
??_R3CWinThread@@8 DD 00H				; CWinThread::`RTTI Class Hierarchy Descriptor'
	DD	00H
	DD	03H
	DD	FLAT:??_R2CWinThread@@8
rdata$r	ENDS
;	COMDAT ??_R0?AVCWinThread@@@8
_DATA	SEGMENT
??_R0?AVCWinThread@@@8 DD FLAT:??_7type_info@@6B@	; CWinThread `RTTI Type Descriptor'
	DD	00H
	DB	'.?AVCWinThread@@', 00H
_DATA	ENDS
;	COMDAT ??_R1A@?0A@EA@CWinThread@@8
rdata$r	SEGMENT
??_R1A@?0A@EA@CWinThread@@8 DD FLAT:??_R0?AVCWinThread@@@8 ; CWinThread::`RTTI Base Class Descriptor at (0,-1,0,64)'
	DD	02H
	DD	00H
	DD	0ffffffffH
	DD	00H
	DD	040H
	DD	FLAT:??_R3CWinThread@@8
rdata$r	ENDS
;	COMDAT ??_R1A@?0A@EA@CWinApp@@8
rdata$r	SEGMENT
??_R1A@?0A@EA@CWinApp@@8 DD FLAT:??_R0?AVCWinApp@@@8	; CWinApp::`RTTI Base Class Descriptor at (0,-1,0,64)'
	DD	03H
	DD	00H
	DD	0ffffffffH
	DD	00H
	DD	040H
	DD	FLAT:??_R3CWinApp@@8
rdata$r	ENDS
;	COMDAT ??_R2CWinApp@@8
rdata$r	SEGMENT
??_R2CWinApp@@8 DD FLAT:??_R1A@?0A@EA@CWinApp@@8	; CWinApp::`RTTI Base Class Array'
	DD	FLAT:??_R1A@?0A@EA@CWinThread@@8
	DD	FLAT:??_R1A@?0A@EA@CCmdTarget@@8
	DD	FLAT:??_R1A@?0A@EA@CObject@@8
rdata$r	ENDS
;	COMDAT ??_R3CWinApp@@8
rdata$r	SEGMENT
??_R3CWinApp@@8 DD 00H					; CWinApp::`RTTI Class Hierarchy Descriptor'
	DD	00H
	DD	04H
	DD	FLAT:??_R2CWinApp@@8
rdata$r	ENDS
;	COMDAT ??_R0?AVCWinApp@@@8
_DATA	SEGMENT
??_R0?AVCWinApp@@@8 DD FLAT:??_7type_info@@6B@		; CWinApp `RTTI Type Descriptor'
	DD	00H
	DB	'.?AVCWinApp@@', 00H
_DATA	ENDS
;	COMDAT ??_R13?0A@EA@CWinApp@@8
rdata$r	SEGMENT
??_R13?0A@EA@CWinApp@@8 DD FLAT:??_R0?AVCWinApp@@@8	; CWinApp::`RTTI Base Class Descriptor at (4,-1,0,64)'
	DD	03H
	DD	04H
	DD	0ffffffffH
	DD	00H
	DD	040H
	DD	FLAT:??_R3CWinApp@@8
rdata$r	ENDS
;	COMDAT ??_R2IContent@@8
rdata$r	SEGMENT
??_R2IContent@@8 DD FLAT:??_R1A@?0A@EA@IContent@@8	; IContent::`RTTI Base Class Array'
rdata$r	ENDS
;	COMDAT ??_R3IContent@@8
rdata$r	SEGMENT
??_R3IContent@@8 DD 00H					; IContent::`RTTI Class Hierarchy Descriptor'
	DD	00H
	DD	01H
	DD	FLAT:??_R2IContent@@8
rdata$r	ENDS
;	COMDAT ??_R0?AVIContent@@@8
_DATA	SEGMENT
??_R0?AVIContent@@@8 DD FLAT:??_7type_info@@6B@		; IContent `RTTI Type Descriptor'
	DD	00H
	DB	'.?AVIContent@@', 00H
_DATA	ENDS
;	COMDAT ??_R1A@?0A@EA@IContent@@8
rdata$r	SEGMENT
??_R1A@?0A@EA@IContent@@8 DD FLAT:??_R0?AVIContent@@@8	; IContent::`RTTI Base Class Descriptor at (0,-1,0,64)'
	DD	00H
	DD	00H
	DD	0ffffffffH
	DD	00H
	DD	040H
	DD	FLAT:??_R3IContent@@8
rdata$r	ENDS
;	COMDAT ??_R1A@?0A@EA@CRTFContentCtrlApp@@8
rdata$r	SEGMENT
??_R1A@?0A@EA@CRTFContentCtrlApp@@8 DD FLAT:??_R0?AVCRTFContentCtrlApp@@@8 ; CRTFContentCtrlApp::`RTTI Base Class Descriptor at (0,-1,0,64)'
	DD	05H
	DD	00H
	DD	0ffffffffH
	DD	00H
	DD	040H
	DD	FLAT:??_R3CRTFContentCtrlApp@@8
rdata$r	ENDS
;	COMDAT ??_R2CRTFContentCtrlApp@@8
rdata$r	SEGMENT
??_R2CRTFContentCtrlApp@@8 DD FLAT:??_R1A@?0A@EA@CRTFContentCtrlApp@@8 ; CRTFContentCtrlApp::`RTTI Base Class Array'
	DD	FLAT:??_R1A@?0A@EA@IContent@@8
	DD	FLAT:??_R13?0A@EA@CWinApp@@8
	DD	FLAT:??_R13?0A@EA@CWinThread@@8
	DD	FLAT:??_R13?0A@EA@CCmdTarget@@8
	DD	FLAT:??_R13?0A@EA@CObject@@8
rdata$r	ENDS
;	COMDAT ??_R3CRTFContentCtrlApp@@8
rdata$r	SEGMENT
??_R3CRTFContentCtrlApp@@8 DD 00H			; CRTFContentCtrlApp::`RTTI Class Hierarchy Descriptor'
	DD	01H
	DD	06H
	DD	FLAT:??_R2CRTFContentCtrlApp@@8
rdata$r	ENDS
;	COMDAT ??_R0?AVCRTFContentCtrlApp@@@8
_DATA	SEGMENT
??_R0?AVCRTFContentCtrlApp@@@8 DD FLAT:??_7type_info@@6B@ ; CRTFContentCtrlApp `RTTI Type Descriptor'
	DD	00H
	DB	'.?AVCRTFContentCtrlApp@@', 00H
_DATA	ENDS
;	COMDAT ??_R4CRTFContentCtrlApp@@6BIContent@@@
rdata$r	SEGMENT
??_R4CRTFContentCtrlApp@@6BIContent@@@ DD 00H		; CRTFContentCtrlApp::`RTTI Complete Object Locator'
	DD	00H
	DD	00H
	DD	FLAT:??_R0?AVCRTFContentCtrlApp@@@8
	DD	FLAT:??_R3CRTFContentCtrlApp@@8
rdata$r	ENDS
;	COMDAT ??_7CRTFContentCtrlApp@@6BCWinApp@@@
CONST	SEGMENT
??_7CRTFContentCtrlApp@@6BCWinApp@@@ DD FLAT:??_R4CRTFContentCtrlApp@@6BCWinApp@@@ ; CRTFContentCtrlApp::`vftable'
	DD	FLAT:?GetRuntimeClass@CWinApp@@UBEPAUCRuntimeClass@@XZ
	DD	FLAT:??_ECRTFContentCtrlApp@@W3AEPAXI@Z
	DD	FLAT:?Serialize@CObject@@UAEXAAVCArchive@@@Z
	DD	FLAT:?AssertValid@CWinApp@@UBEXXZ
	DD	FLAT:?Dump@CWinApp@@UBEXAAVCDumpContext@@@Z
	DD	FLAT:?OnCmdMsg@CCmdTarget@@UAEHIHPAXPAUAFX_CMDHANDLERINFO@@@Z
	DD	FLAT:?OnFinalRelease@CCmdTarget@@UAEXXZ
	DD	FLAT:?IsInvokeAllowed@CCmdTarget@@UAEHJ@Z
	DD	FLAT:?GetDispatchIID@CCmdTarget@@UAEHPAU_GUID@@@Z
	DD	FLAT:?GetTypeInfoCount@CCmdTarget@@UAEIXZ
	DD	FLAT:?GetTypeLibCache@CCmdTarget@@UAEPAVCTypeLibCache@@XZ
	DD	FLAT:?GetTypeLib@CCmdTarget@@UAEJKPAPAUITypeLib@@@Z
	DD	FLAT:?GetMessageMap@CWinApp@@MBEPBUAFX_MSGMAP@@XZ
	DD	FLAT:?GetCommandMap@CCmdTarget@@MBEPBUAFX_OLECMDMAP@@XZ
	DD	FLAT:?GetDispatchMap@CCmdTarget@@MBEPBUAFX_DISPMAP@@XZ
	DD	FLAT:?GetConnectionMap@CCmdTarget@@MBEPBUAFX_CONNECTIONMAP@@XZ
	DD	FLAT:?GetInterfaceMap@CCmdTarget@@MBEPBUAFX_INTERFACEMAP@@XZ
	DD	FLAT:?GetEventSinkMap@CCmdTarget@@MBEPBUAFX_EVENTSINKMAP@@XZ
	DD	FLAT:?OnCreateAggregates@CCmdTarget@@UAEHXZ
	DD	FLAT:?GetInterfaceHook@CCmdTarget@@UAEPAUIUnknown@@PBX@Z
	DD	FLAT:?GetExtraConnectionPoints@CCmdTarget@@MAEHPAVCPtrArray@@@Z
	DD	FLAT:?GetConnectionHook@CCmdTarget@@MAEPAUIConnectionPoint@@ABU_GUID@@@Z
	DD	FLAT:?InitInstance@CRTFContentCtrlApp@@MAEHXZ
	DD	FLAT:?Run@CWinApp@@UAEHXZ
	DD	FLAT:?PreTranslateMessage@CWinThread@@UAEHPAUtagMSG@@@Z
	DD	FLAT:?PumpMessage@CWinThread@@UAEHXZ
	DD	FLAT:?OnIdle@CWinApp@@UAEHJ@Z
	DD	FLAT:?IsIdleMessage@CWinThread@@UAEHPAUtagMSG@@@Z
	DD	FLAT:?ExitInstance@CWinApp@@UAEHXZ
	DD	FLAT:?ProcessWndProcException@CWinApp@@UAEJPAVCException@@PBUtagMSG@@@Z
	DD	FLAT:?ProcessMessageFilter@CWinThread@@UAEHHPAUtagMSG@@@Z
	DD	FLAT:?GetMainWnd@CWinThread@@UAEPAVCWnd@@XZ
	DD	FLAT:?Delete@CWinThread@@UAEXXZ
	DD	FLAT:?GetProfileIntW@CWinApp@@UAEIPB_W0H@Z
	DD	FLAT:?WriteProfileInt@CWinApp@@UAEHPB_W0H@Z
	DD	FLAT:?GetProfileStringW@CWinApp@@UAE?AV?$CStringT@_WV?$StrTraitMFC_DLL@_WV?$ChTraitsCRT@_W@ATL@@@@@ATL@@PB_W00@Z
	DD	FLAT:?WriteProfileStringW@CWinApp@@UAEHPB_W00@Z
	DD	FLAT:?GetProfileBinary@CWinApp@@UAEHPB_W0PAPAEPAI@Z
	DD	FLAT:?WriteProfileBinary@CWinApp@@UAEHPB_W0PAEI@Z
	DD	FLAT:?InitLibId@CWinApp@@UAEXXZ
	DD	FLAT:?Register@CWinApp@@UAEHXZ
	DD	FLAT:?Unregister@CWinApp@@UAEHXZ
	DD	FLAT:?OpenDocumentFile@CWinApp@@UAEPAVCDocument@@PB_WH@Z
	DD	FLAT:?OpenDocumentFile@CWinApp@@UAEPAVCDocument@@PB_W@Z
	DD	FLAT:?AddToRecentFileList@CWinApp@@UAEXPB_W@Z
	DD	FLAT:?InitApplication@CWinApp@@UAEHXZ
	DD	FLAT:?SaveAllModified@CWinApp@@UAEHXZ
	DD	FLAT:?DoMessageBox@CWinApp@@UAEHPB_WII@Z
	DD	FLAT:?DoWaitCursor@CWinApp@@UAEXH@Z
	DD	FLAT:?OnDDECommand@CWinApp@@UAEHPA_W@Z
	DD	FLAT:?WinHelpW@CWinApp@@UAEXKI@Z
	DD	FLAT:?HtmlHelpW@CWinApp@@UAEXKI@Z
	DD	FLAT:?WinHelpInternal@CWinApp@@UAEXKI@Z
	DD	FLAT:?RegisterWithRestartManager@CWinApp@@UAEJPB_WKP6GKPAX@Z1KK@Z
	DD	FLAT:?RegisterWithRestartManager@CWinApp@@UAEJHABV?$CStringT@_WV?$StrTraitMFC_DLL@_WV?$ChTraitsCRT@_W@ATL@@@@@ATL@@@Z
	DD	FLAT:?ApplicationRecoveryCallback@CWinApp@@UAEKPAX@Z
	DD	FLAT:?SupportsRestartManager@CWinApp@@UBEHXZ
	DD	FLAT:?SupportsApplicationRecovery@CWinApp@@UBEHXZ
	DD	FLAT:?SupportsAutosaveAtRestart@CWinApp@@UBEHXZ
	DD	FLAT:?SupportsAutosaveAtInterval@CWinApp@@UBEHXZ
	DD	FLAT:?ReopenPreviousFilesAtRestart@CWinApp@@UBEHXZ
	DD	FLAT:?RestoreAutosavedFilesAtRestart@CWinApp@@UBEHXZ
	DD	FLAT:?GetApplicationRestartFlags@CWinApp@@UAEKXZ
	DD	FLAT:?GetApplicationRecoveryParameter@CWinApp@@UAEPAXXZ
	DD	FLAT:?GetApplicationRecoveryPingInterval@CWinApp@@UAEKXZ
	DD	FLAT:?GetDataRecoveryHandler@CWinApp@@UAEPAVCDataRecoveryHandler@@XZ
	DD	FLAT:?IsTaskbarInteractionEnabled@CWinApp@@UAEHXZ
	DD	FLAT:?RestartInstance@CWinApp@@UAEHXZ
	DD	FLAT:?LoadAppLangResourceDLL@CWinApp@@UAEPAUHINSTANCE__@@XZ
	DD	FLAT:?LoadSysPolicies@CWinApp@@UAEHXZ
CONST	ENDS
;	COMDAT ??_7CRTFContentCtrlApp@@6BIContent@@@
CONST	SEGMENT
??_7CRTFContentCtrlApp@@6BIContent@@@ DD FLAT:??_R4CRTFContentCtrlApp@@6BIContent@@@ ; CRTFContentCtrlApp::`vftable'
	DD	FLAT:?GetTypeID@CRTFContentCtrlApp@@UBEPB_WXZ
	DD	FLAT:?GetTypeDescription@CRTFContentCtrlApp@@UBEPB_WXZ
	DD	FLAT:?GetTypeIcon@CRTFContentCtrlApp@@UBEPAUHICON__@@XZ
	DD	FLAT:?SetLocalizer@CRTFContentCtrlApp@@UAEXPAVITransText@@@Z
	DD	FLAT:?CreateCtrl@CRTFContentCtrlApp@@UAEPAVIContentControl@@GKJJJJPAUHWND__@@@Z
	DD	FLAT:?Release@CRTFContentCtrlApp@@UAEXXZ
	DD	FLAT:?ConvertToHtml@CRTFContentCtrlApp@@UAEHPBEHPB_WAAPA_W1@Z
	DD	FLAT:?FreeHtmlBuffer@CRTFContentCtrlApp@@UAEXAAPA_W@Z
	DD	FLAT:?SavePreferences@CRTFContentCtrlApp@@UBEXPAVIPreferences@@PB_W@Z
	DD	FLAT:?LoadPreferences@CRTFContentCtrlApp@@UAEXPBVIPreferences@@PB_W@Z
CONST	ENDS
;	COMDAT xdata$x
xdata$x	SEGMENT
__unwindtable$??0CRTFContentCtrlApp@@QAE@XZ DD 0ffffffffH
	DD	FLAT:__unwindfunclet$??0CRTFContentCtrlApp@@QAE@XZ$0
__ehfuncinfo$??0CRTFContentCtrlApp@@QAE@XZ DD 019930522H
	DD	01H
	DD	FLAT:__unwindtable$??0CRTFContentCtrlApp@@QAE@XZ
	DD	2 DUP(00H)
	DD	2 DUP(00H)
	DD	00H
	DD	01H
; Function compile flags: /Odtp /RTCsu
xdata$x	ENDS
;	COMDAT ??0CRTFContentCtrlApp@@QAE@XZ
_TEXT	SEGMENT
_this$ = -16						; size = 4
__$EHRec$ = -12						; size = 12
??0CRTFContentCtrlApp@@QAE@XZ PROC			; CRTFContentCtrlApp::CRTFContentCtrlApp, COMDAT
; _this$ = ecx

; 47   : {

	push	ebp
	mov	ebp, esp
	push	-1
	push	__ehhandler$??0CRTFContentCtrlApp@@QAE@XZ
	mov	eax, DWORD PTR fs:0
	push	eax
	push	ecx
	mov	DWORD PTR [ebp-16], -858993460		; ccccccccH
	mov	eax, DWORD PTR ___security_cookie
	xor	eax, ebp
	push	eax
	lea	eax, DWORD PTR __$EHRec$[ebp]
	mov	DWORD PTR fs:0, eax
	mov	DWORD PTR _this$[ebp], ecx
	mov	ecx, DWORD PTR _this$[ebp]
	call	??0IContent@@QAE@XZ
	push	0
	mov	ecx, DWORD PTR _this$[ebp]
	add	ecx, 4
	call	??0CWinApp@@QAE@PB_W@Z			; CWinApp::CWinApp
	mov	DWORD PTR __$EHRec$[ebp+8], 0
	mov	eax, DWORD PTR _this$[ebp]
	mov	DWORD PTR [eax], OFFSET ??_7CRTFContentCtrlApp@@6BIContent@@@
	mov	ecx, DWORD PTR _this$[ebp]
	mov	DWORD PTR [ecx+4], OFFSET ??_7CRTFContentCtrlApp@@6BCWinApp@@@
	push	1
	mov	ecx, DWORD PTR _this$[ebp]
	add	ecx, 188				; 000000bcH
	call	??0CRtfHtmlConverter@@QAE@H@Z		; CRtfHtmlConverter::CRtfHtmlConverter
	mov	edx, DWORD PTR _this$[ebp]
	mov	DWORD PTR [edx+220], 0

; 48   : }

	mov	DWORD PTR __$EHRec$[ebp+8], -1
	mov	eax, DWORD PTR _this$[ebp]
	mov	ecx, DWORD PTR __$EHRec$[ebp]
	mov	DWORD PTR fs:0, ecx
	pop	ecx
	add	esp, 16					; 00000010H
	cmp	ebp, esp
	call	__RTC_CheckEsp
	mov	esp, ebp
	pop	ebp
	ret	0
_TEXT	ENDS
;	COMDAT text$x
text$x	SEGMENT
__unwindfunclet$??0CRTFContentCtrlApp@@QAE@XZ$0:
	mov	ecx, DWORD PTR _this$[ebp]
	add	ecx, 4
	jmp	??1CWinApp@@UAE@XZ			; CWinApp::~CWinApp
__ehhandler$??0CRTFContentCtrlApp@@QAE@XZ:
	mov	edx, DWORD PTR [esp+8]
	lea	eax, DWORD PTR [edx+12]
	mov	ecx, DWORD PTR [edx-8]
	xor	ecx, eax
	call	@__security_check_cookie@4
	mov	eax, OFFSET __ehfuncinfo$??0CRTFContentCtrlApp@@QAE@XZ
	jmp	___CxxFrameHandler3
text$x	ENDS
??0CRTFContentCtrlApp@@QAE@XZ ENDP			; CRTFContentCtrlApp::CRTFContentCtrlApp
; Function compile flags: /Odtp /RTCsu
; File d:\_code\rtfcontentctrl\rtfcontentctrl.h
;	COMDAT ?GetTypeID@CRTFContentCtrlApp@@UBEPB_WXZ
_TEXT	SEGMENT
_this$ = -4						; size = 4
?GetTypeID@CRTFContentCtrlApp@@UBEPB_WXZ PROC		; CRTFContentCtrlApp::GetTypeID, COMDAT
; _this$ = ecx

; 31   : 	LPCTSTR GetTypeID() const { return RTF_TYPEID; }

	push	ebp
	mov	ebp, esp
	push	ecx
	mov	DWORD PTR [ebp-4], -858993460		; ccccccccH
	mov	DWORD PTR _this$[ebp], ecx
	mov	eax, DWORD PTR _RTF_TYPEID
	mov	esp, ebp
	pop	ebp
	ret	0
?GetTypeID@CRTFContentCtrlApp@@UBEPB_WXZ ENDP		; CRTFContentCtrlApp::GetTypeID
_TEXT	ENDS
PUBLIC	??_C@_1BE@GMPGIKGI@?$AAR?$AAi?$AAc?$AAh?$AA?5?$AAT?$AAe?$AAx?$AAt?$AA?$AA@ ; `string'
;	COMDAT ??_C@_1BE@GMPGIKGI@?$AAR?$AAi?$AAc?$AAh?$AA?5?$AAT?$AAe?$AAx?$AAt?$AA?$AA@
CONST	SEGMENT
??_C@_1BE@GMPGIKGI@?$AAR?$AAi?$AAc?$AAh?$AA?5?$AAT?$AAe?$AAx?$AAt?$AA?$AA@ DB 'R'
	DB	00H, 'i', 00H, 'c', 00H, 'h', 00H, ' ', 00H, 'T', 00H, 'e', 00H
	DB	'x', 00H, 't', 00H, 00H, 00H			; `string'
; Function compile flags: /Odtp /RTCsu
CONST	ENDS
;	COMDAT ?GetTypeDescription@CRTFContentCtrlApp@@UBEPB_WXZ
_TEXT	SEGMENT
_this$ = -4						; size = 4
?GetTypeDescription@CRTFContentCtrlApp@@UBEPB_WXZ PROC	; CRTFContentCtrlApp::GetTypeDescription, COMDAT
; _this$ = ecx

; 32   : 	LPCTSTR GetTypeDescription() const { return _T("Rich Text"); }

	push	ebp
	mov	ebp, esp
	push	ecx
	mov	DWORD PTR [ebp-4], -858993460		; ccccccccH
	mov	DWORD PTR _this$[ebp], ecx
	mov	eax, OFFSET ??_C@_1BE@GMPGIKGI@?$AAR?$AAi?$AAc?$AAh?$AA?5?$AAT?$AAe?$AAx?$AAt?$AA?$AA@
	mov	esp, ebp
	pop	ebp
	ret	0
?GetTypeDescription@CRTFContentCtrlApp@@UBEPB_WXZ ENDP	; CRTFContentCtrlApp::GetTypeDescription
; Function compile flags: /Odtp /RTCsu
_TEXT	ENDS
;	COMDAT ?GetTypeIcon@CRTFContentCtrlApp@@UBEPAUHICON__@@XZ
_TEXT	SEGMENT
_this$ = -4						; size = 4
?GetTypeIcon@CRTFContentCtrlApp@@UBEPAUHICON__@@XZ PROC	; CRTFContentCtrlApp::GetTypeIcon, COMDAT
; _this$ = ecx

; 33   : 	HICON GetTypeIcon() const { return m_hIcon; }

	push	ebp
	mov	ebp, esp
	push	ecx
	mov	DWORD PTR [ebp-4], -858993460		; ccccccccH
	mov	DWORD PTR _this$[ebp], ecx
	mov	eax, DWORD PTR _this$[ebp]
	mov	eax, DWORD PTR [eax+220]
	mov	esp, ebp
	pop	ebp
	ret	0
?GetTypeIcon@CRTFContentCtrlApp@@UBEPAUHICON__@@XZ ENDP	; CRTFContentCtrlApp::GetTypeIcon
_TEXT	ENDS
PUBLIC	??_7IContent@@6B@				; IContent::`vftable'
PUBLIC	??_R4IContent@@6B@				; IContent::`RTTI Complete Object Locator'
EXTRN	__purecall:PROC
;	COMDAT ??_R4IContent@@6B@
rdata$r	SEGMENT
??_R4IContent@@6B@ DD 00H				; IContent::`RTTI Complete Object Locator'
	DD	00H
	DD	00H
	DD	FLAT:??_R0?AVIContent@@@8
	DD	FLAT:??_R3IContent@@8
rdata$r	ENDS
;	COMDAT ??_7IContent@@6B@
CONST	SEGMENT
??_7IContent@@6B@ DD FLAT:??_R4IContent@@6B@		; IContent::`vftable'
	DD	FLAT:__purecall
	DD	FLAT:__purecall
	DD	FLAT:__purecall
	DD	FLAT:__purecall
	DD	FLAT:__purecall
	DD	FLAT:__purecall
	DD	FLAT:__purecall
	DD	FLAT:__purecall
	DD	FLAT:__purecall
	DD	FLAT:__purecall
; Function compile flags: /Odtp /RTCsu
CONST	ENDS
;	COMDAT ??0IContent@@QAE@XZ
_TEXT	SEGMENT
_this$ = -4						; size = 4
??0IContent@@QAE@XZ PROC				; IContent::IContent, COMDAT
; _this$ = ecx
	push	ebp
	mov	ebp, esp
	push	ecx
	mov	DWORD PTR [ebp-4], -858993460		; ccccccccH
	mov	DWORD PTR _this$[ebp], ecx
	mov	eax, DWORD PTR _this$[ebp]
	mov	DWORD PTR [eax], OFFSET ??_7IContent@@6B@
	mov	eax, DWORD PTR _this$[ebp]
	mov	esp, ebp
	pop	ebp
	ret	0
??0IContent@@QAE@XZ ENDP				; IContent::IContent
_TEXT	ENDS
EXTRN	?InitInstance@CWinApp@@UAEHXZ:PROC		; CWinApp::InitInstance
EXTRN	?LoadIconW@CWinApp@@QBEPAUHICON__@@I@Z:PROC	; CWinApp::LoadIconW
;	COMDAT xdata$x
; File d:\_code\rtfcontentctrl\rtfcontentctrl.cpp
xdata$x	SEGMENT
__unwindtable$?InitInstance@CRTFContentCtrlApp@@MAEHXZ DD 0ffffffffH
	DD	FLAT:__unwindfunclet$?InitInstance@CRTFContentCtrlApp@@MAEHXZ$0
__ehfuncinfo$?InitInstance@CRTFContentCtrlApp@@MAEHXZ DD 019930522H
	DD	01H
	DD	FLAT:__unwindtable$?InitInstance@CRTFContentCtrlApp@@MAEHXZ
	DD	2 DUP(00H)
	DD	2 DUP(00H)
	DD	00H
	DD	01H
; Function compile flags: /Odtp /RTCsu
xdata$x	ENDS
;	COMDAT ?InitInstance@CRTFContentCtrlApp@@MAEHXZ
_TEXT	SEGMENT
$T179975 = -44						; size = 4
__ctlState$ = -36					; size = 16
_this$ = -16						; size = 4
__$EHRec$ = -12						; size = 12
?InitInstance@CRTFContentCtrlApp@@MAEHXZ PROC		; CRTFContentCtrlApp::InitInstance, COMDAT
; _this$ = ecx

; 51   : {

	push	ebp
	mov	ebp, esp
	push	-1
	push	__ehhandler$?InitInstance@CRTFContentCtrlApp@@MAEHXZ
	mov	eax, DWORD PTR fs:0
	push	eax
	sub	esp, 32					; 00000020H
	mov	eax, -858993460				; ccccccccH
	mov	DWORD PTR [ebp-44], eax
	mov	DWORD PTR [ebp-40], eax
	mov	DWORD PTR [ebp-36], eax
	mov	DWORD PTR [ebp-32], eax
	mov	DWORD PTR [ebp-28], eax
	mov	DWORD PTR [ebp-24], eax
	mov	DWORD PTR [ebp-20], eax
	mov	DWORD PTR [ebp-16], eax
	mov	eax, DWORD PTR ___security_cookie
	xor	eax, ebp
	push	eax
	lea	eax, DWORD PTR __$EHRec$[ebp]
	mov	DWORD PTR fs:0, eax
	mov	DWORD PTR _this$[ebp], ecx

; 52   : 	AFX_MANAGE_STATE(AfxGetStaticModuleState());

	call	?_AfxInitManaged@@YAHXZ			; _AfxInitManaged
	call	?AfxGetStaticModuleState@@YGPAVAFX_MODULE_STATE@@XZ ; AfxGetStaticModuleState
	push	eax
	lea	ecx, DWORD PTR __ctlState$[ebp]
	call	??0AFX_MAINTAIN_STATE2@@QAE@PAVAFX_MODULE_STATE@@@Z ; AFX_MAINTAIN_STATE2::AFX_MAINTAIN_STATE2
	mov	DWORD PTR __$EHRec$[ebp+8], 0

; 53   : 	
; 54   : 	m_hIcon = LoadIcon(IDR_RTFCOMMENTS);

	push	1000					; 000003e8H
	mov	ecx, DWORD PTR _this$[ebp]
	call	?LoadIconW@CWinApp@@QBEPAUHICON__@@I@Z	; CWinApp::LoadIconW
	mov	ecx, DWORD PTR _this$[ebp]
	mov	DWORD PTR [ecx+216], eax

; 55   : 	
; 56   : 	return CWinApp::InitInstance();

	mov	ecx, DWORD PTR _this$[ebp]
	call	?InitInstance@CWinApp@@UAEHXZ		; CWinApp::InitInstance
	mov	DWORD PTR $T179975[ebp], eax
	mov	DWORD PTR __$EHRec$[ebp+8], -1
	lea	ecx, DWORD PTR __ctlState$[ebp]
	call	??1AFX_MAINTAIN_STATE2@@QAE@XZ		; AFX_MAINTAIN_STATE2::~AFX_MAINTAIN_STATE2
	mov	eax, DWORD PTR $T179975[ebp]

; 57   : }

	push	edx
	mov	ecx, ebp
	push	eax
	lea	edx, DWORD PTR $LN7@InitInstan
	call	@_RTC_CheckStackVars@8
	pop	eax
	pop	edx
	mov	ecx, DWORD PTR __$EHRec$[ebp]
	mov	DWORD PTR fs:0, ecx
	pop	ecx
	add	esp, 44					; 0000002cH
	cmp	ebp, esp
	call	__RTC_CheckEsp
	mov	esp, ebp
	pop	ebp
	ret	0
$LN7@InitInstan:
	DD	1
	DD	$LN6@InitInstan
$LN6@InitInstan:
	DD	-36					; ffffffdcH
	DD	16					; 00000010H
	DD	$LN4@InitInstan
$LN4@InitInstan:
	DB	95					; 0000005fH
	DB	99					; 00000063H
	DB	116					; 00000074H
	DB	108					; 0000006cH
	DB	83					; 00000053H
	DB	116					; 00000074H
	DB	97					; 00000061H
	DB	116					; 00000074H
	DB	101					; 00000065H
	DB	0
_TEXT	ENDS
;	COMDAT text$x
text$x	SEGMENT
__unwindfunclet$?InitInstance@CRTFContentCtrlApp@@MAEHXZ$0:
	lea	ecx, DWORD PTR __ctlState$[ebp]
	jmp	??1AFX_MAINTAIN_STATE2@@QAE@XZ		; AFX_MAINTAIN_STATE2::~AFX_MAINTAIN_STATE2
__ehhandler$?InitInstance@CRTFContentCtrlApp@@MAEHXZ:
	mov	edx, DWORD PTR [esp+8]
	lea	eax, DWORD PTR [edx+12]
	mov	ecx, DWORD PTR [edx-36]
	xor	ecx, eax
	call	@__security_check_cookie@4
	mov	eax, OFFSET __ehfuncinfo$?InitInstance@CRTFContentCtrlApp@@MAEHXZ
	jmp	___CxxFrameHandler3
text$x	ENDS
?InitInstance@CRTFContentCtrlApp@@MAEHXZ ENDP		; CRTFContentCtrlApp::InitInstance
EXTRN	?Initialize@CLocalizer@@SAHPAVITransText@@@Z:PROC ; CLocalizer::Initialize
; Function compile flags: /Odtp /RTCsu
;	COMDAT ?SetLocalizer@CRTFContentCtrlApp@@UAEXPAVITransText@@@Z
_TEXT	SEGMENT
_this$ = -4						; size = 4
_pTT$ = 8						; size = 4
?SetLocalizer@CRTFContentCtrlApp@@UAEXPAVITransText@@@Z PROC ; CRTFContentCtrlApp::SetLocalizer, COMDAT
; _this$ = ecx

; 61   : {

	push	ebp
	mov	ebp, esp
	push	ecx
	mov	DWORD PTR [ebp-4], -858993460		; ccccccccH
	mov	DWORD PTR _this$[ebp], ecx

; 62   : 	CLocalizer::Initialize(pTT);

	mov	eax, DWORD PTR _pTT$[ebp]
	push	eax
	call	?Initialize@CLocalizer@@SAHPAVITransText@@@Z ; CLocalizer::Initialize
	add	esp, 4

; 63   : }

	add	esp, 4
	cmp	ebp, esp
	call	__RTC_CheckEsp
	mov	esp, ebp
	pop	ebp
	ret	4
?SetLocalizer@CRTFContentCtrlApp@@UAEXPAVITransText@@@Z ENDP ; CRTFContentCtrlApp::SetLocalizer
_TEXT	ENDS
PUBLIC	__$ArrayPad$
EXTRN	??3CObject@@SGXPAXPBDH@Z:PROC			; CObject::operator delete
EXTRN	?FromHandle@CWnd@@SGPAV1@PAUHWND__@@@Z:PROC	; CWnd::FromHandle
EXTRN	??0CRect@@QAE@HHHH@Z:PROC			; CRect::CRect
EXTRN	??0CRTFContentControl@@QAE@AAVCRtfHtmlConverter@@@Z:PROC ; CRTFContentControl::CRTFContentControl
EXTRN	??2CObject@@SGPAXIPBDH@Z:PROC			; CObject::operator new
;	COMDAT xdata$x
xdata$x	SEGMENT
__unwindtable$?CreateCtrl@CRTFContentCtrlApp@@UAEPAVIContentControl@@GKJJJJPAUHWND__@@@Z DD 0ffffffffH
	DD	FLAT:__unwindfunclet$?CreateCtrl@CRTFContentCtrlApp@@UAEPAVIContentControl@@GKJJJJPAUHWND__@@@Z$0
	DD	00H
	DD	FLAT:__unwindfunclet$?CreateCtrl@CRTFContentCtrlApp@@UAEPAVIContentControl@@GKJJJJPAUHWND__@@@Z$1
__ehfuncinfo$?CreateCtrl@CRTFContentCtrlApp@@UAEPAVIContentControl@@GKJJJJPAUHWND__@@@Z DD 019930522H
	DD	02H
	DD	FLAT:__unwindtable$?CreateCtrl@CRTFContentCtrlApp@@UAEPAVIContentControl@@GKJJJJPAUHWND__@@@Z
	DD	2 DUP(00H)
	DD	2 DUP(00H)
	DD	00H
	DD	01H
; Function compile flags: /Odtp /RTCsu
xdata$x	ENDS
;	COMDAT ?CreateCtrl@CRTFContentCtrlApp@@UAEPAVIContentControl@@GKJJJJPAUHWND__@@@Z
_TEXT	SEGMENT
tv159 = -108						; size = 4
tv147 = -104						; size = 4
tv82 = -100						; size = 4
$T180002 = -96						; size = 4
$T179999 = -92						; size = 4
$T179998 = -88						; size = 4
$T179995 = -84						; size = 4
$T179992 = -80						; size = 4
$T179991 = -76						; size = 4
_rect$176021 = -68					; size = 16
_pControl$ = -48					; size = 4
__ctlState$ = -40					; size = 16
_this$ = -20						; size = 4
__$ArrayPad$ = -16					; size = 4
__$EHRec$ = -12						; size = 12
_nCtrlID$ = 8						; size = 2
_nStyle$ = 12						; size = 4
_nLeft$ = 16						; size = 4
_nTop$ = 20						; size = 4
_nWidth$ = 24						; size = 4
_nHeight$ = 28						; size = 4
_hwndParent$ = 32					; size = 4
?CreateCtrl@CRTFContentCtrlApp@@UAEPAVIContentControl@@GKJJJJPAUHWND__@@@Z PROC ; CRTFContentCtrlApp::CreateCtrl, COMDAT
; _this$ = ecx

; 67   : {

	push	ebp
	mov	ebp, esp
	push	-1
	push	__ehhandler$?CreateCtrl@CRTFContentCtrlApp@@UAEPAVIContentControl@@GKJJJJPAUHWND__@@@Z
	mov	eax, DWORD PTR fs:0
	push	eax
	sub	esp, 96					; 00000060H
	push	esi
	push	edi
	push	ecx
	lea	edi, DWORD PTR [ebp-108]
	mov	ecx, 24					; 00000018H
	mov	eax, -858993460				; ccccccccH
	rep stosd
	pop	ecx
	mov	eax, DWORD PTR ___security_cookie
	xor	eax, ebp
	mov	DWORD PTR __$ArrayPad$[ebp], eax
	push	eax
	lea	eax, DWORD PTR __$EHRec$[ebp]
	mov	DWORD PTR fs:0, eax
	mov	DWORD PTR _this$[ebp], ecx

; 68   : 	AFX_MANAGE_STATE(AfxGetStaticModuleState());

	call	?_AfxInitManaged@@YAHXZ			; _AfxInitManaged
	call	?AfxGetStaticModuleState@@YGPAVAFX_MODULE_STATE@@XZ ; AfxGetStaticModuleState
	push	eax
	lea	ecx, DWORD PTR __ctlState$[ebp]
	call	??0AFX_MAINTAIN_STATE2@@QAE@PAVAFX_MODULE_STATE@@@Z ; AFX_MAINTAIN_STATE2::AFX_MAINTAIN_STATE2
	mov	DWORD PTR __$EHRec$[ebp+8], 0

; 69   : 
; 70   : 	CRTFContentControl* pControl = new CRTFContentControl(m_rtfHtml);

	push	70					; 00000046H
	push	OFFSET _THIS_FILE
	push	2648					; 00000a58H
	call	??2CObject@@SGPAXIPBDH@Z		; CObject::operator new
	mov	DWORD PTR $T179992[ebp], eax
	mov	BYTE PTR __$EHRec$[ebp+8], 1
	cmp	DWORD PTR $T179992[ebp], 0
	je	SHORT $LN5@CreateCtrl
	mov	eax, DWORD PTR _this$[ebp]
	add	eax, 188				; 000000bcH
	push	eax
	mov	ecx, DWORD PTR $T179992[ebp]
	call	??0CRTFContentControl@@QAE@AAVCRtfHtmlConverter@@@Z ; CRTFContentControl::CRTFContentControl
	mov	DWORD PTR tv82[ebp], eax
	jmp	SHORT $LN6@CreateCtrl
$LN5@CreateCtrl:
	mov	DWORD PTR tv82[ebp], 0
$LN6@CreateCtrl:
	mov	ecx, DWORD PTR tv82[ebp]
	mov	DWORD PTR $T179991[ebp], ecx
	mov	BYTE PTR __$EHRec$[ebp+8], 0
	mov	edx, DWORD PTR $T179991[ebp]
	mov	DWORD PTR _pControl$[ebp], edx

; 71   : 
; 72   : 	if (pControl)

	cmp	DWORD PTR _pControl$[ebp], 0
	je	$LN2@CreateCtrl

; 73   : 	{
; 74   : 		CRect rect(nLeft, nTop, nLeft + nWidth, nTop + nHeight);

	mov	eax, DWORD PTR _nTop$[ebp]
	add	eax, DWORD PTR _nHeight$[ebp]
	push	eax
	mov	ecx, DWORD PTR _nLeft$[ebp]
	add	ecx, DWORD PTR _nWidth$[ebp]
	push	ecx
	mov	edx, DWORD PTR _nTop$[ebp]
	push	edx
	mov	eax, DWORD PTR _nLeft$[ebp]
	push	eax
	lea	ecx, DWORD PTR _rect$176021[ebp]
	call	??0CRect@@QAE@HHHH@Z			; CRect::CRect

; 75   : 
; 76   : 		if (pControl->Create(nStyle, rect, CWnd::FromHandle(hwndParent), nCtrlID, TRUE))

	mov	esi, esp
	push	1
	movzx	ecx, WORD PTR _nCtrlID$[ebp]
	push	ecx
	mov	edx, DWORD PTR _hwndParent$[ebp]
	push	edx
	call	?FromHandle@CWnd@@SGPAV1@PAUHWND__@@@Z	; CWnd::FromHandle
	push	eax
	lea	eax, DWORD PTR _rect$176021[ebp]
	push	eax
	mov	ecx, DWORD PTR _nStyle$[ebp]
	push	ecx
	mov	edx, DWORD PTR _pControl$[ebp]
	mov	eax, DWORD PTR [edx]
	mov	ecx, DWORD PTR _pControl$[ebp]
	mov	edx, DWORD PTR [eax+360]
	call	edx
	cmp	esi, esp
	call	__RTC_CheckEsp
	test	eax, eax
	je	SHORT $LN2@CreateCtrl

; 77   : 		{
; 78   : 			return pControl;

	cmp	DWORD PTR _pControl$[ebp], 0
	je	SHORT $LN7@CreateCtrl
	mov	eax, DWORD PTR _pControl$[ebp]
	add	eax, 1284				; 00000504H
	mov	DWORD PTR tv147[ebp], eax
	jmp	SHORT $LN8@CreateCtrl
$LN7@CreateCtrl:
	mov	DWORD PTR tv147[ebp], 0
$LN8@CreateCtrl:
	mov	ecx, DWORD PTR tv147[ebp]
	mov	DWORD PTR $T179995[ebp], ecx
	mov	DWORD PTR __$EHRec$[ebp+8], -1
	lea	ecx, DWORD PTR __ctlState$[ebp]
	call	??1AFX_MAINTAIN_STATE2@@QAE@XZ		; AFX_MAINTAIN_STATE2::~AFX_MAINTAIN_STATE2
	mov	eax, DWORD PTR $T179995[ebp]
	jmp	SHORT $LN3@CreateCtrl
$LN2@CreateCtrl:

; 79   : 		}
; 80   : 	}
; 81   : 
; 82   : 	delete pControl;

	mov	edx, DWORD PTR _pControl$[ebp]
	mov	DWORD PTR $T179999[ebp], edx
	mov	eax, DWORD PTR $T179999[ebp]
	mov	DWORD PTR $T179998[ebp], eax
	cmp	DWORD PTR $T179998[ebp], 0
	je	SHORT $LN9@CreateCtrl
	mov	esi, esp
	push	1
	mov	ecx, DWORD PTR $T179998[ebp]
	mov	edx, DWORD PTR [ecx]
	mov	ecx, DWORD PTR $T179998[ebp]
	mov	eax, DWORD PTR [edx+4]
	call	eax
	cmp	esi, esp
	call	__RTC_CheckEsp
	mov	DWORD PTR tv159[ebp], eax
	jmp	SHORT $LN10@CreateCtrl
$LN9@CreateCtrl:
	mov	DWORD PTR tv159[ebp], 0
$LN10@CreateCtrl:

; 83   : 	return NULL;

	mov	DWORD PTR $T180002[ebp], 0
	mov	DWORD PTR __$EHRec$[ebp+8], -1
	lea	ecx, DWORD PTR __ctlState$[ebp]
	call	??1AFX_MAINTAIN_STATE2@@QAE@XZ		; AFX_MAINTAIN_STATE2::~AFX_MAINTAIN_STATE2
	mov	eax, DWORD PTR $T180002[ebp]
$LN3@CreateCtrl:

; 84   : }

	push	edx
	mov	ecx, ebp
	push	eax
	lea	edx, DWORD PTR $LN17@CreateCtrl
	call	@_RTC_CheckStackVars@8
	pop	eax
	pop	edx
	mov	ecx, DWORD PTR __$EHRec$[ebp]
	mov	DWORD PTR fs:0, ecx
	pop	ecx
	pop	edi
	pop	esi
	mov	ecx, DWORD PTR __$ArrayPad$[ebp]
	xor	ecx, ebp
	call	@__security_check_cookie@4
	add	esp, 108				; 0000006cH
	cmp	ebp, esp
	call	__RTC_CheckEsp
	mov	esp, ebp
	pop	ebp
	ret	28					; 0000001cH
$LN17@CreateCtrl:
	DD	2
	DD	$LN16@CreateCtrl
$LN16@CreateCtrl:
	DD	-40					; ffffffd8H
	DD	16					; 00000010H
	DD	$LN13@CreateCtrl
	DD	-68					; ffffffbcH
	DD	16					; 00000010H
	DD	$LN14@CreateCtrl
$LN14@CreateCtrl:
	DB	114					; 00000072H
	DB	101					; 00000065H
	DB	99					; 00000063H
	DB	116					; 00000074H
	DB	0
$LN13@CreateCtrl:
	DB	95					; 0000005fH
	DB	99					; 00000063H
	DB	116					; 00000074H
	DB	108					; 0000006cH
	DB	83					; 00000053H
	DB	116					; 00000074H
	DB	97					; 00000061H
	DB	116					; 00000074H
	DB	101					; 00000065H
	DB	0
_TEXT	ENDS
;	COMDAT text$x
text$x	SEGMENT
__unwindfunclet$?CreateCtrl@CRTFContentCtrlApp@@UAEPAVIContentControl@@GKJJJJPAUHWND__@@@Z$0:
	lea	ecx, DWORD PTR __ctlState$[ebp]
	jmp	??1AFX_MAINTAIN_STATE2@@QAE@XZ		; AFX_MAINTAIN_STATE2::~AFX_MAINTAIN_STATE2
__unwindfunclet$?CreateCtrl@CRTFContentCtrlApp@@UAEPAVIContentControl@@GKJJJJPAUHWND__@@@Z$1:
	push	70					; 00000046H
	push	OFFSET _THIS_FILE
	mov	eax, DWORD PTR $T179992[ebp]
	push	eax
	call	??3CObject@@SGXPAXPBDH@Z		; CObject::operator delete
	ret	0
__ehhandler$?CreateCtrl@CRTFContentCtrlApp@@UAEPAVIContentControl@@GKJJJJPAUHWND__@@@Z:
	mov	edx, DWORD PTR [esp+8]
	lea	eax, DWORD PTR [edx+12]
	mov	ecx, DWORD PTR [edx-108]
	xor	ecx, eax
	call	@__security_check_cookie@4
	mov	ecx, DWORD PTR [edx-4]
	xor	ecx, eax
	call	@__security_check_cookie@4
	mov	eax, OFFSET __ehfuncinfo$?CreateCtrl@CRTFContentCtrlApp@@UAEPAVIContentControl@@GKJJJJPAUHWND__@@@Z
	jmp	___CxxFrameHandler3
text$x	ENDS
?CreateCtrl@CRTFContentCtrlApp@@UAEPAVIContentControl@@GKJJJJPAUHWND__@@@Z ENDP ; CRTFContentCtrlApp::CreateCtrl
EXTRN	?Release@CRtfHtmlConverter@@QAEXXZ:PROC		; CRtfHtmlConverter::Release
;	COMDAT xdata$x
xdata$x	SEGMENT
__unwindtable$?Release@CRTFContentCtrlApp@@UAEXXZ DD 0ffffffffH
	DD	FLAT:__unwindfunclet$?Release@CRTFContentCtrlApp@@UAEXXZ$0
__ehfuncinfo$?Release@CRTFContentCtrlApp@@UAEXXZ DD 019930522H
	DD	01H
	DD	FLAT:__unwindtable$?Release@CRTFContentCtrlApp@@UAEXXZ
	DD	2 DUP(00H)
	DD	2 DUP(00H)
	DD	00H
	DD	01H
; Function compile flags: /Odtp /RTCsu
xdata$x	ENDS
;	COMDAT ?Release@CRTFContentCtrlApp@@UAEXXZ
_TEXT	SEGMENT
__ctlState$ = -36					; size = 16
_this$ = -16						; size = 4
__$EHRec$ = -12						; size = 12
?Release@CRTFContentCtrlApp@@UAEXXZ PROC		; CRTFContentCtrlApp::Release, COMDAT
; _this$ = ecx

; 87   : {

	push	ebp
	mov	ebp, esp
	push	-1
	push	__ehhandler$?Release@CRTFContentCtrlApp@@UAEXXZ
	mov	eax, DWORD PTR fs:0
	push	eax
	sub	esp, 28					; 0000001cH
	mov	eax, -858993460				; ccccccccH
	mov	DWORD PTR [ebp-40], eax
	mov	DWORD PTR [ebp-36], eax
	mov	DWORD PTR [ebp-32], eax
	mov	DWORD PTR [ebp-28], eax
	mov	DWORD PTR [ebp-24], eax
	mov	DWORD PTR [ebp-20], eax
	mov	DWORD PTR [ebp-16], eax
	mov	eax, DWORD PTR ___security_cookie
	xor	eax, ebp
	push	eax
	lea	eax, DWORD PTR __$EHRec$[ebp]
	mov	DWORD PTR fs:0, eax
	mov	DWORD PTR _this$[ebp], ecx

; 88   : 	AFX_MANAGE_STATE(AfxGetStaticModuleState());

	call	?_AfxInitManaged@@YAHXZ			; _AfxInitManaged
	call	?AfxGetStaticModuleState@@YGPAVAFX_MODULE_STATE@@XZ ; AfxGetStaticModuleState
	push	eax
	lea	ecx, DWORD PTR __ctlState$[ebp]
	call	??0AFX_MAINTAIN_STATE2@@QAE@PAVAFX_MODULE_STATE@@@Z ; AFX_MAINTAIN_STATE2::AFX_MAINTAIN_STATE2
	mov	DWORD PTR __$EHRec$[ebp+8], 0

; 89   : 
; 90   : 	m_rtfHtml.Release();

	mov	ecx, DWORD PTR _this$[ebp]
	add	ecx, 188				; 000000bcH
	call	?Release@CRtfHtmlConverter@@QAEXXZ	; CRtfHtmlConverter::Release

; 91   : }

	mov	DWORD PTR __$EHRec$[ebp+8], -1
	lea	ecx, DWORD PTR __ctlState$[ebp]
	call	??1AFX_MAINTAIN_STATE2@@QAE@XZ		; AFX_MAINTAIN_STATE2::~AFX_MAINTAIN_STATE2
	push	edx
	mov	ecx, ebp
	push	eax
	lea	edx, DWORD PTR $LN7@Release
	call	@_RTC_CheckStackVars@8
	pop	eax
	pop	edx
	mov	ecx, DWORD PTR __$EHRec$[ebp]
	mov	DWORD PTR fs:0, ecx
	pop	ecx
	add	esp, 40					; 00000028H
	cmp	ebp, esp
	call	__RTC_CheckEsp
	mov	esp, ebp
	pop	ebp
	ret	0
	npad	1
$LN7@Release:
	DD	1
	DD	$LN6@Release
$LN6@Release:
	DD	-36					; ffffffdcH
	DD	16					; 00000010H
	DD	$LN4@Release
$LN4@Release:
	DB	95					; 0000005fH
	DB	99					; 00000063H
	DB	116					; 00000074H
	DB	108					; 0000006cH
	DB	83					; 00000053H
	DB	116					; 00000074H
	DB	97					; 00000061H
	DB	116					; 00000074H
	DB	101					; 00000065H
	DB	0
_TEXT	ENDS
;	COMDAT text$x
text$x	SEGMENT
__unwindfunclet$?Release@CRTFContentCtrlApp@@UAEXXZ$0:
	lea	ecx, DWORD PTR __ctlState$[ebp]
	jmp	??1AFX_MAINTAIN_STATE2@@QAE@XZ		; AFX_MAINTAIN_STATE2::~AFX_MAINTAIN_STATE2
__ehhandler$?Release@CRTFContentCtrlApp@@UAEXXZ:
	mov	edx, DWORD PTR [esp+8]
	lea	eax, DWORD PTR [edx+12]
	mov	ecx, DWORD PTR [edx-32]
	xor	ecx, eax
	call	@__security_check_cookie@4
	mov	eax, OFFSET __ehfuncinfo$?Release@CRTFContentCtrlApp@@UAEXXZ
	jmp	___CxxFrameHandler3
text$x	ENDS
?Release@CRTFContentCtrlApp@@UAEXXZ ENDP		; CRTFContentCtrlApp::Release
PUBLIC	?GetConvertWithMSWord@CRTFContentControl@@SAHXZ	; CRTFContentControl::GetConvertWithMSWord
EXTRN	??_V@YAXPAX@Z:PROC				; operator delete[]
EXTRN	__imp_??1?$CStringT@_WV?$StrTraitMFC_DLL@_WV?$ChTraitsCRT@_W@ATL@@@@@ATL@@QAE@XZ:PROC
EXTRN	__imp__lstrcpyW@8:PROC
EXTRN	__imp_??B?$CSimpleStringT@_W$00@ATL@@QBEPB_WXZ:PROC
EXTRN	??_U@YAPAXIPBDH@Z:PROC				; operator new[]
EXTRN	?AfxAssertFailedLine@@YGHPBDH@Z:PROC		; AfxAssertFailedLine
EXTRN	__imp_?GetLength@?$CSimpleStringT@_W$00@ATL@@QBEHXZ:PROC
EXTRN	?ConvertRtfToHtml@CRtfHtmlConverter@@QAEHPBDPB_WAAV?$CStringT@_WV?$StrTraitMFC_DLL@_WV?$ChTraitsCRT@_W@ATL@@@@@ATL@@1@Z:PROC ; CRtfHtmlConverter::ConvertRtfToHtml
EXTRN	__imp_??0?$CStringT@_WV?$StrTraitMFC_DLL@_WV?$ChTraitsCRT@_W@ATL@@@@@ATL@@QAE@XZ:PROC
EXTRN	?SetAllowUseOfMSWord@CRtfHtmlConverter@@QAEXH@Z:PROC ; CRtfHtmlConverter::SetAllowUseOfMSWord
EXTRN	?Decompress@Compression@@YAHPBEHAAPAEAAH@Z:PROC	; Compression::Decompress
EXTRN	?IsRTF@CRtfHtmlConverter@@SAHPBD@Z:PROC		; CRtfHtmlConverter::IsRTF
;	COMDAT xdata$x
xdata$x	SEGMENT
__unwindtable$?ConvertToHtml@CRTFContentCtrlApp@@UAEHPBEHPB_WAAPA_W1@Z DD 0ffffffffH
	DD	FLAT:__unwindfunclet$?ConvertToHtml@CRTFContentCtrlApp@@UAEHPBEHPB_WAAPA_W1@Z$0
	DD	00H
	DD	FLAT:__unwindfunclet$?ConvertToHtml@CRTFContentCtrlApp@@UAEHPBEHPB_WAAPA_W1@Z$1
__ehfuncinfo$?ConvertToHtml@CRTFContentCtrlApp@@UAEHPBEHPB_WAAPA_W1@Z DD 019930522H
	DD	02H
	DD	FLAT:__unwindtable$?ConvertToHtml@CRTFContentCtrlApp@@UAEHPBEHPB_WAAPA_W1@Z
	DD	2 DUP(00H)
	DD	2 DUP(00H)
	DD	00H
	DD	01H
; Function compile flags: /Odtp /RTCsu
xdata$x	ENDS
;	COMDAT ?ConvertToHtml@CRTFContentCtrlApp@@UAEHPBEHPB_WAAPA_W1@Z
_TEXT	SEGMENT
$T180034 = -96						; size = 4
$T180033 = -92						; size = 4
$T180032 = -88						; size = 4
$T180030 = -84						; size = 4
$T180029 = -80						; size = 4
_sHtml$176052 = -72					; size = 4
_nLenDecompressed$176045 = -60				; size = 4
_pDecompressed$ = -48					; size = 4
__ctlState$ = -36					; size = 16
_this$ = -16						; size = 4
__$EHRec$ = -12						; size = 12
_pContent$ = 8						; size = 4
_nLength$ = 12						; size = 4
_szCharSet$ = 16					; size = 4
_szHtml$ = 20						; size = 4
_szImageDir$ = 24					; size = 4
?ConvertToHtml@CRTFContentCtrlApp@@UAEHPBEHPB_WAAPA_W1@Z PROC ; CRTFContentCtrlApp::ConvertToHtml, COMDAT
; _this$ = ecx

; 95   : {

	push	ebp
	mov	ebp, esp
	push	-1
	push	__ehhandler$?ConvertToHtml@CRTFContentCtrlApp@@UAEHPBEHPB_WAAPA_W1@Z
	mov	eax, DWORD PTR fs:0
	push	eax
	sub	esp, 84					; 00000054H
	push	esi
	push	edi
	push	ecx
	lea	edi, DWORD PTR [ebp-96]
	mov	ecx, 21					; 00000015H
	mov	eax, -858993460				; ccccccccH
	rep stosd
	pop	ecx
	mov	eax, DWORD PTR ___security_cookie
	xor	eax, ebp
	push	eax
	lea	eax, DWORD PTR __$EHRec$[ebp]
	mov	DWORD PTR fs:0, eax
	mov	DWORD PTR _this$[ebp], ecx

; 96   : 	AFX_MANAGE_STATE(AfxGetStaticModuleState());

	call	?_AfxInitManaged@@YAHXZ			; _AfxInitManaged
	call	?AfxGetStaticModuleState@@YGPAVAFX_MODULE_STATE@@XZ ; AfxGetStaticModuleState
	push	eax
	lea	ecx, DWORD PTR __ctlState$[ebp]
	call	??0AFX_MAINTAIN_STATE2@@QAE@PAVAFX_MODULE_STATE@@@Z ; AFX_MAINTAIN_STATE2::AFX_MAINTAIN_STATE2
	mov	DWORD PTR __$EHRec$[ebp+8], 0

; 97   : 
; 98   : 	if (nLength == 0)

	cmp	DWORD PTR _nLength$[ebp], 0
	jne	SHORT $LN7@ConvertToH

; 99   : 		return 0; // nothing to convert

	mov	DWORD PTR $T180029[ebp], 0
	mov	DWORD PTR __$EHRec$[ebp+8], -1
	lea	ecx, DWORD PTR __ctlState$[ebp]
	call	??1AFX_MAINTAIN_STATE2@@QAE@XZ		; AFX_MAINTAIN_STATE2::~AFX_MAINTAIN_STATE2
	mov	eax, DWORD PTR $T180029[ebp]
	jmp	$LN8@ConvertToH
$LN7@ConvertToH:

; 100  : 	
; 101  : 	// we may have to decompress it first
; 102  : 	unsigned char* pDecompressed = NULL;

	mov	DWORD PTR _pDecompressed$[ebp], 0

; 103  : 	
; 104  : 	if (!m_rtfHtml.IsRTF((const char*)pContent))

	mov	eax, DWORD PTR _pContent$[ebp]
	push	eax
	call	?IsRTF@CRtfHtmlConverter@@SAHPBD@Z	; CRtfHtmlConverter::IsRTF
	add	esp, 4
	test	eax, eax
	jne	SHORT $LN6@ConvertToH

; 105  : 	{
; 106  : 		int nLenDecompressed = 0;

	mov	DWORD PTR _nLenDecompressed$176045[ebp], 0

; 107  : 		
; 108  : 		if (Compression::Decompress(pContent, nLength, pDecompressed, nLenDecompressed))

	lea	ecx, DWORD PTR _nLenDecompressed$176045[ebp]
	push	ecx
	lea	edx, DWORD PTR _pDecompressed$[ebp]
	push	edx
	mov	eax, DWORD PTR _nLength$[ebp]
	push	eax
	mov	ecx, DWORD PTR _pContent$[ebp]
	push	ecx
	call	?Decompress@Compression@@YAHPBEHAAPAEAAH@Z ; Compression::Decompress
	add	esp, 16					; 00000010H
	test	eax, eax
	je	SHORT $LN5@ConvertToH

; 109  : 		{
; 110  : 			pContent = pDecompressed;

	mov	edx, DWORD PTR _pDecompressed$[ebp]
	mov	DWORD PTR _pContent$[ebp], edx

; 111  : 			nLength = nLenDecompressed;

	mov	eax, DWORD PTR _nLenDecompressed$176045[ebp]
	mov	DWORD PTR _nLength$[ebp], eax

; 112  : 
; 113  : 			// check again that it is RTF
; 114  : 			if (!m_rtfHtml.IsRTF((const char*)pContent))

	mov	ecx, DWORD PTR _pContent$[ebp]
	push	ecx
	call	?IsRTF@CRtfHtmlConverter@@SAHPBD@Z	; CRtfHtmlConverter::IsRTF
	add	esp, 4
	test	eax, eax
	jne	SHORT $LN4@ConvertToH

; 115  : 			{
; 116  : 				nLength = 0;

	mov	DWORD PTR _nLength$[ebp], 0
$LN4@ConvertToH:

; 117  : 			}
; 118  : 		}
; 119  : 		else

	jmp	SHORT $LN6@ConvertToH
$LN5@ConvertToH:

; 120  : 		{
; 121  : 			return 0;

	mov	DWORD PTR $T180030[ebp], 0
	mov	DWORD PTR __$EHRec$[ebp+8], -1
	lea	ecx, DWORD PTR __ctlState$[ebp]
	call	??1AFX_MAINTAIN_STATE2@@QAE@XZ		; AFX_MAINTAIN_STATE2::~AFX_MAINTAIN_STATE2
	mov	eax, DWORD PTR $T180030[ebp]
	jmp	$LN8@ConvertToH
$LN6@ConvertToH:

; 122  : 		}
; 123  : 	}
; 124  : 
; 125  : 	if (nLength)

	cmp	DWORD PTR _nLength$[ebp], 0
	je	$LN2@ConvertToH

; 126  : 	{
; 127  : 		// Because using Word can cause problems for some people
; 128  : 		// we allow them to explictly avoid it
; 129  : 		m_rtfHtml.SetAllowUseOfMSWord(CRTFContentControl::GetConvertWithMSWord());

	call	?GetConvertWithMSWord@CRTFContentControl@@SAHXZ ; CRTFContentControl::GetConvertWithMSWord
	push	eax
	mov	ecx, DWORD PTR _this$[ebp]
	add	ecx, 188				; 000000bcH
	call	?SetAllowUseOfMSWord@CRtfHtmlConverter@@QAEXH@Z ; CRtfHtmlConverter::SetAllowUseOfMSWord

; 130  : 
; 131  : 		CString sHtml;

	mov	esi, esp
	lea	ecx, DWORD PTR _sHtml$176052[ebp]
	call	DWORD PTR __imp_??0?$CStringT@_WV?$StrTraitMFC_DLL@_WV?$ChTraitsCRT@_W@ATL@@@@@ATL@@QAE@XZ
	cmp	esi, esp
	call	__RTC_CheckEsp
	mov	BYTE PTR __$EHRec$[ebp+8], 1

; 132  : 
; 133  : 		if (m_rtfHtml.ConvertRtfToHtml((const char*)pContent, szCharSet, sHtml, szImageDir))

	mov	edx, DWORD PTR _szImageDir$[ebp]
	push	edx
	lea	eax, DWORD PTR _sHtml$176052[ebp]
	push	eax
	mov	ecx, DWORD PTR _szCharSet$[ebp]
	push	ecx
	mov	edx, DWORD PTR _pContent$[ebp]
	push	edx
	mov	ecx, DWORD PTR _this$[ebp]
	add	ecx, 188				; 000000bcH
	call	?ConvertRtfToHtml@CRtfHtmlConverter@@QAEHPBDPB_WAAV?$CStringT@_WV?$StrTraitMFC_DLL@_WV?$ChTraitsCRT@_W@ATL@@@@@ATL@@1@Z ; CRtfHtmlConverter::ConvertRtfToHtml
	test	eax, eax
	je	$LN1@ConvertToH

; 134  : 		{
; 135  : 			nLength = sHtml.GetLength();

	mov	esi, esp
	lea	ecx, DWORD PTR _sHtml$176052[ebp]
	call	DWORD PTR __imp_?GetLength@?$CSimpleStringT@_W$00@ATL@@QBEHXZ
	cmp	esi, esp
	call	__RTC_CheckEsp
	mov	DWORD PTR _nLength$[ebp], eax

; 136  : 			ASSERT(nLength);

	cmp	DWORD PTR _nLength$[ebp], 0
	jne	SHORT $LN10@ConvertToH
	push	136					; 00000088H
	push	OFFSET _THIS_FILE
	call	?AfxAssertFailedLine@@YGHPBDH@Z		; AfxAssertFailedLine
	test	eax, eax
	je	SHORT $LN10@ConvertToH
	int	3
$LN10@ConvertToH:

; 137  : 
; 138  : 			szHtml = new TCHAR[nLength+1];

	push	138					; 0000008aH
	push	OFFSET _THIS_FILE
	mov	eax, DWORD PTR _nLength$[ebp]
	add	eax, 1
	xor	ecx, ecx
	mov	edx, 2
	mul	edx
	seto	cl
	neg	ecx
	or	ecx, eax
	push	ecx
	call	??_U@YAPAXIPBDH@Z			; operator new[]
	add	esp, 12					; 0000000cH
	mov	DWORD PTR $T180032[ebp], eax
	mov	eax, DWORD PTR _szHtml$[ebp]
	mov	ecx, DWORD PTR $T180032[ebp]
	mov	DWORD PTR [eax], ecx

; 139  : 			lstrcpy(szHtml, sHtml);

	mov	esi, esp
	lea	ecx, DWORD PTR _sHtml$176052[ebp]
	call	DWORD PTR __imp_??B?$CSimpleStringT@_W$00@ATL@@QBEPB_WXZ
	cmp	esi, esp
	call	__RTC_CheckEsp
	mov	esi, esp
	push	eax
	mov	edx, DWORD PTR _szHtml$[ebp]
	mov	eax, DWORD PTR [edx]
	push	eax
	call	DWORD PTR __imp__lstrcpyW@8
	cmp	esi, esp
	call	__RTC_CheckEsp

; 140  : 			szHtml[nLength] = 0;

	mov	ecx, DWORD PTR _szHtml$[ebp]
	mov	edx, DWORD PTR [ecx]
	xor	eax, eax
	mov	ecx, DWORD PTR _nLength$[ebp]
	mov	WORD PTR [edx+ecx*2], ax
$LN1@ConvertToH:

; 141  : 		}
; 142  : 	}

	mov	BYTE PTR __$EHRec$[ebp+8], 0
	mov	esi, esp
	lea	ecx, DWORD PTR _sHtml$176052[ebp]
	call	DWORD PTR __imp_??1?$CStringT@_WV?$StrTraitMFC_DLL@_WV?$ChTraitsCRT@_W@ATL@@@@@ATL@@QAE@XZ
	cmp	esi, esp
	call	__RTC_CheckEsp
$LN2@ConvertToH:

; 143  : 
; 144  : 
; 145  : 	// cleanup
; 146  : 	delete [] pDecompressed;

	mov	edx, DWORD PTR _pDecompressed$[ebp]
	mov	DWORD PTR $T180033[ebp], edx
	mov	eax, DWORD PTR $T180033[ebp]
	push	eax
	call	??_V@YAXPAX@Z				; operator delete[]
	add	esp, 4

; 147  : 
; 148  : 	return nLength;

	mov	ecx, DWORD PTR _nLength$[ebp]
	mov	DWORD PTR $T180034[ebp], ecx
	mov	DWORD PTR __$EHRec$[ebp+8], -1
	lea	ecx, DWORD PTR __ctlState$[ebp]
	call	??1AFX_MAINTAIN_STATE2@@QAE@XZ		; AFX_MAINTAIN_STATE2::~AFX_MAINTAIN_STATE2
	mov	eax, DWORD PTR $T180034[ebp]
$LN8@ConvertToH:

; 149  : }

	push	edx
	mov	ecx, ebp
	push	eax
	lea	edx, DWORD PTR $LN19@ConvertToH
	call	@_RTC_CheckStackVars@8
	pop	eax
	pop	edx
	mov	ecx, DWORD PTR __$EHRec$[ebp]
	mov	DWORD PTR fs:0, ecx
	pop	ecx
	pop	edi
	pop	esi
	add	esp, 96					; 00000060H
	cmp	ebp, esp
	call	__RTC_CheckEsp
	mov	esp, ebp
	pop	ebp
	ret	20					; 00000014H
	npad	1
$LN19@ConvertToH:
	DD	4
	DD	$LN18@ConvertToH
$LN18@ConvertToH:
	DD	-36					; ffffffdcH
	DD	16					; 00000010H
	DD	$LN13@ConvertToH
	DD	-48					; ffffffd0H
	DD	4
	DD	$LN14@ConvertToH
	DD	-60					; ffffffc4H
	DD	4
	DD	$LN15@ConvertToH
	DD	-72					; ffffffb8H
	DD	4
	DD	$LN16@ConvertToH
$LN16@ConvertToH:
	DB	115					; 00000073H
	DB	72					; 00000048H
	DB	116					; 00000074H
	DB	109					; 0000006dH
	DB	108					; 0000006cH
	DB	0
$LN15@ConvertToH:
	DB	110					; 0000006eH
	DB	76					; 0000004cH
	DB	101					; 00000065H
	DB	110					; 0000006eH
	DB	68					; 00000044H
	DB	101					; 00000065H
	DB	99					; 00000063H
	DB	111					; 0000006fH
	DB	109					; 0000006dH
	DB	112					; 00000070H
	DB	114					; 00000072H
	DB	101					; 00000065H
	DB	115					; 00000073H
	DB	115					; 00000073H
	DB	101					; 00000065H
	DB	100					; 00000064H
	DB	0
$LN14@ConvertToH:
	DB	112					; 00000070H
	DB	68					; 00000044H
	DB	101					; 00000065H
	DB	99					; 00000063H
	DB	111					; 0000006fH
	DB	109					; 0000006dH
	DB	112					; 00000070H
	DB	114					; 00000072H
	DB	101					; 00000065H
	DB	115					; 00000073H
	DB	115					; 00000073H
	DB	101					; 00000065H
	DB	100					; 00000064H
	DB	0
$LN13@ConvertToH:
	DB	95					; 0000005fH
	DB	99					; 00000063H
	DB	116					; 00000074H
	DB	108					; 0000006cH
	DB	83					; 00000053H
	DB	116					; 00000074H
	DB	97					; 00000061H
	DB	116					; 00000074H
	DB	101					; 00000065H
	DB	0
_TEXT	ENDS
;	COMDAT text$x
text$x	SEGMENT
__unwindfunclet$?ConvertToHtml@CRTFContentCtrlApp@@UAEHPBEHPB_WAAPA_W1@Z$0:
	lea	ecx, DWORD PTR __ctlState$[ebp]
	jmp	??1AFX_MAINTAIN_STATE2@@QAE@XZ		; AFX_MAINTAIN_STATE2::~AFX_MAINTAIN_STATE2
__unwindfunclet$?ConvertToHtml@CRTFContentCtrlApp@@UAEHPBEHPB_WAAPA_W1@Z$1:
	mov	esi, esp
	lea	ecx, DWORD PTR _sHtml$176052[ebp]
	call	DWORD PTR __imp_??1?$CStringT@_WV?$StrTraitMFC_DLL@_WV?$ChTraitsCRT@_W@ATL@@@@@ATL@@QAE@XZ
	cmp	esi, esp
	jmp	__RTC_CheckEsp
__ehhandler$?ConvertToHtml@CRTFContentCtrlApp@@UAEHPBEHPB_WAAPA_W1@Z:
	mov	edx, DWORD PTR [esp+8]
	lea	eax, DWORD PTR [edx+12]
	mov	ecx, DWORD PTR [edx-96]
	xor	ecx, eax
	call	@__security_check_cookie@4
	mov	eax, OFFSET __ehfuncinfo$?ConvertToHtml@CRTFContentCtrlApp@@UAEHPBEHPB_WAAPA_W1@Z
	jmp	___CxxFrameHandler3
text$x	ENDS
?ConvertToHtml@CRTFContentCtrlApp@@UAEHPBEHPB_WAAPA_W1@Z ENDP ; CRTFContentCtrlApp::ConvertToHtml
EXTRN	?s_bConvertWithMSWord@CRTFContentControl@@1HA:DWORD ; CRTFContentControl::s_bConvertWithMSWord
; Function compile flags: /Odtp /RTCsu
; File d:\_code\rtfcontentctrl\rtfcontentcontrol.h
;	COMDAT ?GetConvertWithMSWord@CRTFContentControl@@SAHXZ
_TEXT	SEGMENT
?GetConvertWithMSWord@CRTFContentControl@@SAHXZ PROC	; CRTFContentControl::GetConvertWithMSWord, COMDAT

; 52   : 	static BOOL GetConvertWithMSWord() { return s_bConvertWithMSWord; }

	push	ebp
	mov	ebp, esp
	mov	eax, DWORD PTR ?s_bConvertWithMSWord@CRTFContentControl@@1HA ; CRTFContentControl::s_bConvertWithMSWord
	pop	ebp
	ret	0
?GetConvertWithMSWord@CRTFContentControl@@SAHXZ ENDP	; CRTFContentControl::GetConvertWithMSWord
; Function compile flags: /Odtp /RTCsu
; File d:\_code\rtfcontentctrl\rtfcontentctrl.cpp
_TEXT	ENDS
;	COMDAT ?FreeHtmlBuffer@CRTFContentCtrlApp@@UAEXAAPA_W@Z
_TEXT	SEGMENT
$T180053 = -8						; size = 4
_this$ = -4						; size = 4
_szHtml$ = 8						; size = 4
?FreeHtmlBuffer@CRTFContentCtrlApp@@UAEXAAPA_W@Z PROC	; CRTFContentCtrlApp::FreeHtmlBuffer, COMDAT
; _this$ = ecx

; 152  : {

	push	ebp
	mov	ebp, esp
	sub	esp, 8
	mov	DWORD PTR [ebp-8], -858993460		; ccccccccH
	mov	DWORD PTR [ebp-4], -858993460		; ccccccccH
	mov	DWORD PTR _this$[ebp], ecx

; 153  : 	delete [] szHtml;

	mov	eax, DWORD PTR _szHtml$[ebp]
	mov	ecx, DWORD PTR [eax]
	mov	DWORD PTR $T180053[ebp], ecx
	mov	edx, DWORD PTR $T180053[ebp]
	push	edx
	call	??_V@YAXPAX@Z				; operator delete[]
	add	esp, 4

; 154  : 	szHtml = NULL;

	mov	eax, DWORD PTR _szHtml$[ebp]
	mov	DWORD PTR [eax], 0

; 155  : }

	add	esp, 8
	cmp	ebp, esp
	call	__RTC_CheckEsp
	mov	esp, ebp
	pop	ebp
	ret	4
?FreeHtmlBuffer@CRTFContentCtrlApp@@UAEXAAPA_W@Z ENDP	; CRTFContentCtrlApp::FreeHtmlBuffer
_TEXT	ENDS
PUBLIC	?IsInlineSpellCheckingEnabled@CRTFContentControl@@SAHXZ ; CRTFContentControl::IsInlineSpellCheckingEnabled
;	COMDAT xdata$x
xdata$x	SEGMENT
__unwindtable$?SavePreferences@CRTFContentCtrlApp@@UBEXPAVIPreferences@@PB_W@Z DD 0ffffffffH
	DD	FLAT:__unwindfunclet$?SavePreferences@CRTFContentCtrlApp@@UBEXPAVIPreferences@@PB_W@Z$0
__ehfuncinfo$?SavePreferences@CRTFContentCtrlApp@@UBEXPAVIPreferences@@PB_W@Z DD 019930522H
	DD	01H
	DD	FLAT:__unwindtable$?SavePreferences@CRTFContentCtrlApp@@UBEXPAVIPreferences@@PB_W@Z
	DD	2 DUP(00H)
	DD	2 DUP(00H)
	DD	00H
	DD	01H
; Function compile flags: /Odtp /RTCsu
xdata$x	ENDS
;	COMDAT ?SavePreferences@CRTFContentCtrlApp@@UBEXPAVIPreferences@@PB_W@Z
_TEXT	SEGMENT
__ctlState$ = -36					; size = 16
_this$ = -16						; size = 4
__$EHRec$ = -12						; size = 12
_pPrefs$ = 8						; size = 4
_szKey$ = 12						; size = 4
?SavePreferences@CRTFContentCtrlApp@@UBEXPAVIPreferences@@PB_W@Z PROC ; CRTFContentCtrlApp::SavePreferences, COMDAT
; _this$ = ecx

; 158  : {

	push	ebp
	mov	ebp, esp
	push	-1
	push	__ehhandler$?SavePreferences@CRTFContentCtrlApp@@UBEXPAVIPreferences@@PB_W@Z
	mov	eax, DWORD PTR fs:0
	push	eax
	sub	esp, 28					; 0000001cH
	push	esi
	mov	eax, -858993460				; ccccccccH
	mov	DWORD PTR [ebp-40], eax
	mov	DWORD PTR [ebp-36], eax
	mov	DWORD PTR [ebp-32], eax
	mov	DWORD PTR [ebp-28], eax
	mov	DWORD PTR [ebp-24], eax
	mov	DWORD PTR [ebp-20], eax
	mov	DWORD PTR [ebp-16], eax
	mov	eax, DWORD PTR ___security_cookie
	xor	eax, ebp
	push	eax
	lea	eax, DWORD PTR __$EHRec$[ebp]
	mov	DWORD PTR fs:0, eax
	mov	DWORD PTR _this$[ebp], ecx

; 159  : 	AFX_MANAGE_STATE(AfxGetStaticModuleState());

	call	?_AfxInitManaged@@YAHXZ			; _AfxInitManaged
	call	?AfxGetStaticModuleState@@YGPAVAFX_MODULE_STATE@@XZ ; AfxGetStaticModuleState
	push	eax
	lea	ecx, DWORD PTR __ctlState$[ebp]
	call	??0AFX_MAINTAIN_STATE2@@QAE@PAVAFX_MODULE_STATE@@@Z ; AFX_MAINTAIN_STATE2::AFX_MAINTAIN_STATE2
	mov	DWORD PTR __$EHRec$[ebp+8], 0

; 160  : 	
; 161  : 	pPrefs->WriteProfileInt(szKey, _T("ConvertWithMSWord"), CRTFContentControl::GetConvertWithMSWord());

	call	?GetConvertWithMSWord@CRTFContentControl@@SAHXZ ; CRTFContentControl::GetConvertWithMSWord
	mov	esi, esp
	push	eax
	push	OFFSET $SG176071
	mov	eax, DWORD PTR _szKey$[ebp]
	push	eax
	mov	ecx, DWORD PTR _pPrefs$[ebp]
	mov	edx, DWORD PTR [ecx]
	mov	ecx, DWORD PTR _pPrefs$[ebp]
	mov	eax, DWORD PTR [edx+4]
	call	eax
	cmp	esi, esp
	call	__RTC_CheckEsp

; 162  : 	pPrefs->WriteProfileInt(szKey, _T("InlineSpellChecking"), CRTFContentControl::IsInlineSpellCheckingEnabled());

	call	?IsInlineSpellCheckingEnabled@CRTFContentControl@@SAHXZ ; CRTFContentControl::IsInlineSpellCheckingEnabled
	mov	esi, esp
	push	eax
	push	OFFSET $SG176072
	mov	ecx, DWORD PTR _szKey$[ebp]
	push	ecx
	mov	edx, DWORD PTR _pPrefs$[ebp]
	mov	eax, DWORD PTR [edx]
	mov	ecx, DWORD PTR _pPrefs$[ebp]
	mov	edx, DWORD PTR [eax+4]
	call	edx
	cmp	esi, esp
	call	__RTC_CheckEsp

; 163  : }

	mov	DWORD PTR __$EHRec$[ebp+8], -1
	lea	ecx, DWORD PTR __ctlState$[ebp]
	call	??1AFX_MAINTAIN_STATE2@@QAE@XZ		; AFX_MAINTAIN_STATE2::~AFX_MAINTAIN_STATE2
	push	edx
	mov	ecx, ebp
	push	eax
	lea	edx, DWORD PTR $LN7@SavePrefer
	call	@_RTC_CheckStackVars@8
	pop	eax
	pop	edx
	mov	ecx, DWORD PTR __$EHRec$[ebp]
	mov	DWORD PTR fs:0, ecx
	pop	ecx
	pop	esi
	add	esp, 40					; 00000028H
	cmp	ebp, esp
	call	__RTC_CheckEsp
	mov	esp, ebp
	pop	ebp
	ret	8
	npad	1
$LN7@SavePrefer:
	DD	1
	DD	$LN6@SavePrefer
$LN6@SavePrefer:
	DD	-36					; ffffffdcH
	DD	16					; 00000010H
	DD	$LN4@SavePrefer
$LN4@SavePrefer:
	DB	95					; 0000005fH
	DB	99					; 00000063H
	DB	116					; 00000074H
	DB	108					; 0000006cH
	DB	83					; 00000053H
	DB	116					; 00000074H
	DB	97					; 00000061H
	DB	116					; 00000074H
	DB	101					; 00000065H
	DB	0
_TEXT	ENDS
;	COMDAT text$x
text$x	SEGMENT
__unwindfunclet$?SavePreferences@CRTFContentCtrlApp@@UBEXPAVIPreferences@@PB_W@Z$0:
	lea	ecx, DWORD PTR __ctlState$[ebp]
	jmp	??1AFX_MAINTAIN_STATE2@@QAE@XZ		; AFX_MAINTAIN_STATE2::~AFX_MAINTAIN_STATE2
__ehhandler$?SavePreferences@CRTFContentCtrlApp@@UBEXPAVIPreferences@@PB_W@Z:
	mov	edx, DWORD PTR [esp+8]
	lea	eax, DWORD PTR [edx+12]
	mov	ecx, DWORD PTR [edx-36]
	xor	ecx, eax
	call	@__security_check_cookie@4
	mov	eax, OFFSET __ehfuncinfo$?SavePreferences@CRTFContentCtrlApp@@UBEXPAVIPreferences@@PB_W@Z
	jmp	___CxxFrameHandler3
text$x	ENDS
?SavePreferences@CRTFContentCtrlApp@@UBEXPAVIPreferences@@PB_W@Z ENDP ; CRTFContentCtrlApp::SavePreferences
EXTRN	?s_bInlineSpellChecking@CRTFContentControl@@1HA:DWORD ; CRTFContentControl::s_bInlineSpellChecking
; Function compile flags: /Odtp /RTCsu
; File d:\_code\rtfcontentctrl\rtfcontentcontrol.h
;	COMDAT ?IsInlineSpellCheckingEnabled@CRTFContentControl@@SAHXZ
_TEXT	SEGMENT
?IsInlineSpellCheckingEnabled@CRTFContentControl@@SAHXZ PROC ; CRTFContentControl::IsInlineSpellCheckingEnabled, COMDAT

; 54   : 	static BOOL IsInlineSpellCheckingEnabled() { return s_bInlineSpellChecking; }

	push	ebp
	mov	ebp, esp
	mov	eax, DWORD PTR ?s_bInlineSpellChecking@CRTFContentControl@@1HA ; CRTFContentControl::s_bInlineSpellChecking
	pop	ebp
	ret	0
?IsInlineSpellCheckingEnabled@CRTFContentControl@@SAHXZ ENDP ; CRTFContentControl::IsInlineSpellCheckingEnabled
_TEXT	ENDS
PUBLIC	?EnableInlineSpellChecking@CRTFContentControl@@SAXH@Z ; CRTFContentControl::EnableInlineSpellChecking
PUBLIC	?SetConvertWithMSWord@CRTFContentControl@@SAXH@Z ; CRTFContentControl::SetConvertWithMSWord
EXTRN	?IsWordInstalled@CMSWordHelper@@SAHH@Z:PROC	; CMSWordHelper::IsWordInstalled
;	COMDAT xdata$x
; File d:\_code\rtfcontentctrl\rtfcontentctrl.cpp
xdata$x	SEGMENT
__unwindtable$?LoadPreferences@CRTFContentCtrlApp@@UAEXPBVIPreferences@@PB_W@Z DD 0ffffffffH
	DD	FLAT:__unwindfunclet$?LoadPreferences@CRTFContentCtrlApp@@UAEXPBVIPreferences@@PB_W@Z$0
__ehfuncinfo$?LoadPreferences@CRTFContentCtrlApp@@UAEXPBVIPreferences@@PB_W@Z DD 019930522H
	DD	01H
	DD	FLAT:__unwindtable$?LoadPreferences@CRTFContentCtrlApp@@UAEXPBVIPreferences@@PB_W@Z
	DD	2 DUP(00H)
	DD	2 DUP(00H)
	DD	00H
	DD	01H
; Function compile flags: /Odtp /RTCsu
xdata$x	ENDS
;	COMDAT ?LoadPreferences@CRTFContentCtrlApp@@UAEXPBVIPreferences@@PB_W@Z
_TEXT	SEGMENT
__ctlState$ = -36					; size = 16
_this$ = -16						; size = 4
__$EHRec$ = -12						; size = 12
_pPrefs$ = 8						; size = 4
_szKey$ = 12						; size = 4
?LoadPreferences@CRTFContentCtrlApp@@UAEXPBVIPreferences@@PB_W@Z PROC ; CRTFContentCtrlApp::LoadPreferences, COMDAT
; _this$ = ecx

; 166  : {

	push	ebp
	mov	ebp, esp
	push	-1
	push	__ehhandler$?LoadPreferences@CRTFContentCtrlApp@@UAEXPBVIPreferences@@PB_W@Z
	mov	eax, DWORD PTR fs:0
	push	eax
	sub	esp, 28					; 0000001cH
	push	esi
	mov	eax, -858993460				; ccccccccH
	mov	DWORD PTR [ebp-40], eax
	mov	DWORD PTR [ebp-36], eax
	mov	DWORD PTR [ebp-32], eax
	mov	DWORD PTR [ebp-28], eax
	mov	DWORD PTR [ebp-24], eax
	mov	DWORD PTR [ebp-20], eax
	mov	DWORD PTR [ebp-16], eax
	mov	eax, DWORD PTR ___security_cookie
	xor	eax, ebp
	push	eax
	lea	eax, DWORD PTR __$EHRec$[ebp]
	mov	DWORD PTR fs:0, eax
	mov	DWORD PTR _this$[ebp], ecx

; 167  : 	AFX_MANAGE_STATE(AfxGetStaticModuleState());

	call	?_AfxInitManaged@@YAHXZ			; _AfxInitManaged
	call	?AfxGetStaticModuleState@@YGPAVAFX_MODULE_STATE@@XZ ; AfxGetStaticModuleState
	push	eax
	lea	ecx, DWORD PTR __ctlState$[ebp]
	call	??0AFX_MAINTAIN_STATE2@@QAE@PAVAFX_MODULE_STATE@@@Z ; AFX_MAINTAIN_STATE2::AFX_MAINTAIN_STATE2
	mov	DWORD PTR __$EHRec$[ebp+8], 0

; 168  : 
; 169  : 	if (CMSWordHelper::IsWordInstalled(12))

	push	12					; 0000000cH
	call	?IsWordInstalled@CMSWordHelper@@SAHH@Z	; CMSWordHelper::IsWordInstalled
	add	esp, 4
	test	eax, eax
	je	SHORT $LN2@LoadPrefer

; 170  : 		CRTFContentControl::SetConvertWithMSWord(pPrefs->GetProfileInt(szKey, _T("ConvertWithMSWord"), TRUE));

	mov	esi, esp
	push	1
	push	OFFSET $SG176080
	mov	eax, DWORD PTR _szKey$[ebp]
	push	eax
	mov	ecx, DWORD PTR _pPrefs$[ebp]
	mov	edx, DWORD PTR [ecx]
	mov	ecx, DWORD PTR _pPrefs$[ebp]
	mov	eax, DWORD PTR [edx]
	call	eax
	cmp	esi, esp
	call	__RTC_CheckEsp
	push	eax
	call	?SetConvertWithMSWord@CRTFContentControl@@SAXH@Z ; CRTFContentControl::SetConvertWithMSWord
	add	esp, 4

; 171  : 	else

	jmp	SHORT $LN1@LoadPrefer
$LN2@LoadPrefer:

; 172  : 		CRTFContentControl::SetConvertWithMSWord(FALSE);

	push	0
	call	?SetConvertWithMSWord@CRTFContentControl@@SAXH@Z ; CRTFContentControl::SetConvertWithMSWord
	add	esp, 4
$LN1@LoadPrefer:

; 173  : 
; 174  : 	CRTFContentControl::EnableInlineSpellChecking(pPrefs->GetProfileInt(szKey, _T("InlineSpellChecking"), TRUE));

	mov	esi, esp
	push	1
	push	OFFSET $SG176082
	mov	ecx, DWORD PTR _szKey$[ebp]
	push	ecx
	mov	edx, DWORD PTR _pPrefs$[ebp]
	mov	eax, DWORD PTR [edx]
	mov	ecx, DWORD PTR _pPrefs$[ebp]
	mov	edx, DWORD PTR [eax]
	call	edx
	cmp	esi, esp
	call	__RTC_CheckEsp
	push	eax
	call	?EnableInlineSpellChecking@CRTFContentControl@@SAXH@Z ; CRTFContentControl::EnableInlineSpellChecking
	add	esp, 4

; 175  : }

	mov	DWORD PTR __$EHRec$[ebp+8], -1
	lea	ecx, DWORD PTR __ctlState$[ebp]
	call	??1AFX_MAINTAIN_STATE2@@QAE@XZ		; AFX_MAINTAIN_STATE2::~AFX_MAINTAIN_STATE2
	push	edx
	mov	ecx, ebp
	push	eax
	lea	edx, DWORD PTR $LN9@LoadPrefer
	call	@_RTC_CheckStackVars@8
	pop	eax
	pop	edx
	mov	ecx, DWORD PTR __$EHRec$[ebp]
	mov	DWORD PTR fs:0, ecx
	pop	ecx
	pop	esi
	add	esp, 40					; 00000028H
	cmp	ebp, esp
	call	__RTC_CheckEsp
	mov	esp, ebp
	pop	ebp
	ret	8
	npad	3
$LN9@LoadPrefer:
	DD	1
	DD	$LN8@LoadPrefer
$LN8@LoadPrefer:
	DD	-36					; ffffffdcH
	DD	16					; 00000010H
	DD	$LN6@LoadPrefer
$LN6@LoadPrefer:
	DB	95					; 0000005fH
	DB	99					; 00000063H
	DB	116					; 00000074H
	DB	108					; 0000006cH
	DB	83					; 00000053H
	DB	116					; 00000074H
	DB	97					; 00000061H
	DB	116					; 00000074H
	DB	101					; 00000065H
	DB	0
_TEXT	ENDS
;	COMDAT text$x
text$x	SEGMENT
__unwindfunclet$?LoadPreferences@CRTFContentCtrlApp@@UAEXPBVIPreferences@@PB_W@Z$0:
	lea	ecx, DWORD PTR __ctlState$[ebp]
	jmp	??1AFX_MAINTAIN_STATE2@@QAE@XZ		; AFX_MAINTAIN_STATE2::~AFX_MAINTAIN_STATE2
__ehhandler$?LoadPreferences@CRTFContentCtrlApp@@UAEXPBVIPreferences@@PB_W@Z:
	mov	edx, DWORD PTR [esp+8]
	lea	eax, DWORD PTR [edx+12]
	mov	ecx, DWORD PTR [edx-36]
	xor	ecx, eax
	call	@__security_check_cookie@4
	mov	eax, OFFSET __ehfuncinfo$?LoadPreferences@CRTFContentCtrlApp@@UAEXPBVIPreferences@@PB_W@Z
	jmp	___CxxFrameHandler3
text$x	ENDS
?LoadPreferences@CRTFContentCtrlApp@@UAEXPBVIPreferences@@PB_W@Z ENDP ; CRTFContentCtrlApp::LoadPreferences
; Function compile flags: /Odtp /RTCsu
; File d:\_code\rtfcontentctrl\rtfcontentcontrol.h
;	COMDAT ?SetConvertWithMSWord@CRTFContentControl@@SAXH@Z
_TEXT	SEGMENT
_bUseMSWord$ = 8					; size = 4
?SetConvertWithMSWord@CRTFContentControl@@SAXH@Z PROC	; CRTFContentControl::SetConvertWithMSWord, COMDAT

; 51   : 	static void SetConvertWithMSWord(BOOL bUseMSWord) { s_bConvertWithMSWord = bUseMSWord; }

	push	ebp
	mov	ebp, esp
	mov	eax, DWORD PTR _bUseMSWord$[ebp]
	mov	DWORD PTR ?s_bConvertWithMSWord@CRTFContentControl@@1HA, eax ; CRTFContentControl::s_bConvertWithMSWord
	pop	ebp
	ret	0
?SetConvertWithMSWord@CRTFContentControl@@SAXH@Z ENDP	; CRTFContentControl::SetConvertWithMSWord
; Function compile flags: /Odtp /RTCsu
_TEXT	ENDS
;	COMDAT ?EnableInlineSpellChecking@CRTFContentControl@@SAXH@Z
_TEXT	SEGMENT
_bEnable$ = 8						; size = 4
?EnableInlineSpellChecking@CRTFContentControl@@SAXH@Z PROC ; CRTFContentControl::EnableInlineSpellChecking, COMDAT

; 53   : 	static void EnableInlineSpellChecking(BOOL bEnable) { s_bInlineSpellChecking = bEnable; }

	push	ebp
	mov	ebp, esp
	mov	eax, DWORD PTR _bEnable$[ebp]
	mov	DWORD PTR ?s_bInlineSpellChecking@CRTFContentControl@@1HA, eax ; CRTFContentControl::s_bInlineSpellChecking
	pop	ebp
	ret	0
?EnableInlineSpellChecking@CRTFContentControl@@SAXH@Z ENDP ; CRTFContentControl::EnableInlineSpellChecking
_TEXT	ENDS
EXTRN	??_ECRTFContentCtrlApp@@UAEPAXI@Z:PROC		; CRTFContentCtrlApp::`vector deleting destructor'
; Function compile flags: /Odtp /RTCsu
;	COMDAT ??_ECRTFContentCtrlApp@@W3AEPAXI@Z
_TEXT	SEGMENT
??_ECRTFContentCtrlApp@@W3AEPAXI@Z PROC			; [thunk]:CRTFContentCtrlApp::`vector deleting destructor', COMDAT
	sub	ecx, 4
	jmp	??_ECRTFContentCtrlApp@@UAEPAXI@Z
??_ECRTFContentCtrlApp@@W3AEPAXI@Z ENDP			; [thunk]:CRTFContentCtrlApp::`vector deleting destructor'
_TEXT	ENDS
PUBLIC	??1CRTFContentCtrlApp@@UAE@XZ			; CRTFContentCtrlApp::~CRTFContentCtrlApp
EXTRN	??3CObject@@SGXPAX@Z:PROC			; CObject::operator delete
; Function compile flags: /Odtp /RTCsu
;	COMDAT ??_GCRTFContentCtrlApp@@UAEPAXI@Z
_TEXT	SEGMENT
_this$ = -4						; size = 4
___flags$ = 8						; size = 4
??_GCRTFContentCtrlApp@@UAEPAXI@Z PROC			; CRTFContentCtrlApp::`scalar deleting destructor', COMDAT
; _this$ = ecx
	push	ebp
	mov	ebp, esp
	push	ecx
	mov	DWORD PTR [ebp-4], -858993460		; ccccccccH
	mov	DWORD PTR _this$[ebp], ecx
	mov	ecx, DWORD PTR _this$[ebp]
	call	??1CRTFContentCtrlApp@@UAE@XZ
	mov	eax, DWORD PTR ___flags$[ebp]
	and	eax, 1
	je	SHORT $LN1@scalar
	mov	ecx, DWORD PTR _this$[ebp]
	push	ecx
	call	??3CObject@@SGXPAX@Z			; CObject::operator delete
$LN1@scalar:
	mov	eax, DWORD PTR _this$[ebp]
	add	esp, 4
	cmp	ebp, esp
	call	__RTC_CheckEsp
	mov	esp, ebp
	pop	ebp
	ret	4
??_GCRTFContentCtrlApp@@UAEPAXI@Z ENDP			; CRTFContentCtrlApp::`scalar deleting destructor'
_TEXT	ENDS
EXTRN	??1CRtfHtmlConverter@@UAE@XZ:PROC		; CRtfHtmlConverter::~CRtfHtmlConverter
;	COMDAT xdata$x
xdata$x	SEGMENT
__unwindtable$??1CRTFContentCtrlApp@@UAE@XZ DD 0ffffffffH
	DD	FLAT:__unwindfunclet$??1CRTFContentCtrlApp@@UAE@XZ$0
__ehfuncinfo$??1CRTFContentCtrlApp@@UAE@XZ DD 019930522H
	DD	01H
	DD	FLAT:__unwindtable$??1CRTFContentCtrlApp@@UAE@XZ
	DD	2 DUP(00H)
	DD	2 DUP(00H)
	DD	00H
	DD	01H
; Function compile flags: /Odtp /RTCsu
xdata$x	ENDS
;	COMDAT ??1CRTFContentCtrlApp@@UAE@XZ
_TEXT	SEGMENT
_this$ = -16						; size = 4
__$EHRec$ = -12						; size = 12
??1CRTFContentCtrlApp@@UAE@XZ PROC			; CRTFContentCtrlApp::~CRTFContentCtrlApp, COMDAT
; _this$ = ecx
	push	ebp
	mov	ebp, esp
	push	-1
	push	__ehhandler$??1CRTFContentCtrlApp@@UAE@XZ
	mov	eax, DWORD PTR fs:0
	push	eax
	push	ecx
	mov	DWORD PTR [ebp-16], -858993460		; ccccccccH
	mov	eax, DWORD PTR ___security_cookie
	xor	eax, ebp
	push	eax
	lea	eax, DWORD PTR __$EHRec$[ebp]
	mov	DWORD PTR fs:0, eax
	mov	DWORD PTR _this$[ebp], ecx
	mov	DWORD PTR __$EHRec$[ebp+8], 0
	mov	ecx, DWORD PTR _this$[ebp]
	add	ecx, 188				; 000000bcH
	call	??1CRtfHtmlConverter@@UAE@XZ		; CRtfHtmlConverter::~CRtfHtmlConverter
	mov	DWORD PTR __$EHRec$[ebp+8], -1
	mov	ecx, DWORD PTR _this$[ebp]
	add	ecx, 4
	call	??1CWinApp@@UAE@XZ			; CWinApp::~CWinApp
	mov	ecx, DWORD PTR __$EHRec$[ebp]
	mov	DWORD PTR fs:0, ecx
	pop	ecx
	add	esp, 16					; 00000010H
	cmp	ebp, esp
	call	__RTC_CheckEsp
	mov	esp, ebp
	pop	ebp
	ret	0
_TEXT	ENDS
;	COMDAT text$x
text$x	SEGMENT
__unwindfunclet$??1CRTFContentCtrlApp@@UAE@XZ$0:
	mov	ecx, DWORD PTR _this$[ebp]
	add	ecx, 4
	jmp	??1CWinApp@@UAE@XZ			; CWinApp::~CWinApp
__ehhandler$??1CRTFContentCtrlApp@@UAE@XZ:
	mov	edx, DWORD PTR [esp+8]
	lea	eax, DWORD PTR [edx+12]
	mov	ecx, DWORD PTR [edx-8]
	xor	ecx, eax
	call	@__security_check_cookie@4
	mov	eax, OFFSET __ehfuncinfo$??1CRTFContentCtrlApp@@UAE@XZ
	jmp	___CxxFrameHandler3
text$x	ENDS
??1CRTFContentCtrlApp@@UAE@XZ ENDP			; CRTFContentCtrlApp::~CRTFContentCtrlApp
; Function compile flags: /Odtp /RTCsu
; File c:\program files (x86)\microsoft visual studio 10.0\vc\atlmfc\include\afx.inl
;	COMDAT ?_AfxInitManaged@@YAHXZ
_TEXT	SEGMENT
?_AfxInitManaged@@YAHXZ PROC				; _AfxInitManaged, COMDAT

; 76   : {

	push	ebp
	mov	ebp, esp

; 77   : 	return 0;

	xor	eax, eax

; 78   : }

	pop	ebp
	ret	0
?_AfxInitManaged@@YAHXZ ENDP				; _AfxInitManaged
; Function compile flags: /Odtp /RTCsu
; File c:\program files (x86)\microsoft visual studio 10.0\vc\atlmfc\include\afxwin.h
_TEXT	ENDS
;	COMDAT ?SupportsRestartManager@CWinApp@@UBEHXZ
_TEXT	SEGMENT
_this$ = -4						; size = 4
?SupportsRestartManager@CWinApp@@UBEHXZ PROC		; CWinApp::SupportsRestartManager, COMDAT
; _this$ = ecx

; 5512 : 	virtual BOOL SupportsRestartManager() const { return m_dwRestartManagerSupportFlags & AFX_RESTART_MANAGER_SUPPORT_RESTART; }

	push	ebp
	mov	ebp, esp
	push	ecx
	mov	DWORD PTR [ebp-4], -858993460		; ccccccccH
	mov	DWORD PTR _this$[ebp], ecx
	mov	eax, DWORD PTR _this$[ebp]
	mov	eax, DWORD PTR [eax+172]
	and	eax, 1
	mov	esp, ebp
	pop	ebp
	ret	0
?SupportsRestartManager@CWinApp@@UBEHXZ ENDP		; CWinApp::SupportsRestartManager
; Function compile flags: /Odtp /RTCsu
_TEXT	ENDS
;	COMDAT ?SupportsApplicationRecovery@CWinApp@@UBEHXZ
_TEXT	SEGMENT
_this$ = -4						; size = 4
?SupportsApplicationRecovery@CWinApp@@UBEHXZ PROC	; CWinApp::SupportsApplicationRecovery, COMDAT
; _this$ = ecx

; 5513 : 	virtual BOOL SupportsApplicationRecovery() const { return m_dwRestartManagerSupportFlags & AFX_RESTART_MANAGER_SUPPORT_RECOVERY; }

	push	ebp
	mov	ebp, esp
	push	ecx
	mov	DWORD PTR [ebp-4], -858993460		; ccccccccH
	mov	DWORD PTR _this$[ebp], ecx
	mov	eax, DWORD PTR _this$[ebp]
	mov	eax, DWORD PTR [eax+172]
	and	eax, 2
	mov	esp, ebp
	pop	ebp
	ret	0
?SupportsApplicationRecovery@CWinApp@@UBEHXZ ENDP	; CWinApp::SupportsApplicationRecovery
; Function compile flags: /Odtp /RTCsu
_TEXT	ENDS
;	COMDAT ?SupportsAutosaveAtRestart@CWinApp@@UBEHXZ
_TEXT	SEGMENT
_this$ = -4						; size = 4
?SupportsAutosaveAtRestart@CWinApp@@UBEHXZ PROC		; CWinApp::SupportsAutosaveAtRestart, COMDAT
; _this$ = ecx

; 5514 : 	virtual BOOL SupportsAutosaveAtRestart() const { return m_dwRestartManagerSupportFlags & AFX_RESTART_MANAGER_AUTOSAVE_AT_RESTART; }

	push	ebp
	mov	ebp, esp
	push	ecx
	mov	DWORD PTR [ebp-4], -858993460		; ccccccccH
	mov	DWORD PTR _this$[ebp], ecx
	mov	eax, DWORD PTR _this$[ebp]
	mov	eax, DWORD PTR [eax+172]
	and	eax, 4
	mov	esp, ebp
	pop	ebp
	ret	0
?SupportsAutosaveAtRestart@CWinApp@@UBEHXZ ENDP		; CWinApp::SupportsAutosaveAtRestart
; Function compile flags: /Odtp /RTCsu
_TEXT	ENDS
;	COMDAT ?SupportsAutosaveAtInterval@CWinApp@@UBEHXZ
_TEXT	SEGMENT
_this$ = -4						; size = 4
?SupportsAutosaveAtInterval@CWinApp@@UBEHXZ PROC	; CWinApp::SupportsAutosaveAtInterval, COMDAT
; _this$ = ecx

; 5515 : 	virtual BOOL SupportsAutosaveAtInterval() const { return m_dwRestartManagerSupportFlags & AFX_RESTART_MANAGER_AUTOSAVE_AT_INTERVAL; }

	push	ebp
	mov	ebp, esp
	push	ecx
	mov	DWORD PTR [ebp-4], -858993460		; ccccccccH
	mov	DWORD PTR _this$[ebp], ecx
	mov	eax, DWORD PTR _this$[ebp]
	mov	eax, DWORD PTR [eax+172]
	and	eax, 8
	mov	esp, ebp
	pop	ebp
	ret	0
?SupportsAutosaveAtInterval@CWinApp@@UBEHXZ ENDP	; CWinApp::SupportsAutosaveAtInterval
; Function compile flags: /Odtp /RTCsu
_TEXT	ENDS
;	COMDAT ?ReopenPreviousFilesAtRestart@CWinApp@@UBEHXZ
_TEXT	SEGMENT
_this$ = -4						; size = 4
?ReopenPreviousFilesAtRestart@CWinApp@@UBEHXZ PROC	; CWinApp::ReopenPreviousFilesAtRestart, COMDAT
; _this$ = ecx

; 5516 : 	virtual BOOL ReopenPreviousFilesAtRestart() const { return m_dwRestartManagerSupportFlags & AFX_RESTART_MANAGER_REOPEN_PREVIOUS_FILES; }

	push	ebp
	mov	ebp, esp
	push	ecx
	mov	DWORD PTR [ebp-4], -858993460		; ccccccccH
	mov	DWORD PTR _this$[ebp], ecx
	mov	eax, DWORD PTR _this$[ebp]
	mov	eax, DWORD PTR [eax+172]
	and	eax, 16					; 00000010H
	mov	esp, ebp
	pop	ebp
	ret	0
?ReopenPreviousFilesAtRestart@CWinApp@@UBEHXZ ENDP	; CWinApp::ReopenPreviousFilesAtRestart
; Function compile flags: /Odtp /RTCsu
_TEXT	ENDS
;	COMDAT ?RestoreAutosavedFilesAtRestart@CWinApp@@UBEHXZ
_TEXT	SEGMENT
_this$ = -4						; size = 4
?RestoreAutosavedFilesAtRestart@CWinApp@@UBEHXZ PROC	; CWinApp::RestoreAutosavedFilesAtRestart, COMDAT
; _this$ = ecx

; 5517 : 	virtual BOOL RestoreAutosavedFilesAtRestart() const { return m_dwRestartManagerSupportFlags & AFX_RESTART_MANAGER_RESTORE_AUTOSAVED_FILES; }

	push	ebp
	mov	ebp, esp
	push	ecx
	mov	DWORD PTR [ebp-4], -858993460		; ccccccccH
	mov	DWORD PTR _this$[ebp], ecx
	mov	eax, DWORD PTR _this$[ebp]
	mov	eax, DWORD PTR [eax+172]
	and	eax, 32					; 00000020H
	mov	esp, ebp
	pop	ebp
	ret	0
?RestoreAutosavedFilesAtRestart@CWinApp@@UBEHXZ ENDP	; CWinApp::RestoreAutosavedFilesAtRestart
; Function compile flags: /Odtp /RTCsu
_TEXT	ENDS
;	COMDAT ?GetApplicationRestartFlags@CWinApp@@UAEKXZ
_TEXT	SEGMENT
_this$ = -4						; size = 4
?GetApplicationRestartFlags@CWinApp@@UAEKXZ PROC	; CWinApp::GetApplicationRestartFlags, COMDAT
; _this$ = ecx

; 5519 : 	virtual DWORD GetApplicationRestartFlags() { return 0; }  // Flags for RegisterApplicationRestart: default is none of RESTART_NO_CRASH/RESTART_NO_HANG/RESTART_NO_PATCH/RESTART_NO_REBOOT

	push	ebp
	mov	ebp, esp
	push	ecx
	mov	DWORD PTR [ebp-4], -858993460		; ccccccccH
	mov	DWORD PTR _this$[ebp], ecx
	xor	eax, eax
	mov	esp, ebp
	pop	ebp
	ret	0
?GetApplicationRestartFlags@CWinApp@@UAEKXZ ENDP	; CWinApp::GetApplicationRestartFlags
; Function compile flags: /Odtp /RTCsu
_TEXT	ENDS
;	COMDAT ?GetApplicationRecoveryParameter@CWinApp@@UAEPAXXZ
_TEXT	SEGMENT
_this$ = -4						; size = 4
?GetApplicationRecoveryParameter@CWinApp@@UAEPAXXZ PROC	; CWinApp::GetApplicationRecoveryParameter, COMDAT
; _this$ = ecx

; 5520 : 	virtual LPVOID GetApplicationRecoveryParameter() { return NULL; }  // Parameter to be passed along to RegisterApplicationRecoveryCallback

	push	ebp
	mov	ebp, esp
	push	ecx
	mov	DWORD PTR [ebp-4], -858993460		; ccccccccH
	mov	DWORD PTR _this$[ebp], ecx
	xor	eax, eax
	mov	esp, ebp
	pop	ebp
	ret	0
?GetApplicationRecoveryParameter@CWinApp@@UAEPAXXZ ENDP	; CWinApp::GetApplicationRecoveryParameter
; Function compile flags: /Odtp /RTCsu
_TEXT	ENDS
;	COMDAT ?GetApplicationRecoveryPingInterval@CWinApp@@UAEKXZ
_TEXT	SEGMENT
_this$ = -4						; size = 4
?GetApplicationRecoveryPingInterval@CWinApp@@UAEKXZ PROC ; CWinApp::GetApplicationRecoveryPingInterval, COMDAT
; _this$ = ecx

; 5521 : 	virtual DWORD GetApplicationRecoveryPingInterval() { return RECOVERY_DEFAULT_PING_INTERVAL; }  // Ping interval for RegisterApplicationRecoveryCallback

	push	ebp
	mov	ebp, esp
	push	ecx
	mov	DWORD PTR [ebp-4], -858993460		; ccccccccH
	mov	DWORD PTR _this$[ebp], ecx
	mov	eax, 5000				; 00001388H
	mov	esp, ebp
	pop	ebp
	ret	0
?GetApplicationRecoveryPingInterval@CWinApp@@UAEKXZ ENDP ; CWinApp::GetApplicationRecoveryPingInterval
_TEXT	ENDS
EXTRN	__imp__RegisterWindowMessageW@4:PROC
; Function compile flags: /Odtp /RTCsu
; File d:\_code\interfaces\icontentcontrol.h
;	COMDAT ??__EWM_ICC_WANTSPELLCHECK@@YAXXZ
text$yc	SEGMENT
??__EWM_ICC_WANTSPELLCHECK@@YAXXZ PROC			; `dynamic initializer for 'WM_ICC_WANTSPELLCHECK'', COMDAT

; 25   : const UINT WM_ICC_WANTSPELLCHECK 	= ::RegisterWindowMessageW(L"WM_ICC_WANTSPELLCHECK");

	push	ebp
	mov	ebp, esp
	push	esi
	mov	esi, esp
	push	OFFSET $SG171208
	call	DWORD PTR __imp__RegisterWindowMessageW@4
	cmp	esi, esp
	call	__RTC_CheckEsp
	mov	DWORD PTR _WM_ICC_WANTSPELLCHECK, eax
	pop	esi
	cmp	ebp, esp
	call	__RTC_CheckEsp
	pop	ebp
	ret	0
??__EWM_ICC_WANTSPELLCHECK@@YAXXZ ENDP			; `dynamic initializer for 'WM_ICC_WANTSPELLCHECK''
; Function compile flags: /Odtp /RTCsu
text$yc	ENDS
;	COMDAT ??__EWM_ICC_COMMENTSCHANGE@@YAXXZ
text$yc	SEGMENT
??__EWM_ICC_COMMENTSCHANGE@@YAXXZ PROC			; `dynamic initializer for 'WM_ICC_COMMENTSCHANGE'', COMDAT

; 26   : const UINT WM_ICC_COMMENTSCHANGE	= ::RegisterWindowMessageW(L"WM_ICC_COMMENTSCHANGE");

	push	ebp
	mov	ebp, esp
	push	esi
	mov	esi, esp
	push	OFFSET $SG171213
	call	DWORD PTR __imp__RegisterWindowMessageW@4
	cmp	esi, esp
	call	__RTC_CheckEsp
	mov	DWORD PTR _WM_ICC_COMMENTSCHANGE, eax
	pop	esi
	cmp	ebp, esp
	call	__RTC_CheckEsp
	pop	ebp
	ret	0
??__EWM_ICC_COMMENTSCHANGE@@YAXXZ ENDP			; `dynamic initializer for 'WM_ICC_COMMENTSCHANGE''
; Function compile flags: /Odtp /RTCsu
text$yc	ENDS
;	COMDAT ??__EWM_ICC_COMMENTSKILLFOCUS@@YAXXZ
text$yc	SEGMENT
??__EWM_ICC_COMMENTSKILLFOCUS@@YAXXZ PROC		; `dynamic initializer for 'WM_ICC_COMMENTSKILLFOCUS'', COMDAT

; 27   : const UINT WM_ICC_COMMENTSKILLFOCUS	= ::RegisterWindowMessageW(L"WM_ICC_COMMENTSKILLFOCUS");

	push	ebp
	mov	ebp, esp
	push	esi
	mov	esi, esp
	push	OFFSET $SG171218
	call	DWORD PTR __imp__RegisterWindowMessageW@4
	cmp	esi, esp
	call	__RTC_CheckEsp
	mov	DWORD PTR _WM_ICC_COMMENTSKILLFOCUS, eax
	pop	esi
	cmp	ebp, esp
	call	__RTC_CheckEsp
	pop	ebp
	ret	0
??__EWM_ICC_COMMENTSKILLFOCUS@@YAXXZ ENDP		; `dynamic initializer for 'WM_ICC_COMMENTSKILLFOCUS''
; Function compile flags: /Odtp /RTCsu
; File d:\_code\shared\urlricheditctrl.h
text$yc	ENDS
;	COMDAT ??__EWM_UREN_CUSTOMURL@@YAXXZ
text$yc	SEGMENT
??__EWM_UREN_CUSTOMURL@@YAXXZ PROC			; `dynamic initializer for 'WM_UREN_CUSTOMURL'', COMDAT

; 16   : const UINT WM_UREN_CUSTOMURL = ::RegisterWindowMessage(_T("WM_UREN_CUSTOMURL")); // lParam == full url

	push	ebp
	mov	ebp, esp
	push	esi
	mov	esi, esp
	push	OFFSET $SG172007
	call	DWORD PTR __imp__RegisterWindowMessageW@4
	cmp	esi, esp
	call	__RTC_CheckEsp
	mov	DWORD PTR _WM_UREN_CUSTOMURL, eax
	pop	esi
	cmp	ebp, esp
	call	__RTC_CheckEsp
	pop	ebp
	ret	0
??__EWM_UREN_CUSTOMURL@@YAXXZ ENDP			; `dynamic initializer for 'WM_UREN_CUSTOMURL''
; Function compile flags: /Odtp /RTCsu
text$yc	ENDS
;	COMDAT ??__EWM_UREN_FAILEDURL@@YAXXZ
text$yc	SEGMENT
??__EWM_UREN_FAILEDURL@@YAXXZ PROC			; `dynamic initializer for 'WM_UREN_FAILEDURL'', COMDAT

; 17   : const UINT WM_UREN_FAILEDURL = ::RegisterWindowMessage(_T("WM_UREN_FAILEDURL")); // lParam == full url

	push	ebp
	mov	ebp, esp
	push	esi
	mov	esi, esp
	push	OFFSET $SG172012
	call	DWORD PTR __imp__RegisterWindowMessageW@4
	cmp	esi, esp
	call	__RTC_CheckEsp
	mov	DWORD PTR _WM_UREN_FAILEDURL, eax
	pop	esi
	cmp	ebp, esp
	call	__RTC_CheckEsp
	pop	ebp
	ret	0
??__EWM_UREN_FAILEDURL@@YAXXZ ENDP			; `dynamic initializer for 'WM_UREN_FAILEDURL''
text$yc	ENDS
EXTRN	_atexit:PROC
; Function compile flags: /Odtp /RTCsu
; File d:\_code\rtfcontentctrl\rtfcontentctrl.cpp
;	COMDAT ??__EtheApp@@YAXXZ
text$yc	SEGMENT
??__EtheApp@@YAXXZ PROC					; `dynamic initializer for 'theApp'', COMDAT

; 26   : static CRTFContentCtrlApp theApp;

	push	ebp
	mov	ebp, esp
	mov	ecx, OFFSET _theApp
	call	??0CRTFContentCtrlApp@@QAE@XZ		; CRTFContentCtrlApp::CRTFContentCtrlApp
	push	OFFSET ??__FtheApp@@YAXXZ		; `dynamic atexit destructor for 'theApp''
	call	_atexit
	add	esp, 4
	cmp	ebp, esp
	call	__RTC_CheckEsp
	pop	ebp
	ret	0
??__EtheApp@@YAXXZ ENDP					; `dynamic initializer for 'theApp''
; Function compile flags: /Odtp /RTCsu
text$yc	ENDS
;	COMDAT ??__FtheApp@@YAXXZ
text$yd	SEGMENT
??__FtheApp@@YAXXZ PROC					; `dynamic atexit destructor for 'theApp'', COMDAT
	push	ebp
	mov	ebp, esp
	mov	ecx, OFFSET _theApp
	call	??1CRTFContentCtrlApp@@UAE@XZ
	cmp	ebp, esp
	call	__RTC_CheckEsp
	pop	ebp
	ret	0
??__FtheApp@@YAXXZ ENDP					; `dynamic atexit destructor for 'theApp''
text$yd	ENDS
_BSS	SEGMENT
_theApp	DB	0e0H DUP (?)
_WM_UREN_FAILEDURL DD 01H DUP (?)
_WM_UREN_CUSTOMURL DD 01H DUP (?)
_WM_ICC_COMMENTSKILLFOCUS DD 01H DUP (?)
_WM_ICC_COMMENTSCHANGE DD 01H DUP (?)
_WM_ICC_WANTSPELLCHECK DD 01H DUP (?)
_BSS	ENDS
CRT$XCU	SEGMENT
_WM_ICC_WANTSPELLCHECK$initializer$ DD FLAT:??__EWM_ICC_WANTSPELLCHECK@@YAXXZ
_WM_ICC_COMMENTSCHANGE$initializer$ DD FLAT:??__EWM_ICC_COMMENTSCHANGE@@YAXXZ
_WM_ICC_COMMENTSKILLFOCUS$initializer$ DD FLAT:??__EWM_ICC_COMMENTSKILLFOCUS@@YAXXZ
_WM_UREN_CUSTOMURL$initializer$ DD FLAT:??__EWM_UREN_CUSTOMURL@@YAXXZ
_WM_UREN_FAILEDURL$initializer$ DD FLAT:??__EWM_UREN_FAILEDURL@@YAXXZ
_theApp$initializer$ DD FLAT:??__EtheApp@@YAXXZ
CRT$XCU	ENDS
END
