; Listing generated by Microsoft (R) Optimizing Compiler Version 16.00.40219.01 

	TITLE	D:\_code\RTFContentCtrl\RTFPreferencesDlg.cpp
	.686P
	.XMM
	include listing.inc
	.model	flat

INCLUDELIB MSVCRTD
INCLUDELIB OLDNAMES

_DATA	SEGMENT
_THIS_FILE DB	'RTFPreferencesDlg.cpp', 00H
_DATA	ENDS
CONST	SEGMENT
$SG171208 DB	'W', 00H, 'M', 00H, '_', 00H, 'I', 00H, 'C', 00H, 'C', 00H
	DB	'_', 00H, 'W', 00H, 'A', 00H, 'N', 00H, 'T', 00H, 'S', 00H, 'P'
	DB	00H, 'E', 00H, 'L', 00H, 'L', 00H, 'C', 00H, 'H', 00H, 'E', 00H
	DB	'C', 00H, 'K', 00H, 00H, 00H
$SG171213 DB	'W', 00H, 'M', 00H, '_', 00H, 'I', 00H, 'C', 00H, 'C', 00H
	DB	'_', 00H, 'C', 00H, 'O', 00H, 'M', 00H, 'M', 00H, 'E', 00H, 'N'
	DB	00H, 'T', 00H, 'S', 00H, 'C', 00H, 'H', 00H, 'A', 00H, 'N', 00H
	DB	'G', 00H, 'E', 00H, 00H, 00H
$SG171218 DB	'W', 00H, 'M', 00H, '_', 00H, 'I', 00H, 'C', 00H, 'C', 00H
	DB	'_', 00H, 'C', 00H, 'O', 00H, 'M', 00H, 'M', 00H, 'E', 00H, 'N'
	DB	00H, 'T', 00H, 'S', 00H, 'K', 00H, 'I', 00H, 'L', 00H, 'L', 00H
	DB	'F', 00H, 'O', 00H, 'C', 00H, 'U', 00H, 'S', 00H, 00H, 00H
	ORG $+2
$SG171240 DB	'CreateContentInterface', 00H
	ORG $+1
$SG171245 DB	'GetInterfaceVersion', 00H
$SG171258 DB	'CreateContentInterface', 00H
	ORG $+1
$SG171336 DB	'8', 00H, '4', 00H, '9', 00H, 'C', 00H, 'F', 00H, '9', 00H
	DB	'8', 00H, '8', 00H, '-', 00H, '7', 00H, '9', 00H, 'F', 00H, 'E'
	DB	00H, '-', 00H, '4', 00H, '1', 00H, '8', 00H, 'A', 00H, '-', 00H
	DB	'A', 00H, '4', 00H, '0', 00H, 'D', 00H, '-', 00H, '0', 00H, '1'
	DB	00H, 'F', 00H, 'E', 00H, '3', 00H, 'A', 00H, 'F', 00H, 'C', 00H
	DB	'A', 00H, 'B', 00H, '2', 00H, 'C', 00H, 00H, 00H
	ORG $+2
_RTF_TYPEID DD	FLAT:$SG171336
$SG173848 DB	'F', 00H, 'i', 00H, 'l', 00H, 'e', 00H, 'L', 00H, 'i', 00H
	DB	'n', 00H, 'k', 00H, 'O', 00H, 'p', 00H, 't', 00H, 'i', 00H, 'o'
	DB	00H, 'n', 00H, 00H, 00H
	ORG $+2
$SG173849 DB	'F', 00H, 'i', 00H, 'l', 00H, 'e', 00H, 'L', 00H, 'i', 00H
	DB	'n', 00H, 'k', 00H, 'O', 00H, 'p', 00H, 't', 00H, 'i', 00H, 'o'
	DB	00H, 'n', 00H, 'I', 00H, 's', 00H, 'D', 00H, 'e', 00H, 'f', 00H
	DB	'a', 00H, 'u', 00H, 'l', 00H, 't', 00H, 00H, 00H
$SG173856 DB	'F', 00H, 'i', 00H, 'l', 00H, 'e', 00H, 'L', 00H, 'i', 00H
	DB	'n', 00H, 'k', 00H, 'O', 00H, 'p', 00H, 't', 00H, 'i', 00H, 'o'
	DB	00H, 'n', 00H, 00H, 00H
	ORG $+2
$SG173857 DB	'F', 00H, 'i', 00H, 'l', 00H, 'e', 00H, 'L', 00H, 'i', 00H
	DB	'n', 00H, 'k', 00H, 'O', 00H, 'p', 00H, 't', 00H, 'i', 00H, 'o'
	DB	00H, 'n', 00H, 'I', 00H, 's', 00H, 'D', 00H, 'e', 00H, 'f', 00H
	DB	'a', 00H, 'u', 00H, 'l', 00H, 't', 00H, 00H, 00H
$SG173929 DB	'c:\program files (x86)\microsoft visual studio 10.0\vc\a'
	DB	'tlmfc\include\afxtempl.h', 00H
	ORG $+3
$SG174017 DB	'with ', 00H
	ORG $+2
$SG174018 DB	' elements', 00H
	ORG $+2
$SG173942 DB	'c:\program files (x86)\microsoft visual studio 10.0\vc\a'
	DB	'tlmfc\include\afxtempl.h', 00H
	ORG $+3
$SG174026 DB	0aH, 09H, '[', 00H
$SG173946 DB	'c:\program files (x86)\microsoft visual studio 10.0\vc\a'
	DB	'tlmfc\include\afxtempl.h', 00H
	ORG $+3
$SG174034 DB	'] = ', 00H
	ORG $+3
$SG174042 DB	0aH, 00H
	ORG $+2
$SG174055 DB	'c:\program files (x86)\microsoft visual studio 10.0\vc\a'
	DB	'tlmfc\include\afxtempl.h', 00H
	ORG $+3
$SG174107 DB	'with ', 00H
	ORG $+2
$SG174108 DB	' elements', 00H
	ORG $+2
$SG174057 DB	'c:\program files (x86)\microsoft visual studio 10.0\vc\a'
	DB	'tlmfc\include\afxtempl.h', 00H
	ORG $+3
$SG174110 DB	0aH, 00H
	ORG $+2
$SG174072 DB	'c:\program files (x86)\microsoft visual studio 10.0\vc\a'
	DB	'tlmfc\include\afxtempl.h', 00H
	ORG $+3
$SG174118 DB	0aH, 00H
	ORG $+2
$SG174088 DB	'c:\program files (x86)\microsoft visual studio 10.0\vc\a'
	DB	'tlmfc\include\afxtempl.h', 00H
	ORG $+7
$SG174128 DB	'c:\program files (x86)\microsoft visual studio 10.0\vc\a'
	DB	'tlmfc\include\afxtempl.h', 00H
	ORG $+7
$SG174130 DB	'c:\program files (x86)\microsoft visual studio 10.0\vc\a'
	DB	'tlmfc\include\afxtempl.h', 00H
	ORG $+7
$SG174133 DB	'c:\program files (x86)\microsoft visual studio 10.0\vc\a'
	DB	'tlmfc\include\afxtempl.h', 00H
	ORG $+7
$SG174135 DB	'c:\program files (x86)\microsoft visual studio 10.0\vc\a'
	DB	'tlmfc\include\afxtempl.h', 00H
	ORG $+7
$SG174137 DB	'c:\program files (x86)\microsoft visual studio 10.0\vc\a'
	DB	'tlmfc\include\afxtempl.h', 00H
	ORG $+7
$SG174140 DB	'c:\program files (x86)\microsoft visual studio 10.0\vc\a'
	DB	'tlmfc\include\afxtempl.h', 00H
	ORG $+7
$SG174179 DB	'c:\program files (x86)\microsoft visual studio 10.0\vc\a'
	DB	'tlmfc\include\afxtempl.h', 00H
	ORG $+7
$SG174216 DB	'c:\program files (x86)\microsoft visual studio 10.0\vc\a'
	DB	'tlmfc\include\afxtempl.h', 00H
	ORG $+7
$SG174222 DB	'c:\program files (x86)\microsoft visual studio 10.0\vc\a'
	DB	'tlmfc\include\afxtempl.h', 00H
	ORG $+7
$SG174231 DB	'c:\program files (x86)\microsoft visual studio 10.0\vc\a'
	DB	'tlmfc\include\afxtempl.h', 00H
	ORG $+7
$SG174246 DB	'c:\program files (x86)\microsoft visual studio 10.0\vc\a'
	DB	'tlmfc\include\afxtempl.h', 00H
	ORG $+7
$SG174250 DB	'c:\program files (x86)\microsoft visual studio 10.0\vc\a'
	DB	'tlmfc\include\afxtempl.h', 00H
	ORG $+7
$SG174265 DB	'c:\program files (x86)\microsoft visual studio 10.0\vc\a'
	DB	'tlmfc\include\afxtempl.h', 00H
	ORG $+7
$SG174270 DB	'c:\program files (x86)\microsoft visual studio 10.0\vc\a'
	DB	'tlmfc\include\afxtempl.h', 00H
	ORG $+7
$SG174297 DB	'c:\program files (x86)\microsoft visual studio 10.0\vc\a'
	DB	'tlmfc\include\afxtempl.h', 00H
	ORG $+7
$SG174302 DB	'c:\program files (x86)\microsoft visual studio 10.0\vc\a'
	DB	'tlmfc\include\afxtempl.h', 00H
	ORG $+7
$SG174329 DB	'c:\program files (x86)\microsoft visual studio 10.0\vc\a'
	DB	'tlmfc\include\afxtempl.h', 00H
	ORG $+7
$SG174334 DB	'c:\program files (x86)\microsoft visual studio 10.0\vc\a'
	DB	'tlmfc\include\afxtempl.h', 00H
	ORG $+7
$SG174341 DB	'c:\program files (x86)\microsoft visual studio 10.0\vc\a'
	DB	'tlmfc\include\afxtempl.h', 00H
	ORG $+7
$SG174346 DB	'c:\program files (x86)\microsoft visual studio 10.0\vc\a'
	DB	'tlmfc\include\afxtempl.h', 00H
	ORG $+7
$SG174356 DB	'c:\program files (x86)\microsoft visual studio 10.0\vc\a'
	DB	'tlmfc\include\afxtempl.h', 00H
	ORG $+7
$SG174358 DB	'c:\program files (x86)\microsoft visual studio 10.0\vc\a'
	DB	'tlmfc\include\afxtempl.h', 00H
	ORG $+7
$SG174373 DB	'c:\program files (x86)\microsoft visual studio 10.0\vc\a'
	DB	'tlmfc\include\afxtempl.h', 00H
	ORG $+7
$SG174380 DB	'c:\program files (x86)\microsoft visual studio 10.0\vc\a'
	DB	'tlmfc\include\afxtempl.h', 00H
	ORG $+7
$SG174422 DB	'c:\program files (x86)\microsoft visual studio 10.0\vc\a'
	DB	'tlmfc\include\afxtempl.h', 00H
	ORG $+7
$SG174426 DB	'c:\program files (x86)\microsoft visual studio 10.0\vc\a'
	DB	'tlmfc\include\afxtempl.h', 00H
	ORG $+7
$SG174438 DB	'c:\program files (x86)\microsoft visual studio 10.0\vc\a'
	DB	'tlmfc\include\afxtempl.h', 00H
	ORG $+7
$SG174460 DB	'c:\program files (x86)\microsoft visual studio 10.0\vc\a'
	DB	'tlmfc\include\afxtempl.h', 00H
	ORG $+7
$SG174465 DB	'c:\program files (x86)\microsoft visual studio 10.0\vc\a'
	DB	'tlmfc\include\afxtempl.h', 00H
	ORG $+7
$SG174492 DB	'c:\program files (x86)\microsoft visual studio 10.0\vc\a'
	DB	'tlmfc\include\afxtempl.h', 00H
	ORG $+7
$SG174497 DB	'c:\program files (x86)\microsoft visual studio 10.0\vc\a'
	DB	'tlmfc\include\afxtempl.h', 00H
	ORG $+7
$SG174510 DB	'c:\program files (x86)\microsoft visual studio 10.0\vc\a'
	DB	'tlmfc\include\afxtempl.h', 00H
	ORG $+7
$SG174521 DB	'c:\program files (x86)\microsoft visual studio 10.0\vc\a'
	DB	'tlmfc\include\afxtempl.h', 00H
	ORG $+7
$SG174536 DB	'c:\program files (x86)\microsoft visual studio 10.0\vc\a'
	DB	'tlmfc\include\afxtempl.h', 00H
	ORG $+7
$SG174538 DB	'c:\program files (x86)\microsoft visual studio 10.0\vc\a'
	DB	'tlmfc\include\afxtempl.h', 00H
	ORG $+7
$SG174540 DB	'c:\program files (x86)\microsoft visual studio 10.0\vc\a'
	DB	'tlmfc\include\afxtempl.h', 00H
	ORG $+7
$SG174551 DB	'c:\program files (x86)\microsoft visual studio 10.0\vc\a'
	DB	'tlmfc\include\afxtempl.h', 00H
	ORG $+7
$SG174584 DB	'c:\program files (x86)\microsoft visual studio 10.0\vc\a'
	DB	'tlmfc\include\afxtempl.h', 00H
	ORG $+7
$SG174590 DB	'c:\program files (x86)\microsoft visual studio 10.0\vc\a'
	DB	'tlmfc\include\afxtempl.h', 00H
	ORG $+7
$SG174648 DB	'c:\program files (x86)\microsoft visual studio 10.0\vc\a'
	DB	'tlmfc\include\afxtempl.h', 00H
	ORG $+7
$SG174652 DB	'c:\program files (x86)\microsoft visual studio 10.0\vc\a'
	DB	'tlmfc\include\afxtempl.h', 00H
	ORG $+7
$SG174655 DB	'c:\program files (x86)\microsoft visual studio 10.0\vc\a'
	DB	'tlmfc\include\afxtempl.h', 00H
CONST	ENDS
PUBLIC	??_7CRTFPreferencesPage@@6B@			; CRTFPreferencesPage::`vftable'
PUBLIC	??0CRTFPreferencesPage@@QAE@XZ			; CRTFPreferencesPage::CRTFPreferencesPage
PUBLIC	??_R4CRTFPreferencesPage@@6B@			; CRTFPreferencesPage::`RTTI Complete Object Locator'
PUBLIC	??_R0?AVCRTFPreferencesPage@@@8			; CRTFPreferencesPage `RTTI Type Descriptor'
PUBLIC	??_R3CRTFPreferencesPage@@8			; CRTFPreferencesPage::`RTTI Class Hierarchy Descriptor'
PUBLIC	??_R2CRTFPreferencesPage@@8			; CRTFPreferencesPage::`RTTI Base Class Array'
PUBLIC	??_R1A@?0A@EA@CRTFPreferencesPage@@8		; CRTFPreferencesPage::`RTTI Base Class Descriptor at (0,-1,0,64)'
PUBLIC	??_R1A@?0A@EA@CPropertyPage@@8			; CPropertyPage::`RTTI Base Class Descriptor at (0,-1,0,64)'
PUBLIC	??_R0?AVCPropertyPage@@@8			; CPropertyPage `RTTI Type Descriptor'
PUBLIC	??_R3CPropertyPage@@8				; CPropertyPage::`RTTI Class Hierarchy Descriptor'
PUBLIC	??_R2CPropertyPage@@8				; CPropertyPage::`RTTI Base Class Array'
PUBLIC	??_R1A@?0A@EA@CDialog@@8			; CDialog::`RTTI Base Class Descriptor at (0,-1,0,64)'
PUBLIC	??_R0?AVCDialog@@@8				; CDialog `RTTI Type Descriptor'
PUBLIC	??_R3CDialog@@8					; CDialog::`RTTI Class Hierarchy Descriptor'
PUBLIC	??_R2CDialog@@8					; CDialog::`RTTI Base Class Array'
PUBLIC	??_R1A@?0A@EA@CWnd@@8				; CWnd::`RTTI Base Class Descriptor at (0,-1,0,64)'
PUBLIC	??_R0?AVCWnd@@@8				; CWnd `RTTI Type Descriptor'
PUBLIC	??_R3CWnd@@8					; CWnd::`RTTI Class Hierarchy Descriptor'
PUBLIC	??_R2CWnd@@8					; CWnd::`RTTI Base Class Array'
PUBLIC	??_R1A@?0A@EA@CCmdTarget@@8			; CCmdTarget::`RTTI Base Class Descriptor at (0,-1,0,64)'
PUBLIC	??_R0?AVCCmdTarget@@@8				; CCmdTarget `RTTI Type Descriptor'
PUBLIC	??_R3CCmdTarget@@8				; CCmdTarget::`RTTI Class Hierarchy Descriptor'
PUBLIC	??_R2CCmdTarget@@8				; CCmdTarget::`RTTI Base Class Array'
PUBLIC	??_R1A@?0A@EA@CObject@@8			; CObject::`RTTI Base Class Descriptor at (0,-1,0,64)'
PUBLIC	??_R0?AVCObject@@@8				; CObject `RTTI Type Descriptor'
PUBLIC	??_R3CObject@@8					; CObject::`RTTI Class Hierarchy Descriptor'
PUBLIC	??_R2CObject@@8					; CObject::`RTTI Base Class Array'
PUBLIC	?GetMessageMap@CRTFPreferencesPage@@MBEPBUAFX_MSGMAP@@XZ ; CRTFPreferencesPage::GetMessageMap
PUBLIC	?DoDataExchange@CRTFPreferencesPage@@MAEXPAVCDataExchange@@@Z ; CRTFPreferencesPage::DoDataExchange
PUBLIC	?OnInitDialog@CRTFPreferencesPage@@MAEHXZ	; CRTFPreferencesPage::OnInitDialog
EXTRN	??1CPropertyPage@@UAE@XZ:PROC			; CPropertyPage::~CPropertyPage
EXTRN	??0CGroupLineManager@@QAE@XZ:PROC		; CGroupLineManager::CGroupLineManager
EXTRN	??0CPropertyPage@@QAE@IIK@Z:PROC		; CPropertyPage::CPropertyPage
EXTRN	___security_cookie:DWORD
EXTRN	___CxxFrameHandler3:PROC
EXTRN	@__security_check_cookie@4:PROC
EXTRN	__RTC_CheckEsp:PROC
EXTRN	__RTC_Shutdown:PROC
EXTRN	__RTC_InitBase:PROC
EXTRN	??_7type_info@@6B@:QWORD			; type_info::`vftable'
EXTRN	?GetRuntimeClass@CPropertyPage@@UBEPAUCRuntimeClass@@XZ:PROC ; CPropertyPage::GetRuntimeClass
EXTRN	??_ECRTFPreferencesPage@@UAEPAXI@Z:PROC		; CRTFPreferencesPage::`vector deleting destructor'
EXTRN	?Serialize@CObject@@UAEXAAVCArchive@@@Z:PROC	; CObject::Serialize
EXTRN	?AssertValid@CPropertyPage@@UBEXXZ:PROC		; CPropertyPage::AssertValid
EXTRN	?Dump@CPropertyPage@@UBEXAAVCDumpContext@@@Z:PROC ; CPropertyPage::Dump
EXTRN	?OnCmdMsg@CDialog@@UAEHIHPAXPAUAFX_CMDHANDLERINFO@@@Z:PROC ; CDialog::OnCmdMsg
EXTRN	?OnFinalRelease@CWnd@@UAEXXZ:PROC		; CWnd::OnFinalRelease
EXTRN	?IsInvokeAllowed@CCmdTarget@@UAEHJ@Z:PROC	; CCmdTarget::IsInvokeAllowed
EXTRN	?GetDispatchIID@CCmdTarget@@UAEHPAU_GUID@@@Z:PROC ; CCmdTarget::GetDispatchIID
EXTRN	?GetTypeInfoCount@CCmdTarget@@UAEIXZ:PROC	; CCmdTarget::GetTypeInfoCount
EXTRN	?GetTypeLibCache@CCmdTarget@@UAEPAVCTypeLibCache@@XZ:PROC ; CCmdTarget::GetTypeLibCache
EXTRN	?GetTypeLib@CCmdTarget@@UAEJKPAPAUITypeLib@@@Z:PROC ; CCmdTarget::GetTypeLib
EXTRN	?GetCommandMap@CCmdTarget@@MBEPBUAFX_OLECMDMAP@@XZ:PROC ; CCmdTarget::GetCommandMap
EXTRN	?GetDispatchMap@CCmdTarget@@MBEPBUAFX_DISPMAP@@XZ:PROC ; CCmdTarget::GetDispatchMap
EXTRN	?GetConnectionMap@CCmdTarget@@MBEPBUAFX_CONNECTIONMAP@@XZ:PROC ; CCmdTarget::GetConnectionMap
EXTRN	?GetInterfaceMap@CWnd@@MBEPBUAFX_INTERFACEMAP@@XZ:PROC ; CWnd::GetInterfaceMap
EXTRN	?GetEventSinkMap@CCmdTarget@@MBEPBUAFX_EVENTSINKMAP@@XZ:PROC ; CCmdTarget::GetEventSinkMap
EXTRN	?OnCreateAggregates@CCmdTarget@@UAEHXZ:PROC	; CCmdTarget::OnCreateAggregates
EXTRN	?GetInterfaceHook@CCmdTarget@@UAEPAUIUnknown@@PBX@Z:PROC ; CCmdTarget::GetInterfaceHook
EXTRN	?GetExtraConnectionPoints@CCmdTarget@@MAEHPAVCPtrArray@@@Z:PROC ; CCmdTarget::GetExtraConnectionPoints
EXTRN	?GetConnectionHook@CCmdTarget@@MAEPAUIConnectionPoint@@ABU_GUID@@@Z:PROC ; CCmdTarget::GetConnectionHook
EXTRN	?PreSubclassWindow@CWnd@@UAEXXZ:PROC		; CWnd::PreSubclassWindow
EXTRN	?Create@CWnd@@UAEHPB_W0KABUtagRECT@@PAV1@IPAUCCreateContext@@@Z:PROC ; CWnd::Create
EXTRN	?CreateEx@CWnd@@UAEHKPB_W0KABUtagRECT@@PAV1@IPAX@Z:PROC ; CWnd::CreateEx
EXTRN	?CreateEx@CWnd@@UAEHKPB_W0KHHHHPAUHWND__@@PAUHMENU__@@PAX@Z:PROC ; CWnd::CreateEx
EXTRN	?DestroyWindow@CWnd@@UAEHXZ:PROC		; CWnd::DestroyWindow
EXTRN	?PreCreateWindow@CWnd@@UAEHAAUtagCREATESTRUCTW@@@Z:PROC ; CWnd::PreCreateWindow
EXTRN	?CalcWindowRect@CWnd@@UAEXPAUtagRECT@@I@Z:PROC	; CWnd::CalcWindowRect
EXTRN	?GetMenu@CWnd@@UBEPAVCMenu@@XZ:PROC		; CWnd::GetMenu
EXTRN	?SetMenu@CWnd@@UAEHPAVCMenu@@@Z:PROC		; CWnd::SetMenu
EXTRN	?OnToolHitTest@CWnd@@UBEHVCPoint@@PAUtagTOOLINFOW@@@Z:PROC ; CWnd::OnToolHitTest
EXTRN	?GetScrollBarCtrl@CWnd@@UBEPAVCScrollBar@@H@Z:PROC ; CWnd::GetScrollBarCtrl
EXTRN	?WinHelpW@CWnd@@UAEXKI@Z:PROC			; CWnd::WinHelpW
EXTRN	?HtmlHelpW@CWnd@@UAEXKI@Z:PROC			; CWnd::HtmlHelpW
EXTRN	?WinHelpInternal@CWnd@@UAEXKI@Z:PROC		; CWnd::WinHelpInternal
EXTRN	?ContinueModal@CWnd@@UAEHXZ:PROC		; CWnd::ContinueModal
EXTRN	?EndModalLoop@CWnd@@UAEXH@Z:PROC		; CWnd::EndModalLoop
EXTRN	?OnDrawIconicThumbnailOrLivePreview@CWnd@@UAEXAAVCDC@@VCRect@@VCSize@@HAAH@Z:PROC ; CWnd::OnDrawIconicThumbnailOrLivePreview
EXTRN	?EnsureStdObj@CWnd@@UAEJXZ:PROC			; CWnd::EnsureStdObj
EXTRN	?get_accParent@CWnd@@UAEJPAPAUIDispatch@@@Z:PROC ; CWnd::get_accParent
EXTRN	?get_accChildCount@CWnd@@UAEJPAJ@Z:PROC		; CWnd::get_accChildCount
EXTRN	?get_accChild@CWnd@@UAEJUtagVARIANT@@PAPAUIDispatch@@@Z:PROC ; CWnd::get_accChild
EXTRN	?get_accName@CWnd@@UAEJUtagVARIANT@@PAPA_W@Z:PROC ; CWnd::get_accName
EXTRN	?get_accValue@CWnd@@UAEJUtagVARIANT@@PAPA_W@Z:PROC ; CWnd::get_accValue
EXTRN	?get_accDescription@CWnd@@UAEJUtagVARIANT@@PAPA_W@Z:PROC ; CWnd::get_accDescription
EXTRN	?get_accRole@CWnd@@UAEJUtagVARIANT@@PAU2@@Z:PROC ; CWnd::get_accRole
EXTRN	?get_accState@CWnd@@UAEJUtagVARIANT@@PAU2@@Z:PROC ; CWnd::get_accState
EXTRN	?get_accHelp@CWnd@@UAEJUtagVARIANT@@PAPA_W@Z:PROC ; CWnd::get_accHelp
EXTRN	?get_accHelpTopic@CWnd@@UAEJPAPA_WUtagVARIANT@@PAJ@Z:PROC ; CWnd::get_accHelpTopic
EXTRN	?get_accKeyboardShortcut@CWnd@@UAEJUtagVARIANT@@PAPA_W@Z:PROC ; CWnd::get_accKeyboardShortcut
EXTRN	?get_accFocus@CWnd@@UAEJPAUtagVARIANT@@@Z:PROC	; CWnd::get_accFocus
EXTRN	?get_accSelection@CWnd@@UAEJPAUtagVARIANT@@@Z:PROC ; CWnd::get_accSelection
EXTRN	?get_accDefaultAction@CWnd@@UAEJUtagVARIANT@@PAPA_W@Z:PROC ; CWnd::get_accDefaultAction
EXTRN	?accSelect@CWnd@@UAEJJUtagVARIANT@@@Z:PROC	; CWnd::accSelect
EXTRN	?accLocation@CWnd@@UAEJPAJ000UtagVARIANT@@@Z:PROC ; CWnd::accLocation
EXTRN	?accNavigate@CWnd@@UAEJJUtagVARIANT@@PAU2@@Z:PROC ; CWnd::accNavigate
EXTRN	?accHitTest@CWnd@@UAEJJJPAUtagVARIANT@@@Z:PROC	; CWnd::accHitTest
EXTRN	?accDoDefaultAction@CWnd@@UAEJUtagVARIANT@@@Z:PROC ; CWnd::accDoDefaultAction
EXTRN	?put_accName@CWnd@@UAEJUtagVARIANT@@PA_W@Z:PROC	; CWnd::put_accName
EXTRN	?put_accValue@CWnd@@UAEJUtagVARIANT@@PA_W@Z:PROC ; CWnd::put_accValue
EXTRN	?SetProxy@CWnd@@UAEJPAUIAccessibleProxy@@@Z:PROC ; CWnd::SetProxy
EXTRN	?CreateAccessibleProxy@CWnd@@UAEJIJPAJ@Z:PROC	; CWnd::CreateAccessibleProxy
EXTRN	?OnCommand@CWnd@@MAEHIJ@Z:PROC			; CWnd::OnCommand
EXTRN	?OnNotify@CPropertyPage@@MAEHIJPAJ@Z:PROC	; CPropertyPage::OnNotify
EXTRN	?GetSuperWndProcAddr@CWnd@@MAEPAP6GJPAUHWND__@@IIJ@ZXZ:PROC ; CWnd::GetSuperWndProcAddr
EXTRN	?BeginModalState@CWnd@@UAEXXZ:PROC		; CWnd::BeginModalState
EXTRN	?EndModalState@CWnd@@UAEXXZ:PROC		; CWnd::EndModalState
EXTRN	?PreTranslateMessage@CPropertyPage@@MAEHPAUtagMSG@@@Z:PROC ; CPropertyPage::PreTranslateMessage
EXTRN	?OnAmbientProperty@CWnd@@UAEHPAVCOleControlSite@@JPAUtagVARIANT@@@Z:PROC ; CWnd::OnAmbientProperty
EXTRN	?WindowProc@CWnd@@MAEJIIJ@Z:PROC		; CWnd::WindowProc
EXTRN	?OnWndMsg@CWnd@@MAEHIIJPAJ@Z:PROC		; CWnd::OnWndMsg
EXTRN	?DefWindowProcW@CWnd@@MAEJIIJ@Z:PROC		; CWnd::DefWindowProcW
EXTRN	?PostNcDestroy@CWnd@@MAEXXZ:PROC		; CWnd::PostNcDestroy
EXTRN	?OnChildNotify@CWnd@@MAEHIIJPAJ@Z:PROC		; CWnd::OnChildNotify
EXTRN	?OnTouchInputs@CWnd@@MAEHIPAUtagTOUCHINPUT@@@Z:PROC ; CWnd::OnTouchInputs
EXTRN	?OnTouchInput@CWnd@@MAEHVCPoint@@HHPAUtagTOUCHINPUT@@@Z:PROC ; CWnd::OnTouchInput
EXTRN	?GetGestureStatus@CWnd@@MAEKVCPoint@@@Z:PROC	; CWnd::GetGestureStatus
EXTRN	?OnGestureZoom@CWnd@@MAEHVCPoint@@J@Z:PROC	; CWnd::OnGestureZoom
EXTRN	?OnGesturePan@CWnd@@MAEHVCPoint@@0@Z:PROC	; CWnd::OnGesturePan
EXTRN	?OnGestureRotate@CWnd@@MAEHVCPoint@@N@Z:PROC	; CWnd::OnGestureRotate
EXTRN	?OnGestureTwoFingerTap@CWnd@@MAEHVCPoint@@@Z:PROC ; CWnd::OnGestureTwoFingerTap
EXTRN	?OnGesturePressAndTap@CWnd@@MAEHVCPoint@@J@Z:PROC ; CWnd::OnGesturePressAndTap
EXTRN	?CheckAutoCenter@CDialog@@UAEHXZ:PROC		; CDialog::CheckAutoCenter
EXTRN	?IsFrameWnd@CWnd@@UBEHXZ:PROC			; CWnd::IsFrameWnd
EXTRN	?CreateControlContainer@CWnd@@MAEHPAPAVCOleControlContainer@@@Z:PROC ; CWnd::CreateControlContainer
EXTRN	?CreateControlSite@CWnd@@MAEHPAVCOleControlContainer@@PAPAVCOleControlSite@@IABU_GUID@@@Z:PROC ; CWnd::CreateControlSite
EXTRN	?SetOccDialogInfo@CDialog@@MAEHPAU_AFX_OCC_DIALOG_INFO@@@Z:PROC ; CDialog::SetOccDialogInfo
EXTRN	?GetOccDialogInfo@CDialog@@MAEPAU_AFX_OCC_DIALOG_INFO@@XZ:PROC ; CDialog::GetOccDialogInfo
EXTRN	?Create@CDialog@@UAEHIPAVCWnd@@@Z:PROC		; CDialog::Create
EXTRN	?Create@CDialog@@UAEHPB_WPAVCWnd@@@Z:PROC	; CDialog::Create
EXTRN	?CreateIndirect@CDialog@@UAEHPAXPAVCWnd@@@Z:PROC ; CDialog::CreateIndirect
EXTRN	?CreateIndirect@CDialog@@UAEHPBUDLGTEMPLATE@@PAVCWnd@@PAX@Z:PROC ; CDialog::CreateIndirect
EXTRN	?DoModal@CDialog@@UAEHXZ:PROC			; CDialog::DoModal
EXTRN	?OnSetFont@CDialog@@UAEXPAVCFont@@@Z:PROC	; CDialog::OnSetFont
EXTRN	?OnOK@CPropertyPage@@UAEXXZ:PROC		; CPropertyPage::OnOK
EXTRN	?OnCancel@CPropertyPage@@UAEXXZ:PROC		; CPropertyPage::OnCancel
EXTRN	?PreInitDialog@CDialog@@MAEXXZ:PROC		; CDialog::PreInitDialog
EXTRN	?OnApply@CPropertyPage@@UAEHXZ:PROC		; CPropertyPage::OnApply
EXTRN	?OnReset@CPropertyPage@@UAEXXZ:PROC		; CPropertyPage::OnReset
EXTRN	?OnSetActive@CPropertyPage@@UAEHXZ:PROC		; CPropertyPage::OnSetActive
EXTRN	?OnKillActive@CPropertyPage@@UAEHXZ:PROC	; CPropertyPage::OnKillActive
EXTRN	?OnQueryCancel@CPropertyPage@@UAEHXZ:PROC	; CPropertyPage::OnQueryCancel
EXTRN	?OnWizardBack@CPropertyPage@@UAEJXZ:PROC	; CPropertyPage::OnWizardBack
EXTRN	?OnWizardNext@CPropertyPage@@UAEJXZ:PROC	; CPropertyPage::OnWizardNext
EXTRN	?OnWizardFinish@CPropertyPage@@UAEHXZ:PROC	; CPropertyPage::OnWizardFinish
EXTRN	?OnWizardFinishEx@CPropertyPage@@UAEPAUHWND__@@XZ:PROC ; CPropertyPage::OnWizardFinishEx
;	COMDAT ??_R2CObject@@8
; File d:\_code\rtfcontentctrl\rtfpreferencesdlg.cpp
rdata$r	SEGMENT
??_R2CObject@@8 DD FLAT:??_R1A@?0A@EA@CObject@@8	; CObject::`RTTI Base Class Array'
rdata$r	ENDS
;	COMDAT ??_R3CObject@@8
rdata$r	SEGMENT
??_R3CObject@@8 DD 00H					; CObject::`RTTI Class Hierarchy Descriptor'
	DD	00H
	DD	01H
	DD	FLAT:??_R2CObject@@8
rdata$r	ENDS
;	COMDAT ??_R0?AVCObject@@@8
_DATA	SEGMENT
??_R0?AVCObject@@@8 DD FLAT:??_7type_info@@6B@		; CObject `RTTI Type Descriptor'
	DD	00H
	DB	'.?AVCObject@@', 00H
_DATA	ENDS
;	COMDAT ??_R1A@?0A@EA@CObject@@8
rdata$r	SEGMENT
??_R1A@?0A@EA@CObject@@8 DD FLAT:??_R0?AVCObject@@@8	; CObject::`RTTI Base Class Descriptor at (0,-1,0,64)'
	DD	00H
	DD	00H
	DD	0ffffffffH
	DD	00H
	DD	040H
	DD	FLAT:??_R3CObject@@8
rdata$r	ENDS
;	COMDAT ??_R2CCmdTarget@@8
rdata$r	SEGMENT
??_R2CCmdTarget@@8 DD FLAT:??_R1A@?0A@EA@CCmdTarget@@8	; CCmdTarget::`RTTI Base Class Array'
	DD	FLAT:??_R1A@?0A@EA@CObject@@8
rdata$r	ENDS
;	COMDAT ??_R3CCmdTarget@@8
rdata$r	SEGMENT
??_R3CCmdTarget@@8 DD 00H				; CCmdTarget::`RTTI Class Hierarchy Descriptor'
	DD	00H
	DD	02H
	DD	FLAT:??_R2CCmdTarget@@8
rdata$r	ENDS
;	COMDAT ??_R0?AVCCmdTarget@@@8
_DATA	SEGMENT
??_R0?AVCCmdTarget@@@8 DD FLAT:??_7type_info@@6B@	; CCmdTarget `RTTI Type Descriptor'
	DD	00H
	DB	'.?AVCCmdTarget@@', 00H
_DATA	ENDS
;	COMDAT ??_R1A@?0A@EA@CCmdTarget@@8
rdata$r	SEGMENT
??_R1A@?0A@EA@CCmdTarget@@8 DD FLAT:??_R0?AVCCmdTarget@@@8 ; CCmdTarget::`RTTI Base Class Descriptor at (0,-1,0,64)'
	DD	01H
	DD	00H
	DD	0ffffffffH
	DD	00H
	DD	040H
	DD	FLAT:??_R3CCmdTarget@@8
rdata$r	ENDS
;	COMDAT ??_R2CWnd@@8
rdata$r	SEGMENT
??_R2CWnd@@8 DD	FLAT:??_R1A@?0A@EA@CWnd@@8		; CWnd::`RTTI Base Class Array'
	DD	FLAT:??_R1A@?0A@EA@CCmdTarget@@8
	DD	FLAT:??_R1A@?0A@EA@CObject@@8
rdata$r	ENDS
;	COMDAT ??_R3CWnd@@8
rdata$r	SEGMENT
??_R3CWnd@@8 DD	00H					; CWnd::`RTTI Class Hierarchy Descriptor'
	DD	00H
	DD	03H
	DD	FLAT:??_R2CWnd@@8
rdata$r	ENDS
;	COMDAT ??_R0?AVCWnd@@@8
_DATA	SEGMENT
??_R0?AVCWnd@@@8 DD FLAT:??_7type_info@@6B@		; CWnd `RTTI Type Descriptor'
	DD	00H
	DB	'.?AVCWnd@@', 00H
_DATA	ENDS
;	COMDAT ??_R1A@?0A@EA@CWnd@@8
rdata$r	SEGMENT
??_R1A@?0A@EA@CWnd@@8 DD FLAT:??_R0?AVCWnd@@@8		; CWnd::`RTTI Base Class Descriptor at (0,-1,0,64)'
	DD	02H
	DD	00H
	DD	0ffffffffH
	DD	00H
	DD	040H
	DD	FLAT:??_R3CWnd@@8
rdata$r	ENDS
;	COMDAT ??_R2CDialog@@8
rdata$r	SEGMENT
??_R2CDialog@@8 DD FLAT:??_R1A@?0A@EA@CDialog@@8	; CDialog::`RTTI Base Class Array'
	DD	FLAT:??_R1A@?0A@EA@CWnd@@8
	DD	FLAT:??_R1A@?0A@EA@CCmdTarget@@8
	DD	FLAT:??_R1A@?0A@EA@CObject@@8
rdata$r	ENDS
;	COMDAT ??_R3CDialog@@8
rdata$r	SEGMENT
??_R3CDialog@@8 DD 00H					; CDialog::`RTTI Class Hierarchy Descriptor'
	DD	00H
	DD	04H
	DD	FLAT:??_R2CDialog@@8
rdata$r	ENDS
;	COMDAT ??_R0?AVCDialog@@@8
_DATA	SEGMENT
??_R0?AVCDialog@@@8 DD FLAT:??_7type_info@@6B@		; CDialog `RTTI Type Descriptor'
	DD	00H
	DB	'.?AVCDialog@@', 00H
_DATA	ENDS
;	COMDAT ??_R1A@?0A@EA@CDialog@@8
rdata$r	SEGMENT
??_R1A@?0A@EA@CDialog@@8 DD FLAT:??_R0?AVCDialog@@@8	; CDialog::`RTTI Base Class Descriptor at (0,-1,0,64)'
	DD	03H
	DD	00H
	DD	0ffffffffH
	DD	00H
	DD	040H
	DD	FLAT:??_R3CDialog@@8
rdata$r	ENDS
;	COMDAT ??_R2CPropertyPage@@8
rdata$r	SEGMENT
??_R2CPropertyPage@@8 DD FLAT:??_R1A@?0A@EA@CPropertyPage@@8 ; CPropertyPage::`RTTI Base Class Array'
	DD	FLAT:??_R1A@?0A@EA@CDialog@@8
	DD	FLAT:??_R1A@?0A@EA@CWnd@@8
	DD	FLAT:??_R1A@?0A@EA@CCmdTarget@@8
	DD	FLAT:??_R1A@?0A@EA@CObject@@8
rdata$r	ENDS
;	COMDAT ??_R3CPropertyPage@@8
rdata$r	SEGMENT
??_R3CPropertyPage@@8 DD 00H				; CPropertyPage::`RTTI Class Hierarchy Descriptor'
	DD	00H
	DD	05H
	DD	FLAT:??_R2CPropertyPage@@8
rdata$r	ENDS
;	COMDAT ??_R0?AVCPropertyPage@@@8
_DATA	SEGMENT
??_R0?AVCPropertyPage@@@8 DD FLAT:??_7type_info@@6B@	; CPropertyPage `RTTI Type Descriptor'
	DD	00H
	DB	'.?AVCPropertyPage@@', 00H
_DATA	ENDS
;	COMDAT ??_R1A@?0A@EA@CPropertyPage@@8
rdata$r	SEGMENT
??_R1A@?0A@EA@CPropertyPage@@8 DD FLAT:??_R0?AVCPropertyPage@@@8 ; CPropertyPage::`RTTI Base Class Descriptor at (0,-1,0,64)'
	DD	04H
	DD	00H
	DD	0ffffffffH
	DD	00H
	DD	040H
	DD	FLAT:??_R3CPropertyPage@@8
rdata$r	ENDS
;	COMDAT ??_R1A@?0A@EA@CRTFPreferencesPage@@8
rdata$r	SEGMENT
??_R1A@?0A@EA@CRTFPreferencesPage@@8 DD FLAT:??_R0?AVCRTFPreferencesPage@@@8 ; CRTFPreferencesPage::`RTTI Base Class Descriptor at (0,-1,0,64)'
	DD	05H
	DD	00H
	DD	0ffffffffH
	DD	00H
	DD	040H
	DD	FLAT:??_R3CRTFPreferencesPage@@8
rdata$r	ENDS
;	COMDAT ??_R2CRTFPreferencesPage@@8
rdata$r	SEGMENT
??_R2CRTFPreferencesPage@@8 DD FLAT:??_R1A@?0A@EA@CRTFPreferencesPage@@8 ; CRTFPreferencesPage::`RTTI Base Class Array'
	DD	FLAT:??_R1A@?0A@EA@CPropertyPage@@8
	DD	FLAT:??_R1A@?0A@EA@CDialog@@8
	DD	FLAT:??_R1A@?0A@EA@CWnd@@8
	DD	FLAT:??_R1A@?0A@EA@CCmdTarget@@8
	DD	FLAT:??_R1A@?0A@EA@CObject@@8
rdata$r	ENDS
;	COMDAT ??_R3CRTFPreferencesPage@@8
rdata$r	SEGMENT
??_R3CRTFPreferencesPage@@8 DD 00H			; CRTFPreferencesPage::`RTTI Class Hierarchy Descriptor'
	DD	00H
	DD	06H
	DD	FLAT:??_R2CRTFPreferencesPage@@8
rdata$r	ENDS
;	COMDAT ??_R0?AVCRTFPreferencesPage@@@8
_DATA	SEGMENT
??_R0?AVCRTFPreferencesPage@@@8 DD FLAT:??_7type_info@@6B@ ; CRTFPreferencesPage `RTTI Type Descriptor'
	DD	00H
	DB	'.?AVCRTFPreferencesPage@@', 00H
_DATA	ENDS
;	COMDAT ??_R4CRTFPreferencesPage@@6B@
rdata$r	SEGMENT
??_R4CRTFPreferencesPage@@6B@ DD 00H			; CRTFPreferencesPage::`RTTI Complete Object Locator'
	DD	00H
	DD	00H
	DD	FLAT:??_R0?AVCRTFPreferencesPage@@@8
	DD	FLAT:??_R3CRTFPreferencesPage@@8
rdata$r	ENDS
;	COMDAT ??_7CRTFPreferencesPage@@6B@
CONST	SEGMENT
??_7CRTFPreferencesPage@@6B@ DD FLAT:??_R4CRTFPreferencesPage@@6B@ ; CRTFPreferencesPage::`vftable'
	DD	FLAT:?GetRuntimeClass@CPropertyPage@@UBEPAUCRuntimeClass@@XZ
	DD	FLAT:??_ECRTFPreferencesPage@@UAEPAXI@Z
	DD	FLAT:?Serialize@CObject@@UAEXAAVCArchive@@@Z
	DD	FLAT:?AssertValid@CPropertyPage@@UBEXXZ
	DD	FLAT:?Dump@CPropertyPage@@UBEXAAVCDumpContext@@@Z
	DD	FLAT:?OnCmdMsg@CDialog@@UAEHIHPAXPAUAFX_CMDHANDLERINFO@@@Z
	DD	FLAT:?OnFinalRelease@CWnd@@UAEXXZ
	DD	FLAT:?IsInvokeAllowed@CCmdTarget@@UAEHJ@Z
	DD	FLAT:?GetDispatchIID@CCmdTarget@@UAEHPAU_GUID@@@Z
	DD	FLAT:?GetTypeInfoCount@CCmdTarget@@UAEIXZ
	DD	FLAT:?GetTypeLibCache@CCmdTarget@@UAEPAVCTypeLibCache@@XZ
	DD	FLAT:?GetTypeLib@CCmdTarget@@UAEJKPAPAUITypeLib@@@Z
	DD	FLAT:?GetMessageMap@CRTFPreferencesPage@@MBEPBUAFX_MSGMAP@@XZ
	DD	FLAT:?GetCommandMap@CCmdTarget@@MBEPBUAFX_OLECMDMAP@@XZ
	DD	FLAT:?GetDispatchMap@CCmdTarget@@MBEPBUAFX_DISPMAP@@XZ
	DD	FLAT:?GetConnectionMap@CCmdTarget@@MBEPBUAFX_CONNECTIONMAP@@XZ
	DD	FLAT:?GetInterfaceMap@CWnd@@MBEPBUAFX_INTERFACEMAP@@XZ
	DD	FLAT:?GetEventSinkMap@CCmdTarget@@MBEPBUAFX_EVENTSINKMAP@@XZ
	DD	FLAT:?OnCreateAggregates@CCmdTarget@@UAEHXZ
	DD	FLAT:?GetInterfaceHook@CCmdTarget@@UAEPAUIUnknown@@PBX@Z
	DD	FLAT:?GetExtraConnectionPoints@CCmdTarget@@MAEHPAVCPtrArray@@@Z
	DD	FLAT:?GetConnectionHook@CCmdTarget@@MAEPAUIConnectionPoint@@ABU_GUID@@@Z
	DD	FLAT:?PreSubclassWindow@CWnd@@UAEXXZ
	DD	FLAT:?Create@CWnd@@UAEHPB_W0KABUtagRECT@@PAV1@IPAUCCreateContext@@@Z
	DD	FLAT:?CreateEx@CWnd@@UAEHKPB_W0KABUtagRECT@@PAV1@IPAX@Z
	DD	FLAT:?CreateEx@CWnd@@UAEHKPB_W0KHHHHPAUHWND__@@PAUHMENU__@@PAX@Z
	DD	FLAT:?DestroyWindow@CWnd@@UAEHXZ
	DD	FLAT:?PreCreateWindow@CWnd@@UAEHAAUtagCREATESTRUCTW@@@Z
	DD	FLAT:?CalcWindowRect@CWnd@@UAEXPAUtagRECT@@I@Z
	DD	FLAT:?GetMenu@CWnd@@UBEPAVCMenu@@XZ
	DD	FLAT:?SetMenu@CWnd@@UAEHPAVCMenu@@@Z
	DD	FLAT:?OnToolHitTest@CWnd@@UBEHVCPoint@@PAUtagTOOLINFOW@@@Z
	DD	FLAT:?GetScrollBarCtrl@CWnd@@UBEPAVCScrollBar@@H@Z
	DD	FLAT:?WinHelpW@CWnd@@UAEXKI@Z
	DD	FLAT:?HtmlHelpW@CWnd@@UAEXKI@Z
	DD	FLAT:?WinHelpInternal@CWnd@@UAEXKI@Z
	DD	FLAT:?ContinueModal@CWnd@@UAEHXZ
	DD	FLAT:?EndModalLoop@CWnd@@UAEXH@Z
	DD	FLAT:?OnDrawIconicThumbnailOrLivePreview@CWnd@@UAEXAAVCDC@@VCRect@@VCSize@@HAAH@Z
	DD	FLAT:?EnsureStdObj@CWnd@@UAEJXZ
	DD	FLAT:?get_accParent@CWnd@@UAEJPAPAUIDispatch@@@Z
	DD	FLAT:?get_accChildCount@CWnd@@UAEJPAJ@Z
	DD	FLAT:?get_accChild@CWnd@@UAEJUtagVARIANT@@PAPAUIDispatch@@@Z
	DD	FLAT:?get_accName@CWnd@@UAEJUtagVARIANT@@PAPA_W@Z
	DD	FLAT:?get_accValue@CWnd@@UAEJUtagVARIANT@@PAPA_W@Z
	DD	FLAT:?get_accDescription@CWnd@@UAEJUtagVARIANT@@PAPA_W@Z
	DD	FLAT:?get_accRole@CWnd@@UAEJUtagVARIANT@@PAU2@@Z
	DD	FLAT:?get_accState@CWnd@@UAEJUtagVARIANT@@PAU2@@Z
	DD	FLAT:?get_accHelp@CWnd@@UAEJUtagVARIANT@@PAPA_W@Z
	DD	FLAT:?get_accHelpTopic@CWnd@@UAEJPAPA_WUtagVARIANT@@PAJ@Z
	DD	FLAT:?get_accKeyboardShortcut@CWnd@@UAEJUtagVARIANT@@PAPA_W@Z
	DD	FLAT:?get_accFocus@CWnd@@UAEJPAUtagVARIANT@@@Z
	DD	FLAT:?get_accSelection@CWnd@@UAEJPAUtagVARIANT@@@Z
	DD	FLAT:?get_accDefaultAction@CWnd@@UAEJUtagVARIANT@@PAPA_W@Z
	DD	FLAT:?accSelect@CWnd@@UAEJJUtagVARIANT@@@Z
	DD	FLAT:?accLocation@CWnd@@UAEJPAJ000UtagVARIANT@@@Z
	DD	FLAT:?accNavigate@CWnd@@UAEJJUtagVARIANT@@PAU2@@Z
	DD	FLAT:?accHitTest@CWnd@@UAEJJJPAUtagVARIANT@@@Z
	DD	FLAT:?accDoDefaultAction@CWnd@@UAEJUtagVARIANT@@@Z
	DD	FLAT:?put_accName@CWnd@@UAEJUtagVARIANT@@PA_W@Z
	DD	FLAT:?put_accValue@CWnd@@UAEJUtagVARIANT@@PA_W@Z
	DD	FLAT:?SetProxy@CWnd@@UAEJPAUIAccessibleProxy@@@Z
	DD	FLAT:?CreateAccessibleProxy@CWnd@@UAEJIJPAJ@Z
	DD	FLAT:?OnCommand@CWnd@@MAEHIJ@Z
	DD	FLAT:?OnNotify@CPropertyPage@@MAEHIJPAJ@Z
	DD	FLAT:?GetSuperWndProcAddr@CWnd@@MAEPAP6GJPAUHWND__@@IIJ@ZXZ
	DD	FLAT:?DoDataExchange@CRTFPreferencesPage@@MAEXPAVCDataExchange@@@Z
	DD	FLAT:?BeginModalState@CWnd@@UAEXXZ
	DD	FLAT:?EndModalState@CWnd@@UAEXXZ
	DD	FLAT:?PreTranslateMessage@CPropertyPage@@MAEHPAUtagMSG@@@Z
	DD	FLAT:?OnAmbientProperty@CWnd@@UAEHPAVCOleControlSite@@JPAUtagVARIANT@@@Z
	DD	FLAT:?WindowProc@CWnd@@MAEJIIJ@Z
	DD	FLAT:?OnWndMsg@CWnd@@MAEHIIJPAJ@Z
	DD	FLAT:?DefWindowProcW@CWnd@@MAEJIIJ@Z
	DD	FLAT:?PostNcDestroy@CWnd@@MAEXXZ
	DD	FLAT:?OnChildNotify@CWnd@@MAEHIIJPAJ@Z
	DD	FLAT:?OnTouchInputs@CWnd@@MAEHIPAUtagTOUCHINPUT@@@Z
	DD	FLAT:?OnTouchInput@CWnd@@MAEHVCPoint@@HHPAUtagTOUCHINPUT@@@Z
	DD	FLAT:?GetGestureStatus@CWnd@@MAEKVCPoint@@@Z
	DD	FLAT:?OnGestureZoom@CWnd@@MAEHVCPoint@@J@Z
	DD	FLAT:?OnGesturePan@CWnd@@MAEHVCPoint@@0@Z
	DD	FLAT:?OnGestureRotate@CWnd@@MAEHVCPoint@@N@Z
	DD	FLAT:?OnGestureTwoFingerTap@CWnd@@MAEHVCPoint@@@Z
	DD	FLAT:?OnGesturePressAndTap@CWnd@@MAEHVCPoint@@J@Z
	DD	FLAT:?CheckAutoCenter@CDialog@@UAEHXZ
	DD	FLAT:?IsFrameWnd@CWnd@@UBEHXZ
	DD	FLAT:?CreateControlContainer@CWnd@@MAEHPAPAVCOleControlContainer@@@Z
	DD	FLAT:?CreateControlSite@CWnd@@MAEHPAVCOleControlContainer@@PAPAVCOleControlSite@@IABU_GUID@@@Z
	DD	FLAT:?SetOccDialogInfo@CDialog@@MAEHPAU_AFX_OCC_DIALOG_INFO@@@Z
	DD	FLAT:?GetOccDialogInfo@CDialog@@MAEPAU_AFX_OCC_DIALOG_INFO@@XZ
	DD	FLAT:?Create@CDialog@@UAEHIPAVCWnd@@@Z
	DD	FLAT:?Create@CDialog@@UAEHPB_WPAVCWnd@@@Z
	DD	FLAT:?CreateIndirect@CDialog@@UAEHPAXPAVCWnd@@@Z
	DD	FLAT:?CreateIndirect@CDialog@@UAEHPBUDLGTEMPLATE@@PAVCWnd@@PAX@Z
	DD	FLAT:?DoModal@CDialog@@UAEHXZ
	DD	FLAT:?OnInitDialog@CRTFPreferencesPage@@MAEHXZ
	DD	FLAT:?OnSetFont@CDialog@@UAEXPAVCFont@@@Z
	DD	FLAT:?OnOK@CPropertyPage@@UAEXXZ
	DD	FLAT:?OnCancel@CPropertyPage@@UAEXXZ
	DD	FLAT:?PreInitDialog@CDialog@@MAEXXZ
	DD	FLAT:?OnApply@CPropertyPage@@UAEHXZ
	DD	FLAT:?OnReset@CPropertyPage@@UAEXXZ
	DD	FLAT:?OnSetActive@CPropertyPage@@UAEHXZ
	DD	FLAT:?OnKillActive@CPropertyPage@@UAEHXZ
	DD	FLAT:?OnQueryCancel@CPropertyPage@@UAEHXZ
	DD	FLAT:?OnWizardBack@CPropertyPage@@UAEJXZ
	DD	FLAT:?OnWizardNext@CPropertyPage@@UAEJXZ
	DD	FLAT:?OnWizardFinish@CPropertyPage@@UAEHXZ
	DD	FLAT:?OnWizardFinishEx@CPropertyPage@@UAEPAUHWND__@@XZ
CONST	ENDS
;	COMDAT xdata$x
xdata$x	SEGMENT
__unwindtable$??0CRTFPreferencesPage@@QAE@XZ DD 0ffffffffH
	DD	FLAT:__unwindfunclet$??0CRTFPreferencesPage@@QAE@XZ$0
__ehfuncinfo$??0CRTFPreferencesPage@@QAE@XZ DD 019930522H
	DD	01H
	DD	FLAT:__unwindtable$??0CRTFPreferencesPage@@QAE@XZ
	DD	2 DUP(00H)
	DD	2 DUP(00H)
	DD	00H
	DD	01H
xdata$x	ENDS
;	COMDAT rtc$TMZ
rtc$TMZ	SEGMENT
__RTC_Shutdown.rtc$TMZ DD FLAT:__RTC_Shutdown
rtc$TMZ	ENDS
;	COMDAT rtc$IMZ
rtc$IMZ	SEGMENT
__RTC_InitBase.rtc$IMZ DD FLAT:__RTC_InitBase
; Function compile flags: /Odtp /RTCsu
rtc$IMZ	ENDS
;	COMDAT ??0CRTFPreferencesPage@@QAE@XZ
_TEXT	SEGMENT
_this$ = -16						; size = 4
__$EHRec$ = -12						; size = 12
??0CRTFPreferencesPage@@QAE@XZ PROC			; CRTFPreferencesPage::CRTFPreferencesPage, COMDAT
; _this$ = ecx

; 31   : {

	push	ebp
	mov	ebp, esp
	push	-1
	push	__ehhandler$??0CRTFPreferencesPage@@QAE@XZ
	mov	eax, DWORD PTR fs:0
	push	eax
	push	ecx
	mov	DWORD PTR [ebp-16], -858993460		; ccccccccH
	mov	eax, DWORD PTR ___security_cookie
	xor	eax, ebp
	push	eax
	lea	eax, DWORD PTR __$EHRec$[ebp]
	mov	DWORD PTR fs:0, eax
	mov	DWORD PTR _this$[ebp], ecx
	push	56					; 00000038H
	push	0
	push	16007					; 00003e87H
	mov	ecx, DWORD PTR _this$[ebp]
	call	??0CPropertyPage@@QAE@IIK@Z		; CPropertyPage::CPropertyPage
	mov	DWORD PTR __$EHRec$[ebp+8], 0
	mov	eax, DWORD PTR _this$[ebp]
	mov	DWORD PTR [eax], OFFSET ??_7CRTFPreferencesPage@@6B@
	mov	ecx, DWORD PTR _this$[ebp]
	add	ecx, 168				; 000000a8H
	call	??0CGroupLineManager@@QAE@XZ		; CGroupLineManager::CGroupLineManager
	mov	ecx, DWORD PTR _this$[ebp]
	mov	DWORD PTR [ecx+200], 3
	mov	edx, DWORD PTR _this$[ebp]
	mov	DWORD PTR [edx+204], 1
	mov	eax, DWORD PTR _this$[ebp]
	mov	DWORD PTR [eax+208], 0

; 32   : 	//{{AFX_DATA_INIT(CRTFPreferencesPage)
; 33   : 	//}}AFX_DATA_INIT
; 34   : }

	mov	DWORD PTR __$EHRec$[ebp+8], -1
	mov	eax, DWORD PTR _this$[ebp]
	mov	ecx, DWORD PTR __$EHRec$[ebp]
	mov	DWORD PTR fs:0, ecx
	pop	ecx
	add	esp, 16					; 00000010H
	cmp	ebp, esp
	call	__RTC_CheckEsp
	mov	esp, ebp
	pop	ebp
	ret	0
_TEXT	ENDS
;	COMDAT text$x
text$x	SEGMENT
__unwindfunclet$??0CRTFPreferencesPage@@QAE@XZ$0:
	mov	ecx, DWORD PTR _this$[ebp]
	jmp	??1CPropertyPage@@UAE@XZ		; CPropertyPage::~CPropertyPage
__ehhandler$??0CRTFPreferencesPage@@QAE@XZ:
	mov	edx, DWORD PTR [esp+8]
	lea	eax, DWORD PTR [edx+12]
	mov	ecx, DWORD PTR [edx-8]
	xor	ecx, eax
	call	@__security_check_cookie@4
	mov	eax, OFFSET __ehfuncinfo$??0CRTFPreferencesPage@@QAE@XZ
	jmp	___CxxFrameHandler3
text$x	ENDS
??0CRTFPreferencesPage@@QAE@XZ ENDP			; CRTFPreferencesPage::CRTFPreferencesPage
PUBLIC	??1CRTFPreferencesPage@@UAE@XZ			; CRTFPreferencesPage::~CRTFPreferencesPage
EXTRN	??3CObject@@SGXPAX@Z:PROC			; CObject::operator delete
; Function compile flags: /Odtp /RTCsu
;	COMDAT ??_GCRTFPreferencesPage@@UAEPAXI@Z
_TEXT	SEGMENT
_this$ = -4						; size = 4
___flags$ = 8						; size = 4
??_GCRTFPreferencesPage@@UAEPAXI@Z PROC			; CRTFPreferencesPage::`scalar deleting destructor', COMDAT
; _this$ = ecx
	push	ebp
	mov	ebp, esp
	push	ecx
	mov	DWORD PTR [ebp-4], -858993460		; ccccccccH
	mov	DWORD PTR _this$[ebp], ecx
	mov	ecx, DWORD PTR _this$[ebp]
	call	??1CRTFPreferencesPage@@UAE@XZ
	mov	eax, DWORD PTR ___flags$[ebp]
	and	eax, 1
	je	SHORT $LN1@scalar
	mov	ecx, DWORD PTR _this$[ebp]
	push	ecx
	call	??3CObject@@SGXPAX@Z			; CObject::operator delete
$LN1@scalar:
	mov	eax, DWORD PTR _this$[ebp]
	add	esp, 4
	cmp	ebp, esp
	call	__RTC_CheckEsp
	mov	esp, ebp
	pop	ebp
	ret	4
??_GCRTFPreferencesPage@@UAEPAXI@Z ENDP			; CRTFPreferencesPage::`scalar deleting destructor'
_TEXT	ENDS
EXTRN	??1CGroupLineManager@@UAE@XZ:PROC		; CGroupLineManager::~CGroupLineManager
;	COMDAT xdata$x
xdata$x	SEGMENT
__unwindtable$??1CRTFPreferencesPage@@UAE@XZ DD 0ffffffffH
	DD	FLAT:__unwindfunclet$??1CRTFPreferencesPage@@UAE@XZ$0
__ehfuncinfo$??1CRTFPreferencesPage@@UAE@XZ DD 019930522H
	DD	01H
	DD	FLAT:__unwindtable$??1CRTFPreferencesPage@@UAE@XZ
	DD	2 DUP(00H)
	DD	2 DUP(00H)
	DD	00H
	DD	01H
; Function compile flags: /Odtp /RTCsu
xdata$x	ENDS
;	COMDAT ??1CRTFPreferencesPage@@UAE@XZ
_TEXT	SEGMENT
_this$ = -16						; size = 4
__$EHRec$ = -12						; size = 12
??1CRTFPreferencesPage@@UAE@XZ PROC			; CRTFPreferencesPage::~CRTFPreferencesPage, COMDAT
; _this$ = ecx
	push	ebp
	mov	ebp, esp
	push	-1
	push	__ehhandler$??1CRTFPreferencesPage@@UAE@XZ
	mov	eax, DWORD PTR fs:0
	push	eax
	push	ecx
	mov	DWORD PTR [ebp-16], -858993460		; ccccccccH
	mov	eax, DWORD PTR ___security_cookie
	xor	eax, ebp
	push	eax
	lea	eax, DWORD PTR __$EHRec$[ebp]
	mov	DWORD PTR fs:0, eax
	mov	DWORD PTR _this$[ebp], ecx
	mov	DWORD PTR __$EHRec$[ebp+8], 0
	mov	ecx, DWORD PTR _this$[ebp]
	add	ecx, 168				; 000000a8H
	call	??1CGroupLineManager@@UAE@XZ		; CGroupLineManager::~CGroupLineManager
	mov	DWORD PTR __$EHRec$[ebp+8], -1
	mov	ecx, DWORD PTR _this$[ebp]
	call	??1CPropertyPage@@UAE@XZ		; CPropertyPage::~CPropertyPage
	mov	ecx, DWORD PTR __$EHRec$[ebp]
	mov	DWORD PTR fs:0, ecx
	pop	ecx
	add	esp, 16					; 00000010H
	cmp	ebp, esp
	call	__RTC_CheckEsp
	mov	esp, ebp
	pop	ebp
	ret	0
_TEXT	ENDS
;	COMDAT text$x
text$x	SEGMENT
__unwindfunclet$??1CRTFPreferencesPage@@UAE@XZ$0:
	mov	ecx, DWORD PTR _this$[ebp]
	jmp	??1CPropertyPage@@UAE@XZ		; CPropertyPage::~CPropertyPage
__ehhandler$??1CRTFPreferencesPage@@UAE@XZ:
	mov	edx, DWORD PTR [esp+8]
	lea	eax, DWORD PTR [edx+12]
	mov	ecx, DWORD PTR [edx-8]
	xor	ecx, eax
	call	@__security_check_cookie@4
	mov	eax, OFFSET __ehfuncinfo$??1CRTFPreferencesPage@@UAE@XZ
	jmp	___CxxFrameHandler3
text$x	ENDS
??1CRTFPreferencesPage@@UAE@XZ ENDP			; CRTFPreferencesPage::~CRTFPreferencesPage
EXTRN	?DDX_Check@@YGXPAVCDataExchange@@HAAH@Z:PROC	; DDX_Check
EXTRN	?DDX_Radio@@YGXPAVCDataExchange@@HAAH@Z:PROC	; DDX_Radio
EXTRN	?DoDataExchange@CWnd@@MAEXPAVCDataExchange@@@Z:PROC ; CWnd::DoDataExchange
; Function compile flags: /Odtp /RTCsu
;	COMDAT ?DoDataExchange@CRTFPreferencesPage@@MAEXPAVCDataExchange@@@Z
_TEXT	SEGMENT
_this$ = -4						; size = 4
_pDX$ = 8						; size = 4
?DoDataExchange@CRTFPreferencesPage@@MAEXPAVCDataExchange@@@Z PROC ; CRTFPreferencesPage::DoDataExchange, COMDAT
; _this$ = ecx

; 38   : {

	push	ebp
	mov	ebp, esp
	push	ecx
	mov	DWORD PTR [ebp-4], -858993460		; ccccccccH
	mov	DWORD PTR _this$[ebp], ecx

; 39   : 	CPropertyPage::DoDataExchange(pDX);

	mov	eax, DWORD PTR _pDX$[ebp]
	push	eax
	mov	ecx, DWORD PTR _this$[ebp]
	call	?DoDataExchange@CWnd@@MAEXPAVCDataExchange@@@Z ; CWnd::DoDataExchange

; 40   : 	//{{AFX_DATA_MAP(CRTFPreferencesPage)
; 41   : 	//}}AFX_DATA_MAP
; 42   : 	DDX_Radio(pDX, IDC_FILEURL, m_nLinkOption);

	mov	ecx, DWORD PTR _this$[ebp]
	add	ecx, 200				; 000000c8H
	push	ecx
	push	16001					; 00003e81H
	mov	edx, DWORD PTR _pDX$[ebp]
	push	edx
	call	?DDX_Radio@@YGXPAVCDataExchange@@HAAH@Z	; DDX_Radio

; 43   : 	DDX_Check(pDX, IDC_USEMSWORD, m_bConvertWithMSWord);

	mov	eax, DWORD PTR _this$[ebp]
	add	eax, 208				; 000000d0H
	push	eax
	push	16013					; 00003e8dH
	mov	ecx, DWORD PTR _pDX$[ebp]
	push	ecx
	call	?DDX_Check@@YGXPAVCDataExchange@@HAAH@Z	; DDX_Check

; 44   : 	DDX_Check(pDX, IDC_PROMPTFORFILELINK, m_bPromptForFileLink);

	mov	edx, DWORD PTR _this$[ebp]
	add	edx, 204				; 000000ccH
	push	edx
	push	16015					; 00003e8fH
	mov	eax, DWORD PTR _pDX$[ebp]
	push	eax
	call	?DDX_Check@@YGXPAVCDataExchange@@HAAH@Z	; DDX_Check

; 45   : }

	add	esp, 4
	cmp	ebp, esp
	call	__RTC_CheckEsp
	mov	esp, ebp
	pop	ebp
	ret	4
?DoDataExchange@CRTFPreferencesPage@@MAEXPAVCDataExchange@@@Z ENDP ; CRTFPreferencesPage::DoDataExchange
_TEXT	ENDS
PUBLIC	?GetThisMessageMap@CRTFPreferencesPage@@KGPBUAFX_MSGMAP@@XZ ; CRTFPreferencesPage::GetThisMessageMap
; Function compile flags: /Odtp /RTCsu
;	COMDAT ?GetMessageMap@CRTFPreferencesPage@@MBEPBUAFX_MSGMAP@@XZ
_TEXT	SEGMENT
_this$ = -4						; size = 4
?GetMessageMap@CRTFPreferencesPage@@MBEPBUAFX_MSGMAP@@XZ PROC ; CRTFPreferencesPage::GetMessageMap, COMDAT
; _this$ = ecx

; 47   : BEGIN_MESSAGE_MAP(CRTFPreferencesPage, CPropertyPage)

	push	ebp
	mov	ebp, esp
	push	ecx
	mov	DWORD PTR [ebp-4], -858993460		; ccccccccH
	mov	DWORD PTR _this$[ebp], ecx
	call	?GetThisMessageMap@CRTFPreferencesPage@@KGPBUAFX_MSGMAP@@XZ ; CRTFPreferencesPage::GetThisMessageMap
	add	esp, 4
	cmp	ebp, esp
	call	__RTC_CheckEsp
	mov	esp, ebp
	pop	ebp
	ret	0
?GetMessageMap@CRTFPreferencesPage@@MBEPBUAFX_MSGMAP@@XZ ENDP ; CRTFPreferencesPage::GetMessageMap
_TEXT	ENDS
PUBLIC	?OnCtlColor@CRTFPreferencesPage@@IAEPAUHBRUSH__@@PAVCDC@@PAVCWnd@@I@Z ; CRTFPreferencesPage::OnCtlColor
PUBLIC	?OnEraseBkgnd@CRTFPreferencesPage@@IAEHPAVCDC@@@Z ; CRTFPreferencesPage::OnEraseBkgnd
PUBLIC	?OnShowWindow@CRTFPreferencesPage@@IAEXHI@Z	; CRTFPreferencesPage::OnShowWindow
PUBLIC	?OnPromptForLink@CRTFPreferencesPage@@IAEXXZ	; CRTFPreferencesPage::OnPromptForLink
EXTRN	?GetThisMessageMap@CPropertyPage@@KGPBUAFX_MSGMAP@@XZ:PROC ; CPropertyPage::GetThisMessageMap
;	COMDAT ?_messageEntries@?1??GetThisMessageMap@CRTFPreferencesPage@@KGPBUAFX_MSGMAP@@XZ@4QBUAFX_MSGMAP_ENTRY@@B
CONST	SEGMENT
?_messageEntries@?1??GetThisMessageMap@CRTFPreferencesPage@@KGPBUAFX_MSGMAP@@XZ@4QBUAFX_MSGMAP_ENTRY@@B DD 019H ; `CRTFPreferencesPage::GetThisMessageMap'::`2'::_messageEntries
	DD	00H
	DD	00H
	DD	00H
	DD	08H
	DD	FLAT:?OnCtlColor@CRTFPreferencesPage@@IAEPAUHBRUSH__@@PAVCDC@@PAVCWnd@@I@Z
	DD	014H
	DD	00H
	DD	00H
	DD	00H
	DD	01H
	DD	FLAT:?OnEraseBkgnd@CRTFPreferencesPage@@IAEHPAVCDC@@@Z
	DD	018H
	DD	00H
	DD	00H
	DD	00H
	DD	015H
	DD	FLAT:?OnShowWindow@CRTFPreferencesPage@@IAEXHI@Z
	DD	0111H
	DD	00H
	DD	03e8fH
	DD	03e8fH
	DD	039H
	DD	FLAT:?OnPromptForLink@CRTFPreferencesPage@@IAEXXZ
	DD	00H
	DD	00H
	DD	00H
	DD	00H
	DD	00H
	DD	00H
CONST	ENDS
;	COMDAT ?messageMap@?1??GetThisMessageMap@CRTFPreferencesPage@@KGPBUAFX_MSGMAP@@XZ@4U3@B
CONST	SEGMENT
?messageMap@?1??GetThisMessageMap@CRTFPreferencesPage@@KGPBUAFX_MSGMAP@@XZ@4U3@B DD FLAT:?GetThisMessageMap@CPropertyPage@@KGPBUAFX_MSGMAP@@XZ ; `CRTFPreferencesPage::GetThisMessageMap'::`2'::messageMap
	DD	FLAT:?_messageEntries@?1??GetThisMessageMap@CRTFPreferencesPage@@KGPBUAFX_MSGMAP@@XZ@4QBUAFX_MSGMAP_ENTRY@@B
; Function compile flags: /Odtp /RTCsu
CONST	ENDS
;	COMDAT ?GetThisMessageMap@CRTFPreferencesPage@@KGPBUAFX_MSGMAP@@XZ
_TEXT	SEGMENT
?GetThisMessageMap@CRTFPreferencesPage@@KGPBUAFX_MSGMAP@@XZ PROC ; CRTFPreferencesPage::GetThisMessageMap, COMDAT

; 47   : BEGIN_MESSAGE_MAP(CRTFPreferencesPage, CPropertyPage)

	push	ebp
	mov	ebp, esp

; 48   : 	//{{AFX_MSG_MAP(CRTFPreferencesPage)
; 49   : 	//}}AFX_MSG_MAP
; 50   : 	ON_WM_CTLCOLOR()
; 51   : 	ON_WM_ERASEBKGND()
; 52   : 	ON_WM_SHOWWINDOW()
; 53   : 	ON_BN_CLICKED(IDC_PROMPTFORFILELINK, OnPromptForLink)
; 54   : END_MESSAGE_MAP()

	mov	eax, OFFSET ?messageMap@?1??GetThisMessageMap@CRTFPreferencesPage@@KGPBUAFX_MSGMAP@@XZ@4U3@B
	pop	ebp
	ret	0
?GetThisMessageMap@CRTFPreferencesPage@@KGPBUAFX_MSGMAP@@XZ ENDP ; CRTFPreferencesPage::GetThisMessageMap
_TEXT	ENDS
PUBLIC	?SetFileLinkOption@CRTFPreferencesPage@@QAEXW4RE_PASTE@@H@Z ; CRTFPreferencesPage::SetFileLinkOption
; Function compile flags: /Odtp /RTCsu
;	COMDAT ?SetFileLinkOption@CRTFPreferencesPage@@QAEXW4RE_PASTE@@H@Z
_TEXT	SEGMENT
_this$ = -4						; size = 4
_nLinkOption$ = 8					; size = 4
_bPrompt$ = 12						; size = 4
?SetFileLinkOption@CRTFPreferencesPage@@QAEXW4RE_PASTE@@H@Z PROC ; CRTFPreferencesPage::SetFileLinkOption, COMDAT
; _this$ = ecx

; 60   : {

	push	ebp
	mov	ebp, esp
	push	ecx
	mov	DWORD PTR [ebp-4], -858993460		; ccccccccH
	mov	DWORD PTR _this$[ebp], ecx

; 61   : 	m_bPromptForFileLink = bPrompt;

	mov	eax, DWORD PTR _this$[ebp]
	mov	ecx, DWORD PTR _bPrompt$[ebp]
	mov	DWORD PTR [eax+204], ecx

; 62   : 	m_nLinkOption = nLinkOption;

	mov	edx, DWORD PTR _this$[ebp]
	mov	eax, DWORD PTR _nLinkOption$[ebp]
	mov	DWORD PTR [edx+200], eax

; 63   : }

	mov	esp, ebp
	pop	ebp
	ret	8
?SetFileLinkOption@CRTFPreferencesPage@@QAEXW4RE_PASTE@@H@Z ENDP ; CRTFPreferencesPage::SetFileLinkOption
_TEXT	ENDS
EXTRN	?EnableWindow@CWnd@@QAEHH@Z:PROC		; CWnd::EnableWindow
EXTRN	?GetDlgItem@CWnd@@QBEPAV1@H@Z:PROC		; CWnd::GetDlgItem
EXTRN	?IsWordInstalled@CMSWordHelper@@SAHH@Z:PROC	; CMSWordHelper::IsWordInstalled
EXTRN	?AddGroupLine@CGroupLineManager@@QAEHIPAUHWND__@@@Z:PROC ; CGroupLineManager::AddGroupLine
EXTRN	??BCWnd@@QBEPAUHWND__@@XZ:PROC			; CWnd::operator HWND__ *
EXTRN	?OnInitDialog@CDialog@@UAEHXZ:PROC		; CDialog::OnInitDialog
; Function compile flags: /Odtp /RTCsu
;	COMDAT ?OnInitDialog@CRTFPreferencesPage@@MAEHXZ
_TEXT	SEGMENT
_this$ = -4						; size = 4
?OnInitDialog@CRTFPreferencesPage@@MAEHXZ PROC		; CRTFPreferencesPage::OnInitDialog, COMDAT
; _this$ = ecx

; 66   : {

	push	ebp
	mov	ebp, esp
	push	ecx
	mov	DWORD PTR [ebp-4], -858993460		; ccccccccH
	mov	DWORD PTR _this$[ebp], ecx

; 67   : 	CPropertyPage::OnInitDialog();

	mov	ecx, DWORD PTR _this$[ebp]
	call	?OnInitDialog@CDialog@@UAEHXZ		; CDialog::OnInitDialog

; 68   : 
; 69   : 	m_groupLine.AddGroupLine(IDC_LINKTOFILE_GROUP, *this);

	mov	ecx, DWORD PTR _this$[ebp]
	call	??BCWnd@@QBEPAUHWND__@@XZ		; CWnd::operator HWND__ *
	push	eax
	push	16012					; 00003e8cH
	mov	ecx, DWORD PTR _this$[ebp]
	add	ecx, 168				; 000000a8H
	call	?AddGroupLine@CGroupLineManager@@QAEHIPAUHWND__@@@Z ; CGroupLineManager::AddGroupLine

; 70   : 
; 71   : 	if (!CMSWordHelper::IsWordInstalled(12))

	push	12					; 0000000cH
	call	?IsWordInstalled@CMSWordHelper@@SAHH@Z	; CMSWordHelper::IsWordInstalled
	add	esp, 4
	test	eax, eax
	jne	SHORT $LN1@OnInitDial

; 72   : 		GetDlgItem(IDC_USEMSWORD)->EnableWindow(FALSE);

	push	0
	push	16013					; 00003e8dH
	mov	ecx, DWORD PTR _this$[ebp]
	call	?GetDlgItem@CWnd@@QBEPAV1@H@Z		; CWnd::GetDlgItem
	mov	ecx, eax
	call	?EnableWindow@CWnd@@QAEHH@Z		; CWnd::EnableWindow
$LN1@OnInitDial:

; 73   : 
; 74   : 	OnPromptForLink();

	mov	ecx, DWORD PTR _this$[ebp]
	call	?OnPromptForLink@CRTFPreferencesPage@@IAEXXZ ; CRTFPreferencesPage::OnPromptForLink

; 75   : 	
; 76   : 	return TRUE;  // return TRUE unless you set the focus to a control

	mov	eax, 1

; 77   : 	              // EXCEPTION: OCX Property Pages should return FALSE
; 78   : }

	add	esp, 4
	cmp	ebp, esp
	call	__RTC_CheckEsp
	mov	esp, ebp
	pop	ebp
	ret	0
?OnInitDialog@CRTFPreferencesPage@@MAEHXZ ENDP		; CRTFPreferencesPage::OnInitDialog
_TEXT	ENDS
PUBLIC	__$ArrayPad$
EXTRN	?FillSolidRect@CDC@@QAEXPBUtagRECT@@K@Z:PROC	; CDC::FillSolidRect
EXTRN	__imp__GetSysColor@4:PROC
EXTRN	?GetClientRect@CWnd@@QBEXPAUtagRECT@@@Z:PROC	; CWnd::GetClientRect
EXTRN	??BCRect@@QAEPAUtagRECT@@XZ:PROC		; CRect::operator tagRECT *
EXTRN	??0CRect@@QAE@XZ:PROC				; CRect::CRect
EXTRN	@_RTC_CheckStackVars@8:PROC
; Function compile flags: /Odtp /RTCsu
;	COMDAT ?OnEraseBkgnd@CRTFPreferencesPage@@IAEHPAVCDC@@@Z
_TEXT	SEGMENT
_rClient$ = -28						; size = 16
_this$ = -8						; size = 4
__$ArrayPad$ = -4					; size = 4
_pDC$ = 8						; size = 4
?OnEraseBkgnd@CRTFPreferencesPage@@IAEHPAVCDC@@@Z PROC	; CRTFPreferencesPage::OnEraseBkgnd, COMDAT
; _this$ = ecx

; 81   : {

	push	ebp
	mov	ebp, esp
	sub	esp, 32					; 00000020H
	push	esi
	mov	eax, -858993460				; ccccccccH
	mov	DWORD PTR [ebp-32], eax
	mov	DWORD PTR [ebp-28], eax
	mov	DWORD PTR [ebp-24], eax
	mov	DWORD PTR [ebp-20], eax
	mov	DWORD PTR [ebp-16], eax
	mov	DWORD PTR [ebp-12], eax
	mov	DWORD PTR [ebp-8], eax
	mov	DWORD PTR [ebp-4], eax
	mov	eax, DWORD PTR ___security_cookie
	xor	eax, ebp
	mov	DWORD PTR __$ArrayPad$[ebp], eax
	mov	DWORD PTR _this$[ebp], ecx

; 82   : 	CRect rClient;

	lea	ecx, DWORD PTR _rClient$[ebp]
	call	??0CRect@@QAE@XZ			; CRect::CRect

; 83   : 	GetClientRect(rClient);

	lea	ecx, DWORD PTR _rClient$[ebp]
	call	??BCRect@@QAEPAUtagRECT@@XZ		; CRect::operator tagRECT *
	push	eax
	mov	ecx, DWORD PTR _this$[ebp]
	call	?GetClientRect@CWnd@@QBEXPAUtagRECT@@@Z	; CWnd::GetClientRect

; 84   : 	pDC->FillSolidRect(rClient, ::GetSysColor(COLOR_WINDOW));

	mov	esi, esp
	push	5
	call	DWORD PTR __imp__GetSysColor@4
	cmp	esi, esp
	call	__RTC_CheckEsp
	push	eax
	lea	ecx, DWORD PTR _rClient$[ebp]
	call	??BCRect@@QAEPAUtagRECT@@XZ		; CRect::operator tagRECT *
	push	eax
	mov	ecx, DWORD PTR _pDC$[ebp]
	call	?FillSolidRect@CDC@@QAEXPBUtagRECT@@K@Z	; CDC::FillSolidRect

; 85   : 	
; 86   : 	return TRUE;

	mov	eax, 1

; 87   : }

	push	edx
	mov	ecx, ebp
	push	eax
	lea	edx, DWORD PTR $LN5@OnEraseBkg
	call	@_RTC_CheckStackVars@8
	pop	eax
	pop	edx
	pop	esi
	mov	ecx, DWORD PTR __$ArrayPad$[ebp]
	xor	ecx, ebp
	call	@__security_check_cookie@4
	add	esp, 32					; 00000020H
	cmp	ebp, esp
	call	__RTC_CheckEsp
	mov	esp, ebp
	pop	ebp
	ret	4
	npad	2
$LN5@OnEraseBkg:
	DD	1
	DD	$LN4@OnEraseBkg
$LN4@OnEraseBkg:
	DD	-28					; ffffffe4H
	DD	16					; 00000010H
	DD	$LN3@OnEraseBkg
$LN3@OnEraseBkg:
	DB	114					; 00000072H
	DB	67					; 00000043H
	DB	108					; 0000006cH
	DB	105					; 00000069H
	DB	101					; 00000065H
	DB	110					; 0000006eH
	DB	116					; 00000074H
	DB	0
?OnEraseBkgnd@CRTFPreferencesPage@@IAEHPAVCDC@@@Z ENDP	; CRTFPreferencesPage::OnEraseBkgnd
_TEXT	ENDS
EXTRN	__imp__GetSysColorBrush@4:PROC
EXTRN	?SetBkMode@CDC@@QAEHH@Z:PROC			; CDC::SetBkMode
EXTRN	?OnCtlColor@CPropertyPage@@IAEPAUHBRUSH__@@PAVCDC@@PAVCWnd@@I@Z:PROC ; CPropertyPage::OnCtlColor
; Function compile flags: /Odtp /RTCsu
;	COMDAT ?OnCtlColor@CRTFPreferencesPage@@IAEPAUHBRUSH__@@PAVCDC@@PAVCWnd@@I@Z
_TEXT	SEGMENT
_hbr$ = -8						; size = 4
_this$ = -4						; size = 4
_pDC$ = 8						; size = 4
_pWnd$ = 12						; size = 4
_nCtlColor$ = 16					; size = 4
?OnCtlColor@CRTFPreferencesPage@@IAEPAUHBRUSH__@@PAVCDC@@PAVCWnd@@I@Z PROC ; CRTFPreferencesPage::OnCtlColor, COMDAT
; _this$ = ecx

; 90   : {

	push	ebp
	mov	ebp, esp
	sub	esp, 8
	push	esi
	mov	DWORD PTR [ebp-8], -858993460		; ccccccccH
	mov	DWORD PTR [ebp-4], -858993460		; ccccccccH
	mov	DWORD PTR _this$[ebp], ecx

; 91   : 	HBRUSH hbr = CPropertyPage::OnCtlColor(pDC, pWnd, nCtlColor);

	mov	eax, DWORD PTR _nCtlColor$[ebp]
	push	eax
	mov	ecx, DWORD PTR _pWnd$[ebp]
	push	ecx
	mov	edx, DWORD PTR _pDC$[ebp]
	push	edx
	mov	ecx, DWORD PTR _this$[ebp]
	call	?OnCtlColor@CPropertyPage@@IAEPAUHBRUSH__@@PAVCDC@@PAVCWnd@@I@Z ; CPropertyPage::OnCtlColor
	mov	DWORD PTR _hbr$[ebp], eax

; 92   : 	
; 93   : 	if (nCtlColor == CTLCOLOR_STATIC)

	cmp	DWORD PTR _nCtlColor$[ebp], 6
	jne	SHORT $LN1@OnCtlColor

; 94   : 	{
; 95   : 		pDC->SetBkMode(TRANSPARENT);

	push	1
	mov	ecx, DWORD PTR _pDC$[ebp]
	call	?SetBkMode@CDC@@QAEHH@Z			; CDC::SetBkMode

; 96   : 		hbr = ::GetSysColorBrush(COLOR_WINDOW);

	mov	esi, esp
	push	5
	call	DWORD PTR __imp__GetSysColorBrush@4
	cmp	esi, esp
	call	__RTC_CheckEsp
	mov	DWORD PTR _hbr$[ebp], eax
$LN1@OnCtlColor:

; 97   : 	}
; 98   : 	
; 99   : 	return hbr;

	mov	eax, DWORD PTR _hbr$[ebp]

; 100  : }

	pop	esi
	add	esp, 8
	cmp	ebp, esp
	call	__RTC_CheckEsp
	mov	esp, ebp
	pop	ebp
	ret	12					; 0000000cH
?OnCtlColor@CRTFPreferencesPage@@IAEPAUHBRUSH__@@PAVCDC@@PAVCWnd@@I@Z ENDP ; CRTFPreferencesPage::OnCtlColor
_TEXT	ENDS
EXTRN	?ResizeButtonStaticTextFieldsToFit@CDialogHelper@@SAXPAVCWnd@@@Z:PROC ; CDialogHelper::ResizeButtonStaticTextFieldsToFit
EXTRN	?OnShowWindow@CWnd@@IAEXHI@Z:PROC		; CWnd::OnShowWindow
; Function compile flags: /Odtp /RTCsu
;	COMDAT ?OnShowWindow@CRTFPreferencesPage@@IAEXHI@Z
_TEXT	SEGMENT
_this$ = -4						; size = 4
_bShow$ = 8						; size = 4
_nStatus$ = 12						; size = 4
?OnShowWindow@CRTFPreferencesPage@@IAEXHI@Z PROC	; CRTFPreferencesPage::OnShowWindow, COMDAT
; _this$ = ecx

; 103  : {

	push	ebp
	mov	ebp, esp
	push	ecx
	mov	DWORD PTR [ebp-4], -858993460		; ccccccccH
	mov	DWORD PTR _this$[ebp], ecx

; 104  : 	CPropertyPage::OnShowWindow(bShow, nStatus);

	mov	eax, DWORD PTR _nStatus$[ebp]
	push	eax
	mov	ecx, DWORD PTR _bShow$[ebp]
	push	ecx
	mov	ecx, DWORD PTR _this$[ebp]
	call	?OnShowWindow@CWnd@@IAEXHI@Z		; CWnd::OnShowWindow

; 105  : 	
; 106  : 	// resize controls to fit text
; 107  : 	if (bShow)

	cmp	DWORD PTR _bShow$[ebp], 0
	je	SHORT $LN2@OnShowWind

; 108  : 		CDialogHelper::ResizeButtonStaticTextFieldsToFit(this);

	mov	edx, DWORD PTR _this$[ebp]
	push	edx
	call	?ResizeButtonStaticTextFieldsToFit@CDialogHelper@@SAXPAVCWnd@@@Z ; CDialogHelper::ResizeButtonStaticTextFieldsToFit
	add	esp, 4
$LN2@OnShowWind:

; 109  : }

	add	esp, 4
	cmp	ebp, esp
	call	__RTC_CheckEsp
	mov	esp, ebp
	pop	ebp
	ret	8
?OnShowWindow@CRTFPreferencesPage@@IAEXHI@Z ENDP	; CRTFPreferencesPage::OnShowWindow
_TEXT	ENDS
PUBLIC	?SavePreferences@CRTFPreferencesPage@@QBEXPAVIPreferences@@PB_W@Z ; CRTFPreferencesPage::SavePreferences
; Function compile flags: /Odtp /RTCsu
;	COMDAT ?SavePreferences@CRTFPreferencesPage@@QBEXPAVIPreferences@@PB_W@Z
_TEXT	SEGMENT
_this$ = -4						; size = 4
_pPrefs$ = 8						; size = 4
_szKey$ = 12						; size = 4
?SavePreferences@CRTFPreferencesPage@@QBEXPAVIPreferences@@PB_W@Z PROC ; CRTFPreferencesPage::SavePreferences, COMDAT
; _this$ = ecx

; 112  : {

	push	ebp
	mov	ebp, esp
	push	ecx
	push	esi
	mov	DWORD PTR [ebp-4], -858993460		; ccccccccH
	mov	DWORD PTR _this$[ebp], ecx

; 113  : 	// Note: Parent App handles global settings
; 114  : 	pPrefs->WriteProfileInt(szKey, _T("FileLinkOption"), m_nLinkOption);

	mov	esi, esp
	mov	eax, DWORD PTR _this$[ebp]
	mov	ecx, DWORD PTR [eax+200]
	push	ecx
	push	OFFSET $SG173848
	mov	edx, DWORD PTR _szKey$[ebp]
	push	edx
	mov	eax, DWORD PTR _pPrefs$[ebp]
	mov	edx, DWORD PTR [eax]
	mov	ecx, DWORD PTR _pPrefs$[ebp]
	mov	eax, DWORD PTR [edx+4]
	call	eax
	cmp	esi, esp
	call	__RTC_CheckEsp

; 115  : 	pPrefs->WriteProfileInt(szKey, _T("FileLinkOptionIsDefault"), !m_bPromptForFileLink);

	mov	ecx, DWORD PTR _this$[ebp]
	xor	edx, edx
	cmp	DWORD PTR [ecx+204], 0
	sete	dl
	mov	esi, esp
	push	edx
	push	OFFSET $SG173849
	mov	eax, DWORD PTR _szKey$[ebp]
	push	eax
	mov	ecx, DWORD PTR _pPrefs$[ebp]
	mov	edx, DWORD PTR [ecx]
	mov	ecx, DWORD PTR _pPrefs$[ebp]
	mov	eax, DWORD PTR [edx+4]
	call	eax
	cmp	esi, esp
	call	__RTC_CheckEsp

; 116  : }

	pop	esi
	add	esp, 4
	cmp	ebp, esp
	call	__RTC_CheckEsp
	mov	esp, ebp
	pop	ebp
	ret	8
?SavePreferences@CRTFPreferencesPage@@QBEXPAVIPreferences@@PB_W@Z ENDP ; CRTFPreferencesPage::SavePreferences
_TEXT	ENDS
PUBLIC	?LoadPreferences@CRTFPreferencesPage@@QAEXPBVIPreferences@@PB_W@Z ; CRTFPreferencesPage::LoadPreferences
; Function compile flags: /Odtp /RTCsu
;	COMDAT ?LoadPreferences@CRTFPreferencesPage@@QAEXPBVIPreferences@@PB_W@Z
_TEXT	SEGMENT
_this$ = -4						; size = 4
_pPrefs$ = 8						; size = 4
_szKey$ = 12						; size = 4
?LoadPreferences@CRTFPreferencesPage@@QAEXPBVIPreferences@@PB_W@Z PROC ; CRTFPreferencesPage::LoadPreferences, COMDAT
; _this$ = ecx

; 119  : {

	push	ebp
	mov	ebp, esp
	push	ecx
	push	esi
	mov	DWORD PTR [ebp-4], -858993460		; ccccccccH
	mov	DWORD PTR _this$[ebp], ecx

; 120  : 	// Note: Parent App handles global settings
; 121  : 	m_nLinkOption = (RE_PASTE)pPrefs->GetProfileInt(szKey, _T("FileLinkOption"), REP_ASIMAGE);

	mov	esi, esp
	push	3
	push	OFFSET $SG173856
	mov	eax, DWORD PTR _szKey$[ebp]
	push	eax
	mov	ecx, DWORD PTR _pPrefs$[ebp]
	mov	edx, DWORD PTR [ecx]
	mov	ecx, DWORD PTR _pPrefs$[ebp]
	mov	eax, DWORD PTR [edx]
	call	eax
	cmp	esi, esp
	call	__RTC_CheckEsp
	mov	ecx, DWORD PTR _this$[ebp]
	mov	DWORD PTR [ecx+200], eax

; 122  : 	m_bPromptForFileLink = !pPrefs->GetProfileInt(szKey, _T("FileLinkOptionIsDefault"), TRUE);

	mov	esi, esp
	push	1
	push	OFFSET $SG173857
	mov	edx, DWORD PTR _szKey$[ebp]
	push	edx
	mov	eax, DWORD PTR _pPrefs$[ebp]
	mov	edx, DWORD PTR [eax]
	mov	ecx, DWORD PTR _pPrefs$[ebp]
	mov	eax, DWORD PTR [edx]
	call	eax
	cmp	esi, esp
	call	__RTC_CheckEsp
	neg	eax
	sbb	eax, eax
	add	eax, 1
	mov	ecx, DWORD PTR _this$[ebp]
	mov	DWORD PTR [ecx+204], eax

; 123  : }

	pop	esi
	add	esp, 4
	cmp	ebp, esp
	call	__RTC_CheckEsp
	mov	esp, ebp
	pop	ebp
	ret	8
?LoadPreferences@CRTFPreferencesPage@@QAEXPBVIPreferences@@PB_W@Z ENDP ; CRTFPreferencesPage::LoadPreferences
_TEXT	ENDS
EXTRN	?UpdateData@CWnd@@QAEHH@Z:PROC			; CWnd::UpdateData
; Function compile flags: /Odtp /RTCsu
;	COMDAT ?OnPromptForLink@CRTFPreferencesPage@@IAEXXZ
_TEXT	SEGMENT
_this$ = -4						; size = 4
?OnPromptForLink@CRTFPreferencesPage@@IAEXXZ PROC	; CRTFPreferencesPage::OnPromptForLink, COMDAT
; _this$ = ecx

; 126  : {

	push	ebp
	mov	ebp, esp
	push	ecx
	mov	DWORD PTR [ebp-4], -858993460		; ccccccccH
	mov	DWORD PTR _this$[ebp], ecx

; 127  : 	UpdateData();

	push	1
	mov	ecx, DWORD PTR _this$[ebp]
	call	?UpdateData@CWnd@@QAEHH@Z		; CWnd::UpdateData

; 128  : 	
; 129  : 	GetDlgItem(IDC_FILEURL)->EnableWindow(!m_bPromptForFileLink);

	mov	eax, DWORD PTR _this$[ebp]
	xor	ecx, ecx
	cmp	DWORD PTR [eax+204], 0
	sete	cl
	push	ecx
	push	16001					; 00003e81H
	mov	ecx, DWORD PTR _this$[ebp]
	call	?GetDlgItem@CWnd@@QBEPAV1@H@Z		; CWnd::GetDlgItem
	mov	ecx, eax
	call	?EnableWindow@CWnd@@QAEHH@Z		; CWnd::EnableWindow

; 130  : 	GetDlgItem(IDC_FILECOPY)->EnableWindow(!m_bPromptForFileLink);

	mov	edx, DWORD PTR _this$[ebp]
	xor	eax, eax
	cmp	DWORD PTR [edx+204], 0
	sete	al
	push	eax
	push	16002					; 00003e82H
	mov	ecx, DWORD PTR _this$[ebp]
	call	?GetDlgItem@CWnd@@QBEPAV1@H@Z		; CWnd::GetDlgItem
	mov	ecx, eax
	call	?EnableWindow@CWnd@@QAEHH@Z		; CWnd::EnableWindow

; 131  : 	GetDlgItem(IDC_FILELINK)->EnableWindow(!m_bPromptForFileLink);

	mov	ecx, DWORD PTR _this$[ebp]
	xor	edx, edx
	cmp	DWORD PTR [ecx+204], 0
	sete	dl
	push	edx
	push	16003					; 00003e83H
	mov	ecx, DWORD PTR _this$[ebp]
	call	?GetDlgItem@CWnd@@QBEPAV1@H@Z		; CWnd::GetDlgItem
	mov	ecx, eax
	call	?EnableWindow@CWnd@@QAEHH@Z		; CWnd::EnableWindow

; 132  : 	GetDlgItem(IDC_FILEIMAGE)->EnableWindow(!m_bPromptForFileLink);

	mov	eax, DWORD PTR _this$[ebp]
	xor	ecx, ecx
	cmp	DWORD PTR [eax+204], 0
	sete	cl
	push	ecx
	push	16005					; 00003e85H
	mov	ecx, DWORD PTR _this$[ebp]
	call	?GetDlgItem@CWnd@@QBEPAV1@H@Z		; CWnd::GetDlgItem
	mov	ecx, eax
	call	?EnableWindow@CWnd@@QAEHH@Z		; CWnd::EnableWindow

; 133  : }

	add	esp, 4
	cmp	ebp, esp
	call	__RTC_CheckEsp
	mov	esp, ebp
	pop	ebp
	ret	0
?OnPromptForLink@CRTFPreferencesPage@@IAEXXZ ENDP	; CRTFPreferencesPage::OnPromptForLink
_TEXT	ENDS
PUBLIC	??_7CRTFPreferencesDlg@@6B@			; CRTFPreferencesDlg::`vftable'
PUBLIC	??0CRTFPreferencesDlg@@QAE@PAVCWnd@@@Z		; CRTFPreferencesDlg::CRTFPreferencesDlg
PUBLIC	??_R4CRTFPreferencesDlg@@6B@			; CRTFPreferencesDlg::`RTTI Complete Object Locator'
PUBLIC	??_R0?AVCRTFPreferencesDlg@@@8			; CRTFPreferencesDlg `RTTI Type Descriptor'
PUBLIC	??_R3CRTFPreferencesDlg@@8			; CRTFPreferencesDlg::`RTTI Class Hierarchy Descriptor'
PUBLIC	??_R2CRTFPreferencesDlg@@8			; CRTFPreferencesDlg::`RTTI Base Class Array'
PUBLIC	??_R1A@?0A@EA@CRTFPreferencesDlg@@8		; CRTFPreferencesDlg::`RTTI Base Class Descriptor at (0,-1,0,64)'
PUBLIC	?GetMessageMap@CRTFPreferencesDlg@@MBEPBUAFX_MSGMAP@@XZ ; CRTFPreferencesDlg::GetMessageMap
PUBLIC	?DoDataExchange@CRTFPreferencesDlg@@MAEXPAVCDataExchange@@@Z ; CRTFPreferencesDlg::DoDataExchange
PUBLIC	?OnInitDialog@CRTFPreferencesDlg@@MAEHXZ	; CRTFPreferencesDlg::OnInitDialog
PUBLIC	?OnOK@CRTFPreferencesDlg@@MAEXXZ		; CRTFPreferencesDlg::OnOK
EXTRN	??1CScrollingPropertyPageHost@@UAE@XZ:PROC	; CScrollingPropertyPageHost::~CScrollingPropertyPageHost
EXTRN	??1CDialog@@UAE@XZ:PROC				; CDialog::~CDialog
EXTRN	?AddPage@CPropertyPageHost@@QAEHPAVCPropertyPage@@PB_WK@Z:PROC ; CPropertyPageHost::AddPage
EXTRN	??0CScrollingPropertyPageHost@@QAE@XZ:PROC	; CScrollingPropertyPageHost::CScrollingPropertyPageHost
EXTRN	??0CDialog@@QAE@IPAVCWnd@@@Z:PROC		; CDialog::CDialog
EXTRN	?GetRuntimeClass@CDialog@@UBEPAUCRuntimeClass@@XZ:PROC ; CDialog::GetRuntimeClass
EXTRN	??_ECRTFPreferencesDlg@@UAEPAXI@Z:PROC		; CRTFPreferencesDlg::`vector deleting destructor'
EXTRN	?AssertValid@CDialog@@UBEXXZ:PROC		; CDialog::AssertValid
EXTRN	?Dump@CDialog@@UBEXAAVCDumpContext@@@Z:PROC	; CDialog::Dump
EXTRN	?OnNotify@CWnd@@MAEHIJPAJ@Z:PROC		; CWnd::OnNotify
EXTRN	?PreTranslateMessage@CDialog@@UAEHPAUtagMSG@@@Z:PROC ; CDialog::PreTranslateMessage
EXTRN	?OnCancel@CDialog@@MAEXXZ:PROC			; CDialog::OnCancel
;	COMDAT ??_R1A@?0A@EA@CRTFPreferencesDlg@@8
rdata$r	SEGMENT
??_R1A@?0A@EA@CRTFPreferencesDlg@@8 DD FLAT:??_R0?AVCRTFPreferencesDlg@@@8 ; CRTFPreferencesDlg::`RTTI Base Class Descriptor at (0,-1,0,64)'
	DD	04H
	DD	00H
	DD	0ffffffffH
	DD	00H
	DD	040H
	DD	FLAT:??_R3CRTFPreferencesDlg@@8
rdata$r	ENDS
;	COMDAT ??_R2CRTFPreferencesDlg@@8
rdata$r	SEGMENT
??_R2CRTFPreferencesDlg@@8 DD FLAT:??_R1A@?0A@EA@CRTFPreferencesDlg@@8 ; CRTFPreferencesDlg::`RTTI Base Class Array'
	DD	FLAT:??_R1A@?0A@EA@CDialog@@8
	DD	FLAT:??_R1A@?0A@EA@CWnd@@8
	DD	FLAT:??_R1A@?0A@EA@CCmdTarget@@8
	DD	FLAT:??_R1A@?0A@EA@CObject@@8
rdata$r	ENDS
;	COMDAT ??_R3CRTFPreferencesDlg@@8
rdata$r	SEGMENT
??_R3CRTFPreferencesDlg@@8 DD 00H			; CRTFPreferencesDlg::`RTTI Class Hierarchy Descriptor'
	DD	00H
	DD	05H
	DD	FLAT:??_R2CRTFPreferencesDlg@@8
rdata$r	ENDS
;	COMDAT ??_R0?AVCRTFPreferencesDlg@@@8
_DATA	SEGMENT
??_R0?AVCRTFPreferencesDlg@@@8 DD FLAT:??_7type_info@@6B@ ; CRTFPreferencesDlg `RTTI Type Descriptor'
	DD	00H
	DB	'.?AVCRTFPreferencesDlg@@', 00H
_DATA	ENDS
;	COMDAT ??_R4CRTFPreferencesDlg@@6B@
rdata$r	SEGMENT
??_R4CRTFPreferencesDlg@@6B@ DD 00H			; CRTFPreferencesDlg::`RTTI Complete Object Locator'
	DD	00H
	DD	00H
	DD	FLAT:??_R0?AVCRTFPreferencesDlg@@@8
	DD	FLAT:??_R3CRTFPreferencesDlg@@8
rdata$r	ENDS
;	COMDAT ??_7CRTFPreferencesDlg@@6B@
CONST	SEGMENT
??_7CRTFPreferencesDlg@@6B@ DD FLAT:??_R4CRTFPreferencesDlg@@6B@ ; CRTFPreferencesDlg::`vftable'
	DD	FLAT:?GetRuntimeClass@CDialog@@UBEPAUCRuntimeClass@@XZ
	DD	FLAT:??_ECRTFPreferencesDlg@@UAEPAXI@Z
	DD	FLAT:?Serialize@CObject@@UAEXAAVCArchive@@@Z
	DD	FLAT:?AssertValid@CDialog@@UBEXXZ
	DD	FLAT:?Dump@CDialog@@UBEXAAVCDumpContext@@@Z
	DD	FLAT:?OnCmdMsg@CDialog@@UAEHIHPAXPAUAFX_CMDHANDLERINFO@@@Z
	DD	FLAT:?OnFinalRelease@CWnd@@UAEXXZ
	DD	FLAT:?IsInvokeAllowed@CCmdTarget@@UAEHJ@Z
	DD	FLAT:?GetDispatchIID@CCmdTarget@@UAEHPAU_GUID@@@Z
	DD	FLAT:?GetTypeInfoCount@CCmdTarget@@UAEIXZ
	DD	FLAT:?GetTypeLibCache@CCmdTarget@@UAEPAVCTypeLibCache@@XZ
	DD	FLAT:?GetTypeLib@CCmdTarget@@UAEJKPAPAUITypeLib@@@Z
	DD	FLAT:?GetMessageMap@CRTFPreferencesDlg@@MBEPBUAFX_MSGMAP@@XZ
	DD	FLAT:?GetCommandMap@CCmdTarget@@MBEPBUAFX_OLECMDMAP@@XZ
	DD	FLAT:?GetDispatchMap@CCmdTarget@@MBEPBUAFX_DISPMAP@@XZ
	DD	FLAT:?GetConnectionMap@CCmdTarget@@MBEPBUAFX_CONNECTIONMAP@@XZ
	DD	FLAT:?GetInterfaceMap@CWnd@@MBEPBUAFX_INTERFACEMAP@@XZ
	DD	FLAT:?GetEventSinkMap@CCmdTarget@@MBEPBUAFX_EVENTSINKMAP@@XZ
	DD	FLAT:?OnCreateAggregates@CCmdTarget@@UAEHXZ
	DD	FLAT:?GetInterfaceHook@CCmdTarget@@UAEPAUIUnknown@@PBX@Z
	DD	FLAT:?GetExtraConnectionPoints@CCmdTarget@@MAEHPAVCPtrArray@@@Z
	DD	FLAT:?GetConnectionHook@CCmdTarget@@MAEPAUIConnectionPoint@@ABU_GUID@@@Z
	DD	FLAT:?PreSubclassWindow@CWnd@@UAEXXZ
	DD	FLAT:?Create@CWnd@@UAEHPB_W0KABUtagRECT@@PAV1@IPAUCCreateContext@@@Z
	DD	FLAT:?CreateEx@CWnd@@UAEHKPB_W0KABUtagRECT@@PAV1@IPAX@Z
	DD	FLAT:?CreateEx@CWnd@@UAEHKPB_W0KHHHHPAUHWND__@@PAUHMENU__@@PAX@Z
	DD	FLAT:?DestroyWindow@CWnd@@UAEHXZ
	DD	FLAT:?PreCreateWindow@CWnd@@UAEHAAUtagCREATESTRUCTW@@@Z
	DD	FLAT:?CalcWindowRect@CWnd@@UAEXPAUtagRECT@@I@Z
	DD	FLAT:?GetMenu@CWnd@@UBEPAVCMenu@@XZ
	DD	FLAT:?SetMenu@CWnd@@UAEHPAVCMenu@@@Z
	DD	FLAT:?OnToolHitTest@CWnd@@UBEHVCPoint@@PAUtagTOOLINFOW@@@Z
	DD	FLAT:?GetScrollBarCtrl@CWnd@@UBEPAVCScrollBar@@H@Z
	DD	FLAT:?WinHelpW@CWnd@@UAEXKI@Z
	DD	FLAT:?HtmlHelpW@CWnd@@UAEXKI@Z
	DD	FLAT:?WinHelpInternal@CWnd@@UAEXKI@Z
	DD	FLAT:?ContinueModal@CWnd@@UAEHXZ
	DD	FLAT:?EndModalLoop@CWnd@@UAEXH@Z
	DD	FLAT:?OnDrawIconicThumbnailOrLivePreview@CWnd@@UAEXAAVCDC@@VCRect@@VCSize@@HAAH@Z
	DD	FLAT:?EnsureStdObj@CWnd@@UAEJXZ
	DD	FLAT:?get_accParent@CWnd@@UAEJPAPAUIDispatch@@@Z
	DD	FLAT:?get_accChildCount@CWnd@@UAEJPAJ@Z
	DD	FLAT:?get_accChild@CWnd@@UAEJUtagVARIANT@@PAPAUIDispatch@@@Z
	DD	FLAT:?get_accName@CWnd@@UAEJUtagVARIANT@@PAPA_W@Z
	DD	FLAT:?get_accValue@CWnd@@UAEJUtagVARIANT@@PAPA_W@Z
	DD	FLAT:?get_accDescription@CWnd@@UAEJUtagVARIANT@@PAPA_W@Z
	DD	FLAT:?get_accRole@CWnd@@UAEJUtagVARIANT@@PAU2@@Z
	DD	FLAT:?get_accState@CWnd@@UAEJUtagVARIANT@@PAU2@@Z
	DD	FLAT:?get_accHelp@CWnd@@UAEJUtagVARIANT@@PAPA_W@Z
	DD	FLAT:?get_accHelpTopic@CWnd@@UAEJPAPA_WUtagVARIANT@@PAJ@Z
	DD	FLAT:?get_accKeyboardShortcut@CWnd@@UAEJUtagVARIANT@@PAPA_W@Z
	DD	FLAT:?get_accFocus@CWnd@@UAEJPAUtagVARIANT@@@Z
	DD	FLAT:?get_accSelection@CWnd@@UAEJPAUtagVARIANT@@@Z
	DD	FLAT:?get_accDefaultAction@CWnd@@UAEJUtagVARIANT@@PAPA_W@Z
	DD	FLAT:?accSelect@CWnd@@UAEJJUtagVARIANT@@@Z
	DD	FLAT:?accLocation@CWnd@@UAEJPAJ000UtagVARIANT@@@Z
	DD	FLAT:?accNavigate@CWnd@@UAEJJUtagVARIANT@@PAU2@@Z
	DD	FLAT:?accHitTest@CWnd@@UAEJJJPAUtagVARIANT@@@Z
	DD	FLAT:?accDoDefaultAction@CWnd@@UAEJUtagVARIANT@@@Z
	DD	FLAT:?put_accName@CWnd@@UAEJUtagVARIANT@@PA_W@Z
	DD	FLAT:?put_accValue@CWnd@@UAEJUtagVARIANT@@PA_W@Z
	DD	FLAT:?SetProxy@CWnd@@UAEJPAUIAccessibleProxy@@@Z
	DD	FLAT:?CreateAccessibleProxy@CWnd@@UAEJIJPAJ@Z
	DD	FLAT:?OnCommand@CWnd@@MAEHIJ@Z
	DD	FLAT:?OnNotify@CWnd@@MAEHIJPAJ@Z
	DD	FLAT:?GetSuperWndProcAddr@CWnd@@MAEPAP6GJPAUHWND__@@IIJ@ZXZ
	DD	FLAT:?DoDataExchange@CRTFPreferencesDlg@@MAEXPAVCDataExchange@@@Z
	DD	FLAT:?BeginModalState@CWnd@@UAEXXZ
	DD	FLAT:?EndModalState@CWnd@@UAEXXZ
	DD	FLAT:?PreTranslateMessage@CDialog@@UAEHPAUtagMSG@@@Z
	DD	FLAT:?OnAmbientProperty@CWnd@@UAEHPAVCOleControlSite@@JPAUtagVARIANT@@@Z
	DD	FLAT:?WindowProc@CWnd@@MAEJIIJ@Z
	DD	FLAT:?OnWndMsg@CWnd@@MAEHIIJPAJ@Z
	DD	FLAT:?DefWindowProcW@CWnd@@MAEJIIJ@Z
	DD	FLAT:?PostNcDestroy@CWnd@@MAEXXZ
	DD	FLAT:?OnChildNotify@CWnd@@MAEHIIJPAJ@Z
	DD	FLAT:?OnTouchInputs@CWnd@@MAEHIPAUtagTOUCHINPUT@@@Z
	DD	FLAT:?OnTouchInput@CWnd@@MAEHVCPoint@@HHPAUtagTOUCHINPUT@@@Z
	DD	FLAT:?GetGestureStatus@CWnd@@MAEKVCPoint@@@Z
	DD	FLAT:?OnGestureZoom@CWnd@@MAEHVCPoint@@J@Z
	DD	FLAT:?OnGesturePan@CWnd@@MAEHVCPoint@@0@Z
	DD	FLAT:?OnGestureRotate@CWnd@@MAEHVCPoint@@N@Z
	DD	FLAT:?OnGestureTwoFingerTap@CWnd@@MAEHVCPoint@@@Z
	DD	FLAT:?OnGesturePressAndTap@CWnd@@MAEHVCPoint@@J@Z
	DD	FLAT:?CheckAutoCenter@CDialog@@UAEHXZ
	DD	FLAT:?IsFrameWnd@CWnd@@UBEHXZ
	DD	FLAT:?CreateControlContainer@CWnd@@MAEHPAPAVCOleControlContainer@@@Z
	DD	FLAT:?CreateControlSite@CWnd@@MAEHPAVCOleControlContainer@@PAPAVCOleControlSite@@IABU_GUID@@@Z
	DD	FLAT:?SetOccDialogInfo@CDialog@@MAEHPAU_AFX_OCC_DIALOG_INFO@@@Z
	DD	FLAT:?GetOccDialogInfo@CDialog@@MAEPAU_AFX_OCC_DIALOG_INFO@@XZ
	DD	FLAT:?Create@CDialog@@UAEHIPAVCWnd@@@Z
	DD	FLAT:?Create@CDialog@@UAEHPB_WPAVCWnd@@@Z
	DD	FLAT:?CreateIndirect@CDialog@@UAEHPAXPAVCWnd@@@Z
	DD	FLAT:?CreateIndirect@CDialog@@UAEHPBUDLGTEMPLATE@@PAVCWnd@@PAX@Z
	DD	FLAT:?DoModal@CDialog@@UAEHXZ
	DD	FLAT:?OnInitDialog@CRTFPreferencesDlg@@MAEHXZ
	DD	FLAT:?OnSetFont@CDialog@@UAEXPAVCFont@@@Z
	DD	FLAT:?OnOK@CRTFPreferencesDlg@@MAEXXZ
	DD	FLAT:?OnCancel@CDialog@@MAEXXZ
	DD	FLAT:?PreInitDialog@CDialog@@MAEXXZ
CONST	ENDS
;	COMDAT xdata$x
xdata$x	SEGMENT
__unwindtable$??0CRTFPreferencesDlg@@QAE@PAVCWnd@@@Z DD 0ffffffffH
	DD	FLAT:__unwindfunclet$??0CRTFPreferencesDlg@@QAE@PAVCWnd@@@Z$0
	DD	00H
	DD	FLAT:__unwindfunclet$??0CRTFPreferencesDlg@@QAE@PAVCWnd@@@Z$1
	DD	01H
	DD	FLAT:__unwindfunclet$??0CRTFPreferencesDlg@@QAE@PAVCWnd@@@Z$2
__ehfuncinfo$??0CRTFPreferencesDlg@@QAE@PAVCWnd@@@Z DD 019930522H
	DD	03H
	DD	FLAT:__unwindtable$??0CRTFPreferencesDlg@@QAE@PAVCWnd@@@Z
	DD	2 DUP(00H)
	DD	2 DUP(00H)
	DD	00H
	DD	01H
; Function compile flags: /Odtp /RTCsu
xdata$x	ENDS
;	COMDAT ??0CRTFPreferencesDlg@@QAE@PAVCWnd@@@Z
_TEXT	SEGMENT
_this$ = -16						; size = 4
__$EHRec$ = -12						; size = 12
_pParent$ = 8						; size = 4
??0CRTFPreferencesDlg@@QAE@PAVCWnd@@@Z PROC		; CRTFPreferencesDlg::CRTFPreferencesDlg, COMDAT
; _this$ = ecx

; 140  : {

	push	ebp
	mov	ebp, esp
	push	-1
	push	__ehhandler$??0CRTFPreferencesDlg@@QAE@PAVCWnd@@@Z
	mov	eax, DWORD PTR fs:0
	push	eax
	push	ecx
	mov	DWORD PTR [ebp-16], -858993460		; ccccccccH
	mov	eax, DWORD PTR ___security_cookie
	xor	eax, ebp
	push	eax
	lea	eax, DWORD PTR __$EHRec$[ebp]
	mov	DWORD PTR fs:0, eax
	mov	DWORD PTR _this$[ebp], ecx
	mov	eax, DWORD PTR _pParent$[ebp]
	push	eax
	push	16009					; 00003e89H
	mov	ecx, DWORD PTR _this$[ebp]
	call	??0CDialog@@QAE@IPAVCWnd@@@Z		; CDialog::CDialog
	mov	DWORD PTR __$EHRec$[ebp+8], 0
	mov	ecx, DWORD PTR _this$[ebp]
	mov	DWORD PTR [ecx], OFFSET ??_7CRTFPreferencesDlg@@6B@
	mov	ecx, DWORD PTR _this$[ebp]
	add	ecx, 148				; 00000094H
	call	??0CRTFPreferencesPage@@QAE@XZ		; CRTFPreferencesPage::CRTFPreferencesPage
	mov	BYTE PTR __$EHRec$[ebp+8], 1
	mov	ecx, DWORD PTR _this$[ebp]
	add	ecx, 360				; 00000168H
	call	??0CScrollingPropertyPageHost@@QAE@XZ	; CScrollingPropertyPageHost::CScrollingPropertyPageHost
	mov	BYTE PTR __$EHRec$[ebp+8], 2

; 141  : 	//{{AFX_DATA_INIT(CRTFPreferencesDlg)
; 142  : 	//}}AFX_DATA_INIT
; 143  : 
; 144  : 	m_ppHost.AddPage(&m_page);

	push	0
	push	0
	mov	edx, DWORD PTR _this$[ebp]
	add	edx, 148				; 00000094H
	push	edx
	mov	ecx, DWORD PTR _this$[ebp]
	add	ecx, 360				; 00000168H
	call	?AddPage@CPropertyPageHost@@QAEHPAVCPropertyPage@@PB_WK@Z ; CPropertyPageHost::AddPage

; 145  : }

	mov	DWORD PTR __$EHRec$[ebp+8], -1
	mov	eax, DWORD PTR _this$[ebp]
	mov	ecx, DWORD PTR __$EHRec$[ebp]
	mov	DWORD PTR fs:0, ecx
	pop	ecx
	add	esp, 16					; 00000010H
	cmp	ebp, esp
	call	__RTC_CheckEsp
	mov	esp, ebp
	pop	ebp
	ret	4
_TEXT	ENDS
;	COMDAT text$x
text$x	SEGMENT
__unwindfunclet$??0CRTFPreferencesDlg@@QAE@PAVCWnd@@@Z$0:
	mov	ecx, DWORD PTR _this$[ebp]
	jmp	??1CDialog@@UAE@XZ			; CDialog::~CDialog
__unwindfunclet$??0CRTFPreferencesDlg@@QAE@PAVCWnd@@@Z$1:
	mov	ecx, DWORD PTR _this$[ebp]
	add	ecx, 148				; 00000094H
	jmp	??1CRTFPreferencesPage@@UAE@XZ
__unwindfunclet$??0CRTFPreferencesDlg@@QAE@PAVCWnd@@@Z$2:
	mov	ecx, DWORD PTR _this$[ebp]
	add	ecx, 360				; 00000168H
	jmp	??1CScrollingPropertyPageHost@@UAE@XZ	; CScrollingPropertyPageHost::~CScrollingPropertyPageHost
__ehhandler$??0CRTFPreferencesDlg@@QAE@PAVCWnd@@@Z:
	mov	edx, DWORD PTR [esp+8]
	lea	eax, DWORD PTR [edx+12]
	mov	ecx, DWORD PTR [edx-8]
	xor	ecx, eax
	call	@__security_check_cookie@4
	mov	eax, OFFSET __ehfuncinfo$??0CRTFPreferencesDlg@@QAE@PAVCWnd@@@Z
	jmp	___CxxFrameHandler3
text$x	ENDS
??0CRTFPreferencesDlg@@QAE@PAVCWnd@@@Z ENDP		; CRTFPreferencesDlg::CRTFPreferencesDlg
PUBLIC	??1CRTFPreferencesDlg@@UAE@XZ			; CRTFPreferencesDlg::~CRTFPreferencesDlg
; Function compile flags: /Odtp /RTCsu
;	COMDAT ??_GCRTFPreferencesDlg@@UAEPAXI@Z
_TEXT	SEGMENT
_this$ = -4						; size = 4
___flags$ = 8						; size = 4
??_GCRTFPreferencesDlg@@UAEPAXI@Z PROC			; CRTFPreferencesDlg::`scalar deleting destructor', COMDAT
; _this$ = ecx
	push	ebp
	mov	ebp, esp
	push	ecx
	mov	DWORD PTR [ebp-4], -858993460		; ccccccccH
	mov	DWORD PTR _this$[ebp], ecx
	mov	ecx, DWORD PTR _this$[ebp]
	call	??1CRTFPreferencesDlg@@UAE@XZ
	mov	eax, DWORD PTR ___flags$[ebp]
	and	eax, 1
	je	SHORT $LN1@scalar@2
	mov	ecx, DWORD PTR _this$[ebp]
	push	ecx
	call	??3CObject@@SGXPAX@Z			; CObject::operator delete
$LN1@scalar@2:
	mov	eax, DWORD PTR _this$[ebp]
	add	esp, 4
	cmp	ebp, esp
	call	__RTC_CheckEsp
	mov	esp, ebp
	pop	ebp
	ret	4
??_GCRTFPreferencesDlg@@UAEPAXI@Z ENDP			; CRTFPreferencesDlg::`scalar deleting destructor'
_TEXT	ENDS
;	COMDAT xdata$x
xdata$x	SEGMENT
__unwindtable$??1CRTFPreferencesDlg@@UAE@XZ DD 0ffffffffH
	DD	FLAT:__unwindfunclet$??1CRTFPreferencesDlg@@UAE@XZ$0
	DD	00H
	DD	FLAT:__unwindfunclet$??1CRTFPreferencesDlg@@UAE@XZ$1
__ehfuncinfo$??1CRTFPreferencesDlg@@UAE@XZ DD 019930522H
	DD	02H
	DD	FLAT:__unwindtable$??1CRTFPreferencesDlg@@UAE@XZ
	DD	2 DUP(00H)
	DD	2 DUP(00H)
	DD	00H
	DD	01H
; Function compile flags: /Odtp /RTCsu
xdata$x	ENDS
;	COMDAT ??1CRTFPreferencesDlg@@UAE@XZ
_TEXT	SEGMENT
_this$ = -16						; size = 4
__$EHRec$ = -12						; size = 12
??1CRTFPreferencesDlg@@UAE@XZ PROC			; CRTFPreferencesDlg::~CRTFPreferencesDlg, COMDAT
; _this$ = ecx
	push	ebp
	mov	ebp, esp
	push	-1
	push	__ehhandler$??1CRTFPreferencesDlg@@UAE@XZ
	mov	eax, DWORD PTR fs:0
	push	eax
	push	ecx
	mov	DWORD PTR [ebp-16], -858993460		; ccccccccH
	mov	eax, DWORD PTR ___security_cookie
	xor	eax, ebp
	push	eax
	lea	eax, DWORD PTR __$EHRec$[ebp]
	mov	DWORD PTR fs:0, eax
	mov	DWORD PTR _this$[ebp], ecx
	mov	DWORD PTR __$EHRec$[ebp+8], 1
	mov	ecx, DWORD PTR _this$[ebp]
	add	ecx, 360				; 00000168H
	call	??1CScrollingPropertyPageHost@@UAE@XZ	; CScrollingPropertyPageHost::~CScrollingPropertyPageHost
	mov	BYTE PTR __$EHRec$[ebp+8], 0
	mov	ecx, DWORD PTR _this$[ebp]
	add	ecx, 148				; 00000094H
	call	??1CRTFPreferencesPage@@UAE@XZ
	mov	DWORD PTR __$EHRec$[ebp+8], -1
	mov	ecx, DWORD PTR _this$[ebp]
	call	??1CDialog@@UAE@XZ			; CDialog::~CDialog
	mov	ecx, DWORD PTR __$EHRec$[ebp]
	mov	DWORD PTR fs:0, ecx
	pop	ecx
	add	esp, 16					; 00000010H
	cmp	ebp, esp
	call	__RTC_CheckEsp
	mov	esp, ebp
	pop	ebp
	ret	0
_TEXT	ENDS
;	COMDAT text$x
text$x	SEGMENT
__unwindfunclet$??1CRTFPreferencesDlg@@UAE@XZ$0:
	mov	ecx, DWORD PTR _this$[ebp]
	jmp	??1CDialog@@UAE@XZ			; CDialog::~CDialog
__unwindfunclet$??1CRTFPreferencesDlg@@UAE@XZ$1:
	mov	ecx, DWORD PTR _this$[ebp]
	add	ecx, 148				; 00000094H
	jmp	??1CRTFPreferencesPage@@UAE@XZ
__ehhandler$??1CRTFPreferencesDlg@@UAE@XZ:
	mov	edx, DWORD PTR [esp+8]
	lea	eax, DWORD PTR [edx+12]
	mov	ecx, DWORD PTR [edx-8]
	xor	ecx, eax
	call	@__security_check_cookie@4
	mov	eax, OFFSET __ehfuncinfo$??1CRTFPreferencesDlg@@UAE@XZ
	jmp	___CxxFrameHandler3
text$x	ENDS
??1CRTFPreferencesDlg@@UAE@XZ ENDP			; CRTFPreferencesDlg::~CRTFPreferencesDlg
; Function compile flags: /Odtp /RTCsu
;	COMDAT ?DoDataExchange@CRTFPreferencesDlg@@MAEXPAVCDataExchange@@@Z
_TEXT	SEGMENT
_this$ = -4						; size = 4
_pDX$ = 8						; size = 4
?DoDataExchange@CRTFPreferencesDlg@@MAEXPAVCDataExchange@@@Z PROC ; CRTFPreferencesDlg::DoDataExchange, COMDAT
; _this$ = ecx

; 149  : {

	push	ebp
	mov	ebp, esp
	push	ecx
	mov	DWORD PTR [ebp-4], -858993460		; ccccccccH
	mov	DWORD PTR _this$[ebp], ecx

; 150  : 	CDialog::DoDataExchange(pDX);

	mov	eax, DWORD PTR _pDX$[ebp]
	push	eax
	mov	ecx, DWORD PTR _this$[ebp]
	call	?DoDataExchange@CWnd@@MAEXPAVCDataExchange@@@Z ; CWnd::DoDataExchange

; 151  : 	//{{AFX_DATA_MAP(CRTFPreferencesDlg)
; 152  : 	//}}AFX_DATA_MAP
; 153  : }

	add	esp, 4
	cmp	ebp, esp
	call	__RTC_CheckEsp
	mov	esp, ebp
	pop	ebp
	ret	4
?DoDataExchange@CRTFPreferencesDlg@@MAEXPAVCDataExchange@@@Z ENDP ; CRTFPreferencesDlg::DoDataExchange
_TEXT	ENDS
PUBLIC	?GetThisMessageMap@CRTFPreferencesDlg@@KGPBUAFX_MSGMAP@@XZ ; CRTFPreferencesDlg::GetThisMessageMap
; Function compile flags: /Odtp /RTCsu
;	COMDAT ?GetMessageMap@CRTFPreferencesDlg@@MBEPBUAFX_MSGMAP@@XZ
_TEXT	SEGMENT
_this$ = -4						; size = 4
?GetMessageMap@CRTFPreferencesDlg@@MBEPBUAFX_MSGMAP@@XZ PROC ; CRTFPreferencesDlg::GetMessageMap, COMDAT
; _this$ = ecx

; 156  : BEGIN_MESSAGE_MAP(CRTFPreferencesDlg, CDialog)

	push	ebp
	mov	ebp, esp
	push	ecx
	mov	DWORD PTR [ebp-4], -858993460		; ccccccccH
	mov	DWORD PTR _this$[ebp], ecx
	call	?GetThisMessageMap@CRTFPreferencesDlg@@KGPBUAFX_MSGMAP@@XZ ; CRTFPreferencesDlg::GetThisMessageMap
	add	esp, 4
	cmp	ebp, esp
	call	__RTC_CheckEsp
	mov	esp, ebp
	pop	ebp
	ret	0
?GetMessageMap@CRTFPreferencesDlg@@MBEPBUAFX_MSGMAP@@XZ ENDP ; CRTFPreferencesDlg::GetMessageMap
_TEXT	ENDS
PUBLIC	?OnDestroy@CRTFPreferencesDlg@@IAEXXZ		; CRTFPreferencesDlg::OnDestroy
EXTRN	?GetThisMessageMap@CDialog@@KGPBUAFX_MSGMAP@@XZ:PROC ; CDialog::GetThisMessageMap
;	COMDAT ?_messageEntries@?1??GetThisMessageMap@CRTFPreferencesDlg@@KGPBUAFX_MSGMAP@@XZ@4QBUAFX_MSGMAP_ENTRY@@B
CONST	SEGMENT
?_messageEntries@?1??GetThisMessageMap@CRTFPreferencesDlg@@KGPBUAFX_MSGMAP@@XZ@4QBUAFX_MSGMAP_ENTRY@@B DD 02H ; `CRTFPreferencesDlg::GetThisMessageMap'::`2'::_messageEntries
	DD	00H
	DD	00H
	DD	00H
	DD	013H
	DD	FLAT:?OnDestroy@CRTFPreferencesDlg@@IAEXXZ
	DD	00H
	DD	00H
	DD	00H
	DD	00H
	DD	00H
	DD	00H
CONST	ENDS
;	COMDAT ?messageMap@?1??GetThisMessageMap@CRTFPreferencesDlg@@KGPBUAFX_MSGMAP@@XZ@4U3@B
CONST	SEGMENT
?messageMap@?1??GetThisMessageMap@CRTFPreferencesDlg@@KGPBUAFX_MSGMAP@@XZ@4U3@B DD FLAT:?GetThisMessageMap@CDialog@@KGPBUAFX_MSGMAP@@XZ ; `CRTFPreferencesDlg::GetThisMessageMap'::`2'::messageMap
	DD	FLAT:?_messageEntries@?1??GetThisMessageMap@CRTFPreferencesDlg@@KGPBUAFX_MSGMAP@@XZ@4QBUAFX_MSGMAP_ENTRY@@B
; Function compile flags: /Odtp /RTCsu
CONST	ENDS
;	COMDAT ?GetThisMessageMap@CRTFPreferencesDlg@@KGPBUAFX_MSGMAP@@XZ
_TEXT	SEGMENT
?GetThisMessageMap@CRTFPreferencesDlg@@KGPBUAFX_MSGMAP@@XZ PROC ; CRTFPreferencesDlg::GetThisMessageMap, COMDAT

; 156  : BEGIN_MESSAGE_MAP(CRTFPreferencesDlg, CDialog)

	push	ebp
	mov	ebp, esp

; 157  : 	//{{AFX_MSG_MAP(CRTFPreferencesDlg)
; 158  : 	//}}AFX_MSG_MAP
; 159  : 	ON_WM_DESTROY()
; 160  : END_MESSAGE_MAP()

	mov	eax, OFFSET ?messageMap@?1??GetThisMessageMap@CRTFPreferencesDlg@@KGPBUAFX_MSGMAP@@XZ@4U3@B
	pop	ebp
	ret	0
?GetThisMessageMap@CRTFPreferencesDlg@@KGPBUAFX_MSGMAP@@XZ ENDP ; CRTFPreferencesDlg::GetThisMessageMap
_TEXT	ENDS
PUBLIC	__$ArrayPad$
EXTRN	?SendMessageW@CWnd@@QBEJIIJ@Z:PROC		; CWnd::SendMessageW
EXTRN	?LoadIconW@CWinApp@@QBEPAUHICON__@@I@Z:PROC	; CWinApp::LoadIconW
EXTRN	?AfxGetApp@@YGPAVCWinApp@@XZ:PROC		; AfxGetApp
EXTRN	?MoveWindow@CWnd@@QAEXPBUtagRECT@@H@Z:PROC	; CWnd::MoveWindow
EXTRN	?DeflateRect@CRect@@QAEXHH@Z:PROC		; CRect::DeflateRect
EXTRN	?ScreenToClient@CWnd@@QBEXPAUtagRECT@@@Z:PROC	; CWnd::ScreenToClient
EXTRN	?GetWindowRect@CWnd@@QBEXPAUtagRECT@@@Z:PROC	; CWnd::GetWindowRect
EXTRN	?AfxAssertFailedLine@@YGHPBDH@Z:PROC		; AfxAssertFailedLine
EXTRN	?Create@CPropertyPageHost@@QAEHIPAVCWnd@@I@Z:PROC ; CPropertyPageHost::Create
; Function compile flags: /Odtp /RTCsu
;	COMDAT ?OnInitDialog@CRTFPreferencesDlg@@MAEHXZ
_TEXT	SEGMENT
_rHost$ = -28						; size = 16
_this$ = -8						; size = 4
__$ArrayPad$ = -4					; size = 4
?OnInitDialog@CRTFPreferencesDlg@@MAEHXZ PROC		; CRTFPreferencesDlg::OnInitDialog, COMDAT
; _this$ = ecx

; 166  : {

	push	ebp
	mov	ebp, esp
	sub	esp, 32					; 00000020H
	mov	eax, -858993460				; ccccccccH
	mov	DWORD PTR [ebp-32], eax
	mov	DWORD PTR [ebp-28], eax
	mov	DWORD PTR [ebp-24], eax
	mov	DWORD PTR [ebp-20], eax
	mov	DWORD PTR [ebp-16], eax
	mov	DWORD PTR [ebp-12], eax
	mov	DWORD PTR [ebp-8], eax
	mov	DWORD PTR [ebp-4], eax
	mov	eax, DWORD PTR ___security_cookie
	xor	eax, ebp
	mov	DWORD PTR __$ArrayPad$[ebp], eax
	mov	DWORD PTR _this$[ebp], ecx

; 167  : 	CDialog::OnInitDialog();

	mov	ecx, DWORD PTR _this$[ebp]
	call	?OnInitDialog@CDialog@@UAEHXZ		; CDialog::OnInitDialog

; 168  : 
; 169  : 	VERIFY(m_ppHost.Create(IDC_PPHOST, this));

	push	59648					; 0000e900H
	mov	eax, DWORD PTR _this$[ebp]
	push	eax
	push	16016					; 00003e90H
	mov	ecx, DWORD PTR _this$[ebp]
	add	ecx, 360				; 00000168H
	call	?Create@CPropertyPageHost@@QAEHIPAVCWnd@@I@Z ; CPropertyPageHost::Create
	test	eax, eax
	jne	SHORT $LN3@OnInitDial@2
	push	169					; 000000a9H
	push	OFFSET _THIS_FILE
	call	?AfxAssertFailedLine@@YGHPBDH@Z		; AfxAssertFailedLine
	test	eax, eax
	je	SHORT $LN3@OnInitDial@2
	int	3
$LN3@OnInitDial@2:

; 170  : 	
; 171  : 	// shrink the ppHost by 1 pixel to allow the border to show
; 172  : 	CRect rHost;

	lea	ecx, DWORD PTR _rHost$[ebp]
	call	??0CRect@@QAE@XZ			; CRect::CRect

; 173  : 	m_ppHost.GetWindowRect(rHost);

	lea	ecx, DWORD PTR _rHost$[ebp]
	call	??BCRect@@QAEPAUtagRECT@@XZ		; CRect::operator tagRECT *
	push	eax
	mov	ecx, DWORD PTR _this$[ebp]
	add	ecx, 360				; 00000168H
	call	?GetWindowRect@CWnd@@QBEXPAUtagRECT@@@Z	; CWnd::GetWindowRect

; 174  : 	ScreenToClient(rHost);

	lea	ecx, DWORD PTR _rHost$[ebp]
	call	??BCRect@@QAEPAUtagRECT@@XZ		; CRect::operator tagRECT *
	push	eax
	mov	ecx, DWORD PTR _this$[ebp]
	call	?ScreenToClient@CWnd@@QBEXPAUtagRECT@@@Z ; CWnd::ScreenToClient

; 175  : 	
; 176  : 	rHost.DeflateRect(1, 1);

	push	1
	push	1
	lea	ecx, DWORD PTR _rHost$[ebp]
	call	?DeflateRect@CRect@@QAEXHH@Z		; CRect::DeflateRect

; 177  : 	m_ppHost.MoveWindow(rHost, FALSE);

	push	0
	lea	ecx, DWORD PTR _rHost$[ebp]
	call	??BCRect@@QAEPAUtagRECT@@XZ		; CRect::operator tagRECT *
	push	eax
	mov	ecx, DWORD PTR _this$[ebp]
	add	ecx, 360				; 00000168H
	call	?MoveWindow@CWnd@@QAEXPBUtagRECT@@H@Z	; CWnd::MoveWindow

; 178  : 	
; 179  : 	// Replace icon
; 180  : 	m_hIcon = AfxGetApp()->LoadIcon(IDR_RTFCOMMENTS);

	push	1000					; 000003e8H
	call	?AfxGetApp@@YGPAVCWinApp@@XZ		; AfxGetApp
	mov	ecx, eax
	call	?LoadIconW@CWinApp@@QBEPAUHICON__@@I@Z	; CWinApp::LoadIconW
	mov	edx, DWORD PTR _this$[ebp]
	mov	DWORD PTR [edx+640], eax

; 181  : 	SendMessage(WM_SETICON, ICON_SMALL, (LPARAM)m_hIcon);

	mov	eax, DWORD PTR _this$[ebp]
	mov	ecx, DWORD PTR [eax+640]
	push	ecx
	push	0
	push	128					; 00000080H
	mov	ecx, DWORD PTR _this$[ebp]
	call	?SendMessageW@CWnd@@QBEJIIJ@Z		; CWnd::SendMessageW

; 182  : 	
; 183  : 	return TRUE;  // return TRUE unless you set the focus to a control

	mov	eax, 1

; 184  : 	// EXCEPTION: OCX Property Pages should return FALSE
; 185  : }

	push	edx
	mov	ecx, ebp
	push	eax
	lea	edx, DWORD PTR $LN6@OnInitDial@2
	call	@_RTC_CheckStackVars@8
	pop	eax
	pop	edx
	mov	ecx, DWORD PTR __$ArrayPad$[ebp]
	xor	ecx, ebp
	call	@__security_check_cookie@4
	add	esp, 32					; 00000020H
	cmp	ebp, esp
	call	__RTC_CheckEsp
	mov	esp, ebp
	pop	ebp
	ret	0
	npad	2
$LN6@OnInitDial@2:
	DD	1
	DD	$LN5@OnInitDial@2
$LN5@OnInitDial@2:
	DD	-28					; ffffffe4H
	DD	16					; 00000010H
	DD	$LN4@OnInitDial@2
$LN4@OnInitDial@2:
	DB	114					; 00000072H
	DB	72					; 00000048H
	DB	111					; 0000006fH
	DB	115					; 00000073H
	DB	116					; 00000074H
	DB	0
?OnInitDialog@CRTFPreferencesDlg@@MAEHXZ ENDP		; CRTFPreferencesDlg::OnInitDialog
_TEXT	ENDS
EXTRN	?OnOK@CPropertyPageHost@@QAEXXZ:PROC		; CPropertyPageHost::OnOK
EXTRN	?OnOK@CDialog@@MAEXXZ:PROC			; CDialog::OnOK
; Function compile flags: /Odtp /RTCsu
;	COMDAT ?OnOK@CRTFPreferencesDlg@@MAEXXZ
_TEXT	SEGMENT
_this$ = -4						; size = 4
?OnOK@CRTFPreferencesDlg@@MAEXXZ PROC			; CRTFPreferencesDlg::OnOK, COMDAT
; _this$ = ecx

; 188  : {

	push	ebp
	mov	ebp, esp
	push	ecx
	mov	DWORD PTR [ebp-4], -858993460		; ccccccccH
	mov	DWORD PTR _this$[ebp], ecx

; 189  : 	CDialog::OnOK();

	mov	ecx, DWORD PTR _this$[ebp]
	call	?OnOK@CDialog@@MAEXXZ			; CDialog::OnOK

; 190  : 	
; 191  : 	m_ppHost.OnOK();

	mov	ecx, DWORD PTR _this$[ebp]
	add	ecx, 360				; 00000168H
	call	?OnOK@CPropertyPageHost@@QAEXXZ		; CPropertyPageHost::OnOK

; 192  : }

	add	esp, 4
	cmp	ebp, esp
	call	__RTC_CheckEsp
	mov	esp, ebp
	pop	ebp
	ret	0
?OnOK@CRTFPreferencesDlg@@MAEXXZ ENDP			; CRTFPreferencesDlg::OnOK
_TEXT	ENDS
EXTRN	__imp__DestroyIcon@4:PROC
EXTRN	?OnDestroy@CWnd@@IAEXXZ:PROC			; CWnd::OnDestroy
; Function compile flags: /Odtp /RTCsu
;	COMDAT ?OnDestroy@CRTFPreferencesDlg@@IAEXXZ
_TEXT	SEGMENT
_this$ = -4						; size = 4
?OnDestroy@CRTFPreferencesDlg@@IAEXXZ PROC		; CRTFPreferencesDlg::OnDestroy, COMDAT
; _this$ = ecx

; 195  : {

	push	ebp
	mov	ebp, esp
	push	ecx
	push	esi
	mov	DWORD PTR [ebp-4], -858993460		; ccccccccH
	mov	DWORD PTR _this$[ebp], ecx

; 196  : 	CDialog::OnDestroy();

	mov	ecx, DWORD PTR _this$[ebp]
	call	?OnDestroy@CWnd@@IAEXXZ			; CWnd::OnDestroy

; 197  : 	
; 198  : 	::DestroyIcon(m_hIcon);

	mov	esi, esp
	mov	eax, DWORD PTR _this$[ebp]
	mov	ecx, DWORD PTR [eax+640]
	push	ecx
	call	DWORD PTR __imp__DestroyIcon@4
	cmp	esi, esp
	call	__RTC_CheckEsp

; 199  : }

	pop	esi
	add	esp, 4
	cmp	ebp, esp
	call	__RTC_CheckEsp
	mov	esp, ebp
	pop	ebp
	ret	0
?OnDestroy@CRTFPreferencesDlg@@IAEXXZ ENDP		; CRTFPreferencesDlg::OnDestroy
_TEXT	ENDS
PUBLIC	?SavePreferences@CRTFPreferencesDlg@@QBEXPAVIPreferences@@PB_W@Z ; CRTFPreferencesDlg::SavePreferences
; Function compile flags: /Odtp /RTCsu
;	COMDAT ?SavePreferences@CRTFPreferencesDlg@@QBEXPAVIPreferences@@PB_W@Z
_TEXT	SEGMENT
_this$ = -4						; size = 4
_pPrefs$ = 8						; size = 4
_szKey$ = 12						; size = 4
?SavePreferences@CRTFPreferencesDlg@@QBEXPAVIPreferences@@PB_W@Z PROC ; CRTFPreferencesDlg::SavePreferences, COMDAT
; _this$ = ecx

; 202  : {

	push	ebp
	mov	ebp, esp
	push	ecx
	mov	DWORD PTR [ebp-4], -858993460		; ccccccccH
	mov	DWORD PTR _this$[ebp], ecx

; 203  : 	m_page.SavePreferences(pPrefs, szKey);

	mov	eax, DWORD PTR _szKey$[ebp]
	push	eax
	mov	ecx, DWORD PTR _pPrefs$[ebp]
	push	ecx
	mov	ecx, DWORD PTR _this$[ebp]
	add	ecx, 148				; 00000094H
	call	?SavePreferences@CRTFPreferencesPage@@QBEXPAVIPreferences@@PB_W@Z ; CRTFPreferencesPage::SavePreferences

; 204  : }

	add	esp, 4
	cmp	ebp, esp
	call	__RTC_CheckEsp
	mov	esp, ebp
	pop	ebp
	ret	8
?SavePreferences@CRTFPreferencesDlg@@QBEXPAVIPreferences@@PB_W@Z ENDP ; CRTFPreferencesDlg::SavePreferences
_TEXT	ENDS
PUBLIC	?LoadPreferences@CRTFPreferencesDlg@@QAEXPBVIPreferences@@PB_W@Z ; CRTFPreferencesDlg::LoadPreferences
; Function compile flags: /Odtp /RTCsu
;	COMDAT ?LoadPreferences@CRTFPreferencesDlg@@QAEXPBVIPreferences@@PB_W@Z
_TEXT	SEGMENT
_this$ = -4						; size = 4
_pPrefs$ = 8						; size = 4
_szKey$ = 12						; size = 4
?LoadPreferences@CRTFPreferencesDlg@@QAEXPBVIPreferences@@PB_W@Z PROC ; CRTFPreferencesDlg::LoadPreferences, COMDAT
; _this$ = ecx

; 207  : {

	push	ebp
	mov	ebp, esp
	push	ecx
	mov	DWORD PTR [ebp-4], -858993460		; ccccccccH
	mov	DWORD PTR _this$[ebp], ecx

; 208  : 	m_page.LoadPreferences(pPrefs, szKey);

	mov	eax, DWORD PTR _szKey$[ebp]
	push	eax
	mov	ecx, DWORD PTR _pPrefs$[ebp]
	push	ecx
	mov	ecx, DWORD PTR _this$[ebp]
	add	ecx, 148				; 00000094H
	call	?LoadPreferences@CRTFPreferencesPage@@QAEXPBVIPreferences@@PB_W@Z ; CRTFPreferencesPage::LoadPreferences

; 209  : }

	add	esp, 4
	cmp	ebp, esp
	call	__RTC_CheckEsp
	mov	esp, ebp
	pop	ebp
	ret	8
?LoadPreferences@CRTFPreferencesDlg@@QAEXPBVIPreferences@@PB_W@Z ENDP ; CRTFPreferencesDlg::LoadPreferences
_TEXT	ENDS
PUBLIC	?SetConvertWithMSWord@CRTFPreferencesPage@@QAEXH@Z ; CRTFPreferencesPage::SetConvertWithMSWord
PUBLIC	?DoModal@CRTFPreferencesDlg@@QAEHH@Z		; CRTFPreferencesDlg::DoModal
; Function compile flags: /Odtp /RTCsu
;	COMDAT ?DoModal@CRTFPreferencesDlg@@QAEHH@Z
_TEXT	SEGMENT
_this$ = -4						; size = 4
_bUseMSWord$ = 8					; size = 4
?DoModal@CRTFPreferencesDlg@@QAEHH@Z PROC		; CRTFPreferencesDlg::DoModal, COMDAT
; _this$ = ecx

; 212  : {

	push	ebp
	mov	ebp, esp
	push	ecx
	mov	DWORD PTR [ebp-4], -858993460		; ccccccccH
	mov	DWORD PTR _this$[ebp], ecx

; 213  : 	m_page.SetConvertWithMSWord(bUseMSWord);

	mov	eax, DWORD PTR _bUseMSWord$[ebp]
	push	eax
	mov	ecx, DWORD PTR _this$[ebp]
	add	ecx, 148				; 00000094H
	call	?SetConvertWithMSWord@CRTFPreferencesPage@@QAEXH@Z ; CRTFPreferencesPage::SetConvertWithMSWord

; 214  : 
; 215  : 	return CDialog::DoModal();

	mov	ecx, DWORD PTR _this$[ebp]
	call	?DoModal@CDialog@@UAEHXZ		; CDialog::DoModal

; 216  : }

	add	esp, 4
	cmp	ebp, esp
	call	__RTC_CheckEsp
	mov	esp, ebp
	pop	ebp
	ret	4
?DoModal@CRTFPreferencesDlg@@QAEHH@Z ENDP		; CRTFPreferencesDlg::DoModal
; Function compile flags: /Odtp /RTCsu
; File d:\_code\rtfcontentctrl\rtfpreferencesdlg.h
_TEXT	ENDS
;	COMDAT ?SetConvertWithMSWord@CRTFPreferencesPage@@QAEXH@Z
_TEXT	SEGMENT
_this$ = -4						; size = 4
_bUseMSWord$ = 8					; size = 4
?SetConvertWithMSWord@CRTFPreferencesPage@@QAEXH@Z PROC	; CRTFPreferencesPage::SetConvertWithMSWord, COMDAT
; _this$ = ecx

; 29   : 	void SetConvertWithMSWord(BOOL bUseMSWord) { m_bConvertWithMSWord = bUseMSWord; }

	push	ebp
	mov	ebp, esp
	push	ecx
	mov	DWORD PTR [ebp-4], -858993460		; ccccccccH
	mov	DWORD PTR _this$[ebp], ecx
	mov	eax, DWORD PTR _this$[ebp]
	mov	ecx, DWORD PTR _bUseMSWord$[ebp]
	mov	DWORD PTR [eax+208], ecx
	mov	esp, ebp
	pop	ebp
	ret	4
?SetConvertWithMSWord@CRTFPreferencesPage@@QAEXH@Z ENDP	; CRTFPreferencesPage::SetConvertWithMSWord
_TEXT	ENDS
EXTRN	__imp__RegisterWindowMessageW@4:PROC
; Function compile flags: /Odtp /RTCsu
; File d:\_code\interfaces\icontentcontrol.h
;	COMDAT ??__EWM_ICC_WANTSPELLCHECK@@YAXXZ
text$yc	SEGMENT
??__EWM_ICC_WANTSPELLCHECK@@YAXXZ PROC			; `dynamic initializer for 'WM_ICC_WANTSPELLCHECK'', COMDAT

; 25   : const UINT WM_ICC_WANTSPELLCHECK 	= ::RegisterWindowMessageW(L"WM_ICC_WANTSPELLCHECK");

	push	ebp
	mov	ebp, esp
	push	esi
	mov	esi, esp
	push	OFFSET $SG171208
	call	DWORD PTR __imp__RegisterWindowMessageW@4
	cmp	esi, esp
	call	__RTC_CheckEsp
	mov	DWORD PTR _WM_ICC_WANTSPELLCHECK, eax
	pop	esi
	cmp	ebp, esp
	call	__RTC_CheckEsp
	pop	ebp
	ret	0
??__EWM_ICC_WANTSPELLCHECK@@YAXXZ ENDP			; `dynamic initializer for 'WM_ICC_WANTSPELLCHECK''
; Function compile flags: /Odtp /RTCsu
text$yc	ENDS
;	COMDAT ??__EWM_ICC_COMMENTSCHANGE@@YAXXZ
text$yc	SEGMENT
??__EWM_ICC_COMMENTSCHANGE@@YAXXZ PROC			; `dynamic initializer for 'WM_ICC_COMMENTSCHANGE'', COMDAT

; 26   : const UINT WM_ICC_COMMENTSCHANGE	= ::RegisterWindowMessageW(L"WM_ICC_COMMENTSCHANGE");

	push	ebp
	mov	ebp, esp
	push	esi
	mov	esi, esp
	push	OFFSET $SG171213
	call	DWORD PTR __imp__RegisterWindowMessageW@4
	cmp	esi, esp
	call	__RTC_CheckEsp
	mov	DWORD PTR _WM_ICC_COMMENTSCHANGE, eax
	pop	esi
	cmp	ebp, esp
	call	__RTC_CheckEsp
	pop	ebp
	ret	0
??__EWM_ICC_COMMENTSCHANGE@@YAXXZ ENDP			; `dynamic initializer for 'WM_ICC_COMMENTSCHANGE''
; Function compile flags: /Odtp /RTCsu
text$yc	ENDS
;	COMDAT ??__EWM_ICC_COMMENTSKILLFOCUS@@YAXXZ
text$yc	SEGMENT
??__EWM_ICC_COMMENTSKILLFOCUS@@YAXXZ PROC		; `dynamic initializer for 'WM_ICC_COMMENTSKILLFOCUS'', COMDAT

; 27   : const UINT WM_ICC_COMMENTSKILLFOCUS	= ::RegisterWindowMessageW(L"WM_ICC_COMMENTSKILLFOCUS");

	push	ebp
	mov	ebp, esp
	push	esi
	mov	esi, esp
	push	OFFSET $SG171218
	call	DWORD PTR __imp__RegisterWindowMessageW@4
	cmp	esi, esp
	call	__RTC_CheckEsp
	mov	DWORD PTR _WM_ICC_COMMENTSKILLFOCUS, eax
	pop	esi
	cmp	ebp, esp
	call	__RTC_CheckEsp
	pop	ebp
	ret	0
??__EWM_ICC_COMMENTSKILLFOCUS@@YAXXZ ENDP		; `dynamic initializer for 'WM_ICC_COMMENTSKILLFOCUS''
text$yc	ENDS
_BSS	SEGMENT
_WM_ICC_COMMENTSKILLFOCUS DD 01H DUP (?)
_WM_ICC_COMMENTSCHANGE DD 01H DUP (?)
_WM_ICC_WANTSPELLCHECK DD 01H DUP (?)
_BSS	ENDS
CRT$XCU	SEGMENT
_WM_ICC_WANTSPELLCHECK$initializer$ DD FLAT:??__EWM_ICC_WANTSPELLCHECK@@YAXXZ
_WM_ICC_COMMENTSCHANGE$initializer$ DD FLAT:??__EWM_ICC_COMMENTSCHANGE@@YAXXZ
_WM_ICC_COMMENTSKILLFOCUS$initializer$ DD FLAT:??__EWM_ICC_COMMENTSKILLFOCUS@@YAXXZ
CRT$XCU	ENDS
END
