; Listing generated by Microsoft (R) Optimizing Compiler Version 16.00.40219.01 

	TITLE	D:\_code\RTFContentCtrl\RulerRichEdit.cpp
	.686P
	.XMM
	include listing.inc
	.model	flat

INCLUDELIB MSVCRTD
INCLUDELIB OLDNAMES

_DATA	SEGMENT
_THIS_FILE DB	'RulerRichEdit.cpp', 00H
_DATA	ENDS
CONST	SEGMENT
$SG171746 DB	'W', 00H, 'M', 00H, '_', 00H, 'U', 00H, 'R', 00H, 'E', 00H
	DB	'N', 00H, '_', 00H, 'C', 00H, 'U', 00H, 'S', 00H, 'T', 00H, 'O'
	DB	00H, 'M', 00H, 'U', 00H, 'R', 00H, 'L', 00H, 00H, 00H
$SG171751 DB	'W', 00H, 'M', 00H, '_', 00H, 'U', 00H, 'R', 00H, 'E', 00H
	DB	'N', 00H, '_', 00H, 'F', 00H, 'A', 00H, 'I', 00H, 'L', 00H, 'E'
	DB	00H, 'D', 00H, 'U', 00H, 'R', 00H, 'L', 00H, 00H, 00H
$SG174177 DB	'H', 00H, 'T', 00H, 'M', 00H, 'L', 00H, ' ', 00H, 'F', 00H
	DB	'o', 00H, 'r', 00H, 'm', 00H, 'a', 00H, 't', 00H, 00H, 00H
$SG174182 DB	'm', 00H, 's', 00H, 'S', 00H, 'o', 00H, 'u', 00H, 'r', 00H
	DB	'c', 00H, 'e', 00H, 'U', 00H, 'r', 00H, 'l', 00H, 00H, 00H
$SG174187 DB	'R', 00H, 'i', 00H, 'c', 00H, 'h', 00H, ' ', 00H, 'T', 00H
	DB	'e', 00H, 'x', 00H, 't', 00H, ' ', 00H, 'F', 00H, 'o', 00H, 'r'
	DB	00H, 'm', 00H, 'a', 00H, 't', 00H, 00H, 00H
	ORG $+2
$SG174192 DB	'R', 00H, 'i', 00H, 'c', 00H, 'h', 00H, 'E', 00H, 'd', 00H
	DB	'i', 00H, 't', 00H, ' ', 00H, 'T', 00H, 'e', 00H, 'x', 00H, 't'
	DB	00H, ' ', 00H, 'a', 00H, 'n', 00H, 'd', 00H, ' ', 00H, 'O', 00H
	DB	'b', 00H, 'j', 00H, 'e', 00H, 'c', 00H, 't', 00H, 's', 00H, 00H
	DB	00H
$SG174197 DB	'E', 00H, 'm', 00H, 'b', 00H, 'e', 00H, 'd', 00H, 'd', 00H
	DB	'e', 00H, 'd', 00H, ' ', 00H, 'O', 00H, 'b', 00H, 'j', 00H, 'e'
	DB	00H, 'c', 00H, 't', 00H, 00H, 00H
$SG174202 DB	'F', 00H, 'i', 00H, 'l', 00H, 'e', 00H, 'N', 00H, 'a', 00H
	DB	'm', 00H, 'e', 00H, 'W', 00H, 00H, 00H
$SG174820 DB	' elements', 00H
	ORG $+2
$SG174784 DB	'c:\program files (x86)\microsoft visual studio 10.0\vc\a'
	DB	'tlmfc\include\afxtempl.h', 00H
	ORG $+3
$SG174819 DB	'with ', 00H
	ORG $+2
$SG174822 DB	0aH, 00H
	ORG $+2
$SG174800 DB	'c:\program files (x86)\microsoft visual studio 10.0\vc\a'
	DB	'tlmfc\include\afxtempl.h', 00H
	ORG $+3
$SG174830 DB	0aH, 00H
	ORG $+2
$SG174840 DB	'c:\program files (x86)\microsoft visual studio 10.0\vc\a'
	DB	'tlmfc\include\afxtempl.h', 00H
	ORG $+3
$SG174895 DB	'with ', 00H
	ORG $+2
$SG174896 DB	' elements', 00H
	ORG $+2
$SG174842 DB	'c:\program files (x86)\microsoft visual studio 10.0\vc\a'
	DB	'tlmfc\include\afxtempl.h', 00H
	ORG $+3
$SG174898 DB	0aH, 00H
	ORG $+2
$SG174845 DB	'c:\program files (x86)\microsoft visual studio 10.0\vc\a'
	DB	'tlmfc\include\afxtempl.h', 00H
	ORG $+3
$SG174906 DB	0aH, 00H
	ORG $+2
$SG174847 DB	'c:\program files (x86)\microsoft visual studio 10.0\vc\a'
	DB	'tlmfc\include\afxtempl.h', 00H
	ORG $+3
$SG175034 DB	'with ', 00H
	ORG $+2
$SG175035 DB	' elements', 00H
	ORG $+2
$SG174849 DB	'c:\program files (x86)\microsoft visual studio 10.0\vc\a'
	DB	'tlmfc\include\afxtempl.h', 00H
	ORG $+3
$SG175046 DB	0aH, 09H, '[', 00H
$SG174852 DB	'c:\program files (x86)\microsoft visual studio 10.0\vc\a'
	DB	'tlmfc\include\afxtempl.h', 00H
	ORG $+3
$SG175062 DB	0aH, 00H
	ORG $+2
$SG174860 DB	'c:\program files (x86)\microsoft visual studio 10.0\vc\a'
	DB	'tlmfc\include\afxtempl.h', 00H
	ORG $+7
$SG174876 DB	'c:\program files (x86)\microsoft visual studio 10.0\vc\a'
	DB	'tlmfc\include\afxtempl.h', 00H
	ORG $+7
$SG174916 DB	'c:\program files (x86)\microsoft visual studio 10.0\vc\a'
	DB	'tlmfc\include\afxtempl.h', 00H
	ORG $+7
$SG174918 DB	'c:\program files (x86)\microsoft visual studio 10.0\vc\a'
	DB	'tlmfc\include\afxtempl.h', 00H
	ORG $+7
$SG174921 DB	'c:\program files (x86)\microsoft visual studio 10.0\vc\a'
	DB	'tlmfc\include\afxtempl.h', 00H
	ORG $+7
$SG174923 DB	'c:\program files (x86)\microsoft visual studio 10.0\vc\a'
	DB	'tlmfc\include\afxtempl.h', 00H
	ORG $+7
$SG174925 DB	'c:\program files (x86)\microsoft visual studio 10.0\vc\a'
	DB	'tlmfc\include\afxtempl.h', 00H
	ORG $+7
$SG174928 DB	'c:\program files (x86)\microsoft visual studio 10.0\vc\a'
	DB	'tlmfc\include\afxtempl.h', 00H
	ORG $+7
$SG174941 DB	'c:\program files (x86)\microsoft visual studio 10.0\vc\a'
	DB	'tlmfc\include\afxtempl.h', 00H
	ORG $+7
$SG174954 DB	'c:\program files (x86)\microsoft visual studio 10.0\vc\a'
	DB	'tlmfc\include\afxtempl.h', 00H
	ORG $+7
$SG174958 DB	'c:\program files (x86)\microsoft visual studio 10.0\vc\a'
	DB	'tlmfc\include\afxtempl.h', 00H
	ORG $+3
$SG175054 DB	'] = ', 00H
	ORG $+7
$SG175075 DB	'c:\program files (x86)\microsoft visual studio 10.0\vc\a'
	DB	'tlmfc\include\afxtempl.h', 00H
	ORG $+7
$SG175077 DB	'c:\program files (x86)\microsoft visual studio 10.0\vc\a'
	DB	'tlmfc\include\afxtempl.h', 00H
	ORG $+7
$SG175111 DB	'c:\program files (x86)\microsoft visual studio 10.0\vc\a'
	DB	'tlmfc\include\afxtempl.h', 00H
	ORG $+7
$SG175113 DB	'c:\program files (x86)\microsoft visual studio 10.0\vc\a'
	DB	'tlmfc\include\afxtempl.h', 00H
	ORG $+7
$SG175128 DB	'c:\program files (x86)\microsoft visual studio 10.0\vc\a'
	DB	'tlmfc\include\afxtempl.h', 00H
	ORG $+7
$SG175135 DB	'c:\program files (x86)\microsoft visual studio 10.0\vc\a'
	DB	'tlmfc\include\afxtempl.h', 00H
	ORG $+7
$SG175171 DB	'c:\program files (x86)\microsoft visual studio 10.0\vc\a'
	DB	'tlmfc\include\afxtempl.h', 00H
	ORG $+7
$SG175175 DB	'c:\program files (x86)\microsoft visual studio 10.0\vc\a'
	DB	'tlmfc\include\afxtempl.h', 00H
	ORG $+7
$SG175187 DB	'c:\program files (x86)\microsoft visual studio 10.0\vc\a'
	DB	'tlmfc\include\afxtempl.h', 00H
	ORG $+7
$SG175206 DB	'c:\program files (x86)\microsoft visual studio 10.0\vc\a'
	DB	'tlmfc\include\afxtempl.h', 00H
	ORG $+7
$SG175211 DB	'c:\program files (x86)\microsoft visual studio 10.0\vc\a'
	DB	'tlmfc\include\afxtempl.h', 00H
	ORG $+7
$SG175238 DB	'c:\program files (x86)\microsoft visual studio 10.0\vc\a'
	DB	'tlmfc\include\afxtempl.h', 00H
	ORG $+7
$SG175243 DB	'c:\program files (x86)\microsoft visual studio 10.0\vc\a'
	DB	'tlmfc\include\afxtempl.h', 00H
	ORG $+7
$SG175253 DB	'c:\program files (x86)\microsoft visual studio 10.0\vc\a'
	DB	'tlmfc\include\afxtempl.h', 00H
	ORG $+7
$SG175255 DB	'c:\program files (x86)\microsoft visual studio 10.0\vc\a'
	DB	'tlmfc\include\afxtempl.h', 00H
	ORG $+7
$SG175270 DB	'c:\program files (x86)\microsoft visual studio 10.0\vc\a'
	DB	'tlmfc\include\afxtempl.h', 00H
	ORG $+7
$SG175277 DB	'c:\program files (x86)\microsoft visual studio 10.0\vc\a'
	DB	'tlmfc\include\afxtempl.h', 00H
	ORG $+7
$SG175319 DB	'c:\program files (x86)\microsoft visual studio 10.0\vc\a'
	DB	'tlmfc\include\afxtempl.h', 00H
	ORG $+7
$SG175323 DB	'c:\program files (x86)\microsoft visual studio 10.0\vc\a'
	DB	'tlmfc\include\afxtempl.h', 00H
	ORG $+7
$SG175335 DB	'c:\program files (x86)\microsoft visual studio 10.0\vc\a'
	DB	'tlmfc\include\afxtempl.h', 00H
	ORG $+7
$SG175357 DB	'c:\program files (x86)\microsoft visual studio 10.0\vc\a'
	DB	'tlmfc\include\afxtempl.h', 00H
	ORG $+7
$SG175362 DB	'c:\program files (x86)\microsoft visual studio 10.0\vc\a'
	DB	'tlmfc\include\afxtempl.h', 00H
	ORG $+7
$SG175389 DB	'c:\program files (x86)\microsoft visual studio 10.0\vc\a'
	DB	'tlmfc\include\afxtempl.h', 00H
	ORG $+7
$SG175394 DB	'c:\program files (x86)\microsoft visual studio 10.0\vc\a'
	DB	'tlmfc\include\afxtempl.h', 00H
	ORG $+7
$SG175419 DB	'c:\program files (x86)\microsoft visual studio 10.0\vc\a'
	DB	'tlmfc\include\afxtempl.h', 00H
	ORG $+7
$SG175456 DB	'c:\program files (x86)\microsoft visual studio 10.0\vc\a'
	DB	'tlmfc\include\afxtempl.h', 00H
	ORG $+7
$SG175462 DB	'c:\program files (x86)\microsoft visual studio 10.0\vc\a'
	DB	'tlmfc\include\afxtempl.h', 00H
	ORG $+7
$SG175471 DB	'c:\program files (x86)\microsoft visual studio 10.0\vc\a'
	DB	'tlmfc\include\afxtempl.h', 00H
	ORG $+7
$SG175486 DB	'c:\program files (x86)\microsoft visual studio 10.0\vc\a'
	DB	'tlmfc\include\afxtempl.h', 00H
	ORG $+7
$SG175490 DB	'c:\program files (x86)\microsoft visual studio 10.0\vc\a'
	DB	'tlmfc\include\afxtempl.h', 00H
	ORG $+7
$SG175505 DB	'c:\program files (x86)\microsoft visual studio 10.0\vc\a'
	DB	'tlmfc\include\afxtempl.h', 00H
	ORG $+7
$SG175510 DB	'c:\program files (x86)\microsoft visual studio 10.0\vc\a'
	DB	'tlmfc\include\afxtempl.h', 00H
	ORG $+7
$SG175537 DB	'c:\program files (x86)\microsoft visual studio 10.0\vc\a'
	DB	'tlmfc\include\afxtempl.h', 00H
	ORG $+7
$SG175542 DB	'c:\program files (x86)\microsoft visual studio 10.0\vc\a'
	DB	'tlmfc\include\afxtempl.h', 00H
	ORG $+7
$SG175549 DB	'c:\program files (x86)\microsoft visual studio 10.0\vc\a'
	DB	'tlmfc\include\afxtempl.h', 00H
	ORG $+7
$SG175554 DB	'c:\program files (x86)\microsoft visual studio 10.0\vc\a'
	DB	'tlmfc\include\afxtempl.h', 00H
	ORG $+7
$SG175573 DB	'c:\program files (x86)\microsoft visual studio 10.0\vc\a'
	DB	'tlmfc\include\afxtempl.h', 00H
	ORG $+7
$SG175584 DB	'c:\program files (x86)\microsoft visual studio 10.0\vc\a'
	DB	'tlmfc\include\afxtempl.h', 00H
	ORG $+7
$SG175599 DB	'c:\program files (x86)\microsoft visual studio 10.0\vc\a'
	DB	'tlmfc\include\afxtempl.h', 00H
	ORG $+7
$SG175601 DB	'c:\program files (x86)\microsoft visual studio 10.0\vc\a'
	DB	'tlmfc\include\afxtempl.h', 00H
	ORG $+7
$SG175603 DB	'c:\program files (x86)\microsoft visual studio 10.0\vc\a'
	DB	'tlmfc\include\afxtempl.h', 00H
	ORG $+7
$SG175614 DB	'c:\program files (x86)\microsoft visual studio 10.0\vc\a'
	DB	'tlmfc\include\afxtempl.h', 00H
	ORG $+7
$SG175647 DB	'c:\program files (x86)\microsoft visual studio 10.0\vc\a'
	DB	'tlmfc\include\afxtempl.h', 00H
	ORG $+7
$SG175653 DB	'c:\program files (x86)\microsoft visual studio 10.0\vc\a'
	DB	'tlmfc\include\afxtempl.h', 00H
	ORG $+7
$SG175711 DB	'c:\program files (x86)\microsoft visual studio 10.0\vc\a'
	DB	'tlmfc\include\afxtempl.h', 00H
	ORG $+7
$SG175715 DB	'c:\program files (x86)\microsoft visual studio 10.0\vc\a'
	DB	'tlmfc\include\afxtempl.h', 00H
	ORG $+7
$SG175718 DB	'c:\program files (x86)\microsoft visual studio 10.0\vc\a'
	DB	'tlmfc\include\afxtempl.h', 00H
CONST	ENDS
PUBLIC	?InitHooks@?$CHookMgr@VCFindReplaceDialogEx@@@@IAEHKPB_W@Z ; CHookMgr<CFindReplaceDialogEx>::InitHooks
PUBLIC	?OnInitDialog@CFindReplaceDialogEx@@MAEHXZ	; CFindReplaceDialogEx::OnInitDialog
EXTRN	?OnInitDialog@CDialog@@UAEHXZ:PROC		; CDialog::OnInitDialog
EXTRN	__RTC_CheckEsp:PROC
EXTRN	__RTC_Shutdown:PROC
EXTRN	__RTC_InitBase:PROC
;	COMDAT rtc$TMZ
; File d:\_code\rtfcontentctrl\rulerrichedit.cpp
rtc$TMZ	SEGMENT
__RTC_Shutdown.rtc$TMZ DD FLAT:__RTC_Shutdown
rtc$TMZ	ENDS
;	COMDAT rtc$IMZ
rtc$IMZ	SEGMENT
__RTC_InitBase.rtc$IMZ DD FLAT:__RTC_InitBase
; Function compile flags: /Odtp /RTCsu
rtc$IMZ	ENDS
;	COMDAT ?OnInitDialog@CFindReplaceDialogEx@@MAEHXZ
_TEXT	SEGMENT
_this$ = -4						; size = 4
?OnInitDialog@CFindReplaceDialogEx@@MAEHXZ PROC		; CFindReplaceDialogEx::OnInitDialog, COMDAT
; _this$ = ecx

; 70   : {

	push	ebp
	mov	ebp, esp
	push	ecx
	mov	DWORD PTR [ebp-4], -858993460		; ccccccccH
	mov	DWORD PTR _this$[ebp], ecx

; 71   : 	CFindReplaceDialog::OnInitDialog();

	mov	ecx, DWORD PTR _this$[ebp]
	call	?OnInitDialog@CDialog@@UAEHXZ		; CDialog::OnInitDialog

; 72   : 
; 73   : 	InitHooks(HM_KEYBOARD);

	push	0
	push	32					; 00000020H
	mov	ecx, DWORD PTR _this$[ebp]
	add	ecx, 700				; 000002bcH
	call	?InitHooks@?$CHookMgr@VCFindReplaceDialogEx@@@@IAEHKPB_W@Z ; CHookMgr<CFindReplaceDialogEx>::InitHooks

; 74   : 	return TRUE;

	mov	eax, 1

; 75   : }

	add	esp, 4
	cmp	ebp, esp
	call	__RTC_CheckEsp
	mov	esp, ebp
	pop	ebp
	ret	0
?OnInitDialog@CFindReplaceDialogEx@@MAEHXZ ENDP		; CFindReplaceDialogEx::OnInitDialog
_TEXT	ENDS
PUBLIC	?OnKeyboard@CFindReplaceDialogEx@@MAEHII@Z	; CFindReplaceDialogEx::OnKeyboard
EXTRN	__imp__IsDialogMessageW@8:PROC
EXTRN	?IsKeyPressed@Misc@@YAHK@Z:PROC			; Misc::IsKeyPressed
EXTRN	__imp__IsChild@8:PROC
EXTRN	??BCWnd@@QBEPAUHWND__@@XZ:PROC			; CWnd::operator HWND__ *
EXTRN	__imp__GetFocus@0:PROC
EXTRN	@_RTC_CheckStackVars@8:PROC
; Function compile flags: /Odtp /RTCsu
;	COMDAT ?OnKeyboard@CFindReplaceDialogEx@@MAEHII@Z
_TEXT	SEGMENT
_msg$174446 = -40					; size = 28
_hFocus$ = -8						; size = 4
_this$ = -4						; size = 4
_uVirtKey$ = 8						; size = 4
_uFlags$ = 12						; size = 4
?OnKeyboard@CFindReplaceDialogEx@@MAEHII@Z PROC		; CFindReplaceDialogEx::OnKeyboard, COMDAT
; _this$ = ecx

; 78   : {

	push	ebp
	mov	ebp, esp
	sub	esp, 44					; 0000002cH
	push	esi
	push	edi
	push	ecx
	lea	edi, DWORD PTR [ebp-44]
	mov	ecx, 11					; 0000000bH
	mov	eax, -858993460				; ccccccccH
	rep stosd
	pop	ecx
	mov	DWORD PTR _this$[ebp], ecx

; 79   : 	// only handle messages belonging to us
; 80   : 	HWND hFocus = ::GetFocus();

	mov	esi, esp
	call	DWORD PTR __imp__GetFocus@0
	cmp	esi, esp
	call	__RTC_CheckEsp
	mov	DWORD PTR _hFocus$[ebp], eax

; 81   : 
; 82   : 	if (::IsChild(*this, hFocus) && Misc::IsKeyPressed(uVirtKey))

	mov	esi, esp
	mov	eax, DWORD PTR _hFocus$[ebp]
	push	eax
	mov	ecx, DWORD PTR _this$[ebp]
	sub	ecx, 700				; 000002bcH
	call	??BCWnd@@QBEPAUHWND__@@XZ		; CWnd::operator HWND__ *
	push	eax
	call	DWORD PTR __imp__IsChild@8
	cmp	esi, esp
	call	__RTC_CheckEsp
	test	eax, eax
	je	SHORT $LN2@OnKeyboard
	mov	ecx, DWORD PTR _uVirtKey$[ebp]
	push	ecx
	call	?IsKeyPressed@Misc@@YAHK@Z		; Misc::IsKeyPressed
	add	esp, 4
	test	eax, eax
	je	SHORT $LN2@OnKeyboard

; 83   : 	{
; 84   : 		MSG msg = { hFocus, WM_KEYDOWN, uVirtKey, uFlags, 0, {0, 0} };

	mov	edx, DWORD PTR _hFocus$[ebp]
	mov	DWORD PTR _msg$174446[ebp], edx
	mov	DWORD PTR _msg$174446[ebp+4], 256	; 00000100H
	mov	eax, DWORD PTR _uVirtKey$[ebp]
	mov	DWORD PTR _msg$174446[ebp+8], eax
	mov	ecx, DWORD PTR _uFlags$[ebp]
	mov	DWORD PTR _msg$174446[ebp+12], ecx
	mov	DWORD PTR _msg$174446[ebp+16], 0
	mov	DWORD PTR _msg$174446[ebp+20], 0
	mov	DWORD PTR _msg$174446[ebp+24], 0

; 85   : 
; 86   : 		if (::IsDialogMessage(*this, &msg))

	mov	esi, esp
	lea	edx, DWORD PTR _msg$174446[ebp]
	push	edx
	mov	ecx, DWORD PTR _this$[ebp]
	sub	ecx, 700				; 000002bcH
	call	??BCWnd@@QBEPAUHWND__@@XZ		; CWnd::operator HWND__ *
	push	eax
	call	DWORD PTR __imp__IsDialogMessageW@8
	cmp	esi, esp
	call	__RTC_CheckEsp
	test	eax, eax
	je	SHORT $LN2@OnKeyboard

; 87   : 			return TRUE;

	mov	eax, 1
	jmp	SHORT $LN3@OnKeyboard
$LN2@OnKeyboard:

; 88   : 	}
; 89   : 	
; 90   : 	// all else
; 91   : 	return FALSE;

	xor	eax, eax
$LN3@OnKeyboard:

; 92   : }

	push	edx
	mov	ecx, ebp
	push	eax
	lea	edx, DWORD PTR $LN7@OnKeyboard
	call	@_RTC_CheckStackVars@8
	pop	eax
	pop	edx
	pop	edi
	pop	esi
	add	esp, 44					; 0000002cH
	cmp	ebp, esp
	call	__RTC_CheckEsp
	mov	esp, ebp
	pop	ebp
	ret	8
$LN7@OnKeyboard:
	DD	1
	DD	$LN6@OnKeyboard
$LN6@OnKeyboard:
	DD	-40					; ffffffd8H
	DD	28					; 0000001cH
	DD	$LN5@OnKeyboard
$LN5@OnKeyboard:
	DB	109					; 0000006dH
	DB	115					; 00000073H
	DB	103					; 00000067H
	DB	0
?OnKeyboard@CFindReplaceDialogEx@@MAEHII@Z ENDP		; CFindReplaceDialogEx::OnKeyboard
_TEXT	ENDS
PUBLIC	?Instance@CFindReplaceDialogEx@@SAAAV1@XZ	; CFindReplaceDialogEx::Instance
PUBLIC	?NewFindReplaceDlg@CRulerRichEdit@@MAEPAVCFindReplaceDialog@@XZ ; CRulerRichEdit::NewFindReplaceDlg
; Function compile flags: /Odtp /RTCsu
;	COMDAT ?NewFindReplaceDlg@CRulerRichEdit@@MAEPAVCFindReplaceDialog@@XZ
_TEXT	SEGMENT
_dialog$ = -8						; size = 4
_this$ = -4						; size = 4
?NewFindReplaceDlg@CRulerRichEdit@@MAEPAVCFindReplaceDialog@@XZ PROC ; CRulerRichEdit::NewFindReplaceDlg, COMDAT
; _this$ = ecx

; 95   : {

	push	ebp
	mov	ebp, esp
	sub	esp, 8
	mov	DWORD PTR [ebp-8], -858993460		; ccccccccH
	mov	DWORD PTR [ebp-4], -858993460		; ccccccccH
	mov	DWORD PTR _this$[ebp], ecx

; 96   : 	// because we reuse the same dialog we must clear the terminating flag
; 97   : 	CFindReplaceDialog& dialog = CFindReplaceDialogEx::Instance();

	call	?Instance@CFindReplaceDialogEx@@SAAAV1@XZ ; CFindReplaceDialogEx::Instance
	mov	DWORD PTR _dialog$[ebp], eax

; 98   : 	dialog.m_fr.Flags &= ~FR_DIALOGTERM;

	mov	eax, DWORD PTR _dialog$[ebp]
	mov	ecx, DWORD PTR [eax+160]
	and	ecx, -65				; ffffffbfH
	mov	edx, DWORD PTR _dialog$[ebp]
	mov	DWORD PTR [edx+160], ecx

; 99   : 
; 100  : 	return &dialog;

	mov	eax, DWORD PTR _dialog$[ebp]

; 101  : }

	add	esp, 8
	cmp	ebp, esp
	call	__RTC_CheckEsp
	mov	esp, ebp
	pop	ebp
	ret	0
?NewFindReplaceDlg@CRulerRichEdit@@MAEPAVCFindReplaceDialog@@XZ ENDP ; CRulerRichEdit::NewFindReplaceDlg
_TEXT	ENDS
PUBLIC	?GetInstance@?$CHookMgr@VCFindReplaceDialogEx@@@@KAAAVCFindReplaceDialogEx@@XZ ; CHookMgr<CFindReplaceDialogEx>::GetInstance
; Function compile flags: /Odtp /RTCsu
;	COMDAT ?Instance@CFindReplaceDialogEx@@SAAAV1@XZ
_TEXT	SEGMENT
?Instance@CFindReplaceDialogEx@@SAAAV1@XZ PROC		; CFindReplaceDialogEx::Instance, COMDAT

; 59   : 	static CFindReplaceDialogEx& Instance() { return CHookMgr<CFindReplaceDialogEx>::GetInstance(); }

	push	ebp
	mov	ebp, esp
	call	?GetInstance@?$CHookMgr@VCFindReplaceDialogEx@@@@KAAAVCFindReplaceDialogEx@@XZ ; CHookMgr<CFindReplaceDialogEx>::GetInstance
	cmp	ebp, esp
	call	__RTC_CheckEsp
	pop	ebp
	ret	0
?Instance@CFindReplaceDialogEx@@SAAAV1@XZ ENDP		; CFindReplaceDialogEx::Instance
_TEXT	ENDS
PUBLIC	?EnableSelectOnFocus@CRichEditBaseCtrl@@QAEXH@Z	; CRichEditBaseCtrl::EnableSelectOnFocus
PUBLIC	??_7CRulerRichEdit@@6B@				; CRulerRichEdit::`vftable'
PUBLIC	??0CRulerRichEdit@@QAE@XZ			; CRulerRichEdit::CRulerRichEdit
PUBLIC	??_R4CRulerRichEdit@@6B@			; CRulerRichEdit::`RTTI Complete Object Locator'
PUBLIC	??_R0?AVCRulerRichEdit@@@8			; CRulerRichEdit `RTTI Type Descriptor'
PUBLIC	??_R3CRulerRichEdit@@8				; CRulerRichEdit::`RTTI Class Hierarchy Descriptor'
PUBLIC	??_R2CRulerRichEdit@@8				; CRulerRichEdit::`RTTI Base Class Array'
PUBLIC	??_R1A@?0A@EA@CRulerRichEdit@@8			; CRulerRichEdit::`RTTI Base Class Descriptor at (0,-1,0,64)'
PUBLIC	??_R1A@?0A@EA@CUrlRichEditCtrl@@8		; CUrlRichEditCtrl::`RTTI Base Class Descriptor at (0,-1,0,64)'
PUBLIC	??_R0?AVCUrlRichEditCtrl@@@8			; CUrlRichEditCtrl `RTTI Type Descriptor'
PUBLIC	??_R3CUrlRichEditCtrl@@8			; CUrlRichEditCtrl::`RTTI Class Hierarchy Descriptor'
PUBLIC	??_R2CUrlRichEditCtrl@@8			; CUrlRichEditCtrl::`RTTI Base Class Array'
PUBLIC	??_R1A@?0A@EA@CRichEditBaseCtrl@@8		; CRichEditBaseCtrl::`RTTI Base Class Descriptor at (0,-1,0,64)'
PUBLIC	??_R0?AVCRichEditBaseCtrl@@@8			; CRichEditBaseCtrl `RTTI Type Descriptor'
PUBLIC	??_R3CRichEditBaseCtrl@@8			; CRichEditBaseCtrl::`RTTI Class Hierarchy Descriptor'
PUBLIC	??_R2CRichEditBaseCtrl@@8			; CRichEditBaseCtrl::`RTTI Base Class Array'
PUBLIC	??_R1A@?0A@EA@CRichEditCtrl@@8			; CRichEditCtrl::`RTTI Base Class Descriptor at (0,-1,0,64)'
PUBLIC	??_R0?AVCRichEditCtrl@@@8			; CRichEditCtrl `RTTI Type Descriptor'
PUBLIC	??_R3CRichEditCtrl@@8				; CRichEditCtrl::`RTTI Class Hierarchy Descriptor'
PUBLIC	??_R2CRichEditCtrl@@8				; CRichEditCtrl::`RTTI Base Class Array'
PUBLIC	??_R1A@?0A@EA@CWnd@@8				; CWnd::`RTTI Base Class Descriptor at (0,-1,0,64)'
PUBLIC	??_R0?AVCWnd@@@8				; CWnd `RTTI Type Descriptor'
PUBLIC	??_R3CWnd@@8					; CWnd::`RTTI Class Hierarchy Descriptor'
PUBLIC	??_R2CWnd@@8					; CWnd::`RTTI Base Class Array'
PUBLIC	??_R1A@?0A@EA@CCmdTarget@@8			; CCmdTarget::`RTTI Base Class Descriptor at (0,-1,0,64)'
PUBLIC	??_R0?AVCCmdTarget@@@8				; CCmdTarget `RTTI Type Descriptor'
PUBLIC	??_R3CCmdTarget@@8				; CCmdTarget::`RTTI Class Hierarchy Descriptor'
PUBLIC	??_R2CCmdTarget@@8				; CCmdTarget::`RTTI Base Class Array'
PUBLIC	??_R1A@?0A@EA@CObject@@8			; CObject::`RTTI Base Class Descriptor at (0,-1,0,64)'
PUBLIC	??_R0?AVCObject@@@8				; CObject `RTTI Type Descriptor'
PUBLIC	??_R3CObject@@8					; CObject::`RTTI Class Hierarchy Descriptor'
PUBLIC	??_R2CObject@@8					; CObject::`RTTI Base Class Array'
PUBLIC	?GetMessageMap@CRulerRichEdit@@MBEPBUAFX_MSGMAP@@XZ ; CRulerRichEdit::GetMessageMap
PUBLIC	?GetNewStorage@CRichEditBaseCtrl@@MAEJPAPAUIStorage@@@Z ; CRichEditBaseCtrl::GetNewStorage
PUBLIC	?GetInPlaceContext@CRichEditBaseCtrl@@MAEJPAPAUIOleInPlaceFrame@@PAPAUIOleInPlaceUIWindow@@PAUtagOIFI@@@Z ; CRichEditBaseCtrl::GetInPlaceContext
PUBLIC	?ShowContainerUI@CRichEditBaseCtrl@@MAEJH@Z	; CRichEditBaseCtrl::ShowContainerUI
PUBLIC	?QueryInsertObject@CRichEditBaseCtrl@@MAEJPAU_GUID@@PAUIStorage@@J@Z ; CRichEditBaseCtrl::QueryInsertObject
PUBLIC	?DeleteObject@CRichEditBaseCtrl@@MAEJPAUIOleObject@@@Z ; CRichEditBaseCtrl::DeleteObject
PUBLIC	?ContextSensitiveHelp@CRichEditBaseCtrl@@MAEJH@Z ; CRichEditBaseCtrl::ContextSensitiveHelp
PUBLIC	?GetClipboardData@CRichEditBaseCtrl@@MAEJPAU_charrange@@KPAPAUIDataObject@@@Z ; CRichEditBaseCtrl::GetClipboardData
PUBLIC	?GetDragDropEffect@CRulerRichEdit@@MAEJHKPAK@Z	; CRulerRichEdit::GetDragDropEffect
PUBLIC	?GetContextMenu@CRulerRichEdit@@MAEJGPAUIOleObject@@PAU_charrange@@PAPAUHMENU__@@@Z ; CRulerRichEdit::GetContextMenu
PUBLIC	?GetAcceptableClipFormat@CRulerRichEdit@@MAEGPAUIDataObject@@G@Z ; CRulerRichEdit::GetAcceptableClipFormat
EXTRN	??1CUrlRichEditCtrl@@UAE@XZ:PROC		; CUrlRichEditCtrl::~CUrlRichEditCtrl
EXTRN	??0CUrlRichEditCtrl@@QAE@XZ:PROC		; CUrlRichEditCtrl::CUrlRichEditCtrl
EXTRN	___security_cookie:DWORD
EXTRN	___CxxFrameHandler3:PROC
EXTRN	@__security_check_cookie@4:PROC
EXTRN	??_7type_info@@6B@:QWORD			; type_info::`vftable'
EXTRN	?GetRuntimeClass@CRichEditCtrl@@UBEPAUCRuntimeClass@@XZ:PROC ; CRichEditCtrl::GetRuntimeClass
EXTRN	??_ECRulerRichEdit@@UAEPAXI@Z:PROC		; CRulerRichEdit::`vector deleting destructor'
EXTRN	?Serialize@CObject@@UAEXAAVCArchive@@@Z:PROC	; CObject::Serialize
EXTRN	?AssertValid@CWnd@@UBEXXZ:PROC			; CWnd::AssertValid
EXTRN	?Dump@CWnd@@UBEXAAVCDumpContext@@@Z:PROC	; CWnd::Dump
EXTRN	?OnCmdMsg@CCmdTarget@@UAEHIHPAXPAUAFX_CMDHANDLERINFO@@@Z:PROC ; CCmdTarget::OnCmdMsg
EXTRN	?OnFinalRelease@CWnd@@UAEXXZ:PROC		; CWnd::OnFinalRelease
EXTRN	?IsInvokeAllowed@CCmdTarget@@UAEHJ@Z:PROC	; CCmdTarget::IsInvokeAllowed
EXTRN	?GetDispatchIID@CCmdTarget@@UAEHPAU_GUID@@@Z:PROC ; CCmdTarget::GetDispatchIID
EXTRN	?GetTypeInfoCount@CCmdTarget@@UAEIXZ:PROC	; CCmdTarget::GetTypeInfoCount
EXTRN	?GetTypeLibCache@CCmdTarget@@UAEPAVCTypeLibCache@@XZ:PROC ; CCmdTarget::GetTypeLibCache
EXTRN	?GetTypeLib@CCmdTarget@@UAEJKPAPAUITypeLib@@@Z:PROC ; CCmdTarget::GetTypeLib
EXTRN	?GetCommandMap@CCmdTarget@@MBEPBUAFX_OLECMDMAP@@XZ:PROC ; CCmdTarget::GetCommandMap
EXTRN	?GetDispatchMap@CCmdTarget@@MBEPBUAFX_DISPMAP@@XZ:PROC ; CCmdTarget::GetDispatchMap
EXTRN	?GetConnectionMap@CCmdTarget@@MBEPBUAFX_CONNECTIONMAP@@XZ:PROC ; CCmdTarget::GetConnectionMap
EXTRN	?GetInterfaceMap@CWnd@@MBEPBUAFX_INTERFACEMAP@@XZ:PROC ; CWnd::GetInterfaceMap
EXTRN	?GetEventSinkMap@CCmdTarget@@MBEPBUAFX_EVENTSINKMAP@@XZ:PROC ; CCmdTarget::GetEventSinkMap
EXTRN	?OnCreateAggregates@CCmdTarget@@UAEHXZ:PROC	; CCmdTarget::OnCreateAggregates
EXTRN	?GetInterfaceHook@CCmdTarget@@UAEPAUIUnknown@@PBX@Z:PROC ; CCmdTarget::GetInterfaceHook
EXTRN	?GetExtraConnectionPoints@CCmdTarget@@MAEHPAVCPtrArray@@@Z:PROC ; CCmdTarget::GetExtraConnectionPoints
EXTRN	?GetConnectionHook@CCmdTarget@@MAEPAUIConnectionPoint@@ABU_GUID@@@Z:PROC ; CCmdTarget::GetConnectionHook
EXTRN	?PreSubclassWindow@CUrlRichEditCtrl@@MAEXXZ:PROC ; CUrlRichEditCtrl::PreSubclassWindow
EXTRN	?Create@CWnd@@UAEHPB_W0KABUtagRECT@@PAV1@IPAUCCreateContext@@@Z:PROC ; CWnd::Create
EXTRN	?CreateEx@CWnd@@UAEHKPB_W0KABUtagRECT@@PAV1@IPAX@Z:PROC ; CWnd::CreateEx
EXTRN	?CreateEx@CWnd@@UAEHKPB_W0KHHHHPAUHWND__@@PAUHMENU__@@PAX@Z:PROC ; CWnd::CreateEx
EXTRN	?DestroyWindow@CWnd@@UAEHXZ:PROC		; CWnd::DestroyWindow
EXTRN	?PreCreateWindow@CWnd@@UAEHAAUtagCREATESTRUCTW@@@Z:PROC ; CWnd::PreCreateWindow
EXTRN	?CalcWindowRect@CWnd@@UAEXPAUtagRECT@@I@Z:PROC	; CWnd::CalcWindowRect
EXTRN	?GetMenu@CWnd@@UBEPAVCMenu@@XZ:PROC		; CWnd::GetMenu
EXTRN	?SetMenu@CWnd@@UAEHPAVCMenu@@@Z:PROC		; CWnd::SetMenu
EXTRN	?OnToolHitTest@CWnd@@UBEHVCPoint@@PAUtagTOOLINFOW@@@Z:PROC ; CWnd::OnToolHitTest
EXTRN	?GetScrollBarCtrl@CWnd@@UBEPAVCScrollBar@@H@Z:PROC ; CWnd::GetScrollBarCtrl
EXTRN	?WinHelpW@CWnd@@UAEXKI@Z:PROC			; CWnd::WinHelpW
EXTRN	?HtmlHelpW@CWnd@@UAEXKI@Z:PROC			; CWnd::HtmlHelpW
EXTRN	?WinHelpInternal@CWnd@@UAEXKI@Z:PROC		; CWnd::WinHelpInternal
EXTRN	?ContinueModal@CWnd@@UAEHXZ:PROC		; CWnd::ContinueModal
EXTRN	?EndModalLoop@CWnd@@UAEXH@Z:PROC		; CWnd::EndModalLoop
EXTRN	?OnDrawIconicThumbnailOrLivePreview@CWnd@@UAEXAAVCDC@@VCRect@@VCSize@@HAAH@Z:PROC ; CWnd::OnDrawIconicThumbnailOrLivePreview
EXTRN	?EnsureStdObj@CWnd@@UAEJXZ:PROC			; CWnd::EnsureStdObj
EXTRN	?get_accParent@CWnd@@UAEJPAPAUIDispatch@@@Z:PROC ; CWnd::get_accParent
EXTRN	?get_accChildCount@CWnd@@UAEJPAJ@Z:PROC		; CWnd::get_accChildCount
EXTRN	?get_accChild@CWnd@@UAEJUtagVARIANT@@PAPAUIDispatch@@@Z:PROC ; CWnd::get_accChild
EXTRN	?get_accName@CWnd@@UAEJUtagVARIANT@@PAPA_W@Z:PROC ; CWnd::get_accName
EXTRN	?get_accValue@CWnd@@UAEJUtagVARIANT@@PAPA_W@Z:PROC ; CWnd::get_accValue
EXTRN	?get_accDescription@CWnd@@UAEJUtagVARIANT@@PAPA_W@Z:PROC ; CWnd::get_accDescription
EXTRN	?get_accRole@CWnd@@UAEJUtagVARIANT@@PAU2@@Z:PROC ; CWnd::get_accRole
EXTRN	?get_accState@CWnd@@UAEJUtagVARIANT@@PAU2@@Z:PROC ; CWnd::get_accState
EXTRN	?get_accHelp@CWnd@@UAEJUtagVARIANT@@PAPA_W@Z:PROC ; CWnd::get_accHelp
EXTRN	?get_accHelpTopic@CWnd@@UAEJPAPA_WUtagVARIANT@@PAJ@Z:PROC ; CWnd::get_accHelpTopic
EXTRN	?get_accKeyboardShortcut@CWnd@@UAEJUtagVARIANT@@PAPA_W@Z:PROC ; CWnd::get_accKeyboardShortcut
EXTRN	?get_accFocus@CWnd@@UAEJPAUtagVARIANT@@@Z:PROC	; CWnd::get_accFocus
EXTRN	?get_accSelection@CWnd@@UAEJPAUtagVARIANT@@@Z:PROC ; CWnd::get_accSelection
EXTRN	?get_accDefaultAction@CWnd@@UAEJUtagVARIANT@@PAPA_W@Z:PROC ; CWnd::get_accDefaultAction
EXTRN	?accSelect@CWnd@@UAEJJUtagVARIANT@@@Z:PROC	; CWnd::accSelect
EXTRN	?accLocation@CWnd@@UAEJPAJ000UtagVARIANT@@@Z:PROC ; CWnd::accLocation
EXTRN	?accNavigate@CWnd@@UAEJJUtagVARIANT@@PAU2@@Z:PROC ; CWnd::accNavigate
EXTRN	?accHitTest@CWnd@@UAEJJJPAUtagVARIANT@@@Z:PROC	; CWnd::accHitTest
EXTRN	?accDoDefaultAction@CWnd@@UAEJUtagVARIANT@@@Z:PROC ; CWnd::accDoDefaultAction
EXTRN	?put_accName@CWnd@@UAEJUtagVARIANT@@PA_W@Z:PROC	; CWnd::put_accName
EXTRN	?put_accValue@CWnd@@UAEJUtagVARIANT@@PA_W@Z:PROC ; CWnd::put_accValue
EXTRN	?SetProxy@CWnd@@UAEJPAUIAccessibleProxy@@@Z:PROC ; CWnd::SetProxy
EXTRN	?CreateAccessibleProxy@CWnd@@UAEJIJPAJ@Z:PROC	; CWnd::CreateAccessibleProxy
EXTRN	?OnCommand@CWnd@@MAEHIJ@Z:PROC			; CWnd::OnCommand
EXTRN	?OnNotify@CWnd@@MAEHIJPAJ@Z:PROC		; CWnd::OnNotify
EXTRN	?GetSuperWndProcAddr@CWnd@@MAEPAP6GJPAUHWND__@@IIJ@ZXZ:PROC ; CWnd::GetSuperWndProcAddr
EXTRN	?DoDataExchange@CWnd@@MAEXPAVCDataExchange@@@Z:PROC ; CWnd::DoDataExchange
EXTRN	?BeginModalState@CWnd@@UAEXXZ:PROC		; CWnd::BeginModalState
EXTRN	?EndModalState@CWnd@@UAEXXZ:PROC		; CWnd::EndModalState
EXTRN	?PreTranslateMessage@CWnd@@UAEHPAUtagMSG@@@Z:PROC ; CWnd::PreTranslateMessage
EXTRN	?OnAmbientProperty@CWnd@@UAEHPAVCOleControlSite@@JPAUtagVARIANT@@@Z:PROC ; CWnd::OnAmbientProperty
EXTRN	?WindowProc@CWnd@@MAEJIIJ@Z:PROC		; CWnd::WindowProc
EXTRN	?OnWndMsg@CWnd@@MAEHIIJPAJ@Z:PROC		; CWnd::OnWndMsg
EXTRN	?DefWindowProcW@CWnd@@MAEJIIJ@Z:PROC		; CWnd::DefWindowProcW
EXTRN	?PostNcDestroy@CWnd@@MAEXXZ:PROC		; CWnd::PostNcDestroy
EXTRN	?OnChildNotify@CWnd@@MAEHIIJPAJ@Z:PROC		; CWnd::OnChildNotify
EXTRN	?OnTouchInputs@CWnd@@MAEHIPAUtagTOUCHINPUT@@@Z:PROC ; CWnd::OnTouchInputs
EXTRN	?OnTouchInput@CWnd@@MAEHVCPoint@@HHPAUtagTOUCHINPUT@@@Z:PROC ; CWnd::OnTouchInput
EXTRN	?GetGestureStatus@CWnd@@MAEKVCPoint@@@Z:PROC	; CWnd::GetGestureStatus
EXTRN	?OnGestureZoom@CWnd@@MAEHVCPoint@@J@Z:PROC	; CWnd::OnGestureZoom
EXTRN	?OnGesturePan@CWnd@@MAEHVCPoint@@0@Z:PROC	; CWnd::OnGesturePan
EXTRN	?OnGestureRotate@CWnd@@MAEHVCPoint@@N@Z:PROC	; CWnd::OnGestureRotate
EXTRN	?OnGestureTwoFingerTap@CWnd@@MAEHVCPoint@@@Z:PROC ; CWnd::OnGestureTwoFingerTap
EXTRN	?OnGesturePressAndTap@CWnd@@MAEHVCPoint@@J@Z:PROC ; CWnd::OnGesturePressAndTap
EXTRN	?CheckAutoCenter@CWnd@@UAEHXZ:PROC		; CWnd::CheckAutoCenter
EXTRN	?IsFrameWnd@CWnd@@UBEHXZ:PROC			; CWnd::IsFrameWnd
EXTRN	?CreateControlContainer@CWnd@@MAEHPAPAVCOleControlContainer@@@Z:PROC ; CWnd::CreateControlContainer
EXTRN	?CreateControlSite@CWnd@@MAEHPAVCOleControlContainer@@PAPAVCOleControlSite@@IABU_GUID@@@Z:PROC ; CWnd::CreateControlSite
EXTRN	?SetOccDialogInfo@CWnd@@MAEHPAU_AFX_OCC_DIALOG_INFO@@@Z:PROC ; CWnd::SetOccDialogInfo
EXTRN	?GetOccDialogInfo@CWnd@@MAEPAU_AFX_OCC_DIALOG_INFO@@XZ:PROC ; CWnd::GetOccDialogInfo
EXTRN	?QueryAcceptData@CUrlRichEditCtrl@@MAEJPAUIDataObject@@PAGKHPAX@Z:PROC ; CUrlRichEditCtrl::QueryAcceptData
EXTRN	?OnFindNext@CRichEditBaseCtrl@@MAEXPB_WHHH@Z:PROC ; CRichEditBaseCtrl::OnFindNext
EXTRN	?OnReplaceSel@CRichEditBaseCtrl@@MAEXPB_WHHH0@Z:PROC ; CRichEditBaseCtrl::OnReplaceSel
EXTRN	?OnReplaceAll@CRichEditBaseCtrl@@MAEXPB_W0HH@Z:PROC ; CRichEditBaseCtrl::OnReplaceAll
EXTRN	?SendNotifyCustomUrl@CUrlRichEditCtrl@@MBEJPB_W@Z:PROC ; CUrlRichEditCtrl::SendNotifyCustomUrl
EXTRN	?SendNotifyFailedUrl@CUrlRichEditCtrl@@MBEJPB_W@Z:PROC ; CUrlRichEditCtrl::SendNotifyFailedUrl
;	COMDAT ??_R2CObject@@8
rdata$r	SEGMENT
??_R2CObject@@8 DD FLAT:??_R1A@?0A@EA@CObject@@8	; CObject::`RTTI Base Class Array'
rdata$r	ENDS
;	COMDAT ??_R3CObject@@8
rdata$r	SEGMENT
??_R3CObject@@8 DD 00H					; CObject::`RTTI Class Hierarchy Descriptor'
	DD	00H
	DD	01H
	DD	FLAT:??_R2CObject@@8
rdata$r	ENDS
;	COMDAT ??_R0?AVCObject@@@8
_DATA	SEGMENT
??_R0?AVCObject@@@8 DD FLAT:??_7type_info@@6B@		; CObject `RTTI Type Descriptor'
	DD	00H
	DB	'.?AVCObject@@', 00H
_DATA	ENDS
;	COMDAT ??_R1A@?0A@EA@CObject@@8
rdata$r	SEGMENT
??_R1A@?0A@EA@CObject@@8 DD FLAT:??_R0?AVCObject@@@8	; CObject::`RTTI Base Class Descriptor at (0,-1,0,64)'
	DD	00H
	DD	00H
	DD	0ffffffffH
	DD	00H
	DD	040H
	DD	FLAT:??_R3CObject@@8
rdata$r	ENDS
;	COMDAT ??_R2CCmdTarget@@8
rdata$r	SEGMENT
??_R2CCmdTarget@@8 DD FLAT:??_R1A@?0A@EA@CCmdTarget@@8	; CCmdTarget::`RTTI Base Class Array'
	DD	FLAT:??_R1A@?0A@EA@CObject@@8
rdata$r	ENDS
;	COMDAT ??_R3CCmdTarget@@8
rdata$r	SEGMENT
??_R3CCmdTarget@@8 DD 00H				; CCmdTarget::`RTTI Class Hierarchy Descriptor'
	DD	00H
	DD	02H
	DD	FLAT:??_R2CCmdTarget@@8
rdata$r	ENDS
;	COMDAT ??_R0?AVCCmdTarget@@@8
_DATA	SEGMENT
??_R0?AVCCmdTarget@@@8 DD FLAT:??_7type_info@@6B@	; CCmdTarget `RTTI Type Descriptor'
	DD	00H
	DB	'.?AVCCmdTarget@@', 00H
_DATA	ENDS
;	COMDAT ??_R1A@?0A@EA@CCmdTarget@@8
rdata$r	SEGMENT
??_R1A@?0A@EA@CCmdTarget@@8 DD FLAT:??_R0?AVCCmdTarget@@@8 ; CCmdTarget::`RTTI Base Class Descriptor at (0,-1,0,64)'
	DD	01H
	DD	00H
	DD	0ffffffffH
	DD	00H
	DD	040H
	DD	FLAT:??_R3CCmdTarget@@8
rdata$r	ENDS
;	COMDAT ??_R2CWnd@@8
rdata$r	SEGMENT
??_R2CWnd@@8 DD	FLAT:??_R1A@?0A@EA@CWnd@@8		; CWnd::`RTTI Base Class Array'
	DD	FLAT:??_R1A@?0A@EA@CCmdTarget@@8
	DD	FLAT:??_R1A@?0A@EA@CObject@@8
rdata$r	ENDS
;	COMDAT ??_R3CWnd@@8
rdata$r	SEGMENT
??_R3CWnd@@8 DD	00H					; CWnd::`RTTI Class Hierarchy Descriptor'
	DD	00H
	DD	03H
	DD	FLAT:??_R2CWnd@@8
rdata$r	ENDS
;	COMDAT ??_R0?AVCWnd@@@8
_DATA	SEGMENT
??_R0?AVCWnd@@@8 DD FLAT:??_7type_info@@6B@		; CWnd `RTTI Type Descriptor'
	DD	00H
	DB	'.?AVCWnd@@', 00H
_DATA	ENDS
;	COMDAT ??_R1A@?0A@EA@CWnd@@8
rdata$r	SEGMENT
??_R1A@?0A@EA@CWnd@@8 DD FLAT:??_R0?AVCWnd@@@8		; CWnd::`RTTI Base Class Descriptor at (0,-1,0,64)'
	DD	02H
	DD	00H
	DD	0ffffffffH
	DD	00H
	DD	040H
	DD	FLAT:??_R3CWnd@@8
rdata$r	ENDS
;	COMDAT ??_R2CRichEditCtrl@@8
rdata$r	SEGMENT
??_R2CRichEditCtrl@@8 DD FLAT:??_R1A@?0A@EA@CRichEditCtrl@@8 ; CRichEditCtrl::`RTTI Base Class Array'
	DD	FLAT:??_R1A@?0A@EA@CWnd@@8
	DD	FLAT:??_R1A@?0A@EA@CCmdTarget@@8
	DD	FLAT:??_R1A@?0A@EA@CObject@@8
rdata$r	ENDS
;	COMDAT ??_R3CRichEditCtrl@@8
rdata$r	SEGMENT
??_R3CRichEditCtrl@@8 DD 00H				; CRichEditCtrl::`RTTI Class Hierarchy Descriptor'
	DD	00H
	DD	04H
	DD	FLAT:??_R2CRichEditCtrl@@8
rdata$r	ENDS
;	COMDAT ??_R0?AVCRichEditCtrl@@@8
_DATA	SEGMENT
??_R0?AVCRichEditCtrl@@@8 DD FLAT:??_7type_info@@6B@	; CRichEditCtrl `RTTI Type Descriptor'
	DD	00H
	DB	'.?AVCRichEditCtrl@@', 00H
_DATA	ENDS
;	COMDAT ??_R1A@?0A@EA@CRichEditCtrl@@8
rdata$r	SEGMENT
??_R1A@?0A@EA@CRichEditCtrl@@8 DD FLAT:??_R0?AVCRichEditCtrl@@@8 ; CRichEditCtrl::`RTTI Base Class Descriptor at (0,-1,0,64)'
	DD	03H
	DD	00H
	DD	0ffffffffH
	DD	00H
	DD	040H
	DD	FLAT:??_R3CRichEditCtrl@@8
rdata$r	ENDS
;	COMDAT ??_R2CRichEditBaseCtrl@@8
rdata$r	SEGMENT
??_R2CRichEditBaseCtrl@@8 DD FLAT:??_R1A@?0A@EA@CRichEditBaseCtrl@@8 ; CRichEditBaseCtrl::`RTTI Base Class Array'
	DD	FLAT:??_R1A@?0A@EA@CRichEditCtrl@@8
	DD	FLAT:??_R1A@?0A@EA@CWnd@@8
	DD	FLAT:??_R1A@?0A@EA@CCmdTarget@@8
	DD	FLAT:??_R1A@?0A@EA@CObject@@8
rdata$r	ENDS
;	COMDAT ??_R3CRichEditBaseCtrl@@8
rdata$r	SEGMENT
??_R3CRichEditBaseCtrl@@8 DD 00H			; CRichEditBaseCtrl::`RTTI Class Hierarchy Descriptor'
	DD	00H
	DD	05H
	DD	FLAT:??_R2CRichEditBaseCtrl@@8
rdata$r	ENDS
;	COMDAT ??_R0?AVCRichEditBaseCtrl@@@8
_DATA	SEGMENT
??_R0?AVCRichEditBaseCtrl@@@8 DD FLAT:??_7type_info@@6B@ ; CRichEditBaseCtrl `RTTI Type Descriptor'
	DD	00H
	DB	'.?AVCRichEditBaseCtrl@@', 00H
_DATA	ENDS
;	COMDAT ??_R1A@?0A@EA@CRichEditBaseCtrl@@8
rdata$r	SEGMENT
??_R1A@?0A@EA@CRichEditBaseCtrl@@8 DD FLAT:??_R0?AVCRichEditBaseCtrl@@@8 ; CRichEditBaseCtrl::`RTTI Base Class Descriptor at (0,-1,0,64)'
	DD	04H
	DD	00H
	DD	0ffffffffH
	DD	00H
	DD	040H
	DD	FLAT:??_R3CRichEditBaseCtrl@@8
rdata$r	ENDS
;	COMDAT ??_R2CUrlRichEditCtrl@@8
rdata$r	SEGMENT
??_R2CUrlRichEditCtrl@@8 DD FLAT:??_R1A@?0A@EA@CUrlRichEditCtrl@@8 ; CUrlRichEditCtrl::`RTTI Base Class Array'
	DD	FLAT:??_R1A@?0A@EA@CRichEditBaseCtrl@@8
	DD	FLAT:??_R1A@?0A@EA@CRichEditCtrl@@8
	DD	FLAT:??_R1A@?0A@EA@CWnd@@8
	DD	FLAT:??_R1A@?0A@EA@CCmdTarget@@8
	DD	FLAT:??_R1A@?0A@EA@CObject@@8
rdata$r	ENDS
;	COMDAT ??_R3CUrlRichEditCtrl@@8
rdata$r	SEGMENT
??_R3CUrlRichEditCtrl@@8 DD 00H				; CUrlRichEditCtrl::`RTTI Class Hierarchy Descriptor'
	DD	00H
	DD	06H
	DD	FLAT:??_R2CUrlRichEditCtrl@@8
rdata$r	ENDS
;	COMDAT ??_R0?AVCUrlRichEditCtrl@@@8
_DATA	SEGMENT
??_R0?AVCUrlRichEditCtrl@@@8 DD FLAT:??_7type_info@@6B@	; CUrlRichEditCtrl `RTTI Type Descriptor'
	DD	00H
	DB	'.?AVCUrlRichEditCtrl@@', 00H
_DATA	ENDS
;	COMDAT ??_R1A@?0A@EA@CUrlRichEditCtrl@@8
rdata$r	SEGMENT
??_R1A@?0A@EA@CUrlRichEditCtrl@@8 DD FLAT:??_R0?AVCUrlRichEditCtrl@@@8 ; CUrlRichEditCtrl::`RTTI Base Class Descriptor at (0,-1,0,64)'
	DD	05H
	DD	00H
	DD	0ffffffffH
	DD	00H
	DD	040H
	DD	FLAT:??_R3CUrlRichEditCtrl@@8
rdata$r	ENDS
;	COMDAT ??_R1A@?0A@EA@CRulerRichEdit@@8
rdata$r	SEGMENT
??_R1A@?0A@EA@CRulerRichEdit@@8 DD FLAT:??_R0?AVCRulerRichEdit@@@8 ; CRulerRichEdit::`RTTI Base Class Descriptor at (0,-1,0,64)'
	DD	06H
	DD	00H
	DD	0ffffffffH
	DD	00H
	DD	040H
	DD	FLAT:??_R3CRulerRichEdit@@8
rdata$r	ENDS
;	COMDAT ??_R2CRulerRichEdit@@8
rdata$r	SEGMENT
??_R2CRulerRichEdit@@8 DD FLAT:??_R1A@?0A@EA@CRulerRichEdit@@8 ; CRulerRichEdit::`RTTI Base Class Array'
	DD	FLAT:??_R1A@?0A@EA@CUrlRichEditCtrl@@8
	DD	FLAT:??_R1A@?0A@EA@CRichEditBaseCtrl@@8
	DD	FLAT:??_R1A@?0A@EA@CRichEditCtrl@@8
	DD	FLAT:??_R1A@?0A@EA@CWnd@@8
	DD	FLAT:??_R1A@?0A@EA@CCmdTarget@@8
	DD	FLAT:??_R1A@?0A@EA@CObject@@8
rdata$r	ENDS
;	COMDAT ??_R3CRulerRichEdit@@8
rdata$r	SEGMENT
??_R3CRulerRichEdit@@8 DD 00H				; CRulerRichEdit::`RTTI Class Hierarchy Descriptor'
	DD	00H
	DD	07H
	DD	FLAT:??_R2CRulerRichEdit@@8
rdata$r	ENDS
;	COMDAT ??_R0?AVCRulerRichEdit@@@8
_DATA	SEGMENT
??_R0?AVCRulerRichEdit@@@8 DD FLAT:??_7type_info@@6B@	; CRulerRichEdit `RTTI Type Descriptor'
	DD	00H
	DB	'.?AVCRulerRichEdit@@', 00H
_DATA	ENDS
;	COMDAT ??_R4CRulerRichEdit@@6B@
rdata$r	SEGMENT
??_R4CRulerRichEdit@@6B@ DD 00H				; CRulerRichEdit::`RTTI Complete Object Locator'
	DD	00H
	DD	00H
	DD	FLAT:??_R0?AVCRulerRichEdit@@@8
	DD	FLAT:??_R3CRulerRichEdit@@8
rdata$r	ENDS
;	COMDAT ??_7CRulerRichEdit@@6B@
CONST	SEGMENT
??_7CRulerRichEdit@@6B@ DD FLAT:??_R4CRulerRichEdit@@6B@ ; CRulerRichEdit::`vftable'
	DD	FLAT:?GetRuntimeClass@CRichEditCtrl@@UBEPAUCRuntimeClass@@XZ
	DD	FLAT:??_ECRulerRichEdit@@UAEPAXI@Z
	DD	FLAT:?Serialize@CObject@@UAEXAAVCArchive@@@Z
	DD	FLAT:?AssertValid@CWnd@@UBEXXZ
	DD	FLAT:?Dump@CWnd@@UBEXAAVCDumpContext@@@Z
	DD	FLAT:?OnCmdMsg@CCmdTarget@@UAEHIHPAXPAUAFX_CMDHANDLERINFO@@@Z
	DD	FLAT:?OnFinalRelease@CWnd@@UAEXXZ
	DD	FLAT:?IsInvokeAllowed@CCmdTarget@@UAEHJ@Z
	DD	FLAT:?GetDispatchIID@CCmdTarget@@UAEHPAU_GUID@@@Z
	DD	FLAT:?GetTypeInfoCount@CCmdTarget@@UAEIXZ
	DD	FLAT:?GetTypeLibCache@CCmdTarget@@UAEPAVCTypeLibCache@@XZ
	DD	FLAT:?GetTypeLib@CCmdTarget@@UAEJKPAPAUITypeLib@@@Z
	DD	FLAT:?GetMessageMap@CRulerRichEdit@@MBEPBUAFX_MSGMAP@@XZ
	DD	FLAT:?GetCommandMap@CCmdTarget@@MBEPBUAFX_OLECMDMAP@@XZ
	DD	FLAT:?GetDispatchMap@CCmdTarget@@MBEPBUAFX_DISPMAP@@XZ
	DD	FLAT:?GetConnectionMap@CCmdTarget@@MBEPBUAFX_CONNECTIONMAP@@XZ
	DD	FLAT:?GetInterfaceMap@CWnd@@MBEPBUAFX_INTERFACEMAP@@XZ
	DD	FLAT:?GetEventSinkMap@CCmdTarget@@MBEPBUAFX_EVENTSINKMAP@@XZ
	DD	FLAT:?OnCreateAggregates@CCmdTarget@@UAEHXZ
	DD	FLAT:?GetInterfaceHook@CCmdTarget@@UAEPAUIUnknown@@PBX@Z
	DD	FLAT:?GetExtraConnectionPoints@CCmdTarget@@MAEHPAVCPtrArray@@@Z
	DD	FLAT:?GetConnectionHook@CCmdTarget@@MAEPAUIConnectionPoint@@ABU_GUID@@@Z
	DD	FLAT:?PreSubclassWindow@CUrlRichEditCtrl@@MAEXXZ
	DD	FLAT:?Create@CWnd@@UAEHPB_W0KABUtagRECT@@PAV1@IPAUCCreateContext@@@Z
	DD	FLAT:?CreateEx@CWnd@@UAEHKPB_W0KABUtagRECT@@PAV1@IPAX@Z
	DD	FLAT:?CreateEx@CWnd@@UAEHKPB_W0KHHHHPAUHWND__@@PAUHMENU__@@PAX@Z
	DD	FLAT:?DestroyWindow@CWnd@@UAEHXZ
	DD	FLAT:?PreCreateWindow@CWnd@@UAEHAAUtagCREATESTRUCTW@@@Z
	DD	FLAT:?CalcWindowRect@CWnd@@UAEXPAUtagRECT@@I@Z
	DD	FLAT:?GetMenu@CWnd@@UBEPAVCMenu@@XZ
	DD	FLAT:?SetMenu@CWnd@@UAEHPAVCMenu@@@Z
	DD	FLAT:?OnToolHitTest@CWnd@@UBEHVCPoint@@PAUtagTOOLINFOW@@@Z
	DD	FLAT:?GetScrollBarCtrl@CWnd@@UBEPAVCScrollBar@@H@Z
	DD	FLAT:?WinHelpW@CWnd@@UAEXKI@Z
	DD	FLAT:?HtmlHelpW@CWnd@@UAEXKI@Z
	DD	FLAT:?WinHelpInternal@CWnd@@UAEXKI@Z
	DD	FLAT:?ContinueModal@CWnd@@UAEHXZ
	DD	FLAT:?EndModalLoop@CWnd@@UAEXH@Z
	DD	FLAT:?OnDrawIconicThumbnailOrLivePreview@CWnd@@UAEXAAVCDC@@VCRect@@VCSize@@HAAH@Z
	DD	FLAT:?EnsureStdObj@CWnd@@UAEJXZ
	DD	FLAT:?get_accParent@CWnd@@UAEJPAPAUIDispatch@@@Z
	DD	FLAT:?get_accChildCount@CWnd@@UAEJPAJ@Z
	DD	FLAT:?get_accChild@CWnd@@UAEJUtagVARIANT@@PAPAUIDispatch@@@Z
	DD	FLAT:?get_accName@CWnd@@UAEJUtagVARIANT@@PAPA_W@Z
	DD	FLAT:?get_accValue@CWnd@@UAEJUtagVARIANT@@PAPA_W@Z
	DD	FLAT:?get_accDescription@CWnd@@UAEJUtagVARIANT@@PAPA_W@Z
	DD	FLAT:?get_accRole@CWnd@@UAEJUtagVARIANT@@PAU2@@Z
	DD	FLAT:?get_accState@CWnd@@UAEJUtagVARIANT@@PAU2@@Z
	DD	FLAT:?get_accHelp@CWnd@@UAEJUtagVARIANT@@PAPA_W@Z
	DD	FLAT:?get_accHelpTopic@CWnd@@UAEJPAPA_WUtagVARIANT@@PAJ@Z
	DD	FLAT:?get_accKeyboardShortcut@CWnd@@UAEJUtagVARIANT@@PAPA_W@Z
	DD	FLAT:?get_accFocus@CWnd@@UAEJPAUtagVARIANT@@@Z
	DD	FLAT:?get_accSelection@CWnd@@UAEJPAUtagVARIANT@@@Z
	DD	FLAT:?get_accDefaultAction@CWnd@@UAEJUtagVARIANT@@PAPA_W@Z
	DD	FLAT:?accSelect@CWnd@@UAEJJUtagVARIANT@@@Z
	DD	FLAT:?accLocation@CWnd@@UAEJPAJ000UtagVARIANT@@@Z
	DD	FLAT:?accNavigate@CWnd@@UAEJJUtagVARIANT@@PAU2@@Z
	DD	FLAT:?accHitTest@CWnd@@UAEJJJPAUtagVARIANT@@@Z
	DD	FLAT:?accDoDefaultAction@CWnd@@UAEJUtagVARIANT@@@Z
	DD	FLAT:?put_accName@CWnd@@UAEJUtagVARIANT@@PA_W@Z
	DD	FLAT:?put_accValue@CWnd@@UAEJUtagVARIANT@@PA_W@Z
	DD	FLAT:?SetProxy@CWnd@@UAEJPAUIAccessibleProxy@@@Z
	DD	FLAT:?CreateAccessibleProxy@CWnd@@UAEJIJPAJ@Z
	DD	FLAT:?OnCommand@CWnd@@MAEHIJ@Z
	DD	FLAT:?OnNotify@CWnd@@MAEHIJPAJ@Z
	DD	FLAT:?GetSuperWndProcAddr@CWnd@@MAEPAP6GJPAUHWND__@@IIJ@ZXZ
	DD	FLAT:?DoDataExchange@CWnd@@MAEXPAVCDataExchange@@@Z
	DD	FLAT:?BeginModalState@CWnd@@UAEXXZ
	DD	FLAT:?EndModalState@CWnd@@UAEXXZ
	DD	FLAT:?PreTranslateMessage@CWnd@@UAEHPAUtagMSG@@@Z
	DD	FLAT:?OnAmbientProperty@CWnd@@UAEHPAVCOleControlSite@@JPAUtagVARIANT@@@Z
	DD	FLAT:?WindowProc@CWnd@@MAEJIIJ@Z
	DD	FLAT:?OnWndMsg@CWnd@@MAEHIIJPAJ@Z
	DD	FLAT:?DefWindowProcW@CWnd@@MAEJIIJ@Z
	DD	FLAT:?PostNcDestroy@CWnd@@MAEXXZ
	DD	FLAT:?OnChildNotify@CWnd@@MAEHIIJPAJ@Z
	DD	FLAT:?OnTouchInputs@CWnd@@MAEHIPAUtagTOUCHINPUT@@@Z
	DD	FLAT:?OnTouchInput@CWnd@@MAEHVCPoint@@HHPAUtagTOUCHINPUT@@@Z
	DD	FLAT:?GetGestureStatus@CWnd@@MAEKVCPoint@@@Z
	DD	FLAT:?OnGestureZoom@CWnd@@MAEHVCPoint@@J@Z
	DD	FLAT:?OnGesturePan@CWnd@@MAEHVCPoint@@0@Z
	DD	FLAT:?OnGestureRotate@CWnd@@MAEHVCPoint@@N@Z
	DD	FLAT:?OnGestureTwoFingerTap@CWnd@@MAEHVCPoint@@@Z
	DD	FLAT:?OnGesturePressAndTap@CWnd@@MAEHVCPoint@@J@Z
	DD	FLAT:?CheckAutoCenter@CWnd@@UAEHXZ
	DD	FLAT:?IsFrameWnd@CWnd@@UBEHXZ
	DD	FLAT:?CreateControlContainer@CWnd@@MAEHPAPAVCOleControlContainer@@@Z
	DD	FLAT:?CreateControlSite@CWnd@@MAEHPAVCOleControlContainer@@PAPAVCOleControlSite@@IABU_GUID@@@Z
	DD	FLAT:?SetOccDialogInfo@CWnd@@MAEHPAU_AFX_OCC_DIALOG_INFO@@@Z
	DD	FLAT:?GetOccDialogInfo@CWnd@@MAEPAU_AFX_OCC_DIALOG_INFO@@XZ
	DD	FLAT:?GetNewStorage@CRichEditBaseCtrl@@MAEJPAPAUIStorage@@@Z
	DD	FLAT:?GetInPlaceContext@CRichEditBaseCtrl@@MAEJPAPAUIOleInPlaceFrame@@PAPAUIOleInPlaceUIWindow@@PAUtagOIFI@@@Z
	DD	FLAT:?ShowContainerUI@CRichEditBaseCtrl@@MAEJH@Z
	DD	FLAT:?QueryInsertObject@CRichEditBaseCtrl@@MAEJPAU_GUID@@PAUIStorage@@J@Z
	DD	FLAT:?DeleteObject@CRichEditBaseCtrl@@MAEJPAUIOleObject@@@Z
	DD	FLAT:?QueryAcceptData@CUrlRichEditCtrl@@MAEJPAUIDataObject@@PAGKHPAX@Z
	DD	FLAT:?ContextSensitiveHelp@CRichEditBaseCtrl@@MAEJH@Z
	DD	FLAT:?GetClipboardData@CRichEditBaseCtrl@@MAEJPAU_charrange@@KPAPAUIDataObject@@@Z
	DD	FLAT:?GetDragDropEffect@CRulerRichEdit@@MAEJHKPAK@Z
	DD	FLAT:?GetContextMenu@CRulerRichEdit@@MAEJGPAUIOleObject@@PAU_charrange@@PAPAUHMENU__@@@Z
	DD	FLAT:?OnFindNext@CRichEditBaseCtrl@@MAEXPB_WHHH@Z
	DD	FLAT:?OnReplaceSel@CRichEditBaseCtrl@@MAEXPB_WHHH0@Z
	DD	FLAT:?OnReplaceAll@CRichEditBaseCtrl@@MAEXPB_W0HH@Z
	DD	FLAT:?NewFindReplaceDlg@CRulerRichEdit@@MAEPAVCFindReplaceDialog@@XZ
	DD	FLAT:?SendNotifyCustomUrl@CUrlRichEditCtrl@@MBEJPB_W@Z
	DD	FLAT:?SendNotifyFailedUrl@CUrlRichEditCtrl@@MBEJPB_W@Z
	DD	FLAT:?GetAcceptableClipFormat@CRulerRichEdit@@MAEGPAUIDataObject@@G@Z
CONST	ENDS
;	COMDAT xdata$x
xdata$x	SEGMENT
__unwindtable$??0CRulerRichEdit@@QAE@XZ DD 0ffffffffH
	DD	FLAT:__unwindfunclet$??0CRulerRichEdit@@QAE@XZ$0
__ehfuncinfo$??0CRulerRichEdit@@QAE@XZ DD 019930522H
	DD	01H
	DD	FLAT:__unwindtable$??0CRulerRichEdit@@QAE@XZ
	DD	2 DUP(00H)
	DD	2 DUP(00H)
	DD	00H
	DD	01H
; Function compile flags: /Odtp /RTCsu
xdata$x	ENDS
;	COMDAT ??0CRulerRichEdit@@QAE@XZ
_TEXT	SEGMENT
_this$ = -16						; size = 4
__$EHRec$ = -12						; size = 12
??0CRulerRichEdit@@QAE@XZ PROC				; CRulerRichEdit::CRulerRichEdit, COMDAT
; _this$ = ecx

; 107  : {

	push	ebp
	mov	ebp, esp
	push	-1
	push	__ehhandler$??0CRulerRichEdit@@QAE@XZ
	mov	eax, DWORD PTR fs:0
	push	eax
	push	ecx
	mov	DWORD PTR [ebp-16], -858993460		; ccccccccH
	mov	eax, DWORD PTR ___security_cookie
	xor	eax, ebp
	push	eax
	lea	eax, DWORD PTR __$EHRec$[ebp]
	mov	DWORD PTR fs:0, eax
	mov	DWORD PTR _this$[ebp], ecx
	mov	ecx, DWORD PTR _this$[ebp]
	call	??0CUrlRichEditCtrl@@QAE@XZ		; CUrlRichEditCtrl::CUrlRichEditCtrl
	mov	DWORD PTR __$EHRec$[ebp+8], 0
	mov	eax, DWORD PTR _this$[ebp]
	mov	DWORD PTR [eax], OFFSET ??_7CRulerRichEdit@@6B@
	mov	ecx, DWORD PTR _this$[ebp]
	mov	DWORD PTR [ecx+300], 0
	mov	edx, DWORD PTR _this$[ebp]
	mov	DWORD PTR [edx+304], 3

; 108  : 	EnableSelectOnFocus(FALSE);

	push	0
	mov	ecx, DWORD PTR _this$[ebp]
	call	?EnableSelectOnFocus@CRichEditBaseCtrl@@QAEXH@Z ; CRichEditBaseCtrl::EnableSelectOnFocus

; 109  : }

	mov	DWORD PTR __$EHRec$[ebp+8], -1
	mov	eax, DWORD PTR _this$[ebp]
	mov	ecx, DWORD PTR __$EHRec$[ebp]
	mov	DWORD PTR fs:0, ecx
	pop	ecx
	add	esp, 16					; 00000010H
	cmp	ebp, esp
	call	__RTC_CheckEsp
	mov	esp, ebp
	pop	ebp
	ret	0
_TEXT	ENDS
;	COMDAT text$x
text$x	SEGMENT
__unwindfunclet$??0CRulerRichEdit@@QAE@XZ$0:
	mov	ecx, DWORD PTR _this$[ebp]
	jmp	??1CUrlRichEditCtrl@@UAE@XZ		; CUrlRichEditCtrl::~CUrlRichEditCtrl
__ehhandler$??0CRulerRichEdit@@QAE@XZ:
	mov	edx, DWORD PTR [esp+8]
	lea	eax, DWORD PTR [edx+12]
	mov	ecx, DWORD PTR [edx-8]
	xor	ecx, eax
	call	@__security_check_cookie@4
	mov	eax, OFFSET __ehfuncinfo$??0CRulerRichEdit@@QAE@XZ
	jmp	___CxxFrameHandler3
text$x	ENDS
??0CRulerRichEdit@@QAE@XZ ENDP				; CRulerRichEdit::CRulerRichEdit
; Function compile flags: /Odtp /RTCsu
; File d:\_code\shared\richeditbasectrl.h
;	COMDAT ?EnableSelectOnFocus@CRichEditBaseCtrl@@QAEXH@Z
_TEXT	SEGMENT
_this$ = -4						; size = 4
_bEnable$ = 8						; size = 4
?EnableSelectOnFocus@CRichEditBaseCtrl@@QAEXH@Z PROC	; CRichEditBaseCtrl::EnableSelectOnFocus, COMDAT
; _this$ = ecx

; 89   : 	void EnableSelectOnFocus(BOOL bEnable) { m_bEnableSelectOnFocus = bEnable; }

	push	ebp
	mov	ebp, esp
	push	ecx
	mov	DWORD PTR [ebp-4], -858993460		; ccccccccH
	mov	DWORD PTR _this$[ebp], ecx
	mov	eax, DWORD PTR _this$[ebp]
	mov	ecx, DWORD PTR _bEnable$[ebp]
	mov	DWORD PTR [eax+116], ecx
	mov	esp, ebp
	pop	ebp
	ret	4
?EnableSelectOnFocus@CRichEditBaseCtrl@@QAEXH@Z ENDP	; CRichEditBaseCtrl::EnableSelectOnFocus
; Function compile flags: /Odtp /RTCsu
_TEXT	ENDS
;	COMDAT ?GetNewStorage@CRichEditBaseCtrl@@MAEJPAPAUIStorage@@@Z
_TEXT	SEGMENT
_this$ = -4						; size = 4
___formal$ = 8						; size = 4
?GetNewStorage@CRichEditBaseCtrl@@MAEJPAPAUIStorage@@@Z PROC ; CRichEditBaseCtrl::GetNewStorage, COMDAT
; _this$ = ecx

; 210  : 	virtual HRESULT GetNewStorage(LPSTORAGE* /*lplpstg*/) { return S_OK; }

	push	ebp
	mov	ebp, esp
	push	ecx
	mov	DWORD PTR [ebp-4], -858993460		; ccccccccH
	mov	DWORD PTR _this$[ebp], ecx
	xor	eax, eax
	mov	esp, ebp
	pop	ebp
	ret	4
?GetNewStorage@CRichEditBaseCtrl@@MAEJPAPAUIStorage@@@Z ENDP ; CRichEditBaseCtrl::GetNewStorage
; Function compile flags: /Odtp /RTCsu
_TEXT	ENDS
;	COMDAT ?GetInPlaceContext@CRichEditBaseCtrl@@MAEJPAPAUIOleInPlaceFrame@@PAPAUIOleInPlaceUIWindow@@PAUtagOIFI@@@Z
_TEXT	SEGMENT
_this$ = -4						; size = 4
___formal$ = 8						; size = 4
___formal$ = 12						; size = 4
___formal$ = 16						; size = 4
?GetInPlaceContext@CRichEditBaseCtrl@@MAEJPAPAUIOleInPlaceFrame@@PAPAUIOleInPlaceUIWindow@@PAUtagOIFI@@@Z PROC ; CRichEditBaseCtrl::GetInPlaceContext, COMDAT
; _this$ = ecx

; 212  : 		LPOLEINPLACEUIWINDOW FAR* /*lplpDoc*/, LPOLEINPLACEFRAMEINFO /*lpFrameInfo*/) { return S_FALSE; }

	push	ebp
	mov	ebp, esp
	push	ecx
	mov	DWORD PTR [ebp-4], -858993460		; ccccccccH
	mov	DWORD PTR _this$[ebp], ecx
	mov	eax, 1
	mov	esp, ebp
	pop	ebp
	ret	12					; 0000000cH
?GetInPlaceContext@CRichEditBaseCtrl@@MAEJPAPAUIOleInPlaceFrame@@PAPAUIOleInPlaceUIWindow@@PAUtagOIFI@@@Z ENDP ; CRichEditBaseCtrl::GetInPlaceContext
; Function compile flags: /Odtp /RTCsu
_TEXT	ENDS
;	COMDAT ?ShowContainerUI@CRichEditBaseCtrl@@MAEJH@Z
_TEXT	SEGMENT
_this$ = -4						; size = 4
___formal$ = 8						; size = 4
?ShowContainerUI@CRichEditBaseCtrl@@MAEJH@Z PROC	; CRichEditBaseCtrl::ShowContainerUI, COMDAT
; _this$ = ecx

; 213  : 	virtual HRESULT ShowContainerUI(BOOL /*fShow*/) { return S_FALSE; }

	push	ebp
	mov	ebp, esp
	push	ecx
	mov	DWORD PTR [ebp-4], -858993460		; ccccccccH
	mov	DWORD PTR _this$[ebp], ecx
	mov	eax, 1
	mov	esp, ebp
	pop	ebp
	ret	4
?ShowContainerUI@CRichEditBaseCtrl@@MAEJH@Z ENDP	; CRichEditBaseCtrl::ShowContainerUI
; Function compile flags: /Odtp /RTCsu
_TEXT	ENDS
;	COMDAT ?QueryInsertObject@CRichEditBaseCtrl@@MAEJPAU_GUID@@PAUIStorage@@J@Z
_TEXT	SEGMENT
_this$ = -4						; size = 4
___formal$ = 8						; size = 4
___formal$ = 12						; size = 4
___formal$ = 16						; size = 4
?QueryInsertObject@CRichEditBaseCtrl@@MAEJPAU_GUID@@PAUIStorage@@J@Z PROC ; CRichEditBaseCtrl::QueryInsertObject, COMDAT
; _this$ = ecx

; 214  : 	virtual HRESULT QueryInsertObject(LPCLSID /*lpclsid*/, LPSTORAGE /*lpstg*/, LONG /*cp*/) { return S_OK; }

	push	ebp
	mov	ebp, esp
	push	ecx
	mov	DWORD PTR [ebp-4], -858993460		; ccccccccH
	mov	DWORD PTR _this$[ebp], ecx
	xor	eax, eax
	mov	esp, ebp
	pop	ebp
	ret	12					; 0000000cH
?QueryInsertObject@CRichEditBaseCtrl@@MAEJPAU_GUID@@PAUIStorage@@J@Z ENDP ; CRichEditBaseCtrl::QueryInsertObject
; Function compile flags: /Odtp /RTCsu
_TEXT	ENDS
;	COMDAT ?DeleteObject@CRichEditBaseCtrl@@MAEJPAUIOleObject@@@Z
_TEXT	SEGMENT
_this$ = -4						; size = 4
___formal$ = 8						; size = 4
?DeleteObject@CRichEditBaseCtrl@@MAEJPAUIOleObject@@@Z PROC ; CRichEditBaseCtrl::DeleteObject, COMDAT
; _this$ = ecx

; 215  : 	virtual HRESULT DeleteObject(LPOLEOBJECT /*lpoleobj*/) { return S_OK; }

	push	ebp
	mov	ebp, esp
	push	ecx
	mov	DWORD PTR [ebp-4], -858993460		; ccccccccH
	mov	DWORD PTR _this$[ebp], ecx
	xor	eax, eax
	mov	esp, ebp
	pop	ebp
	ret	4
?DeleteObject@CRichEditBaseCtrl@@MAEJPAUIOleObject@@@Z ENDP ; CRichEditBaseCtrl::DeleteObject
; Function compile flags: /Odtp /RTCsu
_TEXT	ENDS
;	COMDAT ?ContextSensitiveHelp@CRichEditBaseCtrl@@MAEJH@Z
_TEXT	SEGMENT
_this$ = -4						; size = 4
___formal$ = 8						; size = 4
?ContextSensitiveHelp@CRichEditBaseCtrl@@MAEJH@Z PROC	; CRichEditBaseCtrl::ContextSensitiveHelp, COMDAT
; _this$ = ecx

; 218  : 	virtual HRESULT ContextSensitiveHelp(BOOL /*fEnterMode*/) { return S_OK; }

	push	ebp
	mov	ebp, esp
	push	ecx
	mov	DWORD PTR [ebp-4], -858993460		; ccccccccH
	mov	DWORD PTR _this$[ebp], ecx
	xor	eax, eax
	mov	esp, ebp
	pop	ebp
	ret	4
?ContextSensitiveHelp@CRichEditBaseCtrl@@MAEJH@Z ENDP	; CRichEditBaseCtrl::ContextSensitiveHelp
; Function compile flags: /Odtp /RTCsu
_TEXT	ENDS
;	COMDAT ?GetClipboardData@CRichEditBaseCtrl@@MAEJPAU_charrange@@KPAPAUIDataObject@@@Z
_TEXT	SEGMENT
_this$ = -4						; size = 4
___formal$ = 8						; size = 4
___formal$ = 12						; size = 4
___formal$ = 16						; size = 4
?GetClipboardData@CRichEditBaseCtrl@@MAEJPAU_charrange@@KPAPAUIDataObject@@@Z PROC ; CRichEditBaseCtrl::GetClipboardData, COMDAT
; _this$ = ecx

; 219  : 	virtual HRESULT GetClipboardData(CHARRANGE FAR* /*lpchrg*/, DWORD /*reco*/, LPDATAOBJECT FAR* /*lplpdataobj*/) { return E_NOTIMPL; }

	push	ebp
	mov	ebp, esp
	push	ecx
	mov	DWORD PTR [ebp-4], -858993460		; ccccccccH
	mov	DWORD PTR _this$[ebp], ecx
	mov	eax, -2147467263			; 80004001H
	mov	esp, ebp
	pop	ebp
	ret	12					; 0000000cH
?GetClipboardData@CRichEditBaseCtrl@@MAEJPAU_charrange@@KPAPAUIDataObject@@@Z ENDP ; CRichEditBaseCtrl::GetClipboardData
_TEXT	ENDS
PUBLIC	??1CRulerRichEdit@@UAE@XZ			; CRulerRichEdit::~CRulerRichEdit
EXTRN	??3CObject@@SGXPAX@Z:PROC			; CObject::operator delete
; Function compile flags: /Odtp /RTCsu
;	COMDAT ??_GCRulerRichEdit@@UAEPAXI@Z
_TEXT	SEGMENT
_this$ = -4						; size = 4
___flags$ = 8						; size = 4
??_GCRulerRichEdit@@UAEPAXI@Z PROC			; CRulerRichEdit::`scalar deleting destructor', COMDAT
; _this$ = ecx
	push	ebp
	mov	ebp, esp
	push	ecx
	mov	DWORD PTR [ebp-4], -858993460		; ccccccccH
	mov	DWORD PTR _this$[ebp], ecx
	mov	ecx, DWORD PTR _this$[ebp]
	call	??1CRulerRichEdit@@UAE@XZ		; CRulerRichEdit::~CRulerRichEdit
	mov	eax, DWORD PTR ___flags$[ebp]
	and	eax, 1
	je	SHORT $LN1@scalar
	mov	ecx, DWORD PTR _this$[ebp]
	push	ecx
	call	??3CObject@@SGXPAX@Z			; CObject::operator delete
$LN1@scalar:
	mov	eax, DWORD PTR _this$[ebp]
	add	esp, 4
	cmp	ebp, esp
	call	__RTC_CheckEsp
	mov	esp, ebp
	pop	ebp
	ret	4
??_GCRulerRichEdit@@UAEPAXI@Z ENDP			; CRulerRichEdit::`scalar deleting destructor'
; Function compile flags: /Odtp /RTCsu
; File d:\_code\rtfcontentctrl\rulerrichedit.cpp
_TEXT	ENDS
;	COMDAT ??1CRulerRichEdit@@UAE@XZ
_TEXT	SEGMENT
_this$ = -4						; size = 4
??1CRulerRichEdit@@UAE@XZ PROC				; CRulerRichEdit::~CRulerRichEdit, COMDAT
; _this$ = ecx

; 112  : {

	push	ebp
	mov	ebp, esp
	push	ecx
	mov	DWORD PTR [ebp-4], -858993460		; ccccccccH
	mov	DWORD PTR _this$[ebp], ecx
	mov	eax, DWORD PTR _this$[ebp]
	mov	DWORD PTR [eax], OFFSET ??_7CRulerRichEdit@@6B@

; 113  : }

	mov	ecx, DWORD PTR _this$[ebp]
	call	??1CUrlRichEditCtrl@@UAE@XZ		; CUrlRichEditCtrl::~CUrlRichEditCtrl
	add	esp, 4
	cmp	ebp, esp
	call	__RTC_CheckEsp
	mov	esp, ebp
	pop	ebp
	ret	0
??1CRulerRichEdit@@UAE@XZ ENDP				; CRulerRichEdit::~CRulerRichEdit
_TEXT	ENDS
PUBLIC	?GetThisMessageMap@CRulerRichEdit@@KGPBUAFX_MSGMAP@@XZ ; CRulerRichEdit::GetThisMessageMap
; Function compile flags: /Odtp /RTCsu
;	COMDAT ?GetMessageMap@CRulerRichEdit@@MBEPBUAFX_MSGMAP@@XZ
_TEXT	SEGMENT
_this$ = -4						; size = 4
?GetMessageMap@CRulerRichEdit@@MBEPBUAFX_MSGMAP@@XZ PROC ; CRulerRichEdit::GetMessageMap, COMDAT
; _this$ = ecx

; 115  : BEGIN_MESSAGE_MAP(CRulerRichEdit, CUrlRichEditCtrl)

	push	ebp
	mov	ebp, esp
	push	ecx
	mov	DWORD PTR [ebp-4], -858993460		; ccccccccH
	mov	DWORD PTR _this$[ebp], ecx
	call	?GetThisMessageMap@CRulerRichEdit@@KGPBUAFX_MSGMAP@@XZ ; CRulerRichEdit::GetThisMessageMap
	add	esp, 4
	cmp	ebp, esp
	call	__RTC_CheckEsp
	mov	esp, ebp
	pop	ebp
	ret	0
?GetMessageMap@CRulerRichEdit@@MBEPBUAFX_MSGMAP@@XZ ENDP ; CRulerRichEdit::GetMessageMap
_TEXT	ENDS
PUBLIC	?OnHScroll@CRulerRichEdit@@IAEXIIPAVCScrollBar@@@Z ; CRulerRichEdit::OnHScroll
PUBLIC	?OnGetDlgCode@CRulerRichEdit@@IAEIXZ		; CRulerRichEdit::OnGetDlgCode
PUBLIC	?OnLButtonDblClk@CRulerRichEdit@@IAEXIVCPoint@@@Z ; CRulerRichEdit::OnLButtonDblClk
PUBLIC	?OnCreate@CRulerRichEdit@@IAEHPAUtagCREATESTRUCTW@@@Z ; CRulerRichEdit::OnCreate
PUBLIC	?OnDropFiles@CRulerRichEdit@@IAEJIJ@Z		; CRulerRichEdit::OnDropFiles
PUBLIC	?OnIMEStartComposition@CRulerRichEdit@@IAEJIJ@Z	; CRulerRichEdit::OnIMEStartComposition
PUBLIC	?OnIMEEndComposition@CRulerRichEdit@@IAEJIJ@Z	; CRulerRichEdit::OnIMEEndComposition
EXTRN	?GetThisMessageMap@CUrlRichEditCtrl@@KGPBUAFX_MSGMAP@@XZ:PROC ; CUrlRichEditCtrl::GetThisMessageMap
;	COMDAT ?_messageEntries@?1??GetThisMessageMap@CRulerRichEdit@@KGPBUAFX_MSGMAP@@XZ@4QBUAFX_MSGMAP_ENTRY@@B
CONST	SEGMENT
?_messageEntries@?1??GetThisMessageMap@CRulerRichEdit@@KGPBUAFX_MSGMAP@@XZ@4QBUAFX_MSGMAP_ENTRY@@B DD 0114H ; `CRulerRichEdit::GetThisMessageMap'::`2'::_messageEntries
	DD	00H
	DD	00H
	DD	00H
	DD	02aH
	DD	FLAT:?OnHScroll@CRulerRichEdit@@IAEXIIPAVCScrollBar@@@Z
	DD	087H
	DD	00H
	DD	00H
	DD	00H
	DD	031H
	DD	FLAT:?OnGetDlgCode@CRulerRichEdit@@IAEIXZ
	DD	0203H
	DD	00H
	DD	00H
	DD	00H
	DD	035H
	DD	FLAT:?OnLButtonDblClk@CRulerRichEdit@@IAEXIVCPoint@@@Z
	DD	01H
	DD	00H
	DD	00H
	DD	00H
	DD	0dH
	DD	FLAT:?OnCreate@CRulerRichEdit@@IAEHPAUtagCREATESTRUCTW@@@Z
	DD	0233H
	DD	00H
	DD	00H
	DD	00H
	DD	0eH
	DD	FLAT:?OnDropFiles@CRulerRichEdit@@IAEJIJ@Z
	DD	010dH
	DD	00H
	DD	00H
	DD	00H
	DD	0eH
	DD	FLAT:?OnIMEStartComposition@CRulerRichEdit@@IAEJIJ@Z
	DD	010eH
	DD	00H
	DD	00H
	DD	00H
	DD	0eH
	DD	FLAT:?OnIMEEndComposition@CRulerRichEdit@@IAEJIJ@Z
	DD	00H
	DD	00H
	DD	00H
	DD	00H
	DD	00H
	DD	00H
CONST	ENDS
;	COMDAT ?messageMap@?1??GetThisMessageMap@CRulerRichEdit@@KGPBUAFX_MSGMAP@@XZ@4U3@B
CONST	SEGMENT
?messageMap@?1??GetThisMessageMap@CRulerRichEdit@@KGPBUAFX_MSGMAP@@XZ@4U3@B DD FLAT:?GetThisMessageMap@CUrlRichEditCtrl@@KGPBUAFX_MSGMAP@@XZ ; `CRulerRichEdit::GetThisMessageMap'::`2'::messageMap
	DD	FLAT:?_messageEntries@?1??GetThisMessageMap@CRulerRichEdit@@KGPBUAFX_MSGMAP@@XZ@4QBUAFX_MSGMAP_ENTRY@@B
; Function compile flags: /Odtp /RTCsu
CONST	ENDS
;	COMDAT ?GetThisMessageMap@CRulerRichEdit@@KGPBUAFX_MSGMAP@@XZ
_TEXT	SEGMENT
?GetThisMessageMap@CRulerRichEdit@@KGPBUAFX_MSGMAP@@XZ PROC ; CRulerRichEdit::GetThisMessageMap, COMDAT

; 115  : BEGIN_MESSAGE_MAP(CRulerRichEdit, CUrlRichEditCtrl)

	push	ebp
	mov	ebp, esp

; 116  : //{{AFX_MSG_MAP(CRulerRichEdit)
; 117  : 	ON_WM_HSCROLL()
; 118  : 	ON_WM_GETDLGCODE()
; 119  : 	ON_WM_LBUTTONDBLCLK()
; 120  : 	ON_WM_CREATE()
; 121  : 	//}}AFX_MSG_MAP
; 122  : 	ON_MESSAGE(WM_DROPFILES, OnDropFiles)
; 123  : 	ON_MESSAGE(WM_IME_STARTCOMPOSITION, OnIMEStartComposition)
; 124  : 	ON_MESSAGE(WM_IME_ENDCOMPOSITION, OnIMEEndComposition)
; 125  : END_MESSAGE_MAP()

	mov	eax, OFFSET ?messageMap@?1??GetThisMessageMap@CRulerRichEdit@@KGPBUAFX_MSGMAP@@XZ@4U3@B
	pop	ebp
	ret	0
?GetThisMessageMap@CRulerRichEdit@@KGPBUAFX_MSGMAP@@XZ ENDP ; CRulerRichEdit::GetThisMessageMap
_TEXT	ENDS
PUBLIC	?SetFileLinkOption@CRulerRichEdit@@QAEXW4RE_PASTE@@H@Z ; CRulerRichEdit::SetFileLinkOption
; Function compile flags: /Odtp /RTCsu
;	COMDAT ?SetFileLinkOption@CRulerRichEdit@@QAEXW4RE_PASTE@@H@Z
_TEXT	SEGMENT
_this$ = -4						; size = 4
_nLinkOption$ = 8					; size = 4
_bDefault$ = 12						; size = 4
?SetFileLinkOption@CRulerRichEdit@@QAEXW4RE_PASTE@@H@Z PROC ; CRulerRichEdit::SetFileLinkOption, COMDAT
; _this$ = ecx

; 131  : { 

	push	ebp
	mov	ebp, esp
	push	ecx
	mov	DWORD PTR [ebp-4], -858993460		; ccccccccH
	mov	DWORD PTR _this$[ebp], ecx

; 132  : 	m_nFileLinkOption = nLinkOption; 

	mov	eax, DWORD PTR _this$[ebp]
	mov	ecx, DWORD PTR _nLinkOption$[ebp]
	mov	DWORD PTR [eax+304], ecx

; 133  : 	m_bLinkOptionIsDefault = bDefault;

	mov	edx, DWORD PTR _this$[ebp]
	mov	eax, DWORD PTR _bDefault$[ebp]
	mov	DWORD PTR [edx+308], eax

; 134  : }

	mov	esp, ebp
	pop	ebp
	ret	8
?SetFileLinkOption@CRulerRichEdit@@QAEXW4RE_PASTE@@H@Z ENDP ; CRulerRichEdit::SetFileLinkOption
_TEXT	ENDS
EXTRN	?OnCreate@CUrlRichEditCtrl@@IAEHPAUtagCREATESTRUCTW@@@Z:PROC ; CUrlRichEditCtrl::OnCreate
; Function compile flags: /Odtp /RTCsu
;	COMDAT ?OnCreate@CRulerRichEdit@@IAEHPAUtagCREATESTRUCTW@@@Z
_TEXT	SEGMENT
_this$ = -4						; size = 4
_lpCreateStruct$ = 8					; size = 4
?OnCreate@CRulerRichEdit@@IAEHPAUtagCREATESTRUCTW@@@Z PROC ; CRulerRichEdit::OnCreate, COMDAT
; _this$ = ecx

; 137  : {

	push	ebp
	mov	ebp, esp
	push	ecx
	mov	DWORD PTR [ebp-4], -858993460		; ccccccccH
	mov	DWORD PTR _this$[ebp], ecx

; 138  : 	if (CUrlRichEditCtrl::OnCreate(lpCreateStruct) == -1)

	mov	eax, DWORD PTR _lpCreateStruct$[ebp]
	push	eax
	mov	ecx, DWORD PTR _this$[ebp]
	call	?OnCreate@CUrlRichEditCtrl@@IAEHPAUtagCREATESTRUCTW@@@Z ; CUrlRichEditCtrl::OnCreate
	cmp	eax, -1
	jne	SHORT $LN1@OnCreate

; 139  : 		return -1;

	or	eax, -1
	jmp	SHORT $LN2@OnCreate
$LN1@OnCreate:

; 140  : 
; 141  : 	return 0;

	xor	eax, eax
$LN2@OnCreate:

; 142  : }

	add	esp, 4
	cmp	ebp, esp
	call	__RTC_CheckEsp
	mov	esp, ebp
	pop	ebp
	ret	4
?OnCreate@CRulerRichEdit@@IAEHPAUtagCREATESTRUCTW@@@Z ENDP ; CRulerRichEdit::OnCreate
_TEXT	ENDS
PUBLIC	__$ArrayPad$
EXTRN	?SendMessageW@CWnd@@QBEJIIJ@Z:PROC		; CWnd::SendMessageW
EXTRN	?GetParent@CWnd@@QBEPAV1@XZ:PROC		; CWnd::GetParent
EXTRN	?GetDlgCtrlID@CWnd@@QBEHXZ:PROC			; CWnd::GetDlgCtrlID
EXTRN	?GetSafeHwnd@CWnd@@QBEPAUHWND__@@XZ:PROC	; CWnd::GetSafeHwnd
EXTRN	?SetScrollInfo@CWnd@@QAEHHPAUtagSCROLLINFO@@H@Z:PROC ; CWnd::SetScrollInfo
EXTRN	?GetScrollInfo@CWnd@@QAEHHPAUtagSCROLLINFO@@I@Z:PROC ; CWnd::GetScrollInfo
EXTRN	_memset:PROC
EXTRN	?OnHScroll@CWnd@@IAEXIIPAVCScrollBar@@@Z:PROC	; CWnd::OnHScroll
; Function compile flags: /Odtp /RTCsu
;	COMDAT ?OnHScroll@CRulerRichEdit@@IAEXIIPAVCScrollBar@@@Z
_TEXT	SEGMENT
_si$174525 = -40					; size = 28
_this$ = -8						; size = 4
__$ArrayPad$ = -4					; size = 4
_nSBCode$ = 8						; size = 4
_nPos$ = 12						; size = 4
_pScrollBar$ = 16					; size = 4
?OnHScroll@CRulerRichEdit@@IAEXIIPAVCScrollBar@@@Z PROC	; CRulerRichEdit::OnHScroll, COMDAT
; _this$ = ecx

; 145  : {

	push	ebp
	mov	ebp, esp
	sub	esp, 44					; 0000002cH
	push	edi
	push	ecx
	lea	edi, DWORD PTR [ebp-44]
	mov	ecx, 11					; 0000000bH
	mov	eax, -858993460				; ccccccccH
	rep stosd
	pop	ecx
	mov	eax, DWORD PTR ___security_cookie
	xor	eax, ebp
	mov	DWORD PTR __$ArrayPad$[ebp], eax
	mov	DWORD PTR _this$[ebp], ecx

; 146  : 	CUrlRichEditCtrl::OnHScroll( nSBCode, nPos, pScrollBar );

	mov	eax, DWORD PTR _pScrollBar$[ebp]
	push	eax
	mov	ecx, DWORD PTR _nPos$[ebp]
	push	ecx
	mov	edx, DWORD PTR _nSBCode$[ebp]
	push	edx
	mov	ecx, DWORD PTR _this$[ebp]
	call	?OnHScroll@CWnd@@IAEXIIPAVCScrollBar@@@Z ; CWnd::OnHScroll

; 147  : 	
; 148  : 	if ( nSBCode == SB_THUMBTRACK )

	cmp	DWORD PTR _nSBCode$[ebp], 5
	jne	SHORT $LN2@OnHScroll

; 149  : 	{
; 150  : 		SCROLLINFO	si;
; 151  : 		ZeroMemory( &si, sizeof( SCROLLINFO ) );

	push	28					; 0000001cH
	push	0
	lea	eax, DWORD PTR _si$174525[ebp]
	push	eax
	call	_memset
	add	esp, 12					; 0000000cH

; 152  : 		si.cbSize = sizeof( SCROLLINFO );

	mov	DWORD PTR _si$174525[ebp], 28		; 0000001cH

; 153  : 		GetScrollInfo( SB_HORZ, &si );

	push	23					; 00000017H
	lea	ecx, DWORD PTR _si$174525[ebp]
	push	ecx
	push	0
	mov	ecx, DWORD PTR _this$[ebp]
	call	?GetScrollInfo@CWnd@@QAEHHPAUtagSCROLLINFO@@I@Z ; CWnd::GetScrollInfo

; 154  : 		
; 155  : 		si.nPos = nPos;

	mov	edx, DWORD PTR _nPos$[ebp]
	mov	DWORD PTR _si$174525[ebp+20], edx

; 156  : 		SetScrollInfo( SB_HORZ, &si );

	push	1
	lea	eax, DWORD PTR _si$174525[ebp]
	push	eax
	push	0
	mov	ecx, DWORD PTR _this$[ebp]
	call	?SetScrollInfo@CWnd@@QAEHHPAUtagSCROLLINFO@@H@Z ; CWnd::SetScrollInfo

; 157  : 		
; 158  : 		// notify parent
; 159  : 		GetParent()->SendMessage(WM_COMMAND, MAKEWPARAM(GetDlgCtrlID(), EN_HSCROLL), (LPARAM)GetSafeHwnd());

	mov	ecx, DWORD PTR _this$[ebp]
	call	?GetSafeHwnd@CWnd@@QBEPAUHWND__@@XZ	; CWnd::GetSafeHwnd
	push	eax
	mov	ecx, DWORD PTR _this$[ebp]
	call	?GetDlgCtrlID@CWnd@@QBEHXZ		; CWnd::GetDlgCtrlID
	and	eax, 65535				; 0000ffffH
	movzx	ecx, ax
	or	ecx, 100728832				; 06010000H
	push	ecx
	push	273					; 00000111H
	mov	ecx, DWORD PTR _this$[ebp]
	call	?GetParent@CWnd@@QBEPAV1@XZ		; CWnd::GetParent
	mov	ecx, eax
	call	?SendMessageW@CWnd@@QBEJIIJ@Z		; CWnd::SendMessageW
$LN2@OnHScroll:

; 160  : 	}
; 161  : }

	push	edx
	mov	ecx, ebp
	push	eax
	lea	edx, DWORD PTR $LN6@OnHScroll
	call	@_RTC_CheckStackVars@8
	pop	eax
	pop	edx
	pop	edi
	mov	ecx, DWORD PTR __$ArrayPad$[ebp]
	xor	ecx, ebp
	call	@__security_check_cookie@4
	add	esp, 44					; 0000002cH
	cmp	ebp, esp
	call	__RTC_CheckEsp
	mov	esp, ebp
	pop	ebp
	ret	12					; 0000000cH
$LN6@OnHScroll:
	DD	1
	DD	$LN5@OnHScroll
$LN5@OnHScroll:
	DD	-40					; ffffffd8H
	DD	28					; 0000001cH
	DD	$LN4@OnHScroll
$LN4@OnHScroll:
	DB	115					; 00000073H
	DB	105					; 00000069H
	DB	0
?OnHScroll@CRulerRichEdit@@IAEXIIPAVCScrollBar@@@Z ENDP	; CRulerRichEdit::OnHScroll
_TEXT	ENDS
PUBLIC	?GetMakeLinkOptionDefault@CCreateFileLinkDlg@@QBEHXZ ; CCreateFileLinkDlg::GetMakeLinkOptionDefault
PUBLIC	?GetLinkOption@CCreateFileLinkDlg@@QBE?AW4RE_PASTE@@XZ ; CCreateFileLinkDlg::GetLinkOption
PUBLIC	??1CCreateFileLinkDlg@@UAE@XZ			; CCreateFileLinkDlg::~CCreateFileLinkDlg
EXTRN	?AfxMessageBox@@YGHIII@Z:PROC			; AfxMessageBox
EXTRN	?PasteFiles@CRichEditHelper@@SAHPAUHWND__@@ABVCStringArray@@W4RE_PASTE@@@Z:PROC ; CRichEditHelper::PasteFiles
EXTRN	??1CWaitCursor@@QAE@XZ:PROC			; CWaitCursor::~CWaitCursor
EXTRN	??1CStringArray@@UAE@XZ:PROC			; CStringArray::~CStringArray
EXTRN	?DoModal@CDialog@@UAEHXZ:PROC			; CDialog::DoModal
EXTRN	??0CCreateFileLinkDlg@@QAE@PB_WW4RE_PASTE@@HPAVCWnd@@@Z:PROC ; CCreateFileLinkDlg::CCreateFileLinkDlg
EXTRN	__imp_??B?$CSimpleStringT@_W$00@ATL@@QBEPB_WXZ:PROC
EXTRN	??ACStringArray@@QAEAAV?$CStringT@_WV?$StrTraitMFC_DLL@_WV?$ChTraitsCRT@_W@ATL@@@@@ATL@@H@Z:PROC ; CStringArray::operator[]
EXTRN	__imp__CloseClipboard@0:PROC
EXTRN	__imp__DragFinish@4:PROC
EXTRN	?GetDropFilePaths@FileMisc@@YAHPAUHDROP__@@AAVCStringArray@@@Z:PROC ; FileMisc::GetDropFilePaths
EXTRN	??0CStringArray@@QAE@XZ:PROC			; CStringArray::CStringArray
EXTRN	??0CWaitCursor@@QAE@XZ:PROC			; CWaitCursor::CWaitCursor
;	COMDAT xdata$x
xdata$x	SEGMENT
__unwindtable$?OnDropFiles@CRulerRichEdit@@IAEJIJ@Z DD 0ffffffffH
	DD	FLAT:__unwindfunclet$?OnDropFiles@CRulerRichEdit@@IAEJIJ@Z$0
	DD	00H
	DD	FLAT:__unwindfunclet$?OnDropFiles@CRulerRichEdit@@IAEJIJ@Z$1
	DD	01H
	DD	FLAT:__unwindfunclet$?OnDropFiles@CRulerRichEdit@@IAEJIJ@Z$2
__ehfuncinfo$?OnDropFiles@CRulerRichEdit@@IAEJIJ@Z DD 019930522H
	DD	03H
	DD	FLAT:__unwindtable$?OnDropFiles@CRulerRichEdit@@IAEJIJ@Z
	DD	2 DUP(00H)
	DD	2 DUP(00H)
	DD	00H
	DD	01H
; Function compile flags: /Odtp /RTCsu
xdata$x	ENDS
;	COMDAT ?OnDropFiles@CRulerRichEdit@@IAEJIJ@Z
_TEXT	SEGMENT
$T176228 = -240						; size = 4
$T176227 = -236						; size = 4
$T176226 = -232						; size = 4
_dialog$174549 = -224					; size = 160
_nNumFiles$ = -60					; size = 4
_aFiles$ = -52						; size = 20
_cursor$ = -21						; size = 1
_this$ = -16						; size = 4
__$EHRec$ = -12						; size = 12
_wp$ = 8						; size = 4
___formal$ = 12						; size = 4
?OnDropFiles@CRulerRichEdit@@IAEJIJ@Z PROC		; CRulerRichEdit::OnDropFiles, COMDAT
; _this$ = ecx

; 164  : {

	push	ebp
	mov	ebp, esp
	push	-1
	push	__ehhandler$?OnDropFiles@CRulerRichEdit@@IAEJIJ@Z
	mov	eax, DWORD PTR fs:0
	push	eax
	sub	esp, 228				; 000000e4H
	push	esi
	push	edi
	push	ecx
	lea	edi, DWORD PTR [ebp-240]
	mov	ecx, 57					; 00000039H
	mov	eax, -858993460				; ccccccccH
	rep stosd
	pop	ecx
	mov	eax, DWORD PTR ___security_cookie
	xor	eax, ebp
	push	eax
	lea	eax, DWORD PTR __$EHRec$[ebp]
	mov	DWORD PTR fs:0, eax
	mov	DWORD PTR _this$[ebp], ecx

; 165  : 	CWaitCursor cursor;

	lea	ecx, DWORD PTR _cursor$[ebp]
	call	??0CWaitCursor@@QAE@XZ			; CWaitCursor::CWaitCursor
	mov	DWORD PTR __$EHRec$[ebp+8], 0

; 166  : 	CStringArray aFiles;

	lea	ecx, DWORD PTR _aFiles$[ebp]
	call	??0CStringArray@@QAE@XZ			; CStringArray::CStringArray
	mov	BYTE PTR __$EHRec$[ebp+8], 1

; 167  : 	
; 168  : 	int nNumFiles = FileMisc::GetDropFilePaths((HDROP)wp, aFiles);

	lea	eax, DWORD PTR _aFiles$[ebp]
	push	eax
	mov	ecx, DWORD PTR _wp$[ebp]
	push	ecx
	call	?GetDropFilePaths@FileMisc@@YAHPAUHDROP__@@AAVCStringArray@@@Z ; FileMisc::GetDropFilePaths
	add	esp, 8
	mov	DWORD PTR _nNumFiles$[ebp], eax

; 169  : 
; 170  : 	::DragFinish((HDROP)wp);

	mov	esi, esp
	mov	edx, DWORD PTR _wp$[ebp]
	push	edx
	call	DWORD PTR __imp__DragFinish@4
	cmp	esi, esp
	call	__RTC_CheckEsp

; 171  : 	::CloseClipboard();

	mov	esi, esp
	call	DWORD PTR __imp__CloseClipboard@0
	cmp	esi, esp
	call	__RTC_CheckEsp

; 172  : 
; 173  : 	if (nNumFiles > 0)

	cmp	DWORD PTR _nNumFiles$[ebp], 0
	jle	$LN5@OnDropFile

; 174  : 	{
; 175  : 		if (!m_bLinkOptionIsDefault)

	mov	eax, DWORD PTR _this$[ebp]
	cmp	DWORD PTR [eax+308], 0
	jne	$LN4@OnDropFile

; 176  : 		{
; 177  : 			CCreateFileLinkDlg dialog(aFiles[0], m_nFileLinkOption, FALSE);

	push	0
	push	0
	mov	ecx, DWORD PTR _this$[ebp]
	mov	edx, DWORD PTR [ecx+304]
	push	edx
	push	0
	lea	ecx, DWORD PTR _aFiles$[ebp]
	call	??ACStringArray@@QAEAAV?$CStringT@_WV?$StrTraitMFC_DLL@_WV?$ChTraitsCRT@_W@ATL@@@@@ATL@@H@Z ; CStringArray::operator[]
	mov	esi, esp
	mov	ecx, eax
	call	DWORD PTR __imp_??B?$CSimpleStringT@_W$00@ATL@@QBEPB_WXZ
	cmp	esi, esp
	call	__RTC_CheckEsp
	push	eax
	lea	ecx, DWORD PTR _dialog$174549[ebp]
	call	??0CCreateFileLinkDlg@@QAE@PB_WW4RE_PASTE@@HPAVCWnd@@@Z ; CCreateFileLinkDlg::CCreateFileLinkDlg
	mov	BYTE PTR __$EHRec$[ebp+8], 2

; 178  : 
; 179  : 			if (dialog.DoModal() != IDOK)

	lea	ecx, DWORD PTR _dialog$174549[ebp]
	call	?DoModal@CDialog@@UAEHXZ		; CDialog::DoModal
	cmp	eax, 1
	je	SHORT $LN3@OnDropFile

; 180  : 				return 0L;

	mov	DWORD PTR $T176226[ebp], 0
	mov	BYTE PTR __$EHRec$[ebp+8], 1
	lea	ecx, DWORD PTR _dialog$174549[ebp]
	call	??1CCreateFileLinkDlg@@UAE@XZ
	mov	BYTE PTR __$EHRec$[ebp+8], 0
	lea	ecx, DWORD PTR _aFiles$[ebp]
	call	??1CStringArray@@UAE@XZ			; CStringArray::~CStringArray
	mov	DWORD PTR __$EHRec$[ebp+8], -1
	lea	ecx, DWORD PTR _cursor$[ebp]
	call	??1CWaitCursor@@QAE@XZ			; CWaitCursor::~CWaitCursor
	mov	eax, DWORD PTR $T176226[ebp]
	jmp	$LN6@OnDropFile
$LN3@OnDropFile:

; 181  : 
; 182  : 			m_nFileLinkOption = dialog.GetLinkOption();

	lea	ecx, DWORD PTR _dialog$174549[ebp]
	call	?GetLinkOption@CCreateFileLinkDlg@@QBE?AW4RE_PASTE@@XZ ; CCreateFileLinkDlg::GetLinkOption
	mov	ecx, DWORD PTR _this$[ebp]
	mov	DWORD PTR [ecx+304], eax

; 183  : 			m_bLinkOptionIsDefault = dialog.GetMakeLinkOptionDefault();

	lea	ecx, DWORD PTR _dialog$174549[ebp]
	call	?GetMakeLinkOptionDefault@CCreateFileLinkDlg@@QBEHXZ ; CCreateFileLinkDlg::GetMakeLinkOptionDefault
	mov	edx, DWORD PTR _this$[ebp]
	mov	DWORD PTR [edx+308], eax

; 184  : 		}

	mov	BYTE PTR __$EHRec$[ebp+8], 1
	lea	ecx, DWORD PTR _dialog$174549[ebp]
	call	??1CCreateFileLinkDlg@@UAE@XZ
$LN4@OnDropFile:

; 185  : 
; 186  : 		return CRichEditHelper::PasteFiles(*this, aFiles, m_nFileLinkOption);

	mov	eax, DWORD PTR _this$[ebp]
	mov	ecx, DWORD PTR [eax+304]
	push	ecx
	lea	edx, DWORD PTR _aFiles$[ebp]
	push	edx
	mov	ecx, DWORD PTR _this$[ebp]
	call	??BCWnd@@QBEPAUHWND__@@XZ		; CWnd::operator HWND__ *
	push	eax
	call	?PasteFiles@CRichEditHelper@@SAHPAUHWND__@@ABVCStringArray@@W4RE_PASTE@@@Z ; CRichEditHelper::PasteFiles
	add	esp, 12					; 0000000cH
	mov	DWORD PTR $T176227[ebp], eax
	mov	BYTE PTR __$EHRec$[ebp+8], 0
	lea	ecx, DWORD PTR _aFiles$[ebp]
	call	??1CStringArray@@UAE@XZ			; CStringArray::~CStringArray
	mov	DWORD PTR __$EHRec$[ebp+8], -1
	lea	ecx, DWORD PTR _cursor$[ebp]
	call	??1CWaitCursor@@QAE@XZ			; CWaitCursor::~CWaitCursor
	mov	eax, DWORD PTR $T176227[ebp]
	jmp	SHORT $LN6@OnDropFile
	jmp	SHORT $LN2@OnDropFile
$LN5@OnDropFile:

; 187  : 	}
; 188  : 	else if (nNumFiles == -1) // error

	cmp	DWORD PTR _nNumFiles$[ebp], -1
	jne	SHORT $LN2@OnDropFile

; 189  : 	{
; 190  : 		AfxMessageBox(IDS_PASTE_ERROR, MB_OK | MB_ICONERROR);

	push	-1
	push	16					; 00000010H
	push	5006					; 0000138eH
	call	?AfxMessageBox@@YGHIII@Z		; AfxMessageBox
$LN2@OnDropFile:

; 191  : 	}
; 192  : 
; 193  : 	// else
; 194  : 	return 0L;

	mov	DWORD PTR $T176228[ebp], 0
	mov	BYTE PTR __$EHRec$[ebp+8], 0
	lea	ecx, DWORD PTR _aFiles$[ebp]
	call	??1CStringArray@@UAE@XZ			; CStringArray::~CStringArray
	mov	DWORD PTR __$EHRec$[ebp+8], -1
	lea	ecx, DWORD PTR _cursor$[ebp]
	call	??1CWaitCursor@@QAE@XZ			; CWaitCursor::~CWaitCursor
	mov	eax, DWORD PTR $T176228[ebp]
$LN6@OnDropFile:

; 195  : }

	push	edx
	mov	ecx, ebp
	push	eax
	lea	edx, DWORD PTR $LN16@OnDropFile
	call	@_RTC_CheckStackVars@8
	pop	eax
	pop	edx
	mov	ecx, DWORD PTR __$EHRec$[ebp]
	mov	DWORD PTR fs:0, ecx
	pop	ecx
	pop	edi
	pop	esi
	add	esp, 240				; 000000f0H
	cmp	ebp, esp
	call	__RTC_CheckEsp
	mov	esp, ebp
	pop	ebp
	ret	8
$LN16@OnDropFile:
	DD	3
	DD	$LN15@OnDropFile
$LN15@OnDropFile:
	DD	-21					; ffffffebH
	DD	1
	DD	$LN11@OnDropFile
	DD	-52					; ffffffccH
	DD	20					; 00000014H
	DD	$LN12@OnDropFile
	DD	-224					; ffffff20H
	DD	160					; 000000a0H
	DD	$LN13@OnDropFile
$LN13@OnDropFile:
	DB	100					; 00000064H
	DB	105					; 00000069H
	DB	97					; 00000061H
	DB	108					; 0000006cH
	DB	111					; 0000006fH
	DB	103					; 00000067H
	DB	0
$LN12@OnDropFile:
	DB	97					; 00000061H
	DB	70					; 00000046H
	DB	105					; 00000069H
	DB	108					; 0000006cH
	DB	101					; 00000065H
	DB	115					; 00000073H
	DB	0
$LN11@OnDropFile:
	DB	99					; 00000063H
	DB	117					; 00000075H
	DB	114					; 00000072H
	DB	115					; 00000073H
	DB	111					; 0000006fH
	DB	114					; 00000072H
	DB	0
_TEXT	ENDS
;	COMDAT text$x
text$x	SEGMENT
__unwindfunclet$?OnDropFiles@CRulerRichEdit@@IAEJIJ@Z$0:
	lea	ecx, DWORD PTR _cursor$[ebp]
	jmp	??1CWaitCursor@@QAE@XZ			; CWaitCursor::~CWaitCursor
__unwindfunclet$?OnDropFiles@CRulerRichEdit@@IAEJIJ@Z$1:
	lea	ecx, DWORD PTR _aFiles$[ebp]
	jmp	??1CStringArray@@UAE@XZ			; CStringArray::~CStringArray
__unwindfunclet$?OnDropFiles@CRulerRichEdit@@IAEJIJ@Z$2:
	lea	ecx, DWORD PTR _dialog$174549[ebp]
	jmp	??1CCreateFileLinkDlg@@UAE@XZ
__ehhandler$?OnDropFiles@CRulerRichEdit@@IAEJIJ@Z:
	mov	edx, DWORD PTR [esp+8]
	lea	eax, DWORD PTR [edx+12]
	mov	ecx, DWORD PTR [edx-240]
	xor	ecx, eax
	call	@__security_check_cookie@4
	mov	eax, OFFSET __ehfuncinfo$?OnDropFiles@CRulerRichEdit@@IAEJIJ@Z
	jmp	___CxxFrameHandler3
text$x	ENDS
?OnDropFiles@CRulerRichEdit@@IAEJIJ@Z ENDP		; CRulerRichEdit::OnDropFiles
; Function compile flags: /Odtp /RTCsu
; File d:\_code\rtfcontentctrl\createfilelinkdlg.h
;	COMDAT ?GetLinkOption@CCreateFileLinkDlg@@QBE?AW4RE_PASTE@@XZ
_TEXT	SEGMENT
_this$ = -4						; size = 4
?GetLinkOption@CCreateFileLinkDlg@@QBE?AW4RE_PASTE@@XZ PROC ; CCreateFileLinkDlg::GetLinkOption, COMDAT
; _this$ = ecx

; 21   : 	RE_PASTE GetLinkOption() const { return (RE_PASTE)m_nLinkOption; }

	push	ebp
	mov	ebp, esp
	push	ecx
	mov	DWORD PTR [ebp-4], -858993460		; ccccccccH
	mov	DWORD PTR _this$[ebp], ecx
	mov	eax, DWORD PTR _this$[ebp]
	mov	eax, DWORD PTR [eax+152]
	mov	esp, ebp
	pop	ebp
	ret	0
?GetLinkOption@CCreateFileLinkDlg@@QBE?AW4RE_PASTE@@XZ ENDP ; CCreateFileLinkDlg::GetLinkOption
; Function compile flags: /Odtp /RTCsu
_TEXT	ENDS
;	COMDAT ?GetMakeLinkOptionDefault@CCreateFileLinkDlg@@QBEHXZ
_TEXT	SEGMENT
_this$ = -4						; size = 4
?GetMakeLinkOptionDefault@CCreateFileLinkDlg@@QBEHXZ PROC ; CCreateFileLinkDlg::GetMakeLinkOptionDefault, COMDAT
; _this$ = ecx

; 22   : 	BOOL GetMakeLinkOptionDefault() const { return m_bMakeDefault; }

	push	ebp
	mov	ebp, esp
	push	ecx
	mov	DWORD PTR [ebp-4], -858993460		; ccccccccH
	mov	DWORD PTR _this$[ebp], ecx
	mov	eax, DWORD PTR _this$[ebp]
	mov	eax, DWORD PTR [eax+148]
	mov	esp, ebp
	pop	ebp
	ret	0
?GetMakeLinkOptionDefault@CCreateFileLinkDlg@@QBEHXZ ENDP ; CCreateFileLinkDlg::GetMakeLinkOptionDefault
_TEXT	ENDS
EXTRN	??1CDialog@@UAE@XZ:PROC				; CDialog::~CDialog
EXTRN	__imp_??1?$CStringT@_WV?$StrTraitMFC_DLL@_WV?$ChTraitsCRT@_W@ATL@@@@@ATL@@QAE@XZ:PROC
; Function compile flags: /Odtp /RTCsu
;	COMDAT ??1CCreateFileLinkDlg@@UAE@XZ
_TEXT	SEGMENT
_this$ = -4						; size = 4
??1CCreateFileLinkDlg@@UAE@XZ PROC			; CCreateFileLinkDlg::~CCreateFileLinkDlg, COMDAT
; _this$ = ecx
	push	ebp
	mov	ebp, esp
	push	ecx
	push	esi
	mov	DWORD PTR [ebp-4], -858993460		; ccccccccH
	mov	DWORD PTR _this$[ebp], ecx
	mov	ecx, DWORD PTR _this$[ebp]
	add	ecx, 156				; 0000009cH
	mov	esi, esp
	call	DWORD PTR __imp_??1?$CStringT@_WV?$StrTraitMFC_DLL@_WV?$ChTraitsCRT@_W@ATL@@@@@ATL@@QAE@XZ
	cmp	esi, esp
	call	__RTC_CheckEsp
	mov	ecx, DWORD PTR _this$[ebp]
	call	??1CDialog@@UAE@XZ			; CDialog::~CDialog
	pop	esi
	add	esp, 4
	cmp	ebp, esp
	call	__RTC_CheckEsp
	mov	esp, ebp
	pop	ebp
	ret	0
??1CCreateFileLinkDlg@@UAE@XZ ENDP			; CCreateFileLinkDlg::~CCreateFileLinkDlg
_TEXT	ENDS
PUBLIC	?HasFlag@Misc@@YAHKK@Z				; Misc::HasFlag
EXTRN	?GetDragDropEffect@CUrlRichEditCtrl@@MAEJHKPAK@Z:PROC ; CUrlRichEditCtrl::GetDragDropEffect
EXTRN	?TrackDragCursor@CUrlRichEditCtrl@@IAEXXZ:PROC	; CUrlRichEditCtrl::TrackDragCursor
EXTRN	?IsOutlookObject@CMSOutlookHelper@@SAHPAUIDataObject@@@Z:PROC ; CMSOutlookHelper::IsOutlookObject
EXTRN	?IsWindowEnabled@CWnd@@QBEHXZ:PROC		; CWnd::IsWindowEnabled
EXTRN	?GetStyle@CWnd@@QBEKXZ:PROC			; CWnd::GetStyle
; Function compile flags: /Odtp /RTCsu
; File d:\_code\rtfcontentctrl\rulerrichedit.cpp
;	COMDAT ?GetDragDropEffect@CRulerRichEdit@@MAEJHKPAK@Z
_TEXT	SEGMENT
tv94 = -28						; size = 4
tv80 = -24						; size = 4
_bShift$174570 = -20					; size = 4
_dwEffect$174569 = -16					; size = 4
_bFileDrop$174567 = -12					; size = 4
_bEnable$174565 = -8					; size = 4
_this$ = -4						; size = 4
_fDrag$ = 8						; size = 4
_grfKeyState$ = 12					; size = 4
_pdwEffect$ = 16					; size = 4
?GetDragDropEffect@CRulerRichEdit@@MAEJHKPAK@Z PROC	; CRulerRichEdit::GetDragDropEffect, COMDAT
; _this$ = ecx

; 198  : {

	push	ebp
	mov	ebp, esp
	sub	esp, 28					; 0000001cH
	mov	eax, -858993460				; ccccccccH
	mov	DWORD PTR [ebp-28], eax
	mov	DWORD PTR [ebp-24], eax
	mov	DWORD PTR [ebp-20], eax
	mov	DWORD PTR [ebp-16], eax
	mov	DWORD PTR [ebp-12], eax
	mov	DWORD PTR [ebp-8], eax
	mov	DWORD PTR [ebp-4], eax
	mov	DWORD PTR _this$[ebp], ecx

; 199  : 	if (!fDrag) // allowable dest effects

	cmp	DWORD PTR _fDrag$[ebp], 0
	jne	$LN4@GetDragDro

; 200  : 	{
; 201  : 		BOOL bEnable = !(GetStyle() & ES_READONLY) && IsWindowEnabled();

	mov	ecx, DWORD PTR _this$[ebp]
	call	?GetStyle@CWnd@@QBEKXZ			; CWnd::GetStyle
	and	eax, 2048				; 00000800H
	jne	SHORT $LN7@GetDragDro
	mov	ecx, DWORD PTR _this$[ebp]
	call	?IsWindowEnabled@CWnd@@QBEHXZ		; CWnd::IsWindowEnabled
	test	eax, eax
	je	SHORT $LN7@GetDragDro
	mov	DWORD PTR tv80[ebp], 1
	jmp	SHORT $LN8@GetDragDro
$LN7@GetDragDro:
	mov	DWORD PTR tv80[ebp], 0
$LN8@GetDragDro:
	mov	eax, DWORD PTR tv80[ebp]
	mov	DWORD PTR _bEnable$174565[ebp], eax

; 202  : 		
; 203  : 		if (bEnable)

	cmp	DWORD PTR _bEnable$174565[ebp], 0
	je	$LN4@GetDragDro

; 204  : 		{
; 205  : 			BOOL bFileDrop = (!CMSOutlookHelper::IsOutlookObject(m_lpDragObject) &&
; 206  : 								Misc::HasFlag(*pdwEffect, DROPEFFECT_LINK));

	mov	ecx, DWORD PTR _this$[ebp]
	mov	edx, DWORD PTR [ecx+288]
	push	edx
	call	?IsOutlookObject@CMSOutlookHelper@@SAHPAUIDataObject@@@Z ; CMSOutlookHelper::IsOutlookObject
	add	esp, 4
	test	eax, eax
	jne	SHORT $LN9@GetDragDro
	push	4
	mov	eax, DWORD PTR _pdwEffect$[ebp]
	mov	ecx, DWORD PTR [eax]
	push	ecx
	call	?HasFlag@Misc@@YAHKK@Z			; Misc::HasFlag
	add	esp, 8
	test	eax, eax
	je	SHORT $LN9@GetDragDro
	mov	DWORD PTR tv94[ebp], 1
	jmp	SHORT $LN10@GetDragDro
$LN9@GetDragDro:
	mov	DWORD PTR tv94[ebp], 0
$LN10@GetDragDro:
	mov	edx, DWORD PTR tv94[ebp]
	mov	DWORD PTR _bFileDrop$174567[ebp], edx

; 207  : 			
; 208  : 			if (bFileDrop)

	cmp	DWORD PTR _bFileDrop$174567[ebp], 0
	je	SHORT $LN4@GetDragDro

; 209  : 			{
; 210  : 				DWORD dwEffect = DROPEFFECT_NONE;

	mov	DWORD PTR _dwEffect$174569[ebp], 0

; 211  : 				BOOL bShift = Misc::HasFlag(grfKeyState, MK_SHIFT);

	push	4
	mov	eax, DWORD PTR _grfKeyState$[ebp]
	push	eax
	call	?HasFlag@Misc@@YAHKK@Z			; Misc::HasFlag
	add	esp, 8
	mov	DWORD PTR _bShift$174570[ebp], eax

; 212  : 
; 213  : 				// if SHIFT is down then show this as a copy because we are embedding
; 214  : 				dwEffect = (DROPEFFECT_MOVE | (bShift ? DROPEFFECT_COPY : 0));

	xor	ecx, ecx
	cmp	DWORD PTR _bShift$174570[ebp], 0
	setne	cl
	or	ecx, 2
	mov	DWORD PTR _dwEffect$174569[ebp], ecx

; 215  : 				
; 216  : 				TrackDragCursor();

	mov	ecx, DWORD PTR _this$[ebp]
	call	?TrackDragCursor@CUrlRichEditCtrl@@IAEXXZ ; CUrlRichEditCtrl::TrackDragCursor

; 217  : 				
; 218  : 				// make sure allowed type
; 219  : 				if ((dwEffect & *pdwEffect) == dwEffect) 

	mov	edx, DWORD PTR _pdwEffect$[ebp]
	mov	eax, DWORD PTR _dwEffect$174569[ebp]
	and	eax, DWORD PTR [edx]
	cmp	eax, DWORD PTR _dwEffect$174569[ebp]
	jne	SHORT $LN1@GetDragDro

; 220  : 					*pdwEffect = dwEffect;

	mov	ecx, DWORD PTR _pdwEffect$[ebp]
	mov	edx, DWORD PTR _dwEffect$174569[ebp]
	mov	DWORD PTR [ecx], edx
$LN1@GetDragDro:

; 221  : 
; 222  : 				return S_OK;

	xor	eax, eax
	jmp	SHORT $LN5@GetDragDro
$LN4@GetDragDro:

; 223  : 			}
; 224  : 		}
; 225  : 	}
; 226  : 
; 227  : 	// all else
; 228  : 	return CUrlRichEditCtrl::GetDragDropEffect(fDrag, grfKeyState, pdwEffect);

	mov	eax, DWORD PTR _pdwEffect$[ebp]
	push	eax
	mov	ecx, DWORD PTR _grfKeyState$[ebp]
	push	ecx
	mov	edx, DWORD PTR _fDrag$[ebp]
	push	edx
	mov	ecx, DWORD PTR _this$[ebp]
	call	?GetDragDropEffect@CUrlRichEditCtrl@@MAEJHKPAK@Z ; CUrlRichEditCtrl::GetDragDropEffect
$LN5@GetDragDro:

; 229  : }

	add	esp, 28					; 0000001cH
	cmp	ebp, esp
	call	__RTC_CheckEsp
	mov	esp, ebp
	pop	ebp
	ret	12					; 0000000cH
?GetDragDropEffect@CRulerRichEdit@@MAEJHKPAK@Z ENDP	; CRulerRichEdit::GetDragDropEffect
; Function compile flags: /Odtp /RTCsu
; File d:\_code\shared\misc.h
_TEXT	ENDS
;	COMDAT ?HasFlag@Misc@@YAHKK@Z
_TEXT	SEGMENT
_dwFlags$ = 8						; size = 4
_dwFlag$ = 12						; size = 4
?HasFlag@Misc@@YAHKK@Z PROC				; Misc::HasFlag, COMDAT

; 373  : 	inline BOOL HasFlag(DWORD dwFlags, DWORD dwFlag) { return (((dwFlags & dwFlag) == dwFlag) ? TRUE : FALSE); }

	push	ebp
	mov	ebp, esp
	mov	eax, DWORD PTR _dwFlags$[ebp]
	and	eax, DWORD PTR _dwFlag$[ebp]
	xor	ecx, ecx
	cmp	eax, DWORD PTR _dwFlag$[ebp]
	sete	cl
	mov	eax, ecx
	pop	ebp
	ret	0
?HasFlag@Misc@@YAHKK@Z ENDP				; Misc::HasFlag
_TEXT	ENDS
PUBLIC	__$ArrayPad$
EXTRN	?IsDataAvailable@COleDataObject@@QAEHGPAUtagFORMATETC@@@Z:PROC ; COleDataObject::IsDataAvailable
EXTRN	??1COleDataObject@@QAE@XZ:PROC			; COleDataObject::~COleDataObject
EXTRN	?Attach@COleDataObject@@QAEXPAUIDataObject@@H@Z:PROC ; COleDataObject::Attach
EXTRN	??0COleDataObject@@QAE@XZ:PROC			; COleDataObject::COleDataObject
EXTRN	?CF_OUTLOOK@CMSOutlookHelper@@2GB:WORD		; CMSOutlookHelper::CF_OUTLOOK
;	COMDAT xdata$x
; File d:\_code\rtfcontentctrl\rulerrichedit.cpp
xdata$x	SEGMENT
__unwindtable$?GetAcceptableClipFormat@CRulerRichEdit@@MAEGPAUIDataObject@@G@Z DD 0ffffffffH
	DD	FLAT:__unwindfunclet$?GetAcceptableClipFormat@CRulerRichEdit@@MAEGPAUIDataObject@@G@Z$0
__ehfuncinfo$?GetAcceptableClipFormat@CRulerRichEdit@@MAEGPAUIDataObject@@G@Z DD 019930522H
	DD	01H
	DD	FLAT:__unwindtable$?GetAcceptableClipFormat@CRulerRichEdit@@MAEGPAUIDataObject@@G@Z
	DD	2 DUP(00H)
	DD	2 DUP(00H)
	DD	00H
	DD	01H
; Function compile flags: /Odtp /RTCsu
xdata$x	ENDS
;	COMDAT ?GetAcceptableClipFormat@CRulerRichEdit@@MAEGPAUIDataObject@@G@Z
_TEXT	SEGMENT
$T176264 = -102						; size = 2
$T176263 = -100						; size = 2
$T176262 = -98						; size = 2
_nFmt$174584 = -96					; size = 4
_dataobj$ = -88						; size = 16
_nNumFmts$ = -68					; size = 4
_formats$ = -60						; size = 34
_this$ = -20						; size = 4
__$ArrayPad$ = -16					; size = 4
__$EHRec$ = -12						; size = 12
_lpDataOb$ = 8						; size = 4
_format$ = 12						; size = 2
?GetAcceptableClipFormat@CRulerRichEdit@@MAEGPAUIDataObject@@G@Z PROC ; CRulerRichEdit::GetAcceptableClipFormat, COMDAT
; _this$ = ecx

; 232  : { 

	push	ebp
	mov	ebp, esp
	push	-1
	push	__ehhandler$?GetAcceptableClipFormat@CRulerRichEdit@@MAEGPAUIDataObject@@G@Z
	mov	eax, DWORD PTR fs:0
	push	eax
	sub	esp, 92					; 0000005cH
	push	edi
	push	ecx
	lea	edi, DWORD PTR [ebp-104]
	mov	ecx, 23					; 00000017H
	mov	eax, -858993460				; ccccccccH
	rep stosd
	pop	ecx
	mov	eax, DWORD PTR ___security_cookie
	xor	eax, ebp
	mov	DWORD PTR __$ArrayPad$[ebp], eax
	push	eax
	lea	eax, DWORD PTR __$EHRec$[ebp]
	mov	DWORD PTR fs:0, eax
	mov	DWORD PTR _this$[ebp], ecx

; 233  : 	CLIPFORMAT formats[] = 
; 234  : 	{ 
; 235  : 		CMSOutlookHelper::CF_OUTLOOK,

	mov	ax, WORD PTR ?CF_OUTLOOK@CMSOutlookHelper@@2GB ; CMSOutlookHelper::CF_OUTLOOK
	mov	WORD PTR _formats$[ebp], ax

; 236  : 		CF_HDROP,

	mov	ecx, 15					; 0000000fH
	mov	WORD PTR _formats$[ebp+2], cx

; 237  : 		(CLIPFORMAT)CBF_RTF,

	mov	dx, WORD PTR _CBF_RTF
	mov	WORD PTR _formats$[ebp+4], dx

; 238  : 		(CLIPFORMAT)CBF_RETEXTOBJ, 

	mov	ax, WORD PTR _CBF_RETEXTOBJ
	mov	WORD PTR _formats$[ebp+6], ax

; 239  : 		CF_BITMAP,

	mov	ecx, 2
	mov	WORD PTR _formats$[ebp+8], cx

; 240  : 
; 241  : #ifndef _UNICODE
; 242  : 		CF_TEXT,
; 243  : #else
; 244  : 		CF_UNICODETEXT,

	mov	edx, 13					; 0000000dH
	mov	WORD PTR _formats$[ebp+10], dx

; 245  : #endif
; 246  : 		CF_METAFILEPICT,    

	mov	eax, 3
	mov	WORD PTR _formats$[ebp+12], ax

; 247  : 		CF_SYLK,            

	mov	ecx, 4
	mov	WORD PTR _formats$[ebp+14], cx

; 248  : 		CF_DIF,             

	mov	edx, 5
	mov	WORD PTR _formats$[ebp+16], dx

; 249  : 		CF_TIFF,            

	mov	eax, 6
	mov	WORD PTR _formats$[ebp+18], ax

; 250  : 		CF_OEMTEXT,         

	mov	ecx, 7
	mov	WORD PTR _formats$[ebp+20], cx

; 251  : 		CF_DIB,             

	mov	edx, 8
	mov	WORD PTR _formats$[ebp+22], dx

; 252  : 		CF_PALETTE,         

	mov	eax, 9
	mov	WORD PTR _formats$[ebp+24], ax

; 253  : 		CF_PENDATA,         

	mov	ecx, 10					; 0000000aH
	mov	WORD PTR _formats$[ebp+26], cx

; 254  : 		CF_RIFF,            

	mov	edx, 11					; 0000000bH
	mov	WORD PTR _formats$[ebp+28], dx

; 255  : 		CF_WAVE,            

	mov	eax, 12					; 0000000cH
	mov	WORD PTR _formats$[ebp+30], ax

; 256  : 		CF_ENHMETAFILE
; 257  : 	};

	mov	ecx, 14					; 0000000eH
	mov	WORD PTR _formats$[ebp+32], cx

; 258  : 	
; 259  : 	const long nNumFmts = sizeof(formats) / sizeof(CLIPFORMAT);

	mov	DWORD PTR _nNumFmts$[ebp], 17		; 00000011H

; 260  : 	
; 261  : 	COleDataObject dataobj;

	lea	ecx, DWORD PTR _dataobj$[ebp]
	call	??0COleDataObject@@QAE@XZ		; COleDataObject::COleDataObject
	mov	DWORD PTR __$EHRec$[ebp+8], 0

; 262  :     dataobj.Attach(lpDataOb, FALSE);

	push	0
	mov	edx, DWORD PTR _lpDataOb$[ebp]
	push	edx
	lea	ecx, DWORD PTR _dataobj$[ebp]
	call	?Attach@COleDataObject@@QAEXPAUIDataObject@@H@Z ; COleDataObject::Attach

; 263  :     
; 264  : 	for (int nFmt = 0; nFmt < nNumFmts; nFmt++)

	mov	DWORD PTR _nFmt$174584[ebp], 0
	jmp	SHORT $LN5@GetAccepta
$LN4@GetAccepta:
	mov	eax, DWORD PTR _nFmt$174584[ebp]
	add	eax, 1
	mov	DWORD PTR _nFmt$174584[ebp], eax
$LN5@GetAccepta:
	cmp	DWORD PTR _nFmt$174584[ebp], 17		; 00000011H
	jge	SHORT $LN3@GetAccepta

; 265  : 	{
; 266  : 		if (format && format == formats[nFmt])

	movzx	ecx, WORD PTR _format$[ebp]
	test	ecx, ecx
	je	SHORT $LN2@GetAccepta
	movzx	edx, WORD PTR _format$[ebp]
	mov	eax, DWORD PTR _nFmt$174584[ebp]
	movzx	ecx, WORD PTR _formats$[ebp+eax*2]
	cmp	edx, ecx
	jne	SHORT $LN2@GetAccepta

; 267  : 			return format;

	mov	dx, WORD PTR _format$[ebp]
	mov	WORD PTR $T176262[ebp], dx
	mov	DWORD PTR __$EHRec$[ebp+8], -1
	lea	ecx, DWORD PTR _dataobj$[ebp]
	call	??1COleDataObject@@QAE@XZ		; COleDataObject::~COleDataObject
	mov	ax, WORD PTR $T176262[ebp]
	jmp	SHORT $LN6@GetAccepta
$LN2@GetAccepta:

; 268  : 		
; 269  : 		if (dataobj.IsDataAvailable(formats[nFmt]))

	push	0
	mov	eax, DWORD PTR _nFmt$174584[ebp]
	movzx	ecx, WORD PTR _formats$[ebp+eax*2]
	push	ecx
	lea	ecx, DWORD PTR _dataobj$[ebp]
	call	?IsDataAvailable@COleDataObject@@QAEHGPAUtagFORMATETC@@@Z ; COleDataObject::IsDataAvailable
	test	eax, eax
	je	SHORT $LN1@GetAccepta

; 270  : 			return formats[nFmt];

	mov	edx, DWORD PTR _nFmt$174584[ebp]
	mov	ax, WORD PTR _formats$[ebp+edx*2]
	mov	WORD PTR $T176263[ebp], ax
	mov	DWORD PTR __$EHRec$[ebp+8], -1
	lea	ecx, DWORD PTR _dataobj$[ebp]
	call	??1COleDataObject@@QAE@XZ		; COleDataObject::~COleDataObject
	mov	ax, WORD PTR $T176263[ebp]
	jmp	SHORT $LN6@GetAccepta
$LN1@GetAccepta:

; 271  : 	}

	jmp	SHORT $LN4@GetAccepta
$LN3@GetAccepta:

; 272  : 	
; 273  : 	// all else
; 274  : 	return CF_HDROP; 

	mov	ecx, 15					; 0000000fH
	mov	WORD PTR $T176264[ebp], cx
	mov	DWORD PTR __$EHRec$[ebp+8], -1
	lea	ecx, DWORD PTR _dataobj$[ebp]
	call	??1COleDataObject@@QAE@XZ		; COleDataObject::~COleDataObject
	mov	ax, WORD PTR $T176264[ebp]
$LN6@GetAccepta:

; 275  : }

	push	edx
	mov	ecx, ebp
	push	eax
	lea	edx, DWORD PTR $LN13@GetAccepta
	call	@_RTC_CheckStackVars@8
	pop	eax
	pop	edx
	mov	ecx, DWORD PTR __$EHRec$[ebp]
	mov	DWORD PTR fs:0, ecx
	pop	ecx
	pop	edi
	mov	ecx, DWORD PTR __$ArrayPad$[ebp]
	xor	ecx, ebp
	call	@__security_check_cookie@4
	add	esp, 104				; 00000068H
	cmp	ebp, esp
	call	__RTC_CheckEsp
	mov	esp, ebp
	pop	ebp
	ret	8
$LN13@GetAccepta:
	DD	2
	DD	$LN12@GetAccepta
$LN12@GetAccepta:
	DD	-60					; ffffffc4H
	DD	34					; 00000022H
	DD	$LN9@GetAccepta
	DD	-88					; ffffffa8H
	DD	16					; 00000010H
	DD	$LN10@GetAccepta
$LN10@GetAccepta:
	DB	100					; 00000064H
	DB	97					; 00000061H
	DB	116					; 00000074H
	DB	97					; 00000061H
	DB	111					; 0000006fH
	DB	98					; 00000062H
	DB	106					; 0000006aH
	DB	0
$LN9@GetAccepta:
	DB	102					; 00000066H
	DB	111					; 0000006fH
	DB	114					; 00000072H
	DB	109					; 0000006dH
	DB	97					; 00000061H
	DB	116					; 00000074H
	DB	115					; 00000073H
	DB	0
_TEXT	ENDS
;	COMDAT text$x
text$x	SEGMENT
__unwindfunclet$?GetAcceptableClipFormat@CRulerRichEdit@@MAEGPAUIDataObject@@G@Z$0:
	lea	ecx, DWORD PTR _dataobj$[ebp]
	jmp	??1COleDataObject@@QAE@XZ		; COleDataObject::~COleDataObject
__ehhandler$?GetAcceptableClipFormat@CRulerRichEdit@@MAEGPAUIDataObject@@G@Z:
	mov	edx, DWORD PTR [esp+8]
	lea	eax, DWORD PTR [edx+12]
	mov	ecx, DWORD PTR [edx-100]
	xor	ecx, eax
	call	@__security_check_cookie@4
	mov	ecx, DWORD PTR [edx-4]
	xor	ecx, eax
	call	@__security_check_cookie@4
	mov	eax, OFFSET __ehfuncinfo$?GetAcceptableClipFormat@CRulerRichEdit@@MAEGPAUIDataObject@@G@Z
	jmp	___CxxFrameHandler3
text$x	ENDS
?GetAcceptableClipFormat@CRulerRichEdit@@MAEGPAUIDataObject@@G@Z ENDP ; CRulerRichEdit::GetAcceptableClipFormat
; Function compile flags: /Odtp /RTCsu
;	COMDAT ?OnGetDlgCode@CRulerRichEdit@@IAEIXZ
_TEXT	SEGMENT
_this$ = -4						; size = 4
?OnGetDlgCode@CRulerRichEdit@@IAEIXZ PROC		; CRulerRichEdit::OnGetDlgCode, COMDAT
; _this$ = ecx

; 278  : {

	push	ebp
	mov	ebp, esp
	push	ecx
	mov	DWORD PTR [ebp-4], -858993460		; ccccccccH
	mov	DWORD PTR _this$[ebp], ecx

; 279  : 	return DLGC_WANTALLKEYS;

	mov	eax, 4

; 280  : }

	mov	esp, ebp
	pop	ebp
	ret	0
?OnGetDlgCode@CRulerRichEdit@@IAEIXZ ENDP		; CRulerRichEdit::OnGetDlgCode
_TEXT	ENDS
EXTRN	?OnLButtonDblClk@CWnd@@IAEXIVCPoint@@@Z:PROC	; CWnd::OnLButtonDblClk
EXTRN	__imp__SetCursor@4:PROC
EXTRN	?LoadStandardCursor@CWinApp@@QBEPAUHICON__@@PB_W@Z:PROC ; CWinApp::LoadStandardCursor
EXTRN	?AfxGetApp@@YGPAVCWinApp@@XZ:PROC		; AfxGetApp
; Function compile flags: /Odtp /RTCsu
;	COMDAT ?OnLButtonDblClk@CRulerRichEdit@@IAEXIVCPoint@@@Z
_TEXT	SEGMENT
_this$ = -4						; size = 4
_nFlags$ = 8						; size = 4
_point$ = 12						; size = 8
?OnLButtonDblClk@CRulerRichEdit@@IAEXIVCPoint@@@Z PROC	; CRulerRichEdit::OnLButtonDblClk, COMDAT
; _this$ = ecx

; 283  : {

	push	ebp
	mov	ebp, esp
	push	ecx
	push	esi
	mov	DWORD PTR [ebp-4], -858993460		; ccccccccH
	mov	DWORD PTR _this$[ebp], ecx

; 284  : 	SetCursor(AfxGetApp()->LoadStandardCursor(IDC_WAIT));

	push	32514					; 00007f02H
	call	?AfxGetApp@@YGPAVCWinApp@@XZ		; AfxGetApp
	mov	ecx, eax
	call	?LoadStandardCursor@CWinApp@@QBEPAUHICON__@@PB_W@Z ; CWinApp::LoadStandardCursor
	mov	esi, esp
	push	eax
	call	DWORD PTR __imp__SetCursor@4
	cmp	esi, esp
	call	__RTC_CheckEsp

; 285  : 	
; 286  : 	CUrlRichEditCtrl::OnLButtonDblClk(nFlags, point);

	mov	eax, DWORD PTR _point$[ebp+4]
	push	eax
	mov	ecx, DWORD PTR _point$[ebp]
	push	ecx
	mov	edx, DWORD PTR _nFlags$[ebp]
	push	edx
	mov	ecx, DWORD PTR _this$[ebp]
	call	?OnLButtonDblClk@CWnd@@IAEXIVCPoint@@@Z	; CWnd::OnLButtonDblClk

; 287  : }

	pop	esi
	add	esp, 4
	cmp	ebp, esp
	call	__RTC_CheckEsp
	mov	esp, ebp
	pop	ebp
	ret	12					; 0000000cH
?OnLButtonDblClk@CRulerRichEdit@@IAEXIVCPoint@@@Z ENDP	; CRulerRichEdit::OnLButtonDblClk
_TEXT	ENDS
PUBLIC	?AppendSourceUrls@CRulerRichEdit@@QAEHPB_W@Z	; CRulerRichEdit::AppendSourceUrls
EXTRN	?AppendSourceUrls@CUrlRichEditCtrl@@IAEHPB_W@Z:PROC ; CUrlRichEditCtrl::AppendSourceUrls
; Function compile flags: /Odtp /RTCsu
;	COMDAT ?AppendSourceUrls@CRulerRichEdit@@QAEHPB_W@Z
_TEXT	SEGMENT
_this$ = -4						; size = 4
_szUrls$ = 8						; size = 4
?AppendSourceUrls@CRulerRichEdit@@QAEHPB_W@Z PROC	; CRulerRichEdit::AppendSourceUrls, COMDAT
; _this$ = ecx

; 290  : {

	push	ebp
	mov	ebp, esp
	push	ecx
	mov	DWORD PTR [ebp-4], -858993460		; ccccccccH
	mov	DWORD PTR _this$[ebp], ecx

; 291  : 	return CUrlRichEditCtrl::AppendSourceUrls(szUrls);

	mov	eax, DWORD PTR _szUrls$[ebp]
	push	eax
	mov	ecx, DWORD PTR _this$[ebp]
	call	?AppendSourceUrls@CUrlRichEditCtrl@@IAEHPB_W@Z ; CUrlRichEditCtrl::AppendSourceUrls

; 292  : }

	add	esp, 4
	cmp	ebp, esp
	call	__RTC_CheckEsp
	mov	esp, ebp
	pop	ebp
	ret	4
?AppendSourceUrls@CRulerRichEdit@@QAEHPB_W@Z ENDP	; CRulerRichEdit::AppendSourceUrls
_TEXT	ENDS
EXTRN	?Default@CWnd@@IAEJXZ:PROC			; CWnd::Default
; Function compile flags: /Odtp /RTCsu
;	COMDAT ?OnIMEStartComposition@CRulerRichEdit@@IAEJIJ@Z
_TEXT	SEGMENT
_this$ = -4						; size = 4
___formal$ = 8						; size = 4
___formal$ = 12						; size = 4
?OnIMEStartComposition@CRulerRichEdit@@IAEJIJ@Z PROC	; CRulerRichEdit::OnIMEStartComposition, COMDAT
; _this$ = ecx

; 295  : {

	push	ebp
	mov	ebp, esp
	push	ecx
	mov	DWORD PTR [ebp-4], -858993460		; ccccccccH
	mov	DWORD PTR _this$[ebp], ecx

; 296  : 	// There's a bug where I'm not receiving the 'end composition' 
; 297  : 	// notification resulting in text changes not triggering a change
; 298  : 	// notification to the app.
; 299  : 	//m_bIMEComposing = TRUE;
; 300  : 
; 301  : 	return Default();

	mov	ecx, DWORD PTR _this$[ebp]
	call	?Default@CWnd@@IAEJXZ			; CWnd::Default

; 302  : }

	add	esp, 4
	cmp	ebp, esp
	call	__RTC_CheckEsp
	mov	esp, ebp
	pop	ebp
	ret	8
?OnIMEStartComposition@CRulerRichEdit@@IAEJIJ@Z ENDP	; CRulerRichEdit::OnIMEStartComposition
; Function compile flags: /Odtp /RTCsu
_TEXT	ENDS
;	COMDAT ?OnIMEEndComposition@CRulerRichEdit@@IAEJIJ@Z
_TEXT	SEGMENT
_this$ = -4						; size = 4
___formal$ = 8						; size = 4
___formal$ = 12						; size = 4
?OnIMEEndComposition@CRulerRichEdit@@IAEJIJ@Z PROC	; CRulerRichEdit::OnIMEEndComposition, COMDAT
; _this$ = ecx

; 305  : {

	push	ebp
	mov	ebp, esp
	push	ecx
	mov	DWORD PTR [ebp-4], -858993460		; ccccccccH
	mov	DWORD PTR _this$[ebp], ecx

; 306  : 	m_bIMEComposing = FALSE;

	mov	eax, DWORD PTR _this$[ebp]
	mov	DWORD PTR [eax+300], 0

; 307  : 
; 308  : 	return Default();

	mov	ecx, DWORD PTR _this$[ebp]
	call	?Default@CWnd@@IAEJXZ			; CWnd::Default

; 309  : }

	add	esp, 4
	cmp	ebp, esp
	call	__RTC_CheckEsp
	mov	esp, ebp
	pop	ebp
	ret	8
?OnIMEEndComposition@CRulerRichEdit@@IAEJIJ@Z ENDP	; CRulerRichEdit::OnIMEEndComposition
_TEXT	ENDS
EXTRN	?GetContextMenu@CUrlRichEditCtrl@@MAEJGPAUIOleObject@@PAU_charrange@@PAPAUHMENU__@@@Z:PROC ; CUrlRichEditCtrl::GetContextMenu
EXTRN	__imp__InsertMenuW@20:PROC
EXTRN	__imp__GetMenuItemID@8:PROC
EXTRN	__imp__GetMenuItemCount@4:PROC
EXTRN	__imp__DestroyMenu@4:PROC
EXTRN	?AfxAssertFailedLine@@YGHPBDH@Z:PROC		; AfxAssertFailedLine
EXTRN	__imp__RemoveMenu@12:PROC
EXTRN	__imp__GetSubMenu@8:PROC
EXTRN	__imp__LoadMenuW@8:PROC
EXTRN	?AfxGetResourceHandle@@YGPAUHINSTANCE__@@XZ:PROC ; AfxGetResourceHandle
; Function compile flags: /Odtp /RTCsu
;	COMDAT ?GetContextMenu@CRulerRichEdit@@MAEJGPAUIOleObject@@PAU_charrange@@PAPAUHMENU__@@@Z
_TEXT	SEGMENT
tv93 = -20						; size = 4
tv88 = -16						; size = 4
_nItem$174631 = -12					; size = 4
_hMenu$174626 = -8					; size = 4
_this$ = -4						; size = 4
_seltyp$ = 8						; size = 2
_lpoleobj$ = 12						; size = 4
_lpchrg$ = 16						; size = 4
_lphmenu$ = 20						; size = 4
?GetContextMenu@CRulerRichEdit@@MAEJGPAUIOleObject@@PAU_charrange@@PAPAUHMENU__@@@Z PROC ; CRulerRichEdit::GetContextMenu, COMDAT
; _this$ = ecx

; 313  : {

	push	ebp
	mov	ebp, esp
	sub	esp, 20					; 00000014H
	push	esi
	mov	eax, -858993460				; ccccccccH
	mov	DWORD PTR [ebp-20], eax
	mov	DWORD PTR [ebp-16], eax
	mov	DWORD PTR [ebp-12], eax
	mov	DWORD PTR [ebp-8], eax
	mov	DWORD PTR [ebp-4], eax
	mov	DWORD PTR _this$[ebp], ecx

; 314  : 	if (seltyp & (SEL_OBJECT | SEL_MULTIOBJECT))

	movzx	eax, WORD PTR _seltyp$[ebp]
	and	eax, 10					; 0000000aH
	je	$LN7@GetContext

; 315  : 	{
; 316  : 		// Load the default context menu and strip out inappropriate options
; 317  : 		HMENU hMenu = ::LoadMenu(AfxGetResourceHandle(), MAKEINTRESOURCE(IDR_POPUP));

	mov	esi, esp
	push	16000					; 00003e80H
	call	?AfxGetResourceHandle@@YGPAUHINSTANCE__@@XZ ; AfxGetResourceHandle
	push	eax
	call	DWORD PTR __imp__LoadMenuW@8
	cmp	esi, esp
	call	__RTC_CheckEsp
	mov	DWORD PTR _hMenu$174626[ebp], eax

; 318  : 		*lphmenu = ::GetSubMenu(hMenu, 0); 

	mov	esi, esp
	push	0
	mov	ecx, DWORD PTR _hMenu$174626[ebp]
	push	ecx
	call	DWORD PTR __imp__GetSubMenu@8
	cmp	esi, esp
	call	__RTC_CheckEsp
	mov	edx, DWORD PTR _lphmenu$[ebp]
	mov	DWORD PTR [edx], eax

; 319  : 
; 320  : 		// COM now owns the submenu so we must 
; 321  : 		// remove it before cleaning-up the menu
; 322  : 		VERIFY(::RemoveMenu(hMenu, 0, MF_BYPOSITION));

	mov	esi, esp
	push	1024					; 00000400H
	push	0
	mov	eax, DWORD PTR _hMenu$174626[ebp]
	push	eax
	call	DWORD PTR __imp__RemoveMenu@12
	cmp	esi, esp
	call	__RTC_CheckEsp
	test	eax, eax
	jne	SHORT $LN10@GetContext
	push	322					; 00000142H
	push	OFFSET _THIS_FILE
	call	?AfxAssertFailedLine@@YGHPBDH@Z		; AfxAssertFailedLine
	test	eax, eax
	je	SHORT $LN10@GetContext
	int	3
$LN10@GetContext:

; 323  : 		::DestroyMenu(hMenu);

	mov	esi, esp
	mov	edx, DWORD PTR _hMenu$174626[ebp]
	push	edx
	call	DWORD PTR __imp__DestroyMenu@4
	cmp	esi, esp
	call	__RTC_CheckEsp

; 324  : 
; 325  : 		// remove all but simple edit commands
; 326  : 		int nItem = ::GetMenuItemCount(*lphmenu);

	mov	esi, esp
	mov	eax, DWORD PTR _lphmenu$[ebp]
	mov	ecx, DWORD PTR [eax]
	push	ecx
	call	DWORD PTR __imp__GetMenuItemCount@4
	cmp	esi, esp
	call	__RTC_CheckEsp
	mov	DWORD PTR _nItem$174631[ebp], eax
$LN6@GetContext:

; 327  : 
; 328  : 		while (nItem--)

	mov	edx, DWORD PTR _nItem$174631[ebp]
	mov	DWORD PTR tv88[ebp], edx
	mov	eax, DWORD PTR _nItem$174631[ebp]
	sub	eax, 1
	mov	DWORD PTR _nItem$174631[ebp], eax
	cmp	DWORD PTR tv88[ebp], 0
	je	SHORT $LN5@GetContext

; 329  : 		{
; 330  : 			switch (::GetMenuItemID(*lphmenu, nItem))

	mov	esi, esp
	mov	ecx, DWORD PTR _nItem$174631[ebp]
	push	ecx
	mov	edx, DWORD PTR _lphmenu$[ebp]
	mov	eax, DWORD PTR [edx]
	push	eax
	call	DWORD PTR __imp__GetMenuItemID@8
	cmp	esi, esp
	call	__RTC_CheckEsp
	mov	DWORD PTR tv93[ebp], eax
	cmp	DWORD PTR tv93[ebp], 57637		; 0000e125H
	ja	SHORT $LN11@GetContext
	cmp	DWORD PTR tv93[ebp], 57637		; 0000e125H
	je	SHORT $LN2@GetContext
	cmp	DWORD PTR tv93[ebp], 32774		; 00008006H
	je	SHORT $LN2@GetContext
	cmp	DWORD PTR tv93[ebp], 57633		; 0000e121H
	jbe	SHORT $LN1@GetContext
	cmp	DWORD PTR tv93[ebp], 57635		; 0000e123H
	jbe	SHORT $LN2@GetContext
	jmp	SHORT $LN1@GetContext
$LN11@GetContext:
	cmp	DWORD PTR tv93[ebp], 57642		; 0000e12aH
	je	SHORT $LN2@GetContext
	jmp	SHORT $LN1@GetContext
$LN2@GetContext:

; 331  : 			{
; 332  : 			case ID_EDIT_COPY:
; 333  : 			case ID_EDIT_CUT:
; 334  : 			case ID_EDIT_PASTE:
; 335  : 			case ID_EDIT_DELETE:
; 336  : 			case ID_EDIT_SELECT_ALL:
; 337  : 				break;

	jmp	SHORT $LN3@GetContext
$LN1@GetContext:

; 338  : 
; 339  : 			default:
; 340  : 				::RemoveMenu(*lphmenu, nItem, MF_BYPOSITION);

	mov	esi, esp
	push	1024					; 00000400H
	mov	ecx, DWORD PTR _nItem$174631[ebp]
	push	ecx
	mov	edx, DWORD PTR _lphmenu$[ebp]
	mov	eax, DWORD PTR [edx]
	push	eax
	call	DWORD PTR __imp__RemoveMenu@12
	cmp	esi, esp
	call	__RTC_CheckEsp
$LN3@GetContext:

; 341  : 			}
; 342  : 		}

	jmp	$LN6@GetContext
$LN5@GetContext:

; 343  : 
; 344  : 		// insert a separator before 'Select All'
; 345  : 		::InsertMenu(*lphmenu, ID_EDIT_SELECT_ALL, (MF_BYCOMMAND | MF_SEPARATOR), 0, NULL);

	mov	esi, esp
	push	0
	push	0
	push	2048					; 00000800H
	push	57642					; 0000e12aH
	mov	ecx, DWORD PTR _lphmenu$[ebp]
	mov	edx, DWORD PTR [ecx]
	push	edx
	call	DWORD PTR __imp__InsertMenuW@20
	cmp	esi, esp
	call	__RTC_CheckEsp

; 346  : 
; 347  : 		return S_OK;

	xor	eax, eax
	jmp	SHORT $LN8@GetContext
$LN7@GetContext:

; 348  : 	}
; 349  : 
; 350  : 	// all else
; 351  : 	return CUrlRichEditCtrl::GetContextMenu(seltyp, lpoleobj, lpchrg, lphmenu);

	mov	eax, DWORD PTR _lphmenu$[ebp]
	push	eax
	mov	ecx, DWORD PTR _lpchrg$[ebp]
	push	ecx
	mov	edx, DWORD PTR _lpoleobj$[ebp]
	push	edx
	movzx	eax, WORD PTR _seltyp$[ebp]
	push	eax
	mov	ecx, DWORD PTR _this$[ebp]
	call	?GetContextMenu@CUrlRichEditCtrl@@MAEJGPAUIOleObject@@PAU_charrange@@PAPAUHMENU__@@@Z ; CUrlRichEditCtrl::GetContextMenu
$LN8@GetContext:

; 352  : }

	pop	esi
	add	esp, 20					; 00000014H
	cmp	ebp, esp
	call	__RTC_CheckEsp
	mov	esp, ebp
	pop	ebp
	ret	16					; 00000010H
?GetContextMenu@CRulerRichEdit@@MAEJGPAUIOleObject@@PAU_charrange@@PAPAUHMENU__@@@Z ENDP ; CRulerRichEdit::GetContextMenu
_TEXT	ENDS
PUBLIC	?MouseProc@?$CHookMgr@VCFindReplaceDialogEx@@@@KGJHIJ@Z ; CHookMgr<CFindReplaceDialogEx>::MouseProc
PUBLIC	?SysMsgFilterProc@?$CHookMgr@VCFindReplaceDialogEx@@@@KGJHIJ@Z ; CHookMgr<CFindReplaceDialogEx>::SysMsgFilterProc
PUBLIC	?ShellProc@?$CHookMgr@VCFindReplaceDialogEx@@@@KGJHIJ@Z ; CHookMgr<CFindReplaceDialogEx>::ShellProc
PUBLIC	?MsgFilterProc@?$CHookMgr@VCFindReplaceDialogEx@@@@KGJHIJ@Z ; CHookMgr<CFindReplaceDialogEx>::MsgFilterProc
PUBLIC	?KeyboardProc@?$CHookMgr@VCFindReplaceDialogEx@@@@KGJHIJ@Z ; CHookMgr<CFindReplaceDialogEx>::KeyboardProc
PUBLIC	?GetMessageProc@?$CHookMgr@VCFindReplaceDialogEx@@@@KGJHIJ@Z ; CHookMgr<CFindReplaceDialogEx>::GetMessageProc
PUBLIC	?ForegroundIdleProc@?$CHookMgr@VCFindReplaceDialogEx@@@@KGJHIJ@Z ; CHookMgr<CFindReplaceDialogEx>::ForegroundIdleProc
PUBLIC	?CbtProc@?$CHookMgr@VCFindReplaceDialogEx@@@@KGJHIJ@Z ; CHookMgr<CFindReplaceDialogEx>::CbtProc
PUBLIC	?CallWndRetProc@?$CHookMgr@VCFindReplaceDialogEx@@@@KGJHIJ@Z ; CHookMgr<CFindReplaceDialogEx>::CallWndRetProc
PUBLIC	?CallWndProc@?$CHookMgr@VCFindReplaceDialogEx@@@@KGJHIJ@Z ; CHookMgr<CFindReplaceDialogEx>::CallWndProc
PUBLIC	?ReleaseHooks@?$CHookMgr@VCFindReplaceDialogEx@@@@IAEXXZ ; CHookMgr<CFindReplaceDialogEx>::ReleaseHooks
PUBLIC	__$ArrayPad$
EXTRN	__imp__GetVersionExW@4:PROC
EXTRN	__imp_??4?$CStringT@_WV?$StrTraitMFC_DLL@_WV?$ChTraitsCRT@_W@ATL@@@@@ATL@@QAEAAV01@PB_W@Z:PROC
EXTRN	__imp__SetWindowsHookExW@16:PROC
EXTRN	__imp__GetCurrentThreadId@0:PROC
; Function compile flags: /Odtp /RTCsu
; File d:\_code\shared\hookmgr.h
;	COMDAT ?InitHooks@?$CHookMgr@VCFindReplaceDialogEx@@@@IAEHKPB_W@Z
_TEXT	SEGMENT
tv214 = -296						; size = 4
_OS$ = -288						; size = 276
_this$ = -8						; size = 4
__$ArrayPad$ = -4					; size = 4
_dwOptions$ = 8						; size = 4
_szClassFilter$ = 12					; size = 4
?InitHooks@?$CHookMgr@VCFindReplaceDialogEx@@@@IAEHKPB_W@Z PROC ; CHookMgr<CFindReplaceDialogEx>::InitHooks, COMDAT
; _this$ = ecx

; 74   : 	{

	push	ebp
	mov	ebp, esp
	sub	esp, 296				; 00000128H
	push	esi
	push	edi
	push	ecx
	lea	edi, DWORD PTR [ebp-296]
	mov	ecx, 74					; 0000004aH
	mov	eax, -858993460				; ccccccccH
	rep stosd
	pop	ecx
	mov	eax, DWORD PTR ___security_cookie
	xor	eax, ebp
	mov	DWORD PTR __$ArrayPad$[ebp], eax
	mov	DWORD PTR _this$[ebp], ecx

; 75   : 		ReleaseHooks(); // reset

	mov	ecx, DWORD PTR _this$[ebp]
	call	?ReleaseHooks@?$CHookMgr@VCFindReplaceDialogEx@@@@IAEXXZ ; CHookMgr<CFindReplaceDialogEx>::ReleaseHooks

; 76   : 
; 77   : 		INITHOOK(m_hCallWndHook, HM_CALLWNDPROC, WH_CALLWNDPROC, CallWndProc);

	mov	eax, DWORD PTR _dwOptions$[ebp]
	and	eax, 1
	je	SHORT $LN10@InitHooks
	mov	ecx, DWORD PTR _this$[ebp]
	cmp	DWORD PTR [ecx+4], 0
	jne	SHORT $LN10@InitHooks
	mov	esi, esp
	call	DWORD PTR __imp__GetCurrentThreadId@0
	cmp	esi, esp
	call	__RTC_CheckEsp
	mov	esi, esp
	push	eax
	push	0
	push	OFFSET ?CallWndProc@?$CHookMgr@VCFindReplaceDialogEx@@@@KGJHIJ@Z ; CHookMgr<CFindReplaceDialogEx>::CallWndProc
	push	4
	call	DWORD PTR __imp__SetWindowsHookExW@16
	cmp	esi, esp
	call	__RTC_CheckEsp
	mov	edx, DWORD PTR _this$[ebp]
	mov	DWORD PTR [edx+4], eax
$LN10@InitHooks:

; 78   : 		INITHOOK(m_hCallWndRetHook, HM_CALLWNDPROCRET, WH_CALLWNDPROCRET, CallWndRetProc);

	mov	eax, DWORD PTR _dwOptions$[ebp]
	and	eax, 2
	je	SHORT $LN9@InitHooks
	mov	ecx, DWORD PTR _this$[ebp]
	cmp	DWORD PTR [ecx+8], 0
	jne	SHORT $LN9@InitHooks
	mov	esi, esp
	call	DWORD PTR __imp__GetCurrentThreadId@0
	cmp	esi, esp
	call	__RTC_CheckEsp
	mov	esi, esp
	push	eax
	push	0
	push	OFFSET ?CallWndRetProc@?$CHookMgr@VCFindReplaceDialogEx@@@@KGJHIJ@Z ; CHookMgr<CFindReplaceDialogEx>::CallWndRetProc
	push	12					; 0000000cH
	call	DWORD PTR __imp__SetWindowsHookExW@16
	cmp	esi, esp
	call	__RTC_CheckEsp
	mov	edx, DWORD PTR _this$[ebp]
	mov	DWORD PTR [edx+8], eax
$LN9@InitHooks:

; 79   : 		INITHOOK(m_hCbtHook, HM_CBT, WH_CBT, CbtProc);

	mov	eax, DWORD PTR _dwOptions$[ebp]
	and	eax, 4
	je	SHORT $LN8@InitHooks
	mov	ecx, DWORD PTR _this$[ebp]
	cmp	DWORD PTR [ecx+12], 0
	jne	SHORT $LN8@InitHooks
	mov	esi, esp
	call	DWORD PTR __imp__GetCurrentThreadId@0
	cmp	esi, esp
	call	__RTC_CheckEsp
	mov	esi, esp
	push	eax
	push	0
	push	OFFSET ?CbtProc@?$CHookMgr@VCFindReplaceDialogEx@@@@KGJHIJ@Z ; CHookMgr<CFindReplaceDialogEx>::CbtProc
	push	5
	call	DWORD PTR __imp__SetWindowsHookExW@16
	cmp	esi, esp
	call	__RTC_CheckEsp
	mov	edx, DWORD PTR _this$[ebp]
	mov	DWORD PTR [edx+12], eax
$LN8@InitHooks:

; 80   : 		INITHOOK(m_hForegroundIdleHook, HM_FOREGROUNDIDLE, WH_FOREGROUNDIDLE, ForegroundIdleProc);

	mov	eax, DWORD PTR _dwOptions$[ebp]
	and	eax, 8
	je	SHORT $LN7@InitHooks
	mov	ecx, DWORD PTR _this$[ebp]
	cmp	DWORD PTR [ecx+16], 0
	jne	SHORT $LN7@InitHooks
	mov	esi, esp
	call	DWORD PTR __imp__GetCurrentThreadId@0
	cmp	esi, esp
	call	__RTC_CheckEsp
	mov	esi, esp
	push	eax
	push	0
	push	OFFSET ?ForegroundIdleProc@?$CHookMgr@VCFindReplaceDialogEx@@@@KGJHIJ@Z ; CHookMgr<CFindReplaceDialogEx>::ForegroundIdleProc
	push	11					; 0000000bH
	call	DWORD PTR __imp__SetWindowsHookExW@16
	cmp	esi, esp
	call	__RTC_CheckEsp
	mov	edx, DWORD PTR _this$[ebp]
	mov	DWORD PTR [edx+16], eax
$LN7@InitHooks:

; 81   : 		INITHOOK(m_hGetMessageHook, HM_GETMESSAGE, WH_GETMESSAGE, GetMessageProc);

	mov	eax, DWORD PTR _dwOptions$[ebp]
	and	eax, 16					; 00000010H
	je	SHORT $LN6@InitHooks
	mov	ecx, DWORD PTR _this$[ebp]
	cmp	DWORD PTR [ecx+20], 0
	jne	SHORT $LN6@InitHooks
	mov	esi, esp
	call	DWORD PTR __imp__GetCurrentThreadId@0
	cmp	esi, esp
	call	__RTC_CheckEsp
	mov	esi, esp
	push	eax
	push	0
	push	OFFSET ?GetMessageProc@?$CHookMgr@VCFindReplaceDialogEx@@@@KGJHIJ@Z ; CHookMgr<CFindReplaceDialogEx>::GetMessageProc
	push	3
	call	DWORD PTR __imp__SetWindowsHookExW@16
	cmp	esi, esp
	call	__RTC_CheckEsp
	mov	edx, DWORD PTR _this$[ebp]
	mov	DWORD PTR [edx+20], eax
$LN6@InitHooks:

; 82   : 		INITHOOK(m_hKeyboardHook, HM_KEYBOARD, WH_KEYBOARD, KeyboardProc);

	mov	eax, DWORD PTR _dwOptions$[ebp]
	and	eax, 32					; 00000020H
	je	SHORT $LN5@InitHooks
	mov	ecx, DWORD PTR _this$[ebp]
	cmp	DWORD PTR [ecx+24], 0
	jne	SHORT $LN5@InitHooks
	mov	esi, esp
	call	DWORD PTR __imp__GetCurrentThreadId@0
	cmp	esi, esp
	call	__RTC_CheckEsp
	mov	esi, esp
	push	eax
	push	0
	push	OFFSET ?KeyboardProc@?$CHookMgr@VCFindReplaceDialogEx@@@@KGJHIJ@Z ; CHookMgr<CFindReplaceDialogEx>::KeyboardProc
	push	2
	call	DWORD PTR __imp__SetWindowsHookExW@16
	cmp	esi, esp
	call	__RTC_CheckEsp
	mov	edx, DWORD PTR _this$[ebp]
	mov	DWORD PTR [edx+24], eax
$LN5@InitHooks:

; 83   : 		INITHOOK(m_hMsgFilterHook, HM_MSGFILTER, WH_MSGFILTER, MsgFilterProc);

	mov	eax, DWORD PTR _dwOptions$[ebp]
	and	eax, 256				; 00000100H
	je	SHORT $LN4@InitHooks
	mov	ecx, DWORD PTR _this$[ebp]
	cmp	DWORD PTR [ecx+32], 0
	jne	SHORT $LN4@InitHooks
	mov	esi, esp
	call	DWORD PTR __imp__GetCurrentThreadId@0
	cmp	esi, esp
	call	__RTC_CheckEsp
	mov	esi, esp
	push	eax
	push	0
	push	OFFSET ?MsgFilterProc@?$CHookMgr@VCFindReplaceDialogEx@@@@KGJHIJ@Z ; CHookMgr<CFindReplaceDialogEx>::MsgFilterProc
	push	-1
	call	DWORD PTR __imp__SetWindowsHookExW@16
	cmp	esi, esp
	call	__RTC_CheckEsp
	mov	edx, DWORD PTR _this$[ebp]
	mov	DWORD PTR [edx+32], eax
$LN4@InitHooks:

; 84   : 		INITHOOK(m_hShellHook, HM_SHELL, WH_SHELL, ShellProc);

	mov	eax, DWORD PTR _dwOptions$[ebp]
	and	eax, 512				; 00000200H
	je	SHORT $LN3@InitHooks
	mov	ecx, DWORD PTR _this$[ebp]
	cmp	DWORD PTR [ecx+36], 0
	jne	SHORT $LN3@InitHooks
	mov	esi, esp
	call	DWORD PTR __imp__GetCurrentThreadId@0
	cmp	esi, esp
	call	__RTC_CheckEsp
	mov	esi, esp
	push	eax
	push	0
	push	OFFSET ?ShellProc@?$CHookMgr@VCFindReplaceDialogEx@@@@KGJHIJ@Z ; CHookMgr<CFindReplaceDialogEx>::ShellProc
	push	10					; 0000000aH
	call	DWORD PTR __imp__SetWindowsHookExW@16
	cmp	esi, esp
	call	__RTC_CheckEsp
	mov	edx, DWORD PTR _this$[ebp]
	mov	DWORD PTR [edx+36], eax
$LN3@InitHooks:

; 85   : 		INITHOOK(m_hSysMsgFilterHook, HM_SYSMSGFILTER, WH_SYSMSGFILTER, SysMsgFilterProc);

	mov	eax, DWORD PTR _dwOptions$[ebp]
	and	eax, 1024				; 00000400H
	je	SHORT $LN2@InitHooks
	mov	ecx, DWORD PTR _this$[ebp]
	cmp	DWORD PTR [ecx+40], 0
	jne	SHORT $LN2@InitHooks
	mov	esi, esp
	call	DWORD PTR __imp__GetCurrentThreadId@0
	cmp	esi, esp
	call	__RTC_CheckEsp
	mov	esi, esp
	push	eax
	push	0
	push	OFFSET ?SysMsgFilterProc@?$CHookMgr@VCFindReplaceDialogEx@@@@KGJHIJ@Z ; CHookMgr<CFindReplaceDialogEx>::SysMsgFilterProc
	push	6
	call	DWORD PTR __imp__SetWindowsHookExW@16
	cmp	esi, esp
	call	__RTC_CheckEsp
	mov	edx, DWORD PTR _this$[ebp]
	mov	DWORD PTR [edx+40], eax
$LN2@InitHooks:

; 86   : 		INITHOOK(m_hMouseHook, HM_MOUSE, WH_MOUSE, MouseProc);

	mov	eax, DWORD PTR _dwOptions$[ebp]
	and	eax, 64					; 00000040H
	je	SHORT $LN1@InitHooks
	mov	ecx, DWORD PTR _this$[ebp]
	cmp	DWORD PTR [ecx+28], 0
	jne	SHORT $LN1@InitHooks
	mov	esi, esp
	call	DWORD PTR __imp__GetCurrentThreadId@0
	cmp	esi, esp
	call	__RTC_CheckEsp
	mov	esi, esp
	push	eax
	push	0
	push	OFFSET ?MouseProc@?$CHookMgr@VCFindReplaceDialogEx@@@@KGJHIJ@Z ; CHookMgr<CFindReplaceDialogEx>::MouseProc
	push	7
	call	DWORD PTR __imp__SetWindowsHookExW@16
	cmp	esi, esp
	call	__RTC_CheckEsp
	mov	edx, DWORD PTR _this$[ebp]
	mov	DWORD PTR [edx+28], eax
$LN1@InitHooks:

; 87   : 
; 88   : 		m_sClassFilter = szClassFilter;

	mov	esi, esp
	mov	eax, DWORD PTR _szClassFilter$[ebp]
	push	eax
	mov	ecx, DWORD PTR _this$[ebp]
	add	ecx, 44					; 0000002cH
	call	DWORD PTR __imp_??4?$CStringT@_WV?$StrTraitMFC_DLL@_WV?$ChTraitsCRT@_W@ATL@@@@@ATL@@QAEAAV01@PB_W@Z
	cmp	esi, esp
	call	__RTC_CheckEsp

; 89   : 
; 90   : 		// detect whether on 2000 or later
; 91   : 		OSVERSIONINFO OS;
; 92   : 		
; 93   : 		OS.dwOSVersionInfoSize=sizeof(OS);

	mov	DWORD PTR _OS$[ebp], 276		; 00000114H

; 94   : 		::GetVersionEx(&OS);

	mov	esi, esp
	lea	ecx, DWORD PTR _OS$[ebp]
	push	ecx
	call	DWORD PTR __imp__GetVersionExW@4
	cmp	esi, esp
	call	__RTC_CheckEsp

; 95   : 		
; 96   : 		m_b2000orLater = (OS.dwPlatformId == VER_PLATFORM_WIN32_NT &&
; 97   : 			OS.dwMajorVersion >= 5);

	cmp	DWORD PTR _OS$[ebp+16], 2
	jne	SHORT $LN13@InitHooks
	cmp	DWORD PTR _OS$[ebp+4], 5
	jb	SHORT $LN13@InitHooks
	mov	DWORD PTR tv214[ebp], 1
	jmp	SHORT $LN14@InitHooks
$LN13@InitHooks:
	mov	DWORD PTR tv214[ebp], 0
$LN14@InitHooks:
	mov	edx, DWORD PTR _this$[ebp]
	mov	eax, DWORD PTR tv214[ebp]
	mov	DWORD PTR [edx+48], eax

; 98   :             
; 99   : 		return TRUE;

	mov	eax, 1

; 100  : 	}

	push	edx
	mov	ecx, ebp
	push	eax
	lea	edx, DWORD PTR $LN17@InitHooks
	call	@_RTC_CheckStackVars@8
	pop	eax
	pop	edx
	pop	edi
	pop	esi
	mov	ecx, DWORD PTR __$ArrayPad$[ebp]
	xor	ecx, ebp
	call	@__security_check_cookie@4
	add	esp, 296				; 00000128H
	cmp	ebp, esp
	call	__RTC_CheckEsp
	mov	esp, ebp
	pop	ebp
	ret	8
	npad	2
$LN17@InitHooks:
	DD	1
	DD	$LN16@InitHooks
$LN16@InitHooks:
	DD	-288					; fffffee0H
	DD	276					; 00000114H
	DD	$LN15@InitHooks
$LN15@InitHooks:
	DB	79					; 0000004fH
	DB	83					; 00000053H
	DB	0
?InitHooks@?$CHookMgr@VCFindReplaceDialogEx@@@@IAEHKPB_W@Z ENDP ; CHookMgr<CFindReplaceDialogEx>::InitHooks
_TEXT	ENDS
EXTRN	__imp__UnhookWindowsHookEx@4:PROC
; Function compile flags: /Odtp /RTCsu
;	COMDAT ?ReleaseHooks@?$CHookMgr@VCFindReplaceDialogEx@@@@IAEXXZ
_TEXT	SEGMENT
_this$ = -4						; size = 4
?ReleaseHooks@?$CHookMgr@VCFindReplaceDialogEx@@@@IAEXXZ PROC ; CHookMgr<CFindReplaceDialogEx>::ReleaseHooks, COMDAT
; _this$ = ecx

; 103  : 	{

	push	ebp
	mov	ebp, esp
	push	ecx
	push	esi
	mov	DWORD PTR [ebp-4], -858993460		; ccccccccH
	mov	DWORD PTR _this$[ebp], ecx

; 104  : 		RELEASEHOOK(m_hCallWndHook);

	mov	eax, DWORD PTR _this$[ebp]
	cmp	DWORD PTR [eax+4], 0
	je	SHORT $LN10@ReleaseHoo
	mov	esi, esp
	mov	ecx, DWORD PTR _this$[ebp]
	mov	edx, DWORD PTR [ecx+4]
	push	edx
	call	DWORD PTR __imp__UnhookWindowsHookEx@4
	cmp	esi, esp
	call	__RTC_CheckEsp
$LN10@ReleaseHoo:
	mov	eax, DWORD PTR _this$[ebp]
	mov	DWORD PTR [eax+4], 0

; 105  : 		RELEASEHOOK(m_hCallWndRetHook);

	mov	ecx, DWORD PTR _this$[ebp]
	cmp	DWORD PTR [ecx+8], 0
	je	SHORT $LN9@ReleaseHoo
	mov	esi, esp
	mov	edx, DWORD PTR _this$[ebp]
	mov	eax, DWORD PTR [edx+8]
	push	eax
	call	DWORD PTR __imp__UnhookWindowsHookEx@4
	cmp	esi, esp
	call	__RTC_CheckEsp
$LN9@ReleaseHoo:
	mov	ecx, DWORD PTR _this$[ebp]
	mov	DWORD PTR [ecx+8], 0

; 106  : 		RELEASEHOOK(m_hCbtHook);

	mov	edx, DWORD PTR _this$[ebp]
	cmp	DWORD PTR [edx+12], 0
	je	SHORT $LN8@ReleaseHoo
	mov	esi, esp
	mov	eax, DWORD PTR _this$[ebp]
	mov	ecx, DWORD PTR [eax+12]
	push	ecx
	call	DWORD PTR __imp__UnhookWindowsHookEx@4
	cmp	esi, esp
	call	__RTC_CheckEsp
$LN8@ReleaseHoo:
	mov	edx, DWORD PTR _this$[ebp]
	mov	DWORD PTR [edx+12], 0

; 107  : 		RELEASEHOOK(m_hForegroundIdleHook);

	mov	eax, DWORD PTR _this$[ebp]
	cmp	DWORD PTR [eax+16], 0
	je	SHORT $LN7@ReleaseHoo
	mov	esi, esp
	mov	ecx, DWORD PTR _this$[ebp]
	mov	edx, DWORD PTR [ecx+16]
	push	edx
	call	DWORD PTR __imp__UnhookWindowsHookEx@4
	cmp	esi, esp
	call	__RTC_CheckEsp
$LN7@ReleaseHoo:
	mov	eax, DWORD PTR _this$[ebp]
	mov	DWORD PTR [eax+16], 0

; 108  : 		RELEASEHOOK(m_hGetMessageHook);

	mov	ecx, DWORD PTR _this$[ebp]
	cmp	DWORD PTR [ecx+20], 0
	je	SHORT $LN6@ReleaseHoo
	mov	esi, esp
	mov	edx, DWORD PTR _this$[ebp]
	mov	eax, DWORD PTR [edx+20]
	push	eax
	call	DWORD PTR __imp__UnhookWindowsHookEx@4
	cmp	esi, esp
	call	__RTC_CheckEsp
$LN6@ReleaseHoo:
	mov	ecx, DWORD PTR _this$[ebp]
	mov	DWORD PTR [ecx+20], 0

; 109  : 		RELEASEHOOK(m_hKeyboardHook);

	mov	edx, DWORD PTR _this$[ebp]
	cmp	DWORD PTR [edx+24], 0
	je	SHORT $LN5@ReleaseHoo
	mov	esi, esp
	mov	eax, DWORD PTR _this$[ebp]
	mov	ecx, DWORD PTR [eax+24]
	push	ecx
	call	DWORD PTR __imp__UnhookWindowsHookEx@4
	cmp	esi, esp
	call	__RTC_CheckEsp
$LN5@ReleaseHoo:
	mov	edx, DWORD PTR _this$[ebp]
	mov	DWORD PTR [edx+24], 0

; 110  : 		RELEASEHOOK(m_hMouseHook);

	mov	eax, DWORD PTR _this$[ebp]
	cmp	DWORD PTR [eax+28], 0
	je	SHORT $LN4@ReleaseHoo
	mov	esi, esp
	mov	ecx, DWORD PTR _this$[ebp]
	mov	edx, DWORD PTR [ecx+28]
	push	edx
	call	DWORD PTR __imp__UnhookWindowsHookEx@4
	cmp	esi, esp
	call	__RTC_CheckEsp
$LN4@ReleaseHoo:
	mov	eax, DWORD PTR _this$[ebp]
	mov	DWORD PTR [eax+28], 0

; 111  : 		RELEASEHOOK(m_hMsgFilterHook);

	mov	ecx, DWORD PTR _this$[ebp]
	cmp	DWORD PTR [ecx+32], 0
	je	SHORT $LN3@ReleaseHoo
	mov	esi, esp
	mov	edx, DWORD PTR _this$[ebp]
	mov	eax, DWORD PTR [edx+32]
	push	eax
	call	DWORD PTR __imp__UnhookWindowsHookEx@4
	cmp	esi, esp
	call	__RTC_CheckEsp
$LN3@ReleaseHoo:
	mov	ecx, DWORD PTR _this$[ebp]
	mov	DWORD PTR [ecx+32], 0

; 112  : 		RELEASEHOOK(m_hShellHook);

	mov	edx, DWORD PTR _this$[ebp]
	cmp	DWORD PTR [edx+36], 0
	je	SHORT $LN2@ReleaseHoo
	mov	esi, esp
	mov	eax, DWORD PTR _this$[ebp]
	mov	ecx, DWORD PTR [eax+36]
	push	ecx
	call	DWORD PTR __imp__UnhookWindowsHookEx@4
	cmp	esi, esp
	call	__RTC_CheckEsp
$LN2@ReleaseHoo:
	mov	edx, DWORD PTR _this$[ebp]
	mov	DWORD PTR [edx+36], 0

; 113  : 		RELEASEHOOK(m_hSysMsgFilterHook);

	mov	eax, DWORD PTR _this$[ebp]
	cmp	DWORD PTR [eax+40], 0
	je	SHORT $LN1@ReleaseHoo
	mov	esi, esp
	mov	ecx, DWORD PTR _this$[ebp]
	mov	edx, DWORD PTR [ecx+40]
	push	edx
	call	DWORD PTR __imp__UnhookWindowsHookEx@4
	cmp	esi, esp
	call	__RTC_CheckEsp
$LN1@ReleaseHoo:
	mov	eax, DWORD PTR _this$[ebp]
	mov	DWORD PTR [eax+40], 0

; 114  : 	}

	pop	esi
	add	esp, 4
	cmp	ebp, esp
	call	__RTC_CheckEsp
	mov	esp, ebp
	pop	ebp
	ret	0
?ReleaseHooks@?$CHookMgr@VCFindReplaceDialogEx@@@@IAEXXZ ENDP ; CHookMgr<CFindReplaceDialogEx>::ReleaseHooks
_TEXT	ENDS
PUBLIC	??__Fmanager@?1??GetInstance@?$CHookMgr@VCFindReplaceDialogEx@@@@KAAAVCFindReplaceDialogEx@@XZ@YAXXZ ; `CHookMgr<CFindReplaceDialogEx>::GetInstance'::`2'::`dynamic atexit destructor for 'manager''
PUBLIC	??0CFindReplaceDialogEx@@IAE@XZ			; CFindReplaceDialogEx::CFindReplaceDialogEx
PUBLIC	?manager@?1??GetInstance@?$CHookMgr@VCFindReplaceDialogEx@@@@KAAAVCFindReplaceDialogEx@@XZ@4V3@A ; `CHookMgr<CFindReplaceDialogEx>::GetInstance'::`2'::manager
PUBLIC	??_B?1??GetInstance@?$CHookMgr@VCFindReplaceDialogEx@@@@KAAAVCFindReplaceDialogEx@@XZ@51 ; `CHookMgr<CFindReplaceDialogEx>::GetInstance'::`2'::`local static guard'
EXTRN	_atexit:PROC
;	COMDAT ?manager@?1??GetInstance@?$CHookMgr@VCFindReplaceDialogEx@@@@KAAAVCFindReplaceDialogEx@@XZ@4V3@A
_BSS	SEGMENT
?manager@?1??GetInstance@?$CHookMgr@VCFindReplaceDialogEx@@@@KAAAVCFindReplaceDialogEx@@XZ@4V3@A DB 02f0H DUP (?) ; `CHookMgr<CFindReplaceDialogEx>::GetInstance'::`2'::manager
_BSS	ENDS
;	COMDAT ??_B?1??GetInstance@?$CHookMgr@VCFindReplaceDialogEx@@@@KAAAVCFindReplaceDialogEx@@XZ@51
_BSS	SEGMENT
??_B?1??GetInstance@?$CHookMgr@VCFindReplaceDialogEx@@@@KAAAVCFindReplaceDialogEx@@XZ@51 DD 01H DUP (?) ; `CHookMgr<CFindReplaceDialogEx>::GetInstance'::`2'::`local static guard'
_BSS	ENDS
;	COMDAT xdata$x
xdata$x	SEGMENT
__unwindtable$?GetInstance@?$CHookMgr@VCFindReplaceDialogEx@@@@KAAAVCFindReplaceDialogEx@@XZ DD 0ffffffffH
	DD	FLAT:__unwindfunclet$?GetInstance@?$CHookMgr@VCFindReplaceDialogEx@@@@KAAAVCFindReplaceDialogEx@@XZ$0
__ehfuncinfo$?GetInstance@?$CHookMgr@VCFindReplaceDialogEx@@@@KAAAVCFindReplaceDialogEx@@XZ DD 019930522H
	DD	01H
	DD	FLAT:__unwindtable$?GetInstance@?$CHookMgr@VCFindReplaceDialogEx@@@@KAAAVCFindReplaceDialogEx@@XZ
	DD	2 DUP(00H)
	DD	2 DUP(00H)
	DD	00H
	DD	01H
; Function compile flags: /Odtp /RTCsu
xdata$x	ENDS
;	COMDAT ?GetInstance@?$CHookMgr@VCFindReplaceDialogEx@@@@KAAAVCFindReplaceDialogEx@@XZ
_TEXT	SEGMENT
__$EHRec$ = -12						; size = 12
?GetInstance@?$CHookMgr@VCFindReplaceDialogEx@@@@KAAAVCFindReplaceDialogEx@@XZ PROC ; CHookMgr<CFindReplaceDialogEx>::GetInstance, COMDAT

; 132  : 	{ 

	push	ebp
	mov	ebp, esp
	push	-1
	push	__ehhandler$?GetInstance@?$CHookMgr@VCFindReplaceDialogEx@@@@KAAAVCFindReplaceDialogEx@@XZ
	mov	eax, DWORD PTR fs:0
	push	eax
	mov	eax, DWORD PTR ___security_cookie
	xor	eax, ebp
	push	eax
	lea	eax, DWORD PTR __$EHRec$[ebp]
	mov	DWORD PTR fs:0, eax

; 133  : 		static MGRTYPE manager; 

	mov	eax, DWORD PTR ??_B?1??GetInstance@?$CHookMgr@VCFindReplaceDialogEx@@@@KAAAVCFindReplaceDialogEx@@XZ@51
	and	eax, 1
	jne	SHORT $LN1@GetInstanc
	mov	ecx, DWORD PTR ??_B?1??GetInstance@?$CHookMgr@VCFindReplaceDialogEx@@@@KAAAVCFindReplaceDialogEx@@XZ@51
	or	ecx, 1
	mov	DWORD PTR ??_B?1??GetInstance@?$CHookMgr@VCFindReplaceDialogEx@@@@KAAAVCFindReplaceDialogEx@@XZ@51, ecx
	mov	DWORD PTR __$EHRec$[ebp+8], 0
	mov	ecx, OFFSET ?manager@?1??GetInstance@?$CHookMgr@VCFindReplaceDialogEx@@@@KAAAVCFindReplaceDialogEx@@XZ@4V3@A ; `CHookMgr<CFindReplaceDialogEx>::GetInstance'::`2'::manager
	call	??0CFindReplaceDialogEx@@IAE@XZ		; CFindReplaceDialogEx::CFindReplaceDialogEx
	push	OFFSET ??__Fmanager@?1??GetInstance@?$CHookMgr@VCFindReplaceDialogEx@@@@KAAAVCFindReplaceDialogEx@@XZ@YAXXZ ; `CHookMgr<CFindReplaceDialogEx>::GetInstance'::`2'::`dynamic atexit destructor for 'manager''
	call	_atexit
	add	esp, 4
	mov	DWORD PTR __$EHRec$[ebp+8], -1
$LN1@GetInstanc:

; 134  : 		return manager; 

	mov	eax, OFFSET ?manager@?1??GetInstance@?$CHookMgr@VCFindReplaceDialogEx@@@@KAAAVCFindReplaceDialogEx@@XZ@4V3@A ; `CHookMgr<CFindReplaceDialogEx>::GetInstance'::`2'::manager

; 135  : 	}

	mov	ecx, DWORD PTR __$EHRec$[ebp]
	mov	DWORD PTR fs:0, ecx
	pop	ecx
	add	esp, 12					; 0000000cH
	cmp	ebp, esp
	call	__RTC_CheckEsp
	mov	esp, ebp
	pop	ebp
	ret	0
_TEXT	ENDS
;	COMDAT text$x
text$x	SEGMENT
__unwindfunclet$?GetInstance@?$CHookMgr@VCFindReplaceDialogEx@@@@KAAAVCFindReplaceDialogEx@@XZ$0:
	mov	eax, DWORD PTR ??_B?1??GetInstance@?$CHookMgr@VCFindReplaceDialogEx@@@@KAAAVCFindReplaceDialogEx@@XZ@51
	and	eax, -2					; fffffffeH
	mov	DWORD PTR ??_B?1??GetInstance@?$CHookMgr@VCFindReplaceDialogEx@@@@KAAAVCFindReplaceDialogEx@@XZ@51, eax
	ret	0
__ehhandler$?GetInstance@?$CHookMgr@VCFindReplaceDialogEx@@@@KAAAVCFindReplaceDialogEx@@XZ:
	mov	edx, DWORD PTR [esp+8]
	lea	eax, DWORD PTR [edx+12]
	mov	ecx, DWORD PTR [edx-4]
	xor	ecx, eax
	call	@__security_check_cookie@4
	mov	eax, OFFSET __ehfuncinfo$?GetInstance@?$CHookMgr@VCFindReplaceDialogEx@@@@KAAAVCFindReplaceDialogEx@@XZ
	jmp	___CxxFrameHandler3
text$x	ENDS
?GetInstance@?$CHookMgr@VCFindReplaceDialogEx@@@@KAAAVCFindReplaceDialogEx@@XZ ENDP ; CHookMgr<CFindReplaceDialogEx>::GetInstance
PUBLIC	??1CFindReplaceDialog@@UAE@XZ			; CFindReplaceDialog::~CFindReplaceDialog
PUBLIC	??_7CFindReplaceDialogEx@@6B?$CHookMgr@VCFindReplaceDialogEx@@@@@ ; CFindReplaceDialogEx::`vftable'
PUBLIC	??_7CFindReplaceDialogEx@@6BCFindReplaceDialog@@@ ; CFindReplaceDialogEx::`vftable'
PUBLIC	??0?$CHookMgr@VCFindReplaceDialogEx@@@@IAE@XZ	; CHookMgr<CFindReplaceDialogEx>::CHookMgr<CFindReplaceDialogEx>
PUBLIC	??_R4CFindReplaceDialogEx@@6BCFindReplaceDialog@@@ ; CFindReplaceDialogEx::`RTTI Complete Object Locator'
PUBLIC	??_R0?AVCFindReplaceDialogEx@@@8		; CFindReplaceDialogEx `RTTI Type Descriptor'
PUBLIC	??_R3CFindReplaceDialogEx@@8			; CFindReplaceDialogEx::`RTTI Class Hierarchy Descriptor'
PUBLIC	??_R2CFindReplaceDialogEx@@8			; CFindReplaceDialogEx::`RTTI Base Class Array'
PUBLIC	??_R1A@?0A@EA@CFindReplaceDialogEx@@8		; CFindReplaceDialogEx::`RTTI Base Class Descriptor at (0,-1,0,64)'
PUBLIC	??_R1A@?0A@EA@CFindReplaceDialog@@8		; CFindReplaceDialog::`RTTI Base Class Descriptor at (0,-1,0,64)'
PUBLIC	??_R0?AVCFindReplaceDialog@@@8			; CFindReplaceDialog `RTTI Type Descriptor'
PUBLIC	??_R3CFindReplaceDialog@@8			; CFindReplaceDialog::`RTTI Class Hierarchy Descriptor'
PUBLIC	??_R2CFindReplaceDialog@@8			; CFindReplaceDialog::`RTTI Base Class Array'
PUBLIC	??_R1A@?0A@EA@CCommonDialog@@8			; CCommonDialog::`RTTI Base Class Descriptor at (0,-1,0,64)'
PUBLIC	??_R0?AVCCommonDialog@@@8			; CCommonDialog `RTTI Type Descriptor'
PUBLIC	??_R3CCommonDialog@@8				; CCommonDialog::`RTTI Class Hierarchy Descriptor'
PUBLIC	??_R2CCommonDialog@@8				; CCommonDialog::`RTTI Base Class Array'
PUBLIC	??_R1A@?0A@EA@CDialog@@8			; CDialog::`RTTI Base Class Descriptor at (0,-1,0,64)'
PUBLIC	??_R0?AVCDialog@@@8				; CDialog `RTTI Type Descriptor'
PUBLIC	??_R3CDialog@@8					; CDialog::`RTTI Class Hierarchy Descriptor'
PUBLIC	??_R2CDialog@@8					; CDialog::`RTTI Base Class Array'
PUBLIC	??_R1CLM@?0A@EA@?$CHookMgr@VCFindReplaceDialogEx@@@@8 ; CHookMgr<CFindReplaceDialogEx>::`RTTI Base Class Descriptor at (700,-1,0,64)'
PUBLIC	??_R0?AV?$CHookMgr@VCFindReplaceDialogEx@@@@@8	; CHookMgr<CFindReplaceDialogEx> `RTTI Type Descriptor'
PUBLIC	??_R3?$CHookMgr@VCFindReplaceDialogEx@@@@8	; CHookMgr<CFindReplaceDialogEx>::`RTTI Class Hierarchy Descriptor'
PUBLIC	??_R2?$CHookMgr@VCFindReplaceDialogEx@@@@8	; CHookMgr<CFindReplaceDialogEx>::`RTTI Base Class Array'
PUBLIC	??_R1A@?0A@EA@?$CHookMgr@VCFindReplaceDialogEx@@@@8 ; CHookMgr<CFindReplaceDialogEx>::`RTTI Base Class Descriptor at (0,-1,0,64)'
PUBLIC	?PostNcDestroy@CFindReplaceDialogEx@@MAEXXZ	; CFindReplaceDialogEx::PostNcDestroy
PUBLIC	??_R4CFindReplaceDialogEx@@6B?$CHookMgr@VCFindReplaceDialogEx@@@@@ ; CFindReplaceDialogEx::`RTTI Complete Object Locator'
PUBLIC	??_ECFindReplaceDialogEx@@WCLM@AEPAXI@Z		; [thunk]:CFindReplaceDialogEx::`vector deleting destructor'
PUBLIC	?OnCallWndProc@?$CHookMgr@VCFindReplaceDialogEx@@@@MAEHABUtagMSG@@@Z ; CHookMgr<CFindReplaceDialogEx>::OnCallWndProc
PUBLIC	?OnCallWndRetProc@?$CHookMgr@VCFindReplaceDialogEx@@@@MAEHABUtagMSG@@J@Z ; CHookMgr<CFindReplaceDialogEx>::OnCallWndRetProc
PUBLIC	?OnCbt@?$CHookMgr@VCFindReplaceDialogEx@@@@MAEHHIJ@Z ; CHookMgr<CFindReplaceDialogEx>::OnCbt
PUBLIC	?OnForegroundIdle@?$CHookMgr@VCFindReplaceDialogEx@@@@MAEHXZ ; CHookMgr<CFindReplaceDialogEx>::OnForegroundIdle
PUBLIC	?OnGetMessage@?$CHookMgr@VCFindReplaceDialogEx@@@@MAEHABUtagMSG@@@Z ; CHookMgr<CFindReplaceDialogEx>::OnGetMessage
PUBLIC	?OnMsgFilter@?$CHookMgr@VCFindReplaceDialogEx@@@@MAEHABUtagMSG@@H@Z ; CHookMgr<CFindReplaceDialogEx>::OnMsgFilter
PUBLIC	?OnShell@?$CHookMgr@VCFindReplaceDialogEx@@@@MAEHHIJ@Z ; CHookMgr<CFindReplaceDialogEx>::OnShell
PUBLIC	?OnSysMsgFilter@?$CHookMgr@VCFindReplaceDialogEx@@@@MAEHABUtagMSG@@H@Z ; CHookMgr<CFindReplaceDialogEx>::OnSysMsgFilter
PUBLIC	?OnMouseEx@?$CHookMgr@VCFindReplaceDialogEx@@@@MAEHIABUtagMOUSEHOOKSTRUCTEX@@@Z ; CHookMgr<CFindReplaceDialogEx>::OnMouseEx
EXTRN	??0CFindReplaceDialog@@QAE@XZ:PROC		; CFindReplaceDialog::CFindReplaceDialog
EXTRN	?GetRuntimeClass@CFindReplaceDialog@@UBEPAUCRuntimeClass@@XZ:PROC ; CFindReplaceDialog::GetRuntimeClass
EXTRN	??_ECFindReplaceDialogEx@@UAEPAXI@Z:PROC	; CFindReplaceDialogEx::`vector deleting destructor'
EXTRN	?AssertValid@CDialog@@UBEXXZ:PROC		; CDialog::AssertValid
EXTRN	?Dump@CFindReplaceDialog@@UBEXAAVCDumpContext@@@Z:PROC ; CFindReplaceDialog::Dump
EXTRN	?OnCmdMsg@CDialog@@UAEHIHPAXPAUAFX_CMDHANDLERINFO@@@Z:PROC ; CDialog::OnCmdMsg
EXTRN	?GetMessageMap@CCommonDialog@@MBEPBUAFX_MSGMAP@@XZ:PROC ; CCommonDialog::GetMessageMap
EXTRN	?PreSubclassWindow@CWnd@@UAEXXZ:PROC		; CWnd::PreSubclassWindow
EXTRN	?PreTranslateMessage@CDialog@@UAEHPAUtagMSG@@@Z:PROC ; CDialog::PreTranslateMessage
EXTRN	?CheckAutoCenter@CDialog@@UAEHXZ:PROC		; CDialog::CheckAutoCenter
EXTRN	?SetOccDialogInfo@CDialog@@MAEHPAU_AFX_OCC_DIALOG_INFO@@@Z:PROC ; CDialog::SetOccDialogInfo
EXTRN	?GetOccDialogInfo@CDialog@@MAEPAU_AFX_OCC_DIALOG_INFO@@XZ:PROC ; CDialog::GetOccDialogInfo
EXTRN	?Create@CDialog@@UAEHIPAVCWnd@@@Z:PROC		; CDialog::Create
EXTRN	?Create@CDialog@@UAEHPB_WPAVCWnd@@@Z:PROC	; CDialog::Create
EXTRN	?CreateIndirect@CDialog@@UAEHPAXPAVCWnd@@@Z:PROC ; CDialog::CreateIndirect
EXTRN	?CreateIndirect@CDialog@@UAEHPBUDLGTEMPLATE@@PAVCWnd@@PAX@Z:PROC ; CDialog::CreateIndirect
EXTRN	?OnSetFont@CDialog@@UAEXPAVCFont@@@Z:PROC	; CDialog::OnSetFont
EXTRN	?OnOK@CCommonDialog@@MAEXXZ:PROC		; CCommonDialog::OnOK
EXTRN	?OnCancel@CCommonDialog@@MAEXXZ:PROC		; CCommonDialog::OnCancel
EXTRN	?PreInitDialog@CDialog@@MAEXXZ:PROC		; CDialog::PreInitDialog
EXTRN	?Create@CFindReplaceDialog@@UAEHHPB_W0KPAVCWnd@@@Z:PROC ; CFindReplaceDialog::Create
;	COMDAT ??_R4CFindReplaceDialogEx@@6B?$CHookMgr@VCFindReplaceDialogEx@@@@@
; File d:\_code\rtfcontentctrl\rulerrichedit.cpp
rdata$r	SEGMENT
??_R4CFindReplaceDialogEx@@6B?$CHookMgr@VCFindReplaceDialogEx@@@@@ DD 00H ; CFindReplaceDialogEx::`RTTI Complete Object Locator'
	DD	02bcH
	DD	00H
	DD	FLAT:??_R0?AVCFindReplaceDialogEx@@@8
	DD	FLAT:??_R3CFindReplaceDialogEx@@8
rdata$r	ENDS
;	COMDAT ??_R1A@?0A@EA@?$CHookMgr@VCFindReplaceDialogEx@@@@8
rdata$r	SEGMENT
??_R1A@?0A@EA@?$CHookMgr@VCFindReplaceDialogEx@@@@8 DD FLAT:??_R0?AV?$CHookMgr@VCFindReplaceDialogEx@@@@@8 ; CHookMgr<CFindReplaceDialogEx>::`RTTI Base Class Descriptor at (0,-1,0,64)'
	DD	00H
	DD	00H
	DD	0ffffffffH
	DD	00H
	DD	040H
	DD	FLAT:??_R3?$CHookMgr@VCFindReplaceDialogEx@@@@8
rdata$r	ENDS
;	COMDAT ??_R2?$CHookMgr@VCFindReplaceDialogEx@@@@8
rdata$r	SEGMENT
??_R2?$CHookMgr@VCFindReplaceDialogEx@@@@8 DD FLAT:??_R1A@?0A@EA@?$CHookMgr@VCFindReplaceDialogEx@@@@8 ; CHookMgr<CFindReplaceDialogEx>::`RTTI Base Class Array'
rdata$r	ENDS
;	COMDAT ??_R3?$CHookMgr@VCFindReplaceDialogEx@@@@8
rdata$r	SEGMENT
??_R3?$CHookMgr@VCFindReplaceDialogEx@@@@8 DD 00H	; CHookMgr<CFindReplaceDialogEx>::`RTTI Class Hierarchy Descriptor'
	DD	00H
	DD	01H
	DD	FLAT:??_R2?$CHookMgr@VCFindReplaceDialogEx@@@@8
rdata$r	ENDS
;	COMDAT ??_R0?AV?$CHookMgr@VCFindReplaceDialogEx@@@@@8
_DATA	SEGMENT
??_R0?AV?$CHookMgr@VCFindReplaceDialogEx@@@@@8 DD FLAT:??_7type_info@@6B@ ; CHookMgr<CFindReplaceDialogEx> `RTTI Type Descriptor'
	DD	00H
	DB	'.?AV?$CHookMgr@VCFindReplaceDialogEx@@@@', 00H
_DATA	ENDS
;	COMDAT ??_R1CLM@?0A@EA@?$CHookMgr@VCFindReplaceDialogEx@@@@8
rdata$r	SEGMENT
??_R1CLM@?0A@EA@?$CHookMgr@VCFindReplaceDialogEx@@@@8 DD FLAT:??_R0?AV?$CHookMgr@VCFindReplaceDialogEx@@@@@8 ; CHookMgr<CFindReplaceDialogEx>::`RTTI Base Class Descriptor at (700,-1,0,64)'
	DD	00H
	DD	02bcH
	DD	0ffffffffH
	DD	00H
	DD	040H
	DD	FLAT:??_R3?$CHookMgr@VCFindReplaceDialogEx@@@@8
rdata$r	ENDS
;	COMDAT ??_R2CDialog@@8
rdata$r	SEGMENT
??_R2CDialog@@8 DD FLAT:??_R1A@?0A@EA@CDialog@@8	; CDialog::`RTTI Base Class Array'
	DD	FLAT:??_R1A@?0A@EA@CWnd@@8
	DD	FLAT:??_R1A@?0A@EA@CCmdTarget@@8
	DD	FLAT:??_R1A@?0A@EA@CObject@@8
rdata$r	ENDS
;	COMDAT ??_R3CDialog@@8
rdata$r	SEGMENT
??_R3CDialog@@8 DD 00H					; CDialog::`RTTI Class Hierarchy Descriptor'
	DD	00H
	DD	04H
	DD	FLAT:??_R2CDialog@@8
rdata$r	ENDS
;	COMDAT ??_R0?AVCDialog@@@8
_DATA	SEGMENT
??_R0?AVCDialog@@@8 DD FLAT:??_7type_info@@6B@		; CDialog `RTTI Type Descriptor'
	DD	00H
	DB	'.?AVCDialog@@', 00H
_DATA	ENDS
;	COMDAT ??_R1A@?0A@EA@CDialog@@8
rdata$r	SEGMENT
??_R1A@?0A@EA@CDialog@@8 DD FLAT:??_R0?AVCDialog@@@8	; CDialog::`RTTI Base Class Descriptor at (0,-1,0,64)'
	DD	03H
	DD	00H
	DD	0ffffffffH
	DD	00H
	DD	040H
	DD	FLAT:??_R3CDialog@@8
rdata$r	ENDS
;	COMDAT ??_R2CCommonDialog@@8
rdata$r	SEGMENT
??_R2CCommonDialog@@8 DD FLAT:??_R1A@?0A@EA@CCommonDialog@@8 ; CCommonDialog::`RTTI Base Class Array'
	DD	FLAT:??_R1A@?0A@EA@CDialog@@8
	DD	FLAT:??_R1A@?0A@EA@CWnd@@8
	DD	FLAT:??_R1A@?0A@EA@CCmdTarget@@8
	DD	FLAT:??_R1A@?0A@EA@CObject@@8
rdata$r	ENDS
;	COMDAT ??_R3CCommonDialog@@8
rdata$r	SEGMENT
??_R3CCommonDialog@@8 DD 00H				; CCommonDialog::`RTTI Class Hierarchy Descriptor'
	DD	00H
	DD	05H
	DD	FLAT:??_R2CCommonDialog@@8
rdata$r	ENDS
;	COMDAT ??_R0?AVCCommonDialog@@@8
_DATA	SEGMENT
??_R0?AVCCommonDialog@@@8 DD FLAT:??_7type_info@@6B@	; CCommonDialog `RTTI Type Descriptor'
	DD	00H
	DB	'.?AVCCommonDialog@@', 00H
_DATA	ENDS
;	COMDAT ??_R1A@?0A@EA@CCommonDialog@@8
rdata$r	SEGMENT
??_R1A@?0A@EA@CCommonDialog@@8 DD FLAT:??_R0?AVCCommonDialog@@@8 ; CCommonDialog::`RTTI Base Class Descriptor at (0,-1,0,64)'
	DD	04H
	DD	00H
	DD	0ffffffffH
	DD	00H
	DD	040H
	DD	FLAT:??_R3CCommonDialog@@8
rdata$r	ENDS
;	COMDAT ??_R2CFindReplaceDialog@@8
rdata$r	SEGMENT
??_R2CFindReplaceDialog@@8 DD FLAT:??_R1A@?0A@EA@CFindReplaceDialog@@8 ; CFindReplaceDialog::`RTTI Base Class Array'
	DD	FLAT:??_R1A@?0A@EA@CCommonDialog@@8
	DD	FLAT:??_R1A@?0A@EA@CDialog@@8
	DD	FLAT:??_R1A@?0A@EA@CWnd@@8
	DD	FLAT:??_R1A@?0A@EA@CCmdTarget@@8
	DD	FLAT:??_R1A@?0A@EA@CObject@@8
rdata$r	ENDS
;	COMDAT ??_R3CFindReplaceDialog@@8
rdata$r	SEGMENT
??_R3CFindReplaceDialog@@8 DD 00H			; CFindReplaceDialog::`RTTI Class Hierarchy Descriptor'
	DD	00H
	DD	06H
	DD	FLAT:??_R2CFindReplaceDialog@@8
rdata$r	ENDS
;	COMDAT ??_R0?AVCFindReplaceDialog@@@8
_DATA	SEGMENT
??_R0?AVCFindReplaceDialog@@@8 DD FLAT:??_7type_info@@6B@ ; CFindReplaceDialog `RTTI Type Descriptor'
	DD	00H
	DB	'.?AVCFindReplaceDialog@@', 00H
_DATA	ENDS
;	COMDAT ??_R1A@?0A@EA@CFindReplaceDialog@@8
rdata$r	SEGMENT
??_R1A@?0A@EA@CFindReplaceDialog@@8 DD FLAT:??_R0?AVCFindReplaceDialog@@@8 ; CFindReplaceDialog::`RTTI Base Class Descriptor at (0,-1,0,64)'
	DD	05H
	DD	00H
	DD	0ffffffffH
	DD	00H
	DD	040H
	DD	FLAT:??_R3CFindReplaceDialog@@8
rdata$r	ENDS
;	COMDAT ??_R1A@?0A@EA@CFindReplaceDialogEx@@8
rdata$r	SEGMENT
??_R1A@?0A@EA@CFindReplaceDialogEx@@8 DD FLAT:??_R0?AVCFindReplaceDialogEx@@@8 ; CFindReplaceDialogEx::`RTTI Base Class Descriptor at (0,-1,0,64)'
	DD	07H
	DD	00H
	DD	0ffffffffH
	DD	00H
	DD	040H
	DD	FLAT:??_R3CFindReplaceDialogEx@@8
rdata$r	ENDS
;	COMDAT ??_R2CFindReplaceDialogEx@@8
rdata$r	SEGMENT
??_R2CFindReplaceDialogEx@@8 DD FLAT:??_R1A@?0A@EA@CFindReplaceDialogEx@@8 ; CFindReplaceDialogEx::`RTTI Base Class Array'
	DD	FLAT:??_R1A@?0A@EA@CFindReplaceDialog@@8
	DD	FLAT:??_R1A@?0A@EA@CCommonDialog@@8
	DD	FLAT:??_R1A@?0A@EA@CDialog@@8
	DD	FLAT:??_R1A@?0A@EA@CWnd@@8
	DD	FLAT:??_R1A@?0A@EA@CCmdTarget@@8
	DD	FLAT:??_R1A@?0A@EA@CObject@@8
	DD	FLAT:??_R1CLM@?0A@EA@?$CHookMgr@VCFindReplaceDialogEx@@@@8
rdata$r	ENDS
;	COMDAT ??_R3CFindReplaceDialogEx@@8
rdata$r	SEGMENT
??_R3CFindReplaceDialogEx@@8 DD 00H			; CFindReplaceDialogEx::`RTTI Class Hierarchy Descriptor'
	DD	01H
	DD	08H
	DD	FLAT:??_R2CFindReplaceDialogEx@@8
rdata$r	ENDS
;	COMDAT ??_R0?AVCFindReplaceDialogEx@@@8
_DATA	SEGMENT
??_R0?AVCFindReplaceDialogEx@@@8 DD FLAT:??_7type_info@@6B@ ; CFindReplaceDialogEx `RTTI Type Descriptor'
	DD	00H
	DB	'.?AVCFindReplaceDialogEx@@', 00H
_DATA	ENDS
;	COMDAT ??_R4CFindReplaceDialogEx@@6BCFindReplaceDialog@@@
rdata$r	SEGMENT
??_R4CFindReplaceDialogEx@@6BCFindReplaceDialog@@@ DD 00H ; CFindReplaceDialogEx::`RTTI Complete Object Locator'
	DD	00H
	DD	00H
	DD	FLAT:??_R0?AVCFindReplaceDialogEx@@@8
	DD	FLAT:??_R3CFindReplaceDialogEx@@8
rdata$r	ENDS
;	COMDAT ??_7CFindReplaceDialogEx@@6B?$CHookMgr@VCFindReplaceDialogEx@@@@@
CONST	SEGMENT
??_7CFindReplaceDialogEx@@6B?$CHookMgr@VCFindReplaceDialogEx@@@@@ DD FLAT:??_R4CFindReplaceDialogEx@@6B?$CHookMgr@VCFindReplaceDialogEx@@@@@ ; CFindReplaceDialogEx::`vftable'
	DD	FLAT:??_ECFindReplaceDialogEx@@WCLM@AEPAXI@Z
	DD	FLAT:?OnCallWndProc@?$CHookMgr@VCFindReplaceDialogEx@@@@MAEHABUtagMSG@@@Z
	DD	FLAT:?OnCallWndRetProc@?$CHookMgr@VCFindReplaceDialogEx@@@@MAEHABUtagMSG@@J@Z
	DD	FLAT:?OnCbt@?$CHookMgr@VCFindReplaceDialogEx@@@@MAEHHIJ@Z
	DD	FLAT:?OnForegroundIdle@?$CHookMgr@VCFindReplaceDialogEx@@@@MAEHXZ
	DD	FLAT:?OnGetMessage@?$CHookMgr@VCFindReplaceDialogEx@@@@MAEHABUtagMSG@@@Z
	DD	FLAT:?OnKeyboard@CFindReplaceDialogEx@@MAEHII@Z
	DD	FLAT:?OnMsgFilter@?$CHookMgr@VCFindReplaceDialogEx@@@@MAEHABUtagMSG@@H@Z
	DD	FLAT:?OnShell@?$CHookMgr@VCFindReplaceDialogEx@@@@MAEHHIJ@Z
	DD	FLAT:?OnSysMsgFilter@?$CHookMgr@VCFindReplaceDialogEx@@@@MAEHABUtagMSG@@H@Z
	DD	FLAT:?OnMouseEx@?$CHookMgr@VCFindReplaceDialogEx@@@@MAEHIABUtagMOUSEHOOKSTRUCTEX@@@Z
CONST	ENDS
;	COMDAT ??_7CFindReplaceDialogEx@@6BCFindReplaceDialog@@@
CONST	SEGMENT
??_7CFindReplaceDialogEx@@6BCFindReplaceDialog@@@ DD FLAT:??_R4CFindReplaceDialogEx@@6BCFindReplaceDialog@@@ ; CFindReplaceDialogEx::`vftable'
	DD	FLAT:?GetRuntimeClass@CFindReplaceDialog@@UBEPAUCRuntimeClass@@XZ
	DD	FLAT:??_ECFindReplaceDialogEx@@UAEPAXI@Z
	DD	FLAT:?Serialize@CObject@@UAEXAAVCArchive@@@Z
	DD	FLAT:?AssertValid@CDialog@@UBEXXZ
	DD	FLAT:?Dump@CFindReplaceDialog@@UBEXAAVCDumpContext@@@Z
	DD	FLAT:?OnCmdMsg@CDialog@@UAEHIHPAXPAUAFX_CMDHANDLERINFO@@@Z
	DD	FLAT:?OnFinalRelease@CWnd@@UAEXXZ
	DD	FLAT:?IsInvokeAllowed@CCmdTarget@@UAEHJ@Z
	DD	FLAT:?GetDispatchIID@CCmdTarget@@UAEHPAU_GUID@@@Z
	DD	FLAT:?GetTypeInfoCount@CCmdTarget@@UAEIXZ
	DD	FLAT:?GetTypeLibCache@CCmdTarget@@UAEPAVCTypeLibCache@@XZ
	DD	FLAT:?GetTypeLib@CCmdTarget@@UAEJKPAPAUITypeLib@@@Z
	DD	FLAT:?GetMessageMap@CCommonDialog@@MBEPBUAFX_MSGMAP@@XZ
	DD	FLAT:?GetCommandMap@CCmdTarget@@MBEPBUAFX_OLECMDMAP@@XZ
	DD	FLAT:?GetDispatchMap@CCmdTarget@@MBEPBUAFX_DISPMAP@@XZ
	DD	FLAT:?GetConnectionMap@CCmdTarget@@MBEPBUAFX_CONNECTIONMAP@@XZ
	DD	FLAT:?GetInterfaceMap@CWnd@@MBEPBUAFX_INTERFACEMAP@@XZ
	DD	FLAT:?GetEventSinkMap@CCmdTarget@@MBEPBUAFX_EVENTSINKMAP@@XZ
	DD	FLAT:?OnCreateAggregates@CCmdTarget@@UAEHXZ
	DD	FLAT:?GetInterfaceHook@CCmdTarget@@UAEPAUIUnknown@@PBX@Z
	DD	FLAT:?GetExtraConnectionPoints@CCmdTarget@@MAEHPAVCPtrArray@@@Z
	DD	FLAT:?GetConnectionHook@CCmdTarget@@MAEPAUIConnectionPoint@@ABU_GUID@@@Z
	DD	FLAT:?PreSubclassWindow@CWnd@@UAEXXZ
	DD	FLAT:?Create@CWnd@@UAEHPB_W0KABUtagRECT@@PAV1@IPAUCCreateContext@@@Z
	DD	FLAT:?CreateEx@CWnd@@UAEHKPB_W0KABUtagRECT@@PAV1@IPAX@Z
	DD	FLAT:?CreateEx@CWnd@@UAEHKPB_W0KHHHHPAUHWND__@@PAUHMENU__@@PAX@Z
	DD	FLAT:?DestroyWindow@CWnd@@UAEHXZ
	DD	FLAT:?PreCreateWindow@CWnd@@UAEHAAUtagCREATESTRUCTW@@@Z
	DD	FLAT:?CalcWindowRect@CWnd@@UAEXPAUtagRECT@@I@Z
	DD	FLAT:?GetMenu@CWnd@@UBEPAVCMenu@@XZ
	DD	FLAT:?SetMenu@CWnd@@UAEHPAVCMenu@@@Z
	DD	FLAT:?OnToolHitTest@CWnd@@UBEHVCPoint@@PAUtagTOOLINFOW@@@Z
	DD	FLAT:?GetScrollBarCtrl@CWnd@@UBEPAVCScrollBar@@H@Z
	DD	FLAT:?WinHelpW@CWnd@@UAEXKI@Z
	DD	FLAT:?HtmlHelpW@CWnd@@UAEXKI@Z
	DD	FLAT:?WinHelpInternal@CWnd@@UAEXKI@Z
	DD	FLAT:?ContinueModal@CWnd@@UAEHXZ
	DD	FLAT:?EndModalLoop@CWnd@@UAEXH@Z
	DD	FLAT:?OnDrawIconicThumbnailOrLivePreview@CWnd@@UAEXAAVCDC@@VCRect@@VCSize@@HAAH@Z
	DD	FLAT:?EnsureStdObj@CWnd@@UAEJXZ
	DD	FLAT:?get_accParent@CWnd@@UAEJPAPAUIDispatch@@@Z
	DD	FLAT:?get_accChildCount@CWnd@@UAEJPAJ@Z
	DD	FLAT:?get_accChild@CWnd@@UAEJUtagVARIANT@@PAPAUIDispatch@@@Z
	DD	FLAT:?get_accName@CWnd@@UAEJUtagVARIANT@@PAPA_W@Z
	DD	FLAT:?get_accValue@CWnd@@UAEJUtagVARIANT@@PAPA_W@Z
	DD	FLAT:?get_accDescription@CWnd@@UAEJUtagVARIANT@@PAPA_W@Z
	DD	FLAT:?get_accRole@CWnd@@UAEJUtagVARIANT@@PAU2@@Z
	DD	FLAT:?get_accState@CWnd@@UAEJUtagVARIANT@@PAU2@@Z
	DD	FLAT:?get_accHelp@CWnd@@UAEJUtagVARIANT@@PAPA_W@Z
	DD	FLAT:?get_accHelpTopic@CWnd@@UAEJPAPA_WUtagVARIANT@@PAJ@Z
	DD	FLAT:?get_accKeyboardShortcut@CWnd@@UAEJUtagVARIANT@@PAPA_W@Z
	DD	FLAT:?get_accFocus@CWnd@@UAEJPAUtagVARIANT@@@Z
	DD	FLAT:?get_accSelection@CWnd@@UAEJPAUtagVARIANT@@@Z
	DD	FLAT:?get_accDefaultAction@CWnd@@UAEJUtagVARIANT@@PAPA_W@Z
	DD	FLAT:?accSelect@CWnd@@UAEJJUtagVARIANT@@@Z
	DD	FLAT:?accLocation@CWnd@@UAEJPAJ000UtagVARIANT@@@Z
	DD	FLAT:?accNavigate@CWnd@@UAEJJUtagVARIANT@@PAU2@@Z
	DD	FLAT:?accHitTest@CWnd@@UAEJJJPAUtagVARIANT@@@Z
	DD	FLAT:?accDoDefaultAction@CWnd@@UAEJUtagVARIANT@@@Z
	DD	FLAT:?put_accName@CWnd@@UAEJUtagVARIANT@@PA_W@Z
	DD	FLAT:?put_accValue@CWnd@@UAEJUtagVARIANT@@PA_W@Z
	DD	FLAT:?SetProxy@CWnd@@UAEJPAUIAccessibleProxy@@@Z
	DD	FLAT:?CreateAccessibleProxy@CWnd@@UAEJIJPAJ@Z
	DD	FLAT:?OnCommand@CWnd@@MAEHIJ@Z
	DD	FLAT:?OnNotify@CWnd@@MAEHIJPAJ@Z
	DD	FLAT:?GetSuperWndProcAddr@CWnd@@MAEPAP6GJPAUHWND__@@IIJ@ZXZ
	DD	FLAT:?DoDataExchange@CWnd@@MAEXPAVCDataExchange@@@Z
	DD	FLAT:?BeginModalState@CWnd@@UAEXXZ
	DD	FLAT:?EndModalState@CWnd@@UAEXXZ
	DD	FLAT:?PreTranslateMessage@CDialog@@UAEHPAUtagMSG@@@Z
	DD	FLAT:?OnAmbientProperty@CWnd@@UAEHPAVCOleControlSite@@JPAUtagVARIANT@@@Z
	DD	FLAT:?WindowProc@CWnd@@MAEJIIJ@Z
	DD	FLAT:?OnWndMsg@CWnd@@MAEHIIJPAJ@Z
	DD	FLAT:?DefWindowProcW@CWnd@@MAEJIIJ@Z
	DD	FLAT:?PostNcDestroy@CFindReplaceDialogEx@@MAEXXZ
	DD	FLAT:?OnChildNotify@CWnd@@MAEHIIJPAJ@Z
	DD	FLAT:?OnTouchInputs@CWnd@@MAEHIPAUtagTOUCHINPUT@@@Z
	DD	FLAT:?OnTouchInput@CWnd@@MAEHVCPoint@@HHPAUtagTOUCHINPUT@@@Z
	DD	FLAT:?GetGestureStatus@CWnd@@MAEKVCPoint@@@Z
	DD	FLAT:?OnGestureZoom@CWnd@@MAEHVCPoint@@J@Z
	DD	FLAT:?OnGesturePan@CWnd@@MAEHVCPoint@@0@Z
	DD	FLAT:?OnGestureRotate@CWnd@@MAEHVCPoint@@N@Z
	DD	FLAT:?OnGestureTwoFingerTap@CWnd@@MAEHVCPoint@@@Z
	DD	FLAT:?OnGesturePressAndTap@CWnd@@MAEHVCPoint@@J@Z
	DD	FLAT:?CheckAutoCenter@CDialog@@UAEHXZ
	DD	FLAT:?IsFrameWnd@CWnd@@UBEHXZ
	DD	FLAT:?CreateControlContainer@CWnd@@MAEHPAPAVCOleControlContainer@@@Z
	DD	FLAT:?CreateControlSite@CWnd@@MAEHPAVCOleControlContainer@@PAPAVCOleControlSite@@IABU_GUID@@@Z
	DD	FLAT:?SetOccDialogInfo@CDialog@@MAEHPAU_AFX_OCC_DIALOG_INFO@@@Z
	DD	FLAT:?GetOccDialogInfo@CDialog@@MAEPAU_AFX_OCC_DIALOG_INFO@@XZ
	DD	FLAT:?Create@CDialog@@UAEHIPAVCWnd@@@Z
	DD	FLAT:?Create@CDialog@@UAEHPB_WPAVCWnd@@@Z
	DD	FLAT:?CreateIndirect@CDialog@@UAEHPAXPAVCWnd@@@Z
	DD	FLAT:?CreateIndirect@CDialog@@UAEHPBUDLGTEMPLATE@@PAVCWnd@@PAX@Z
	DD	FLAT:?DoModal@CDialog@@UAEHXZ
	DD	FLAT:?OnInitDialog@CFindReplaceDialogEx@@MAEHXZ
	DD	FLAT:?OnSetFont@CDialog@@UAEXPAVCFont@@@Z
	DD	FLAT:?OnOK@CCommonDialog@@MAEXXZ
	DD	FLAT:?OnCancel@CCommonDialog@@MAEXXZ
	DD	FLAT:?PreInitDialog@CDialog@@MAEXXZ
	DD	FLAT:?Create@CFindReplaceDialog@@UAEHHPB_W0KPAVCWnd@@@Z
CONST	ENDS
;	COMDAT xdata$x
xdata$x	SEGMENT
__unwindtable$??0CFindReplaceDialogEx@@IAE@XZ DD 0ffffffffH
	DD	FLAT:__unwindfunclet$??0CFindReplaceDialogEx@@IAE@XZ$0
__ehfuncinfo$??0CFindReplaceDialogEx@@IAE@XZ DD 019930522H
	DD	01H
	DD	FLAT:__unwindtable$??0CFindReplaceDialogEx@@IAE@XZ
	DD	2 DUP(00H)
	DD	2 DUP(00H)
	DD	00H
	DD	01H
; Function compile flags: /Odtp /RTCsu
xdata$x	ENDS
;	COMDAT ??0CFindReplaceDialogEx@@IAE@XZ
_TEXT	SEGMENT
_this$ = -16						; size = 4
__$EHRec$ = -12						; size = 12
??0CFindReplaceDialogEx@@IAE@XZ PROC			; CFindReplaceDialogEx::CFindReplaceDialogEx, COMDAT
; _this$ = ecx

; 62   : 	CFindReplaceDialogEx() {}

	push	ebp
	mov	ebp, esp
	push	-1
	push	__ehhandler$??0CFindReplaceDialogEx@@IAE@XZ
	mov	eax, DWORD PTR fs:0
	push	eax
	push	ecx
	mov	DWORD PTR [ebp-16], -858993460		; ccccccccH
	mov	eax, DWORD PTR ___security_cookie
	xor	eax, ebp
	push	eax
	lea	eax, DWORD PTR __$EHRec$[ebp]
	mov	DWORD PTR fs:0, eax
	mov	DWORD PTR _this$[ebp], ecx
	mov	ecx, DWORD PTR _this$[ebp]
	call	??0CFindReplaceDialog@@QAE@XZ		; CFindReplaceDialog::CFindReplaceDialog
	mov	DWORD PTR __$EHRec$[ebp+8], 0
	mov	ecx, DWORD PTR _this$[ebp]
	add	ecx, 700				; 000002bcH
	call	??0?$CHookMgr@VCFindReplaceDialogEx@@@@IAE@XZ ; CHookMgr<CFindReplaceDialogEx>::CHookMgr<CFindReplaceDialogEx>
	mov	eax, DWORD PTR _this$[ebp]
	mov	DWORD PTR [eax], OFFSET ??_7CFindReplaceDialogEx@@6BCFindReplaceDialog@@@
	mov	ecx, DWORD PTR _this$[ebp]
	mov	DWORD PTR [ecx+700], OFFSET ??_7CFindReplaceDialogEx@@6B?$CHookMgr@VCFindReplaceDialogEx@@@@@
	mov	DWORD PTR __$EHRec$[ebp+8], -1
	mov	eax, DWORD PTR _this$[ebp]
	mov	ecx, DWORD PTR __$EHRec$[ebp]
	mov	DWORD PTR fs:0, ecx
	pop	ecx
	add	esp, 16					; 00000010H
	cmp	ebp, esp
	call	__RTC_CheckEsp
	mov	esp, ebp
	pop	ebp
	ret	0
_TEXT	ENDS
;	COMDAT text$x
text$x	SEGMENT
__unwindfunclet$??0CFindReplaceDialogEx@@IAE@XZ$0:
	mov	ecx, DWORD PTR _this$[ebp]
	jmp	??1CFindReplaceDialog@@UAE@XZ
__ehhandler$??0CFindReplaceDialogEx@@IAE@XZ:
	mov	edx, DWORD PTR [esp+8]
	lea	eax, DWORD PTR [edx+12]
	mov	ecx, DWORD PTR [edx-8]
	xor	ecx, eax
	call	@__security_check_cookie@4
	mov	eax, OFFSET __ehfuncinfo$??0CFindReplaceDialogEx@@IAE@XZ
	jmp	___CxxFrameHandler3
text$x	ENDS
??0CFindReplaceDialogEx@@IAE@XZ ENDP			; CFindReplaceDialogEx::CFindReplaceDialogEx
; Function compile flags: /Odtp /RTCsu
;	COMDAT ?PostNcDestroy@CFindReplaceDialogEx@@MAEXXZ
_TEXT	SEGMENT
_this$ = -4						; size = 4
?PostNcDestroy@CFindReplaceDialogEx@@MAEXXZ PROC	; CFindReplaceDialogEx::PostNcDestroy, COMDAT
; _this$ = ecx

; 64   : 	virtual void PostNcDestroy() { ReleaseHooks(); }

	push	ebp
	mov	ebp, esp
	push	ecx
	mov	DWORD PTR [ebp-4], -858993460		; ccccccccH
	mov	DWORD PTR _this$[ebp], ecx
	mov	ecx, DWORD PTR _this$[ebp]
	add	ecx, 700				; 000002bcH
	call	?ReleaseHooks@?$CHookMgr@VCFindReplaceDialogEx@@@@IAEXXZ ; CHookMgr<CFindReplaceDialogEx>::ReleaseHooks
	add	esp, 4
	cmp	ebp, esp
	call	__RTC_CheckEsp
	mov	esp, ebp
	pop	ebp
	ret	0
?PostNcDestroy@CFindReplaceDialogEx@@MAEXXZ ENDP	; CFindReplaceDialogEx::PostNcDestroy
_TEXT	ENDS
PUBLIC	??1CFindReplaceDialogEx@@UAE@XZ			; CFindReplaceDialogEx::~CFindReplaceDialogEx
; Function compile flags: /Odtp /RTCsu
;	COMDAT ??_GCFindReplaceDialogEx@@UAEPAXI@Z
_TEXT	SEGMENT
_this$ = -4						; size = 4
___flags$ = 8						; size = 4
??_GCFindReplaceDialogEx@@UAEPAXI@Z PROC		; CFindReplaceDialogEx::`scalar deleting destructor', COMDAT
; _this$ = ecx
	push	ebp
	mov	ebp, esp
	push	ecx
	mov	DWORD PTR [ebp-4], -858993460		; ccccccccH
	mov	DWORD PTR _this$[ebp], ecx
	mov	ecx, DWORD PTR _this$[ebp]
	call	??1CFindReplaceDialogEx@@UAE@XZ		; CFindReplaceDialogEx::~CFindReplaceDialogEx
	mov	eax, DWORD PTR ___flags$[ebp]
	and	eax, 1
	je	SHORT $LN1@scalar@2
	mov	ecx, DWORD PTR _this$[ebp]
	push	ecx
	call	??3CObject@@SGXPAX@Z			; CObject::operator delete
$LN1@scalar@2:
	mov	eax, DWORD PTR _this$[ebp]
	add	esp, 4
	cmp	ebp, esp
	call	__RTC_CheckEsp
	mov	esp, ebp
	pop	ebp
	ret	4
??_GCFindReplaceDialogEx@@UAEPAXI@Z ENDP		; CFindReplaceDialogEx::`scalar deleting destructor'
_TEXT	ENDS
PUBLIC	??1?$CHookMgr@VCFindReplaceDialogEx@@@@UAE@XZ	; CHookMgr<CFindReplaceDialogEx>::~CHookMgr<CFindReplaceDialogEx>
;	COMDAT xdata$x
xdata$x	SEGMENT
__unwindtable$??1CFindReplaceDialogEx@@UAE@XZ DD 0ffffffffH
	DD	FLAT:__unwindfunclet$??1CFindReplaceDialogEx@@UAE@XZ$0
__ehfuncinfo$??1CFindReplaceDialogEx@@UAE@XZ DD 019930522H
	DD	01H
	DD	FLAT:__unwindtable$??1CFindReplaceDialogEx@@UAE@XZ
	DD	2 DUP(00H)
	DD	2 DUP(00H)
	DD	00H
	DD	01H
; Function compile flags: /Odtp /RTCsu
xdata$x	ENDS
;	COMDAT ??1CFindReplaceDialogEx@@UAE@XZ
_TEXT	SEGMENT
_this$ = -16						; size = 4
__$EHRec$ = -12						; size = 12
??1CFindReplaceDialogEx@@UAE@XZ PROC			; CFindReplaceDialogEx::~CFindReplaceDialogEx, COMDAT
; _this$ = ecx

; 58   : 	virtual ~CFindReplaceDialogEx() {}

	push	ebp
	mov	ebp, esp
	push	-1
	push	__ehhandler$??1CFindReplaceDialogEx@@UAE@XZ
	mov	eax, DWORD PTR fs:0
	push	eax
	push	ecx
	mov	DWORD PTR [ebp-16], -858993460		; ccccccccH
	mov	eax, DWORD PTR ___security_cookie
	xor	eax, ebp
	push	eax
	lea	eax, DWORD PTR __$EHRec$[ebp]
	mov	DWORD PTR fs:0, eax
	mov	DWORD PTR _this$[ebp], ecx
	mov	eax, DWORD PTR _this$[ebp]
	mov	DWORD PTR [eax], OFFSET ??_7CFindReplaceDialogEx@@6BCFindReplaceDialog@@@
	mov	ecx, DWORD PTR _this$[ebp]
	mov	DWORD PTR [ecx+700], OFFSET ??_7CFindReplaceDialogEx@@6B?$CHookMgr@VCFindReplaceDialogEx@@@@@
	mov	DWORD PTR __$EHRec$[ebp+8], 0
	mov	ecx, DWORD PTR _this$[ebp]
	add	ecx, 700				; 000002bcH
	call	??1?$CHookMgr@VCFindReplaceDialogEx@@@@UAE@XZ ; CHookMgr<CFindReplaceDialogEx>::~CHookMgr<CFindReplaceDialogEx>
	mov	DWORD PTR __$EHRec$[ebp+8], -1
	mov	ecx, DWORD PTR _this$[ebp]
	call	??1CFindReplaceDialog@@UAE@XZ
	mov	ecx, DWORD PTR __$EHRec$[ebp]
	mov	DWORD PTR fs:0, ecx
	pop	ecx
	add	esp, 16					; 00000010H
	cmp	ebp, esp
	call	__RTC_CheckEsp
	mov	esp, ebp
	pop	ebp
	ret	0
_TEXT	ENDS
;	COMDAT text$x
text$x	SEGMENT
__unwindfunclet$??1CFindReplaceDialogEx@@UAE@XZ$0:
	mov	ecx, DWORD PTR _this$[ebp]
	jmp	??1CFindReplaceDialog@@UAE@XZ
__ehhandler$??1CFindReplaceDialogEx@@UAE@XZ:
	mov	edx, DWORD PTR [esp+8]
	lea	eax, DWORD PTR [edx+12]
	mov	ecx, DWORD PTR [edx-8]
	xor	ecx, eax
	call	@__security_check_cookie@4
	mov	eax, OFFSET __ehfuncinfo$??1CFindReplaceDialogEx@@UAE@XZ
	jmp	___CxxFrameHandler3
text$x	ENDS
??1CFindReplaceDialogEx@@UAE@XZ ENDP			; CFindReplaceDialogEx::~CFindReplaceDialogEx
PUBLIC	??1CCommonDialog@@UAE@XZ			; CCommonDialog::~CCommonDialog
; Function compile flags: /Odtp /RTCsu
;	COMDAT ??1CFindReplaceDialog@@UAE@XZ
_TEXT	SEGMENT
_this$ = -4						; size = 4
??1CFindReplaceDialog@@UAE@XZ PROC			; CFindReplaceDialog::~CFindReplaceDialog, COMDAT
; _this$ = ecx
	push	ebp
	mov	ebp, esp
	push	ecx
	mov	DWORD PTR [ebp-4], -858993460		; ccccccccH
	mov	DWORD PTR _this$[ebp], ecx
	mov	ecx, DWORD PTR _this$[ebp]
	call	??1CCommonDialog@@UAE@XZ		; CCommonDialog::~CCommonDialog
	add	esp, 4
	cmp	ebp, esp
	call	__RTC_CheckEsp
	mov	esp, ebp
	pop	ebp
	ret	0
??1CFindReplaceDialog@@UAE@XZ ENDP			; CFindReplaceDialog::~CFindReplaceDialog
_TEXT	ENDS
PUBLIC	??_7?$CHookMgr@VCFindReplaceDialogEx@@@@6B@	; CHookMgr<CFindReplaceDialogEx>::`vftable'
PUBLIC	??_R4?$CHookMgr@VCFindReplaceDialogEx@@@@6B@	; CHookMgr<CFindReplaceDialogEx>::`RTTI Complete Object Locator'
PUBLIC	?OnKeyboard@?$CHookMgr@VCFindReplaceDialogEx@@@@MAEHII@Z ; CHookMgr<CFindReplaceDialogEx>::OnKeyboard
EXTRN	??_E?$CHookMgr@VCFindReplaceDialogEx@@@@UAEPAXI@Z:PROC ; CHookMgr<CFindReplaceDialogEx>::`vector deleting destructor'
;	COMDAT ??_R4?$CHookMgr@VCFindReplaceDialogEx@@@@6B@
; File d:\_code\shared\hookmgr.h
rdata$r	SEGMENT
??_R4?$CHookMgr@VCFindReplaceDialogEx@@@@6B@ DD 00H	; CHookMgr<CFindReplaceDialogEx>::`RTTI Complete Object Locator'
	DD	00H
	DD	00H
	DD	FLAT:??_R0?AV?$CHookMgr@VCFindReplaceDialogEx@@@@@8
	DD	FLAT:??_R3?$CHookMgr@VCFindReplaceDialogEx@@@@8
rdata$r	ENDS
;	COMDAT ??_7?$CHookMgr@VCFindReplaceDialogEx@@@@6B@
CONST	SEGMENT
??_7?$CHookMgr@VCFindReplaceDialogEx@@@@6B@ DD FLAT:??_R4?$CHookMgr@VCFindReplaceDialogEx@@@@6B@ ; CHookMgr<CFindReplaceDialogEx>::`vftable'
	DD	FLAT:??_E?$CHookMgr@VCFindReplaceDialogEx@@@@UAEPAXI@Z
	DD	FLAT:?OnCallWndProc@?$CHookMgr@VCFindReplaceDialogEx@@@@MAEHABUtagMSG@@@Z
	DD	FLAT:?OnCallWndRetProc@?$CHookMgr@VCFindReplaceDialogEx@@@@MAEHABUtagMSG@@J@Z
	DD	FLAT:?OnCbt@?$CHookMgr@VCFindReplaceDialogEx@@@@MAEHHIJ@Z
	DD	FLAT:?OnForegroundIdle@?$CHookMgr@VCFindReplaceDialogEx@@@@MAEHXZ
	DD	FLAT:?OnGetMessage@?$CHookMgr@VCFindReplaceDialogEx@@@@MAEHABUtagMSG@@@Z
	DD	FLAT:?OnKeyboard@?$CHookMgr@VCFindReplaceDialogEx@@@@MAEHII@Z
	DD	FLAT:?OnMsgFilter@?$CHookMgr@VCFindReplaceDialogEx@@@@MAEHABUtagMSG@@H@Z
	DD	FLAT:?OnShell@?$CHookMgr@VCFindReplaceDialogEx@@@@MAEHHIJ@Z
	DD	FLAT:?OnSysMsgFilter@?$CHookMgr@VCFindReplaceDialogEx@@@@MAEHABUtagMSG@@H@Z
	DD	FLAT:?OnMouseEx@?$CHookMgr@VCFindReplaceDialogEx@@@@MAEHIABUtagMOUSEHOOKSTRUCTEX@@@Z
CONST	ENDS
;	COMDAT xdata$x
xdata$x	SEGMENT
__unwindtable$??1?$CHookMgr@VCFindReplaceDialogEx@@@@UAE@XZ DD 0ffffffffH
	DD	FLAT:__unwindfunclet$??1?$CHookMgr@VCFindReplaceDialogEx@@@@UAE@XZ$0
__ehfuncinfo$??1?$CHookMgr@VCFindReplaceDialogEx@@@@UAE@XZ DD 019930522H
	DD	01H
	DD	FLAT:__unwindtable$??1?$CHookMgr@VCFindReplaceDialogEx@@@@UAE@XZ
	DD	2 DUP(00H)
	DD	2 DUP(00H)
	DD	00H
	DD	01H
; Function compile flags: /Odtp /RTCsu
xdata$x	ENDS
;	COMDAT ??1?$CHookMgr@VCFindReplaceDialogEx@@@@UAE@XZ
_TEXT	SEGMENT
_this$ = -16						; size = 4
__$EHRec$ = -12						; size = 12
??1?$CHookMgr@VCFindReplaceDialogEx@@@@UAE@XZ PROC	; CHookMgr<CFindReplaceDialogEx>::~CHookMgr<CFindReplaceDialogEx>, COMDAT
; _this$ = ecx

; 70   : 	virtual ~CHookMgr() { ReleaseHooks(); }

	push	ebp
	mov	ebp, esp
	push	-1
	push	__ehhandler$??1?$CHookMgr@VCFindReplaceDialogEx@@@@UAE@XZ
	mov	eax, DWORD PTR fs:0
	push	eax
	push	ecx
	push	esi
	mov	DWORD PTR [ebp-16], -858993460		; ccccccccH
	mov	eax, DWORD PTR ___security_cookie
	xor	eax, ebp
	push	eax
	lea	eax, DWORD PTR __$EHRec$[ebp]
	mov	DWORD PTR fs:0, eax
	mov	DWORD PTR _this$[ebp], ecx
	mov	eax, DWORD PTR _this$[ebp]
	mov	DWORD PTR [eax], OFFSET ??_7?$CHookMgr@VCFindReplaceDialogEx@@@@6B@
	mov	DWORD PTR __$EHRec$[ebp+8], 0
	mov	ecx, DWORD PTR _this$[ebp]
	call	?ReleaseHooks@?$CHookMgr@VCFindReplaceDialogEx@@@@IAEXXZ ; CHookMgr<CFindReplaceDialogEx>::ReleaseHooks
	mov	DWORD PTR __$EHRec$[ebp+8], -1
	mov	ecx, DWORD PTR _this$[ebp]
	add	ecx, 44					; 0000002cH
	mov	esi, esp
	call	DWORD PTR __imp_??1?$CStringT@_WV?$StrTraitMFC_DLL@_WV?$ChTraitsCRT@_W@ATL@@@@@ATL@@QAE@XZ
	cmp	esi, esp
	call	__RTC_CheckEsp
	mov	ecx, DWORD PTR __$EHRec$[ebp]
	mov	DWORD PTR fs:0, ecx
	pop	ecx
	pop	esi
	add	esp, 16					; 00000010H
	cmp	ebp, esp
	call	__RTC_CheckEsp
	mov	esp, ebp
	pop	ebp
	ret	0
_TEXT	ENDS
;	COMDAT text$x
text$x	SEGMENT
__unwindfunclet$??1?$CHookMgr@VCFindReplaceDialogEx@@@@UAE@XZ$0:
	mov	ecx, DWORD PTR _this$[ebp]
	add	ecx, 44					; 0000002cH
	mov	esi, esp
	call	DWORD PTR __imp_??1?$CStringT@_WV?$StrTraitMFC_DLL@_WV?$ChTraitsCRT@_W@ATL@@@@@ATL@@QAE@XZ
	cmp	esi, esp
	jmp	__RTC_CheckEsp
__ehhandler$??1?$CHookMgr@VCFindReplaceDialogEx@@@@UAE@XZ:
	mov	edx, DWORD PTR [esp+8]
	lea	eax, DWORD PTR [edx+12]
	mov	ecx, DWORD PTR [edx-12]
	xor	ecx, eax
	call	@__security_check_cookie@4
	mov	eax, OFFSET __ehfuncinfo$??1?$CHookMgr@VCFindReplaceDialogEx@@@@UAE@XZ
	jmp	___CxxFrameHandler3
text$x	ENDS
??1?$CHookMgr@VCFindReplaceDialogEx@@@@UAE@XZ ENDP	; CHookMgr<CFindReplaceDialogEx>::~CHookMgr<CFindReplaceDialogEx>
EXTRN	__imp_??0?$CStringT@_WV?$StrTraitMFC_DLL@_WV?$ChTraitsCRT@_W@ATL@@@@@ATL@@QAE@XZ:PROC
; Function compile flags: /Odtp /RTCsu
;	COMDAT ??0?$CHookMgr@VCFindReplaceDialogEx@@@@IAE@XZ
_TEXT	SEGMENT
_this$ = -4						; size = 4
??0?$CHookMgr@VCFindReplaceDialogEx@@@@IAE@XZ PROC	; CHookMgr<CFindReplaceDialogEx>::CHookMgr<CFindReplaceDialogEx>, COMDAT
; _this$ = ecx

; 137  : 	CHookMgr() // cannot instanciate one of these directly

	push	ebp
	mov	ebp, esp
	push	ecx
	push	esi
	mov	DWORD PTR [ebp-4], -858993460		; ccccccccH
	mov	DWORD PTR _this$[ebp], ecx
	mov	eax, DWORD PTR _this$[ebp]
	mov	DWORD PTR [eax], OFFSET ??_7?$CHookMgr@VCFindReplaceDialogEx@@@@6B@
	mov	ecx, DWORD PTR _this$[ebp]
	add	ecx, 44					; 0000002cH
	mov	esi, esp
	call	DWORD PTR __imp_??0?$CStringT@_WV?$StrTraitMFC_DLL@_WV?$ChTraitsCRT@_W@ATL@@@@@ATL@@QAE@XZ
	cmp	esi, esp
	call	__RTC_CheckEsp

; 138  : 	{
; 139  : 		m_hCallWndHook = NULL;

	mov	ecx, DWORD PTR _this$[ebp]
	mov	DWORD PTR [ecx+4], 0

; 140  : 		m_hCallWndRetHook = NULL;

	mov	edx, DWORD PTR _this$[ebp]
	mov	DWORD PTR [edx+8], 0

; 141  : 		m_hCbtHook = NULL;

	mov	eax, DWORD PTR _this$[ebp]
	mov	DWORD PTR [eax+12], 0

; 142  : 		m_hForegroundIdleHook = NULL;

	mov	ecx, DWORD PTR _this$[ebp]
	mov	DWORD PTR [ecx+16], 0

; 143  : 		m_hGetMessageHook = NULL;

	mov	edx, DWORD PTR _this$[ebp]
	mov	DWORD PTR [edx+20], 0

; 144  : 		m_hKeyboardHook = NULL;

	mov	eax, DWORD PTR _this$[ebp]
	mov	DWORD PTR [eax+24], 0

; 145  : 		m_hMouseHook = NULL;

	mov	ecx, DWORD PTR _this$[ebp]
	mov	DWORD PTR [ecx+28], 0

; 146  : 		m_hMsgFilterHook = NULL;

	mov	edx, DWORD PTR _this$[ebp]
	mov	DWORD PTR [edx+32], 0

; 147  : 		m_hShellHook = NULL;

	mov	eax, DWORD PTR _this$[ebp]
	mov	DWORD PTR [eax+36], 0

; 148  : 		m_hSysMsgFilterHook = NULL;

	mov	ecx, DWORD PTR _this$[ebp]
	mov	DWORD PTR [ecx+40], 0

; 149  : 		m_b2000orLater = FALSE;

	mov	edx, DWORD PTR _this$[ebp]
	mov	DWORD PTR [edx+48], 0

; 150  : 	}

	mov	eax, DWORD PTR _this$[ebp]
	pop	esi
	add	esp, 4
	cmp	ebp, esp
	call	__RTC_CheckEsp
	mov	esp, ebp
	pop	ebp
	ret	0
??0?$CHookMgr@VCFindReplaceDialogEx@@@@IAE@XZ ENDP	; CHookMgr<CFindReplaceDialogEx>::CHookMgr<CFindReplaceDialogEx>
_TEXT	ENDS
PUBLIC	??_C@_0CM@KMCHHINK@d?3?2_code?2rtfcontentctrl?2?4?4?2share@ ; `string'
;	COMDAT ??_C@_0CM@KMCHHINK@d?3?2_code?2rtfcontentctrl?2?4?4?2share@
CONST	SEGMENT
??_C@_0CM@KMCHHINK@d?3?2_code?2rtfcontentctrl?2?4?4?2share@ DB 'd:\_code\'
	DB	'rtfcontentctrl\..\shared\HookMgr.h', 00H	; `string'
; Function compile flags: /Odtp /RTCsu
CONST	ENDS
;	COMDAT ?OnCallWndProc@?$CHookMgr@VCFindReplaceDialogEx@@@@MAEHABUtagMSG@@@Z
_TEXT	SEGMENT
_this$ = -4						; size = 4
___formal$ = 8						; size = 4
?OnCallWndProc@?$CHookMgr@VCFindReplaceDialogEx@@@@MAEHABUtagMSG@@@Z PROC ; CHookMgr<CFindReplaceDialogEx>::OnCallWndProc, COMDAT
; _this$ = ecx

; 153  : 	virtual BOOL OnCallWndProc(const MSG& /*msg*/) { ASSERT (0); return FALSE; }

	push	ebp
	mov	ebp, esp
	push	ecx
	mov	DWORD PTR [ebp-4], -858993460		; ccccccccH
	mov	DWORD PTR _this$[ebp], ecx
	xor	eax, eax
	jne	SHORT $LN3@OnCallWndP
	push	153					; 00000099H
	push	OFFSET ??_C@_0CM@KMCHHINK@d?3?2_code?2rtfcontentctrl?2?4?4?2share@
	call	?AfxAssertFailedLine@@YGHPBDH@Z		; AfxAssertFailedLine
	test	eax, eax
	je	SHORT $LN3@OnCallWndP
	int	3
$LN3@OnCallWndP:
	xor	eax, eax
	add	esp, 4
	cmp	ebp, esp
	call	__RTC_CheckEsp
	mov	esp, ebp
	pop	ebp
	ret	4
?OnCallWndProc@?$CHookMgr@VCFindReplaceDialogEx@@@@MAEHABUtagMSG@@@Z ENDP ; CHookMgr<CFindReplaceDialogEx>::OnCallWndProc
; Function compile flags: /Odtp /RTCsu
_TEXT	ENDS
;	COMDAT ?OnCallWndRetProc@?$CHookMgr@VCFindReplaceDialogEx@@@@MAEHABUtagMSG@@J@Z
_TEXT	SEGMENT
_this$ = -4						; size = 4
___formal$ = 8						; size = 4
___formal$ = 12						; size = 4
?OnCallWndRetProc@?$CHookMgr@VCFindReplaceDialogEx@@@@MAEHABUtagMSG@@J@Z PROC ; CHookMgr<CFindReplaceDialogEx>::OnCallWndRetProc, COMDAT
; _this$ = ecx

; 154  : 	virtual BOOL OnCallWndRetProc(const MSG& /*msg*/, LRESULT /*lResult*/) { ASSERT (0); return FALSE; }

	push	ebp
	mov	ebp, esp
	push	ecx
	mov	DWORD PTR [ebp-4], -858993460		; ccccccccH
	mov	DWORD PTR _this$[ebp], ecx
	xor	eax, eax
	jne	SHORT $LN3@OnCallWndR
	push	154					; 0000009aH
	push	OFFSET ??_C@_0CM@KMCHHINK@d?3?2_code?2rtfcontentctrl?2?4?4?2share@
	call	?AfxAssertFailedLine@@YGHPBDH@Z		; AfxAssertFailedLine
	test	eax, eax
	je	SHORT $LN3@OnCallWndR
	int	3
$LN3@OnCallWndR:
	xor	eax, eax
	add	esp, 4
	cmp	ebp, esp
	call	__RTC_CheckEsp
	mov	esp, ebp
	pop	ebp
	ret	8
?OnCallWndRetProc@?$CHookMgr@VCFindReplaceDialogEx@@@@MAEHABUtagMSG@@J@Z ENDP ; CHookMgr<CFindReplaceDialogEx>::OnCallWndRetProc
; Function compile flags: /Odtp /RTCsu
_TEXT	ENDS
;	COMDAT ?OnCbt@?$CHookMgr@VCFindReplaceDialogEx@@@@MAEHHIJ@Z
_TEXT	SEGMENT
_this$ = -4						; size = 4
___formal$ = 8						; size = 4
___formal$ = 12						; size = 4
___formal$ = 16						; size = 4
?OnCbt@?$CHookMgr@VCFindReplaceDialogEx@@@@MAEHHIJ@Z PROC ; CHookMgr<CFindReplaceDialogEx>::OnCbt, COMDAT
; _this$ = ecx

; 155  : 	virtual BOOL OnCbt(int /*nCode*/, WPARAM /*wParam*/, LPARAM /*lParam*/) { ASSERT (0); return FALSE; }

	push	ebp
	mov	ebp, esp
	push	ecx
	mov	DWORD PTR [ebp-4], -858993460		; ccccccccH
	mov	DWORD PTR _this$[ebp], ecx
	xor	eax, eax
	jne	SHORT $LN3@OnCbt
	push	155					; 0000009bH
	push	OFFSET ??_C@_0CM@KMCHHINK@d?3?2_code?2rtfcontentctrl?2?4?4?2share@
	call	?AfxAssertFailedLine@@YGHPBDH@Z		; AfxAssertFailedLine
	test	eax, eax
	je	SHORT $LN3@OnCbt
	int	3
$LN3@OnCbt:
	xor	eax, eax
	add	esp, 4
	cmp	ebp, esp
	call	__RTC_CheckEsp
	mov	esp, ebp
	pop	ebp
	ret	12					; 0000000cH
?OnCbt@?$CHookMgr@VCFindReplaceDialogEx@@@@MAEHHIJ@Z ENDP ; CHookMgr<CFindReplaceDialogEx>::OnCbt
; Function compile flags: /Odtp /RTCsu
_TEXT	ENDS
;	COMDAT ?OnForegroundIdle@?$CHookMgr@VCFindReplaceDialogEx@@@@MAEHXZ
_TEXT	SEGMENT
_this$ = -4						; size = 4
?OnForegroundIdle@?$CHookMgr@VCFindReplaceDialogEx@@@@MAEHXZ PROC ; CHookMgr<CFindReplaceDialogEx>::OnForegroundIdle, COMDAT
; _this$ = ecx

; 156  : 	virtual BOOL OnForegroundIdle() { ASSERT (0); return FALSE; }

	push	ebp
	mov	ebp, esp
	push	ecx
	mov	DWORD PTR [ebp-4], -858993460		; ccccccccH
	mov	DWORD PTR _this$[ebp], ecx
	xor	eax, eax
	jne	SHORT $LN3@OnForegrou
	push	156					; 0000009cH
	push	OFFSET ??_C@_0CM@KMCHHINK@d?3?2_code?2rtfcontentctrl?2?4?4?2share@
	call	?AfxAssertFailedLine@@YGHPBDH@Z		; AfxAssertFailedLine
	test	eax, eax
	je	SHORT $LN3@OnForegrou
	int	3
$LN3@OnForegrou:
	xor	eax, eax
	add	esp, 4
	cmp	ebp, esp
	call	__RTC_CheckEsp
	mov	esp, ebp
	pop	ebp
	ret	0
?OnForegroundIdle@?$CHookMgr@VCFindReplaceDialogEx@@@@MAEHXZ ENDP ; CHookMgr<CFindReplaceDialogEx>::OnForegroundIdle
; Function compile flags: /Odtp /RTCsu
_TEXT	ENDS
;	COMDAT ?OnGetMessage@?$CHookMgr@VCFindReplaceDialogEx@@@@MAEHABUtagMSG@@@Z
_TEXT	SEGMENT
_this$ = -4						; size = 4
___formal$ = 8						; size = 4
?OnGetMessage@?$CHookMgr@VCFindReplaceDialogEx@@@@MAEHABUtagMSG@@@Z PROC ; CHookMgr<CFindReplaceDialogEx>::OnGetMessage, COMDAT
; _this$ = ecx

; 157  : 	virtual BOOL OnGetMessage(const MSG& /*msg*/) { ASSERT (0); return FALSE; }

	push	ebp
	mov	ebp, esp
	push	ecx
	mov	DWORD PTR [ebp-4], -858993460		; ccccccccH
	mov	DWORD PTR _this$[ebp], ecx
	xor	eax, eax
	jne	SHORT $LN3@OnGetMessa
	push	157					; 0000009dH
	push	OFFSET ??_C@_0CM@KMCHHINK@d?3?2_code?2rtfcontentctrl?2?4?4?2share@
	call	?AfxAssertFailedLine@@YGHPBDH@Z		; AfxAssertFailedLine
	test	eax, eax
	je	SHORT $LN3@OnGetMessa
	int	3
$LN3@OnGetMessa:
	xor	eax, eax
	add	esp, 4
	cmp	ebp, esp
	call	__RTC_CheckEsp
	mov	esp, ebp
	pop	ebp
	ret	4
?OnGetMessage@?$CHookMgr@VCFindReplaceDialogEx@@@@MAEHABUtagMSG@@@Z ENDP ; CHookMgr<CFindReplaceDialogEx>::OnGetMessage
; Function compile flags: /Odtp /RTCsu
_TEXT	ENDS
;	COMDAT ?OnKeyboard@?$CHookMgr@VCFindReplaceDialogEx@@@@MAEHII@Z
_TEXT	SEGMENT
_this$ = -4						; size = 4
___formal$ = 8						; size = 4
___formal$ = 12						; size = 4
?OnKeyboard@?$CHookMgr@VCFindReplaceDialogEx@@@@MAEHII@Z PROC ; CHookMgr<CFindReplaceDialogEx>::OnKeyboard, COMDAT
; _this$ = ecx

; 158  : 	virtual BOOL OnKeyboard(UINT /*uVirtKey*/, UINT /*uFlags*/) { ASSERT (0); return FALSE; }

	push	ebp
	mov	ebp, esp
	push	ecx
	mov	DWORD PTR [ebp-4], -858993460		; ccccccccH
	mov	DWORD PTR _this$[ebp], ecx
	xor	eax, eax
	jne	SHORT $LN3@OnKeyboard@2
	push	158					; 0000009eH
	push	OFFSET ??_C@_0CM@KMCHHINK@d?3?2_code?2rtfcontentctrl?2?4?4?2share@
	call	?AfxAssertFailedLine@@YGHPBDH@Z		; AfxAssertFailedLine
	test	eax, eax
	je	SHORT $LN3@OnKeyboard@2
	int	3
$LN3@OnKeyboard@2:
	xor	eax, eax
	add	esp, 4
	cmp	ebp, esp
	call	__RTC_CheckEsp
	mov	esp, ebp
	pop	ebp
	ret	8
?OnKeyboard@?$CHookMgr@VCFindReplaceDialogEx@@@@MAEHII@Z ENDP ; CHookMgr<CFindReplaceDialogEx>::OnKeyboard
; Function compile flags: /Odtp /RTCsu
_TEXT	ENDS
;	COMDAT ?OnMsgFilter@?$CHookMgr@VCFindReplaceDialogEx@@@@MAEHABUtagMSG@@H@Z
_TEXT	SEGMENT
_this$ = -4						; size = 4
___formal$ = 8						; size = 4
___formal$ = 12						; size = 4
?OnMsgFilter@?$CHookMgr@VCFindReplaceDialogEx@@@@MAEHABUtagMSG@@H@Z PROC ; CHookMgr<CFindReplaceDialogEx>::OnMsgFilter, COMDAT
; _this$ = ecx

; 159  : 	virtual BOOL OnMsgFilter(const MSG& /*msg*/, int /*nEvent*/) { ASSERT (0); return FALSE; }

	push	ebp
	mov	ebp, esp
	push	ecx
	mov	DWORD PTR [ebp-4], -858993460		; ccccccccH
	mov	DWORD PTR _this$[ebp], ecx
	xor	eax, eax
	jne	SHORT $LN3@OnMsgFilte
	push	159					; 0000009fH
	push	OFFSET ??_C@_0CM@KMCHHINK@d?3?2_code?2rtfcontentctrl?2?4?4?2share@
	call	?AfxAssertFailedLine@@YGHPBDH@Z		; AfxAssertFailedLine
	test	eax, eax
	je	SHORT $LN3@OnMsgFilte
	int	3
$LN3@OnMsgFilte:
	xor	eax, eax
	add	esp, 4
	cmp	ebp, esp
	call	__RTC_CheckEsp
	mov	esp, ebp
	pop	ebp
	ret	8
?OnMsgFilter@?$CHookMgr@VCFindReplaceDialogEx@@@@MAEHABUtagMSG@@H@Z ENDP ; CHookMgr<CFindReplaceDialogEx>::OnMsgFilter
; Function compile flags: /Odtp /RTCsu
_TEXT	ENDS
;	COMDAT ?OnShell@?$CHookMgr@VCFindReplaceDialogEx@@@@MAEHHIJ@Z
_TEXT	SEGMENT
_this$ = -4						; size = 4
___formal$ = 8						; size = 4
___formal$ = 12						; size = 4
___formal$ = 16						; size = 4
?OnShell@?$CHookMgr@VCFindReplaceDialogEx@@@@MAEHHIJ@Z PROC ; CHookMgr<CFindReplaceDialogEx>::OnShell, COMDAT
; _this$ = ecx

; 160  : 	virtual BOOL OnShell(int /*nCode*/, WPARAM /*wParam*/, LPARAM /*lParam*/) { ASSERT (0); return FALSE; }

	push	ebp
	mov	ebp, esp
	push	ecx
	mov	DWORD PTR [ebp-4], -858993460		; ccccccccH
	mov	DWORD PTR _this$[ebp], ecx
	xor	eax, eax
	jne	SHORT $LN3@OnShell
	push	160					; 000000a0H
	push	OFFSET ??_C@_0CM@KMCHHINK@d?3?2_code?2rtfcontentctrl?2?4?4?2share@
	call	?AfxAssertFailedLine@@YGHPBDH@Z		; AfxAssertFailedLine
	test	eax, eax
	je	SHORT $LN3@OnShell
	int	3
$LN3@OnShell:
	xor	eax, eax
	add	esp, 4
	cmp	ebp, esp
	call	__RTC_CheckEsp
	mov	esp, ebp
	pop	ebp
	ret	12					; 0000000cH
?OnShell@?$CHookMgr@VCFindReplaceDialogEx@@@@MAEHHIJ@Z ENDP ; CHookMgr<CFindReplaceDialogEx>::OnShell
; Function compile flags: /Odtp /RTCsu
_TEXT	ENDS
;	COMDAT ?OnSysMsgFilter@?$CHookMgr@VCFindReplaceDialogEx@@@@MAEHABUtagMSG@@H@Z
_TEXT	SEGMENT
_this$ = -4						; size = 4
___formal$ = 8						; size = 4
___formal$ = 12						; size = 4
?OnSysMsgFilter@?$CHookMgr@VCFindReplaceDialogEx@@@@MAEHABUtagMSG@@H@Z PROC ; CHookMgr<CFindReplaceDialogEx>::OnSysMsgFilter, COMDAT
; _this$ = ecx

; 161  : 	virtual BOOL OnSysMsgFilter(const MSG& /*msg*/, int /*nEvent*/) { ASSERT (0); return FALSE; }

	push	ebp
	mov	ebp, esp
	push	ecx
	mov	DWORD PTR [ebp-4], -858993460		; ccccccccH
	mov	DWORD PTR _this$[ebp], ecx
	xor	eax, eax
	jne	SHORT $LN3@OnSysMsgFi
	push	161					; 000000a1H
	push	OFFSET ??_C@_0CM@KMCHHINK@d?3?2_code?2rtfcontentctrl?2?4?4?2share@
	call	?AfxAssertFailedLine@@YGHPBDH@Z		; AfxAssertFailedLine
	test	eax, eax
	je	SHORT $LN3@OnSysMsgFi
	int	3
$LN3@OnSysMsgFi:
	xor	eax, eax
	add	esp, 4
	cmp	ebp, esp
	call	__RTC_CheckEsp
	mov	esp, ebp
	pop	ebp
	ret	8
?OnSysMsgFilter@?$CHookMgr@VCFindReplaceDialogEx@@@@MAEHABUtagMSG@@H@Z ENDP ; CHookMgr<CFindReplaceDialogEx>::OnSysMsgFilter
; Function compile flags: /Odtp /RTCsu
_TEXT	ENDS
;	COMDAT ?OnMouseEx@?$CHookMgr@VCFindReplaceDialogEx@@@@MAEHIABUtagMOUSEHOOKSTRUCTEX@@@Z
_TEXT	SEGMENT
_this$ = -4						; size = 4
___formal$ = 8						; size = 4
___formal$ = 12						; size = 4
?OnMouseEx@?$CHookMgr@VCFindReplaceDialogEx@@@@MAEHIABUtagMOUSEHOOKSTRUCTEX@@@Z PROC ; CHookMgr<CFindReplaceDialogEx>::OnMouseEx, COMDAT
; _this$ = ecx

; 162  : 	virtual BOOL OnMouseEx(UINT /*uMouseMsg*/, const MOUSEHOOKSTRUCTEX& /*info*/) { ASSERT (0); return FALSE; }

	push	ebp
	mov	ebp, esp
	push	ecx
	mov	DWORD PTR [ebp-4], -858993460		; ccccccccH
	mov	DWORD PTR _this$[ebp], ecx
	xor	eax, eax
	jne	SHORT $LN3@OnMouseEx
	push	162					; 000000a2H
	push	OFFSET ??_C@_0CM@KMCHHINK@d?3?2_code?2rtfcontentctrl?2?4?4?2share@
	call	?AfxAssertFailedLine@@YGHPBDH@Z		; AfxAssertFailedLine
	test	eax, eax
	je	SHORT $LN3@OnMouseEx
	int	3
$LN3@OnMouseEx:
	xor	eax, eax
	add	esp, 4
	cmp	ebp, esp
	call	__RTC_CheckEsp
	mov	esp, ebp
	pop	ebp
	ret	8
?OnMouseEx@?$CHookMgr@VCFindReplaceDialogEx@@@@MAEHIABUtagMOUSEHOOKSTRUCTEX@@@Z ENDP ; CHookMgr<CFindReplaceDialogEx>::OnMouseEx
_TEXT	ENDS
EXTRN	??3@YAXPAX@Z:PROC				; operator delete
; Function compile flags: /Odtp /RTCsu
;	COMDAT ??_G?$CHookMgr@VCFindReplaceDialogEx@@@@UAEPAXI@Z
_TEXT	SEGMENT
_this$ = -4						; size = 4
___flags$ = 8						; size = 4
??_G?$CHookMgr@VCFindReplaceDialogEx@@@@UAEPAXI@Z PROC	; CHookMgr<CFindReplaceDialogEx>::`scalar deleting destructor', COMDAT
; _this$ = ecx
	push	ebp
	mov	ebp, esp
	push	ecx
	mov	DWORD PTR [ebp-4], -858993460		; ccccccccH
	mov	DWORD PTR _this$[ebp], ecx
	mov	ecx, DWORD PTR _this$[ebp]
	call	??1?$CHookMgr@VCFindReplaceDialogEx@@@@UAE@XZ ; CHookMgr<CFindReplaceDialogEx>::~CHookMgr<CFindReplaceDialogEx>
	mov	eax, DWORD PTR ___flags$[ebp]
	and	eax, 1
	je	SHORT $LN1@scalar@3
	mov	ecx, DWORD PTR _this$[ebp]
	push	ecx
	call	??3@YAXPAX@Z				; operator delete
	add	esp, 4
$LN1@scalar@3:
	mov	eax, DWORD PTR _this$[ebp]
	add	esp, 4
	cmp	ebp, esp
	call	__RTC_CheckEsp
	mov	esp, ebp
	pop	ebp
	ret	4
??_G?$CHookMgr@VCFindReplaceDialogEx@@@@UAEPAXI@Z ENDP	; CHookMgr<CFindReplaceDialogEx>::`scalar deleting destructor'
_TEXT	ENDS
PUBLIC	?ClassMatches@?$CHookMgr@VCFindReplaceDialogEx@@@@IAEHPAUHWND__@@@Z ; CHookMgr<CFindReplaceDialogEx>::ClassMatches
EXTRN	__imp__CallNextHookEx@16:PROC
; Function compile flags: /Odtp /RTCsu
;	COMDAT ?CallWndProc@?$CHookMgr@VCFindReplaceDialogEx@@@@KGJHIJ@Z
_TEXT	SEGMENT
tv84 = -44						; size = 4
_msg$174720 = -36					; size = 28
_pwp$174717 = -4					; size = 4
_nCode$ = 8						; size = 4
_wParam$ = 12						; size = 4
_lParam$ = 16						; size = 4
?CallWndProc@?$CHookMgr@VCFindReplaceDialogEx@@@@KGJHIJ@Z PROC ; CHookMgr<CFindReplaceDialogEx>::CallWndProc, COMDAT

; 172  : 	{

	push	ebp
	mov	ebp, esp
	sub	esp, 44					; 0000002cH
	push	esi
	push	edi
	lea	edi, DWORD PTR [ebp-44]
	mov	ecx, 11					; 0000000bH
	mov	eax, -858993460				; ccccccccH
	rep stosd

; 173  : #ifdef _USRDLL
; 174  : 		// If this is a DLL, need to set up MFC state
; 175  : 		AFX_MANAGE_STATE(AfxGetStaticModuleState());
; 176  : #endif
; 177  : 		
; 178  : 		if (nCode == HC_ACTION)

	cmp	DWORD PTR _nCode$[ebp], 0
	jne	$LN3@CallWndPro

; 179  : 		{
; 180  : 			CWPSTRUCT* pwp = (CWPSTRUCT*)lParam;

	mov	eax, DWORD PTR _lParam$[ebp]
	mov	DWORD PTR _pwp$174717[ebp], eax

; 181  : 
; 182  : 			if (GetInstance().ClassMatches(pwp->hwnd))

	mov	ecx, DWORD PTR _pwp$174717[ebp]
	mov	edx, DWORD PTR [ecx+12]
	push	edx
	call	?GetInstance@?$CHookMgr@VCFindReplaceDialogEx@@@@KAAAVCFindReplaceDialogEx@@XZ ; CHookMgr<CFindReplaceDialogEx>::GetInstance
	add	eax, 700				; 000002bcH
	mov	ecx, eax
	call	?ClassMatches@?$CHookMgr@VCFindReplaceDialogEx@@@@IAEHPAUHWND__@@@Z ; CHookMgr<CFindReplaceDialogEx>::ClassMatches
	test	eax, eax
	je	SHORT $LN3@CallWndPro

; 183  : 			{
; 184  : 				MSG msg = { pwp->hwnd, pwp->message, pwp->wParam, pwp->lParam, 0, { 0, 0 } };

	mov	eax, DWORD PTR _pwp$174717[ebp]
	mov	ecx, DWORD PTR [eax+12]
	mov	DWORD PTR _msg$174720[ebp], ecx
	mov	edx, DWORD PTR _pwp$174717[ebp]
	mov	eax, DWORD PTR [edx+8]
	mov	DWORD PTR _msg$174720[ebp+4], eax
	mov	ecx, DWORD PTR _pwp$174717[ebp]
	mov	edx, DWORD PTR [ecx+4]
	mov	DWORD PTR _msg$174720[ebp+8], edx
	mov	eax, DWORD PTR _pwp$174717[ebp]
	mov	ecx, DWORD PTR [eax]
	mov	DWORD PTR _msg$174720[ebp+12], ecx
	mov	DWORD PTR _msg$174720[ebp+16], 0
	mov	DWORD PTR _msg$174720[ebp+20], 0
	mov	DWORD PTR _msg$174720[ebp+24], 0

; 185  : 				
; 186  :             if (GetInstance().OnCallWndProc(msg))

	call	?GetInstance@?$CHookMgr@VCFindReplaceDialogEx@@@@KAAAVCFindReplaceDialogEx@@XZ ; CHookMgr<CFindReplaceDialogEx>::GetInstance
	add	eax, 700				; 000002bcH
	mov	DWORD PTR tv84[ebp], eax
	mov	esi, esp
	lea	edx, DWORD PTR _msg$174720[ebp]
	push	edx
	mov	eax, DWORD PTR tv84[ebp]
	mov	edx, DWORD PTR [eax]
	mov	ecx, DWORD PTR tv84[ebp]
	mov	eax, DWORD PTR [edx+4]
	call	eax
	cmp	esi, esp
	call	__RTC_CheckEsp
	test	eax, eax
	je	SHORT $LN3@CallWndPro

; 187  :                return TRUE;

	mov	eax, 1
	jmp	SHORT $LN4@CallWndPro
$LN3@CallWndPro:

; 188  : 			}
; 189  : 		}
; 190  : 		
; 191  : 		return CallNextHookEx(GetInstance().m_hCallWndHook, nCode, wParam, lParam);

	mov	esi, esp
	mov	ecx, DWORD PTR _lParam$[ebp]
	push	ecx
	mov	edx, DWORD PTR _wParam$[ebp]
	push	edx
	mov	eax, DWORD PTR _nCode$[ebp]
	push	eax
	call	?GetInstance@?$CHookMgr@VCFindReplaceDialogEx@@@@KAAAVCFindReplaceDialogEx@@XZ ; CHookMgr<CFindReplaceDialogEx>::GetInstance
	mov	ecx, DWORD PTR [eax+704]
	push	ecx
	call	DWORD PTR __imp__CallNextHookEx@16
	cmp	esi, esp
	call	__RTC_CheckEsp
$LN4@CallWndPro:

; 192  : 	}

	push	edx
	mov	ecx, ebp
	push	eax
	lea	edx, DWORD PTR $LN8@CallWndPro
	call	@_RTC_CheckStackVars@8
	pop	eax
	pop	edx
	pop	edi
	pop	esi
	add	esp, 44					; 0000002cH
	cmp	ebp, esp
	call	__RTC_CheckEsp
	mov	esp, ebp
	pop	ebp
	ret	12					; 0000000cH
	npad	1
$LN8@CallWndPro:
	DD	1
	DD	$LN7@CallWndPro
$LN7@CallWndPro:
	DD	-36					; ffffffdcH
	DD	28					; 0000001cH
	DD	$LN6@CallWndPro
$LN6@CallWndPro:
	DB	109					; 0000006dH
	DB	115					; 00000073H
	DB	103					; 00000067H
	DB	0
?CallWndProc@?$CHookMgr@VCFindReplaceDialogEx@@@@KGJHIJ@Z ENDP ; CHookMgr<CFindReplaceDialogEx>::CallWndProc
; Function compile flags: /Odtp /RTCsu
_TEXT	ENDS
;	COMDAT ?CallWndRetProc@?$CHookMgr@VCFindReplaceDialogEx@@@@KGJHIJ@Z
_TEXT	SEGMENT
tv85 = -44						; size = 4
_msg$174727 = -36					; size = 28
_pwp$174724 = -4					; size = 4
_nCode$ = 8						; size = 4
_wParam$ = 12						; size = 4
_lParam$ = 16						; size = 4
?CallWndRetProc@?$CHookMgr@VCFindReplaceDialogEx@@@@KGJHIJ@Z PROC ; CHookMgr<CFindReplaceDialogEx>::CallWndRetProc, COMDAT

; 196  : 	{

	push	ebp
	mov	ebp, esp
	sub	esp, 44					; 0000002cH
	push	esi
	push	edi
	lea	edi, DWORD PTR [ebp-44]
	mov	ecx, 11					; 0000000bH
	mov	eax, -858993460				; ccccccccH
	rep stosd

; 197  : #ifdef _USRDLL
; 198  : 		// If this is a DLL, need to set up MFC state
; 199  : 		AFX_MANAGE_STATE(AfxGetStaticModuleState());
; 200  : #endif
; 201  : 		
; 202  : 		if (nCode == HC_ACTION)

	cmp	DWORD PTR _nCode$[ebp], 0
	jne	$LN3@CallWndRet

; 203  : 		{
; 204  : 			CWPRETSTRUCT* pwp = (CWPRETSTRUCT*)lParam;

	mov	eax, DWORD PTR _lParam$[ebp]
	mov	DWORD PTR _pwp$174724[ebp], eax

; 205  : 
; 206  : 			if (GetInstance().ClassMatches(pwp->hwnd))

	mov	ecx, DWORD PTR _pwp$174724[ebp]
	mov	edx, DWORD PTR [ecx+16]
	push	edx
	call	?GetInstance@?$CHookMgr@VCFindReplaceDialogEx@@@@KAAAVCFindReplaceDialogEx@@XZ ; CHookMgr<CFindReplaceDialogEx>::GetInstance
	add	eax, 700				; 000002bcH
	mov	ecx, eax
	call	?ClassMatches@?$CHookMgr@VCFindReplaceDialogEx@@@@IAEHPAUHWND__@@@Z ; CHookMgr<CFindReplaceDialogEx>::ClassMatches
	test	eax, eax
	je	SHORT $LN3@CallWndRet

; 207  : 			{
; 208  : 				MSG msg = { pwp->hwnd, pwp->message, pwp->wParam, pwp->lParam, 0, { 0, 0 } };

	mov	eax, DWORD PTR _pwp$174724[ebp]
	mov	ecx, DWORD PTR [eax+16]
	mov	DWORD PTR _msg$174727[ebp], ecx
	mov	edx, DWORD PTR _pwp$174724[ebp]
	mov	eax, DWORD PTR [edx+12]
	mov	DWORD PTR _msg$174727[ebp+4], eax
	mov	ecx, DWORD PTR _pwp$174724[ebp]
	mov	edx, DWORD PTR [ecx+8]
	mov	DWORD PTR _msg$174727[ebp+8], edx
	mov	eax, DWORD PTR _pwp$174724[ebp]
	mov	ecx, DWORD PTR [eax+4]
	mov	DWORD PTR _msg$174727[ebp+12], ecx
	mov	DWORD PTR _msg$174727[ebp+16], 0
	mov	DWORD PTR _msg$174727[ebp+20], 0
	mov	DWORD PTR _msg$174727[ebp+24], 0

; 209  : 				
; 210  :             if (GetInstance().OnCallWndRetProc(msg, pwp->lResult))

	call	?GetInstance@?$CHookMgr@VCFindReplaceDialogEx@@@@KAAAVCFindReplaceDialogEx@@XZ ; CHookMgr<CFindReplaceDialogEx>::GetInstance
	add	eax, 700				; 000002bcH
	mov	DWORD PTR tv85[ebp], eax
	mov	esi, esp
	mov	edx, DWORD PTR _pwp$174724[ebp]
	mov	eax, DWORD PTR [edx]
	push	eax
	lea	ecx, DWORD PTR _msg$174727[ebp]
	push	ecx
	mov	edx, DWORD PTR tv85[ebp]
	mov	eax, DWORD PTR [edx]
	mov	ecx, DWORD PTR tv85[ebp]
	mov	edx, DWORD PTR [eax+8]
	call	edx
	cmp	esi, esp
	call	__RTC_CheckEsp
	test	eax, eax
	je	SHORT $LN3@CallWndRet

; 211  :                return TRUE;

	mov	eax, 1
	jmp	SHORT $LN4@CallWndRet
$LN3@CallWndRet:

; 212  : 			}
; 213  : 		}
; 214  : 		
; 215  : 		return CallNextHookEx(GetInstance().m_hCallWndHook, nCode, wParam, lParam);

	mov	esi, esp
	mov	eax, DWORD PTR _lParam$[ebp]
	push	eax
	mov	ecx, DWORD PTR _wParam$[ebp]
	push	ecx
	mov	edx, DWORD PTR _nCode$[ebp]
	push	edx
	call	?GetInstance@?$CHookMgr@VCFindReplaceDialogEx@@@@KAAAVCFindReplaceDialogEx@@XZ ; CHookMgr<CFindReplaceDialogEx>::GetInstance
	mov	eax, DWORD PTR [eax+704]
	push	eax
	call	DWORD PTR __imp__CallNextHookEx@16
	cmp	esi, esp
	call	__RTC_CheckEsp
$LN4@CallWndRet:

; 216  : 	}

	push	edx
	mov	ecx, ebp
	push	eax
	lea	edx, DWORD PTR $LN8@CallWndRet
	call	@_RTC_CheckStackVars@8
	pop	eax
	pop	edx
	pop	edi
	pop	esi
	add	esp, 44					; 0000002cH
	cmp	ebp, esp
	call	__RTC_CheckEsp
	mov	esp, ebp
	pop	ebp
	ret	12					; 0000000cH
	npad	2
$LN8@CallWndRet:
	DD	1
	DD	$LN7@CallWndRet
$LN7@CallWndRet:
	DD	-36					; ffffffdcH
	DD	28					; 0000001cH
	DD	$LN6@CallWndRet
$LN6@CallWndRet:
	DB	109					; 0000006dH
	DB	115					; 00000073H
	DB	103					; 00000067H
	DB	0
?CallWndRetProc@?$CHookMgr@VCFindReplaceDialogEx@@@@KGJHIJ@Z ENDP ; CHookMgr<CFindReplaceDialogEx>::CallWndRetProc
; Function compile flags: /Odtp /RTCsu
_TEXT	ENDS
;	COMDAT ?CbtProc@?$CHookMgr@VCFindReplaceDialogEx@@@@KGJHIJ@Z
_TEXT	SEGMENT
tv70 = -4						; size = 4
_nCode$ = 8						; size = 4
_wParam$ = 12						; size = 4
_lParam$ = 16						; size = 4
?CbtProc@?$CHookMgr@VCFindReplaceDialogEx@@@@KGJHIJ@Z PROC ; CHookMgr<CFindReplaceDialogEx>::CbtProc, COMDAT

; 220  : 	{

	push	ebp
	mov	ebp, esp
	push	ecx
	push	esi
	mov	DWORD PTR [ebp-4], -858993460		; ccccccccH

; 221  : #ifdef _USRDLL
; 222  : 		// If this is a DLL, need to set up MFC state
; 223  : 		AFX_MANAGE_STATE(AfxGetStaticModuleState());
; 224  : #endif
; 225  : 		
; 226  : 		//if (nCode == HC_ACTION)
; 227  : 		{
; 228  : 			if (GetInstance().OnCbt(nCode, wParam, lParam))

	call	?GetInstance@?$CHookMgr@VCFindReplaceDialogEx@@@@KAAAVCFindReplaceDialogEx@@XZ ; CHookMgr<CFindReplaceDialogEx>::GetInstance
	add	eax, 700				; 000002bcH
	mov	DWORD PTR tv70[ebp], eax
	mov	esi, esp
	mov	eax, DWORD PTR _lParam$[ebp]
	push	eax
	mov	ecx, DWORD PTR _wParam$[ebp]
	push	ecx
	mov	edx, DWORD PTR _nCode$[ebp]
	push	edx
	mov	eax, DWORD PTR tv70[ebp]
	mov	edx, DWORD PTR [eax]
	mov	ecx, DWORD PTR tv70[ebp]
	mov	eax, DWORD PTR [edx+12]
	call	eax
	cmp	esi, esp
	call	__RTC_CheckEsp
	test	eax, eax
	je	SHORT $LN1@CbtProc

; 229  : 				return TRUE;

	mov	eax, 1
	jmp	SHORT $LN2@CbtProc
$LN1@CbtProc:

; 230  : 		}
; 231  : 		
; 232  : 		// else
; 233  : 		return CallNextHookEx(GetInstance().m_hCbtHook, nCode, wParam, lParam);

	mov	esi, esp
	mov	ecx, DWORD PTR _lParam$[ebp]
	push	ecx
	mov	edx, DWORD PTR _wParam$[ebp]
	push	edx
	mov	eax, DWORD PTR _nCode$[ebp]
	push	eax
	call	?GetInstance@?$CHookMgr@VCFindReplaceDialogEx@@@@KAAAVCFindReplaceDialogEx@@XZ ; CHookMgr<CFindReplaceDialogEx>::GetInstance
	mov	ecx, DWORD PTR [eax+712]
	push	ecx
	call	DWORD PTR __imp__CallNextHookEx@16
	cmp	esi, esp
	call	__RTC_CheckEsp
$LN2@CbtProc:

; 234  : 	}

	pop	esi
	add	esp, 4
	cmp	ebp, esp
	call	__RTC_CheckEsp
	mov	esp, ebp
	pop	ebp
	ret	12					; 0000000cH
?CbtProc@?$CHookMgr@VCFindReplaceDialogEx@@@@KGJHIJ@Z ENDP ; CHookMgr<CFindReplaceDialogEx>::CbtProc
; Function compile flags: /Odtp /RTCsu
_TEXT	ENDS
;	COMDAT ?ForegroundIdleProc@?$CHookMgr@VCFindReplaceDialogEx@@@@KGJHIJ@Z
_TEXT	SEGMENT
tv71 = -4						; size = 4
_nCode$ = 8						; size = 4
_wParam$ = 12						; size = 4
_lParam$ = 16						; size = 4
?ForegroundIdleProc@?$CHookMgr@VCFindReplaceDialogEx@@@@KGJHIJ@Z PROC ; CHookMgr<CFindReplaceDialogEx>::ForegroundIdleProc, COMDAT

; 238  : 	{

	push	ebp
	mov	ebp, esp
	push	ecx
	push	esi
	mov	DWORD PTR [ebp-4], -858993460		; ccccccccH

; 239  : #ifdef _USRDLL
; 240  : 		// If this is a DLL, need to set up MFC state
; 241  : 		AFX_MANAGE_STATE(AfxGetStaticModuleState());
; 242  : #endif
; 243  : 		
; 244  : 		if (nCode == HC_ACTION)

	cmp	DWORD PTR _nCode$[ebp], 0
	jne	SHORT $LN2@Foreground

; 245  :       {
; 246  :          if (GetInstance().OnForegroundIdle())

	call	?GetInstance@?$CHookMgr@VCFindReplaceDialogEx@@@@KAAAVCFindReplaceDialogEx@@XZ ; CHookMgr<CFindReplaceDialogEx>::GetInstance
	add	eax, 700				; 000002bcH
	mov	DWORD PTR tv71[ebp], eax
	mov	eax, DWORD PTR tv71[ebp]
	mov	edx, DWORD PTR [eax]
	mov	esi, esp
	mov	ecx, DWORD PTR tv71[ebp]
	mov	eax, DWORD PTR [edx+16]
	call	eax
	cmp	esi, esp
	call	__RTC_CheckEsp
	test	eax, eax
	je	SHORT $LN2@Foreground

; 247  :             return TRUE;

	mov	eax, 1
	jmp	SHORT $LN3@Foreground
$LN2@Foreground:

; 248  :       }
; 249  : 		
; 250  : 		return CallNextHookEx(GetInstance().m_hForegroundIdleHook, nCode, wParam, lParam);

	mov	esi, esp
	mov	ecx, DWORD PTR _lParam$[ebp]
	push	ecx
	mov	edx, DWORD PTR _wParam$[ebp]
	push	edx
	mov	eax, DWORD PTR _nCode$[ebp]
	push	eax
	call	?GetInstance@?$CHookMgr@VCFindReplaceDialogEx@@@@KAAAVCFindReplaceDialogEx@@XZ ; CHookMgr<CFindReplaceDialogEx>::GetInstance
	mov	ecx, DWORD PTR [eax+716]
	push	ecx
	call	DWORD PTR __imp__CallNextHookEx@16
	cmp	esi, esp
	call	__RTC_CheckEsp
$LN3@Foreground:

; 251  : 	}

	pop	esi
	add	esp, 4
	cmp	ebp, esp
	call	__RTC_CheckEsp
	mov	esp, ebp
	pop	ebp
	ret	12					; 0000000cH
?ForegroundIdleProc@?$CHookMgr@VCFindReplaceDialogEx@@@@KGJHIJ@Z ENDP ; CHookMgr<CFindReplaceDialogEx>::ForegroundIdleProc
; Function compile flags: /Odtp /RTCsu
_TEXT	ENDS
;	COMDAT ?GetMessageProc@?$CHookMgr@VCFindReplaceDialogEx@@@@KGJHIJ@Z
_TEXT	SEGMENT
tv80 = -8						; size = 4
_pMsg$174736 = -4					; size = 4
_nCode$ = 8						; size = 4
_wParam$ = 12						; size = 4
_lParam$ = 16						; size = 4
?GetMessageProc@?$CHookMgr@VCFindReplaceDialogEx@@@@KGJHIJ@Z PROC ; CHookMgr<CFindReplaceDialogEx>::GetMessageProc, COMDAT

; 255  : 	{

	push	ebp
	mov	ebp, esp
	sub	esp, 8
	push	esi
	mov	DWORD PTR [ebp-8], -858993460		; ccccccccH
	mov	DWORD PTR [ebp-4], -858993460		; ccccccccH

; 256  : #ifdef _USRDLL
; 257  : 		// If this is a DLL, need to set up MFC state
; 258  : 		AFX_MANAGE_STATE(AfxGetStaticModuleState());
; 259  : #endif
; 260  : 
; 261  : 		if (nCode == HC_ACTION)

	cmp	DWORD PTR _nCode$[ebp], 0
	jne	SHORT $LN3@GetMessage

; 262  : 		{
; 263  : 			MSG* pMsg = (MSG*)lParam;

	mov	eax, DWORD PTR _lParam$[ebp]
	mov	DWORD PTR _pMsg$174736[ebp], eax

; 264  : 
; 265  : 			if (GetInstance().ClassMatches(pMsg->hwnd))

	mov	ecx, DWORD PTR _pMsg$174736[ebp]
	mov	edx, DWORD PTR [ecx]
	push	edx
	call	?GetInstance@?$CHookMgr@VCFindReplaceDialogEx@@@@KAAAVCFindReplaceDialogEx@@XZ ; CHookMgr<CFindReplaceDialogEx>::GetInstance
	add	eax, 700				; 000002bcH
	mov	ecx, eax
	call	?ClassMatches@?$CHookMgr@VCFindReplaceDialogEx@@@@IAEHPAUHWND__@@@Z ; CHookMgr<CFindReplaceDialogEx>::ClassMatches
	test	eax, eax
	je	SHORT $LN3@GetMessage

; 266  : 			{
; 267  : 				if (GetInstance().OnGetMessage(*pMsg))

	call	?GetInstance@?$CHookMgr@VCFindReplaceDialogEx@@@@KAAAVCFindReplaceDialogEx@@XZ ; CHookMgr<CFindReplaceDialogEx>::GetInstance
	add	eax, 700				; 000002bcH
	mov	DWORD PTR tv80[ebp], eax
	mov	esi, esp
	mov	eax, DWORD PTR _pMsg$174736[ebp]
	push	eax
	mov	ecx, DWORD PTR tv80[ebp]
	mov	edx, DWORD PTR [ecx]
	mov	ecx, DWORD PTR tv80[ebp]
	mov	eax, DWORD PTR [edx+20]
	call	eax
	cmp	esi, esp
	call	__RTC_CheckEsp
	test	eax, eax
	je	SHORT $LN3@GetMessage

; 268  :                return TRUE;

	mov	eax, 1
	jmp	SHORT $LN4@GetMessage
$LN3@GetMessage:

; 269  : 			}
; 270  : 		}
; 271  : 		
; 272  : 		return CallNextHookEx(GetInstance().m_hGetMessageHook, nCode, wParam, lParam);

	mov	esi, esp
	mov	ecx, DWORD PTR _lParam$[ebp]
	push	ecx
	mov	edx, DWORD PTR _wParam$[ebp]
	push	edx
	mov	eax, DWORD PTR _nCode$[ebp]
	push	eax
	call	?GetInstance@?$CHookMgr@VCFindReplaceDialogEx@@@@KAAAVCFindReplaceDialogEx@@XZ ; CHookMgr<CFindReplaceDialogEx>::GetInstance
	mov	ecx, DWORD PTR [eax+720]
	push	ecx
	call	DWORD PTR __imp__CallNextHookEx@16
	cmp	esi, esp
	call	__RTC_CheckEsp
$LN4@GetMessage:

; 273  : 	}

	pop	esi
	add	esp, 8
	cmp	ebp, esp
	call	__RTC_CheckEsp
	mov	esp, ebp
	pop	ebp
	ret	12					; 0000000cH
?GetMessageProc@?$CHookMgr@VCFindReplaceDialogEx@@@@KGJHIJ@Z ENDP ; CHookMgr<CFindReplaceDialogEx>::GetMessageProc
; Function compile flags: /Odtp /RTCsu
_TEXT	ENDS
;	COMDAT ?KeyboardProc@?$CHookMgr@VCFindReplaceDialogEx@@@@KGJHIJ@Z
_TEXT	SEGMENT
tv71 = -4						; size = 4
_nCode$ = 8						; size = 4
_wParam$ = 12						; size = 4
_lParam$ = 16						; size = 4
?KeyboardProc@?$CHookMgr@VCFindReplaceDialogEx@@@@KGJHIJ@Z PROC ; CHookMgr<CFindReplaceDialogEx>::KeyboardProc, COMDAT

; 277  : 	{

	push	ebp
	mov	ebp, esp
	push	ecx
	push	esi
	mov	DWORD PTR [ebp-4], -858993460		; ccccccccH

; 278  : #ifdef _USRDLL
; 279  : 		// If this is a DLL, need to set up MFC state
; 280  : 		AFX_MANAGE_STATE(AfxGetStaticModuleState());
; 281  : #endif
; 282  : 		
; 283  : 		if (nCode == HC_ACTION)

	cmp	DWORD PTR _nCode$[ebp], 0
	jne	SHORT $LN2@KeyboardPr

; 284  : 		{
; 285  : 			if (GetInstance().OnKeyboard(wParam, lParam))

	call	?GetInstance@?$CHookMgr@VCFindReplaceDialogEx@@@@KAAAVCFindReplaceDialogEx@@XZ ; CHookMgr<CFindReplaceDialogEx>::GetInstance
	add	eax, 700				; 000002bcH
	mov	DWORD PTR tv71[ebp], eax
	mov	esi, esp
	mov	eax, DWORD PTR _lParam$[ebp]
	push	eax
	mov	ecx, DWORD PTR _wParam$[ebp]
	push	ecx
	mov	edx, DWORD PTR tv71[ebp]
	mov	eax, DWORD PTR [edx]
	mov	ecx, DWORD PTR tv71[ebp]
	mov	edx, DWORD PTR [eax+24]
	call	edx
	cmp	esi, esp
	call	__RTC_CheckEsp
	test	eax, eax
	je	SHORT $LN2@KeyboardPr

; 286  :             return TRUE;

	mov	eax, 1
	jmp	SHORT $LN3@KeyboardPr
$LN2@KeyboardPr:

; 287  : 		}
; 288  : 		
; 289  : 		return CallNextHookEx(GetInstance().m_hKeyboardHook, nCode, wParam, lParam);

	mov	esi, esp
	mov	eax, DWORD PTR _lParam$[ebp]
	push	eax
	mov	ecx, DWORD PTR _wParam$[ebp]
	push	ecx
	mov	edx, DWORD PTR _nCode$[ebp]
	push	edx
	call	?GetInstance@?$CHookMgr@VCFindReplaceDialogEx@@@@KAAAVCFindReplaceDialogEx@@XZ ; CHookMgr<CFindReplaceDialogEx>::GetInstance
	mov	eax, DWORD PTR [eax+724]
	push	eax
	call	DWORD PTR __imp__CallNextHookEx@16
	cmp	esi, esp
	call	__RTC_CheckEsp
$LN3@KeyboardPr:

; 290  : 	}

	pop	esi
	add	esp, 4
	cmp	ebp, esp
	call	__RTC_CheckEsp
	mov	esp, ebp
	pop	ebp
	ret	12					; 0000000cH
?KeyboardProc@?$CHookMgr@VCFindReplaceDialogEx@@@@KGJHIJ@Z ENDP ; CHookMgr<CFindReplaceDialogEx>::KeyboardProc
; Function compile flags: /Odtp /RTCsu
_TEXT	ENDS
;	COMDAT ?MouseProc@?$CHookMgr@VCFindReplaceDialogEx@@@@KGJHIJ@Z
_TEXT	SEGMENT
_pInfoEx$174749 = -12					; size = 4
_pInfo$174746 = -8					; size = 4
_mgr$ = -4						; size = 4
_nCode$ = 8						; size = 4
_wParam$ = 12						; size = 4
_lParam$ = 16						; size = 4
?MouseProc@?$CHookMgr@VCFindReplaceDialogEx@@@@KGJHIJ@Z PROC ; CHookMgr<CFindReplaceDialogEx>::MouseProc, COMDAT

; 294  : 	{

	push	ebp
	mov	ebp, esp
	sub	esp, 12					; 0000000cH
	push	esi
	mov	DWORD PTR [ebp-12], -858993460		; ccccccccH
	mov	DWORD PTR [ebp-8], -858993460		; ccccccccH
	mov	DWORD PTR [ebp-4], -858993460		; ccccccccH

; 295  : #ifdef _USRDLL
; 296  : 		// If this is a DLL, need to set up MFC state
; 297  : 		AFX_MANAGE_STATE(AfxGetStaticModuleState());
; 298  : #endif
; 299  : 		
; 300  : 		MGRTYPE& mgr = GetInstance();

	call	?GetInstance@?$CHookMgr@VCFindReplaceDialogEx@@@@KAAAVCFindReplaceDialogEx@@XZ ; CHookMgr<CFindReplaceDialogEx>::GetInstance
	mov	DWORD PTR _mgr$[ebp], eax

; 301  : 
; 302  : 		if (nCode == HC_ACTION)

	cmp	DWORD PTR _nCode$[ebp], 0
	jne	SHORT $LN4@MouseProc

; 303  : 		{
; 304  : 			MOUSEHOOKSTRUCT* pInfo = (MOUSEHOOKSTRUCT*)lParam;

	mov	eax, DWORD PTR _lParam$[ebp]
	mov	DWORD PTR _pInfo$174746[ebp], eax

; 305  : 
; 306  : 			if (mgr.ClassMatches(pInfo->hwnd))

	mov	ecx, DWORD PTR _pInfo$174746[ebp]
	mov	edx, DWORD PTR [ecx+8]
	push	edx
	mov	ecx, DWORD PTR _mgr$[ebp]
	add	ecx, 700				; 000002bcH
	call	?ClassMatches@?$CHookMgr@VCFindReplaceDialogEx@@@@IAEHPAUHWND__@@@Z ; CHookMgr<CFindReplaceDialogEx>::ClassMatches
	test	eax, eax
	je	SHORT $LN4@MouseProc

; 307  : 			{
; 308  : #if _MSC_VER >= 1300
; 309  : 				//fabio_2005	
; 310  : 				MOUSEHOOKSTRUCTEX* pInfoEx = (MOUSEHOOKSTRUCTEX*)pInfo;

	mov	eax, DWORD PTR _pInfo$174746[ebp]
	mov	DWORD PTR _pInfoEx$174749[ebp], eax

; 311  : 
; 312  : 				if (!mgr.m_b2000orLater)

	mov	ecx, DWORD PTR _mgr$[ebp]
	cmp	DWORD PTR [ecx+748], 0
	jne	SHORT $LN2@MouseProc

; 313  : 					pInfoEx->mouseData = 0;

	mov	edx, DWORD PTR _pInfoEx$174749[ebp]
	mov	DWORD PTR [edx+20], 0
$LN2@MouseProc:

; 314  : 
; 315  : 				if (mgr.OnMouseEx(wParam, *pInfoEx))

	mov	esi, esp
	mov	eax, DWORD PTR _pInfoEx$174749[ebp]
	push	eax
	mov	ecx, DWORD PTR _wParam$[ebp]
	push	ecx
	mov	ecx, DWORD PTR _mgr$[ebp]
	add	ecx, 700				; 000002bcH
	mov	edx, DWORD PTR _mgr$[ebp]
	mov	eax, DWORD PTR [edx+700]
	mov	edx, DWORD PTR [eax+40]
	call	edx
	cmp	esi, esp
	call	__RTC_CheckEsp
	test	eax, eax
	je	SHORT $LN4@MouseProc

; 316  : 					return TRUE;

	mov	eax, 1
	jmp	SHORT $LN5@MouseProc
$LN4@MouseProc:

; 317  : #else
; 318  : 				if (mgr.m_b2000orLater)
; 319  : 				{
; 320  : 					MOUSEHOOKSTRUCTEX* pInfoEx = (MOUSEHOOKSTRUCTEX*)pInfo;
; 321  : 					
; 322  : 					if (mgr.OnMouseEx(wParam, *pInfoEx))
; 323  : 						return TRUE;
; 324  : 				}
; 325  : 				else
; 326  : 				{
; 327  : 					MOUSEHOOKSTRUCTEX infoEx;
; 328  : 					infoEx = *((MOUSEHOOKSTRUCTEX*)pInfo);
; 329  : 					infoEx.mouseData = 0;
; 330  : 					
; 331  : 					if (mgr.OnMouseEx(wParam, infoEx))
; 332  : 						return TRUE;
; 333  : 				}
; 334  : #endif
; 335  : 			}
; 336  : 		}
; 337  : 		
; 338  : 		return CallNextHookEx(mgr.m_hMouseHook, nCode, wParam, lParam);

	mov	esi, esp
	mov	eax, DWORD PTR _lParam$[ebp]
	push	eax
	mov	ecx, DWORD PTR _wParam$[ebp]
	push	ecx
	mov	edx, DWORD PTR _nCode$[ebp]
	push	edx
	mov	eax, DWORD PTR _mgr$[ebp]
	mov	ecx, DWORD PTR [eax+728]
	push	ecx
	call	DWORD PTR __imp__CallNextHookEx@16
	cmp	esi, esp
	call	__RTC_CheckEsp
$LN5@MouseProc:

; 339  : 	}

	pop	esi
	add	esp, 12					; 0000000cH
	cmp	ebp, esp
	call	__RTC_CheckEsp
	mov	esp, ebp
	pop	ebp
	ret	12					; 0000000cH
?MouseProc@?$CHookMgr@VCFindReplaceDialogEx@@@@KGJHIJ@Z ENDP ; CHookMgr<CFindReplaceDialogEx>::MouseProc
; Function compile flags: /Odtp /RTCsu
_TEXT	ENDS
;	COMDAT ?MsgFilterProc@?$CHookMgr@VCFindReplaceDialogEx@@@@KGJHIJ@Z
_TEXT	SEGMENT
tv80 = -8						; size = 4
_pMsg$174755 = -4					; size = 4
_nCode$ = 8						; size = 4
_wParam$ = 12						; size = 4
_lParam$ = 16						; size = 4
?MsgFilterProc@?$CHookMgr@VCFindReplaceDialogEx@@@@KGJHIJ@Z PROC ; CHookMgr<CFindReplaceDialogEx>::MsgFilterProc, COMDAT

; 343  : 	{

	push	ebp
	mov	ebp, esp
	sub	esp, 8
	push	esi
	mov	DWORD PTR [ebp-8], -858993460		; ccccccccH
	mov	DWORD PTR [ebp-4], -858993460		; ccccccccH

; 344  : #ifdef _USRDLL
; 345  : 		// If this is a DLL, need to set up MFC state
; 346  : 		AFX_MANAGE_STATE(AfxGetStaticModuleState());
; 347  : #endif
; 348  : 		
; 349  : 		if (nCode == HC_ACTION)

	cmp	DWORD PTR _nCode$[ebp], 0
	jne	SHORT $LN3@MsgFilterP

; 350  : 		{
; 351  : 			MSG* pMsg = (MSG*)lParam;

	mov	eax, DWORD PTR _lParam$[ebp]
	mov	DWORD PTR _pMsg$174755[ebp], eax

; 352  : 
; 353  : 			if (GetInstance().ClassMatches(pMsg->hwnd))

	mov	ecx, DWORD PTR _pMsg$174755[ebp]
	mov	edx, DWORD PTR [ecx]
	push	edx
	call	?GetInstance@?$CHookMgr@VCFindReplaceDialogEx@@@@KAAAVCFindReplaceDialogEx@@XZ ; CHookMgr<CFindReplaceDialogEx>::GetInstance
	add	eax, 700				; 000002bcH
	mov	ecx, eax
	call	?ClassMatches@?$CHookMgr@VCFindReplaceDialogEx@@@@IAEHPAUHWND__@@@Z ; CHookMgr<CFindReplaceDialogEx>::ClassMatches
	test	eax, eax
	je	SHORT $LN3@MsgFilterP

; 354  :          {
; 355  :             if (GetInstance().OnMsgFilter(*pMsg, nCode))

	call	?GetInstance@?$CHookMgr@VCFindReplaceDialogEx@@@@KAAAVCFindReplaceDialogEx@@XZ ; CHookMgr<CFindReplaceDialogEx>::GetInstance
	add	eax, 700				; 000002bcH
	mov	DWORD PTR tv80[ebp], eax
	mov	esi, esp
	mov	eax, DWORD PTR _nCode$[ebp]
	push	eax
	mov	ecx, DWORD PTR _pMsg$174755[ebp]
	push	ecx
	mov	edx, DWORD PTR tv80[ebp]
	mov	eax, DWORD PTR [edx]
	mov	ecx, DWORD PTR tv80[ebp]
	mov	edx, DWORD PTR [eax+28]
	call	edx
	cmp	esi, esp
	call	__RTC_CheckEsp
	test	eax, eax
	je	SHORT $LN3@MsgFilterP

; 356  :                return TRUE;

	mov	eax, 1
	jmp	SHORT $LN4@MsgFilterP
$LN3@MsgFilterP:

; 357  :          }
; 358  : 		}
; 359  : 
; 360  : 		return CallNextHookEx(GetInstance().m_hMsgFilterHook, nCode, wParam, lParam);

	mov	esi, esp
	mov	eax, DWORD PTR _lParam$[ebp]
	push	eax
	mov	ecx, DWORD PTR _wParam$[ebp]
	push	ecx
	mov	edx, DWORD PTR _nCode$[ebp]
	push	edx
	call	?GetInstance@?$CHookMgr@VCFindReplaceDialogEx@@@@KAAAVCFindReplaceDialogEx@@XZ ; CHookMgr<CFindReplaceDialogEx>::GetInstance
	mov	eax, DWORD PTR [eax+732]
	push	eax
	call	DWORD PTR __imp__CallNextHookEx@16
	cmp	esi, esp
	call	__RTC_CheckEsp
$LN4@MsgFilterP:

; 361  : 	}

	pop	esi
	add	esp, 8
	cmp	ebp, esp
	call	__RTC_CheckEsp
	mov	esp, ebp
	pop	ebp
	ret	12					; 0000000cH
?MsgFilterProc@?$CHookMgr@VCFindReplaceDialogEx@@@@KGJHIJ@Z ENDP ; CHookMgr<CFindReplaceDialogEx>::MsgFilterProc
; Function compile flags: /Odtp /RTCsu
_TEXT	ENDS
;	COMDAT ?ShellProc@?$CHookMgr@VCFindReplaceDialogEx@@@@KGJHIJ@Z
_TEXT	SEGMENT
tv70 = -4						; size = 4
_nCode$ = 8						; size = 4
_wParam$ = 12						; size = 4
_lParam$ = 16						; size = 4
?ShellProc@?$CHookMgr@VCFindReplaceDialogEx@@@@KGJHIJ@Z PROC ; CHookMgr<CFindReplaceDialogEx>::ShellProc, COMDAT

; 365  : 	{

	push	ebp
	mov	ebp, esp
	push	ecx
	push	esi
	mov	DWORD PTR [ebp-4], -858993460		; ccccccccH

; 366  : #ifdef _USRDLL
; 367  : 		// If this is a DLL, need to set up MFC state
; 368  : 		AFX_MANAGE_STATE(AfxGetStaticModuleState());
; 369  : #endif
; 370  : 		
; 371  : 		if (GetInstance().OnShell(nCode, wParam, lParam))

	call	?GetInstance@?$CHookMgr@VCFindReplaceDialogEx@@@@KAAAVCFindReplaceDialogEx@@XZ ; CHookMgr<CFindReplaceDialogEx>::GetInstance
	add	eax, 700				; 000002bcH
	mov	DWORD PTR tv70[ebp], eax
	mov	esi, esp
	mov	eax, DWORD PTR _lParam$[ebp]
	push	eax
	mov	ecx, DWORD PTR _wParam$[ebp]
	push	ecx
	mov	edx, DWORD PTR _nCode$[ebp]
	push	edx
	mov	eax, DWORD PTR tv70[ebp]
	mov	edx, DWORD PTR [eax]
	mov	ecx, DWORD PTR tv70[ebp]
	mov	eax, DWORD PTR [edx+32]
	call	eax
	cmp	esi, esp
	call	__RTC_CheckEsp
	test	eax, eax
	je	SHORT $LN2@ShellProc

; 372  : 		{
; 373  : 			if (nCode == HSHELL_APPCOMMAND)

	cmp	DWORD PTR _nCode$[ebp], 12		; 0000000cH
	jne	SHORT $LN2@ShellProc

; 374  : 				return TRUE;

	mov	eax, 1
	jmp	SHORT $LN3@ShellProc
$LN2@ShellProc:

; 375  : 		}
; 376  : 		
; 377  : 		// else
; 378  : 		return 0;//CallNextHookEx(GetInstance().m_hShellHook, nCode, wParam, lParam);

	xor	eax, eax
$LN3@ShellProc:

; 379  : 	}

	pop	esi
	add	esp, 4
	cmp	ebp, esp
	call	__RTC_CheckEsp
	mov	esp, ebp
	pop	ebp
	ret	12					; 0000000cH
?ShellProc@?$CHookMgr@VCFindReplaceDialogEx@@@@KGJHIJ@Z ENDP ; CHookMgr<CFindReplaceDialogEx>::ShellProc
; Function compile flags: /Odtp /RTCsu
_TEXT	ENDS
;	COMDAT ?SysMsgFilterProc@?$CHookMgr@VCFindReplaceDialogEx@@@@KGJHIJ@Z
_TEXT	SEGMENT
tv80 = -8						; size = 4
_pMsg$174764 = -4					; size = 4
_nCode$ = 8						; size = 4
_wParam$ = 12						; size = 4
_lParam$ = 16						; size = 4
?SysMsgFilterProc@?$CHookMgr@VCFindReplaceDialogEx@@@@KGJHIJ@Z PROC ; CHookMgr<CFindReplaceDialogEx>::SysMsgFilterProc, COMDAT

; 383  : 	{

	push	ebp
	mov	ebp, esp
	sub	esp, 8
	push	esi
	mov	DWORD PTR [ebp-8], -858993460		; ccccccccH
	mov	DWORD PTR [ebp-4], -858993460		; ccccccccH

; 384  : #ifdef _USRDLL
; 385  : 		// If this is a DLL, need to set up MFC state
; 386  : 		AFX_MANAGE_STATE(AfxGetStaticModuleState());
; 387  : #endif
; 388  : 		
; 389  : 		if (nCode == HC_ACTION)

	cmp	DWORD PTR _nCode$[ebp], 0
	jne	SHORT $LN3@SysMsgFilt

; 390  : 		{
; 391  : 			MSG* pMsg = (MSG*)lParam;

	mov	eax, DWORD PTR _lParam$[ebp]
	mov	DWORD PTR _pMsg$174764[ebp], eax

; 392  : 
; 393  : 			if (GetInstance().ClassMatches(pMsg->hwnd))

	mov	ecx, DWORD PTR _pMsg$174764[ebp]
	mov	edx, DWORD PTR [ecx]
	push	edx
	call	?GetInstance@?$CHookMgr@VCFindReplaceDialogEx@@@@KAAAVCFindReplaceDialogEx@@XZ ; CHookMgr<CFindReplaceDialogEx>::GetInstance
	add	eax, 700				; 000002bcH
	mov	ecx, eax
	call	?ClassMatches@?$CHookMgr@VCFindReplaceDialogEx@@@@IAEHPAUHWND__@@@Z ; CHookMgr<CFindReplaceDialogEx>::ClassMatches
	test	eax, eax
	je	SHORT $LN3@SysMsgFilt

; 394  :          {
; 395  :             if (GetInstance().OnSysMsgFilter(*pMsg, nCode))

	call	?GetInstance@?$CHookMgr@VCFindReplaceDialogEx@@@@KAAAVCFindReplaceDialogEx@@XZ ; CHookMgr<CFindReplaceDialogEx>::GetInstance
	add	eax, 700				; 000002bcH
	mov	DWORD PTR tv80[ebp], eax
	mov	esi, esp
	mov	eax, DWORD PTR _nCode$[ebp]
	push	eax
	mov	ecx, DWORD PTR _pMsg$174764[ebp]
	push	ecx
	mov	edx, DWORD PTR tv80[ebp]
	mov	eax, DWORD PTR [edx]
	mov	ecx, DWORD PTR tv80[ebp]
	mov	edx, DWORD PTR [eax+36]
	call	edx
	cmp	esi, esp
	call	__RTC_CheckEsp
	test	eax, eax
	je	SHORT $LN3@SysMsgFilt

; 396  :                return TRUE;

	mov	eax, 1
	jmp	SHORT $LN4@SysMsgFilt
$LN3@SysMsgFilt:

; 397  :          }
; 398  : 		}
; 399  : 		
; 400  : 		return CallNextHookEx(GetInstance().m_hSysMsgFilterHook, nCode, wParam, lParam);

	mov	esi, esp
	mov	eax, DWORD PTR _lParam$[ebp]
	push	eax
	mov	ecx, DWORD PTR _wParam$[ebp]
	push	ecx
	mov	edx, DWORD PTR _nCode$[ebp]
	push	edx
	call	?GetInstance@?$CHookMgr@VCFindReplaceDialogEx@@@@KAAAVCFindReplaceDialogEx@@XZ ; CHookMgr<CFindReplaceDialogEx>::GetInstance
	mov	eax, DWORD PTR [eax+740]
	push	eax
	call	DWORD PTR __imp__CallNextHookEx@16
	cmp	esi, esp
	call	__RTC_CheckEsp
$LN4@SysMsgFilt:

; 401  : 	}

	pop	esi
	add	esp, 8
	cmp	ebp, esp
	call	__RTC_CheckEsp
	mov	esp, ebp
	pop	ebp
	ret	12					; 0000000cH
?SysMsgFilterProc@?$CHookMgr@VCFindReplaceDialogEx@@@@KGJHIJ@Z ENDP ; CHookMgr<CFindReplaceDialogEx>::SysMsgFilterProc
; Function compile flags: /Odtp /RTCsu
_TEXT	ENDS
;	COMDAT ?ClassMatches@?$CHookMgr@VCFindReplaceDialogEx@@@@IAEHPAUHWND__@@@Z
_TEXT	SEGMENT
_this$ = -4						; size = 4
_hwnd$ = 8						; size = 4
?ClassMatches@?$CHookMgr@VCFindReplaceDialogEx@@@@IAEHPAUHWND__@@@Z PROC ; CHookMgr<CFindReplaceDialogEx>::ClassMatches, COMDAT
; _this$ = ecx

; 165  : 	{

	push	ebp
	mov	ebp, esp
	push	ecx
	push	esi
	mov	DWORD PTR [ebp-4], -858993460		; ccccccccH
	mov	DWORD PTR _this$[ebp], ecx

; 166  : 		return ::ClassMatches(hwnd, m_sClassFilter);

	mov	ecx, DWORD PTR _this$[ebp]
	add	ecx, 44					; 0000002cH
	mov	esi, esp
	call	DWORD PTR __imp_??B?$CSimpleStringT@_W$00@ATL@@QBEPB_WXZ
	cmp	esi, esp
	call	__RTC_CheckEsp
	push	eax
	mov	eax, DWORD PTR _hwnd$[ebp]
	push	eax
	call	?ClassMatches@@YAHPAUHWND__@@PB_W@Z	; ClassMatches
	add	esp, 8

; 167  : 	}

	pop	esi
	add	esp, 4
	cmp	ebp, esp
	call	__RTC_CheckEsp
	mov	esp, ebp
	pop	ebp
	ret	4
?ClassMatches@?$CHookMgr@VCFindReplaceDialogEx@@@@IAEHPAUHWND__@@@Z ENDP ; CHookMgr<CFindReplaceDialogEx>::ClassMatches
_TEXT	ENDS
EXTRN	__imp__lstrcmpiW@8:PROC
EXTRN	__imp__GetClassNameW@12:PROC
EXTRN	__imp__lstrlenW@4:PROC
;	COMDAT ?szClassName@?3??ClassMatches@@YAHPAUHWND__@@PB_W@Z@4PA_WA
_BSS	SEGMENT
?szClassName@?3??ClassMatches@@YAHPAUHWND__@@PB_W@Z@4PA_WA DW 028H DUP (?) ; `ClassMatches'::`4'::szClassName
; Function compile flags: /Odtp /RTCsu
_BSS	ENDS
;	COMDAT ?ClassMatches@@YAHPAUHWND__@@PB_W@Z
_TEXT	SEGMENT
_hwnd$ = 8						; size = 4
_szClassType$ = 12					; size = 4
?ClassMatches@@YAHPAUHWND__@@PB_W@Z PROC		; ClassMatches, COMDAT

; 13   : {

	push	ebp
	mov	ebp, esp
	push	esi

; 14   : 	if (!szClassType || !lstrlen(szClassType))

	cmp	DWORD PTR _szClassType$[ebp], 0
	je	SHORT $LN1@ClassMatch
	mov	esi, esp
	mov	eax, DWORD PTR _szClassType$[ebp]
	push	eax
	call	DWORD PTR __imp__lstrlenW@4
	cmp	esi, esp
	call	__RTC_CheckEsp
	test	eax, eax
	jne	SHORT $LN2@ClassMatch
$LN1@ClassMatch:

; 15   : 		return TRUE;

	mov	eax, 1
	jmp	SHORT $LN3@ClassMatch
$LN2@ClassMatch:

; 16   : 	
; 17   : 	// else
; 18   : 	static TCHAR szClassName[40];
; 19   : 	::GetClassName(hwnd, szClassName, 40);

	mov	esi, esp
	push	40					; 00000028H
	push	OFFSET ?szClassName@?3??ClassMatches@@YAHPAUHWND__@@PB_W@Z@4PA_WA
	mov	ecx, DWORD PTR _hwnd$[ebp]
	push	ecx
	call	DWORD PTR __imp__GetClassNameW@12
	cmp	esi, esp
	call	__RTC_CheckEsp

; 20   : 	
; 21   : 	return (lstrcmpi(szClassType, szClassName) == 0);

	mov	esi, esp
	push	OFFSET ?szClassName@?3??ClassMatches@@YAHPAUHWND__@@PB_W@Z@4PA_WA
	mov	edx, DWORD PTR _szClassType$[ebp]
	push	edx
	call	DWORD PTR __imp__lstrcmpiW@8
	cmp	esi, esp
	call	__RTC_CheckEsp
	neg	eax
	sbb	eax, eax
	add	eax, 1
$LN3@ClassMatch:

; 22   : }

	pop	esi
	cmp	ebp, esp
	call	__RTC_CheckEsp
	pop	ebp
	ret	0
?ClassMatches@@YAHPAUHWND__@@PB_W@Z ENDP		; ClassMatches
; Function compile flags: /Odtp /RTCsu
_TEXT	ENDS
;	COMDAT ??_ECFindReplaceDialogEx@@WCLM@AEPAXI@Z
_TEXT	SEGMENT
??_ECFindReplaceDialogEx@@WCLM@AEPAXI@Z PROC		; [thunk]:CFindReplaceDialogEx::`vector deleting destructor', COMDAT
	sub	ecx, 700				; 000002bcH
	jmp	??_ECFindReplaceDialogEx@@UAEPAXI@Z
??_ECFindReplaceDialogEx@@WCLM@AEPAXI@Z ENDP		; [thunk]:CFindReplaceDialogEx::`vector deleting destructor'
_TEXT	ENDS
PUBLIC	??_7CCommonDialog@@6B@				; CCommonDialog::`vftable'
PUBLIC	??_R4CCommonDialog@@6B@				; CCommonDialog::`RTTI Complete Object Locator'
EXTRN	?GetRuntimeClass@CCommonDialog@@UBEPAUCRuntimeClass@@XZ:PROC ; CCommonDialog::GetRuntimeClass
EXTRN	??_ECCommonDialog@@UAEPAXI@Z:PROC		; CCommonDialog::`vector deleting destructor'
EXTRN	?Dump@CDialog@@UBEXAAVCDumpContext@@@Z:PROC	; CDialog::Dump
;	COMDAT ??_R4CCommonDialog@@6B@
; File c:\program files (x86)\microsoft visual studio 10.0\vc\atlmfc\include\afxdlgs.h
rdata$r	SEGMENT
??_R4CCommonDialog@@6B@ DD 00H				; CCommonDialog::`RTTI Complete Object Locator'
	DD	00H
	DD	00H
	DD	FLAT:??_R0?AVCCommonDialog@@@8
	DD	FLAT:??_R3CCommonDialog@@8
rdata$r	ENDS
;	COMDAT ??_7CCommonDialog@@6B@
CONST	SEGMENT
??_7CCommonDialog@@6B@ DD FLAT:??_R4CCommonDialog@@6B@	; CCommonDialog::`vftable'
	DD	FLAT:?GetRuntimeClass@CCommonDialog@@UBEPAUCRuntimeClass@@XZ
	DD	FLAT:??_ECCommonDialog@@UAEPAXI@Z
	DD	FLAT:?Serialize@CObject@@UAEXAAVCArchive@@@Z
	DD	FLAT:?AssertValid@CDialog@@UBEXXZ
	DD	FLAT:?Dump@CDialog@@UBEXAAVCDumpContext@@@Z
	DD	FLAT:?OnCmdMsg@CDialog@@UAEHIHPAXPAUAFX_CMDHANDLERINFO@@@Z
	DD	FLAT:?OnFinalRelease@CWnd@@UAEXXZ
	DD	FLAT:?IsInvokeAllowed@CCmdTarget@@UAEHJ@Z
	DD	FLAT:?GetDispatchIID@CCmdTarget@@UAEHPAU_GUID@@@Z
	DD	FLAT:?GetTypeInfoCount@CCmdTarget@@UAEIXZ
	DD	FLAT:?GetTypeLibCache@CCmdTarget@@UAEPAVCTypeLibCache@@XZ
	DD	FLAT:?GetTypeLib@CCmdTarget@@UAEJKPAPAUITypeLib@@@Z
	DD	FLAT:?GetMessageMap@CCommonDialog@@MBEPBUAFX_MSGMAP@@XZ
	DD	FLAT:?GetCommandMap@CCmdTarget@@MBEPBUAFX_OLECMDMAP@@XZ
	DD	FLAT:?GetDispatchMap@CCmdTarget@@MBEPBUAFX_DISPMAP@@XZ
	DD	FLAT:?GetConnectionMap@CCmdTarget@@MBEPBUAFX_CONNECTIONMAP@@XZ
	DD	FLAT:?GetInterfaceMap@CWnd@@MBEPBUAFX_INTERFACEMAP@@XZ
	DD	FLAT:?GetEventSinkMap@CCmdTarget@@MBEPBUAFX_EVENTSINKMAP@@XZ
	DD	FLAT:?OnCreateAggregates@CCmdTarget@@UAEHXZ
	DD	FLAT:?GetInterfaceHook@CCmdTarget@@UAEPAUIUnknown@@PBX@Z
	DD	FLAT:?GetExtraConnectionPoints@CCmdTarget@@MAEHPAVCPtrArray@@@Z
	DD	FLAT:?GetConnectionHook@CCmdTarget@@MAEPAUIConnectionPoint@@ABU_GUID@@@Z
	DD	FLAT:?PreSubclassWindow@CWnd@@UAEXXZ
	DD	FLAT:?Create@CWnd@@UAEHPB_W0KABUtagRECT@@PAV1@IPAUCCreateContext@@@Z
	DD	FLAT:?CreateEx@CWnd@@UAEHKPB_W0KABUtagRECT@@PAV1@IPAX@Z
	DD	FLAT:?CreateEx@CWnd@@UAEHKPB_W0KHHHHPAUHWND__@@PAUHMENU__@@PAX@Z
	DD	FLAT:?DestroyWindow@CWnd@@UAEHXZ
	DD	FLAT:?PreCreateWindow@CWnd@@UAEHAAUtagCREATESTRUCTW@@@Z
	DD	FLAT:?CalcWindowRect@CWnd@@UAEXPAUtagRECT@@I@Z
	DD	FLAT:?GetMenu@CWnd@@UBEPAVCMenu@@XZ
	DD	FLAT:?SetMenu@CWnd@@UAEHPAVCMenu@@@Z
	DD	FLAT:?OnToolHitTest@CWnd@@UBEHVCPoint@@PAUtagTOOLINFOW@@@Z
	DD	FLAT:?GetScrollBarCtrl@CWnd@@UBEPAVCScrollBar@@H@Z
	DD	FLAT:?WinHelpW@CWnd@@UAEXKI@Z
	DD	FLAT:?HtmlHelpW@CWnd@@UAEXKI@Z
	DD	FLAT:?WinHelpInternal@CWnd@@UAEXKI@Z
	DD	FLAT:?ContinueModal@CWnd@@UAEHXZ
	DD	FLAT:?EndModalLoop@CWnd@@UAEXH@Z
	DD	FLAT:?OnDrawIconicThumbnailOrLivePreview@CWnd@@UAEXAAVCDC@@VCRect@@VCSize@@HAAH@Z
	DD	FLAT:?EnsureStdObj@CWnd@@UAEJXZ
	DD	FLAT:?get_accParent@CWnd@@UAEJPAPAUIDispatch@@@Z
	DD	FLAT:?get_accChildCount@CWnd@@UAEJPAJ@Z
	DD	FLAT:?get_accChild@CWnd@@UAEJUtagVARIANT@@PAPAUIDispatch@@@Z
	DD	FLAT:?get_accName@CWnd@@UAEJUtagVARIANT@@PAPA_W@Z
	DD	FLAT:?get_accValue@CWnd@@UAEJUtagVARIANT@@PAPA_W@Z
	DD	FLAT:?get_accDescription@CWnd@@UAEJUtagVARIANT@@PAPA_W@Z
	DD	FLAT:?get_accRole@CWnd@@UAEJUtagVARIANT@@PAU2@@Z
	DD	FLAT:?get_accState@CWnd@@UAEJUtagVARIANT@@PAU2@@Z
	DD	FLAT:?get_accHelp@CWnd@@UAEJUtagVARIANT@@PAPA_W@Z
	DD	FLAT:?get_accHelpTopic@CWnd@@UAEJPAPA_WUtagVARIANT@@PAJ@Z
	DD	FLAT:?get_accKeyboardShortcut@CWnd@@UAEJUtagVARIANT@@PAPA_W@Z
	DD	FLAT:?get_accFocus@CWnd@@UAEJPAUtagVARIANT@@@Z
	DD	FLAT:?get_accSelection@CWnd@@UAEJPAUtagVARIANT@@@Z
	DD	FLAT:?get_accDefaultAction@CWnd@@UAEJUtagVARIANT@@PAPA_W@Z
	DD	FLAT:?accSelect@CWnd@@UAEJJUtagVARIANT@@@Z
	DD	FLAT:?accLocation@CWnd@@UAEJPAJ000UtagVARIANT@@@Z
	DD	FLAT:?accNavigate@CWnd@@UAEJJUtagVARIANT@@PAU2@@Z
	DD	FLAT:?accHitTest@CWnd@@UAEJJJPAUtagVARIANT@@@Z
	DD	FLAT:?accDoDefaultAction@CWnd@@UAEJUtagVARIANT@@@Z
	DD	FLAT:?put_accName@CWnd@@UAEJUtagVARIANT@@PA_W@Z
	DD	FLAT:?put_accValue@CWnd@@UAEJUtagVARIANT@@PA_W@Z
	DD	FLAT:?SetProxy@CWnd@@UAEJPAUIAccessibleProxy@@@Z
	DD	FLAT:?CreateAccessibleProxy@CWnd@@UAEJIJPAJ@Z
	DD	FLAT:?OnCommand@CWnd@@MAEHIJ@Z
	DD	FLAT:?OnNotify@CWnd@@MAEHIJPAJ@Z
	DD	FLAT:?GetSuperWndProcAddr@CWnd@@MAEPAP6GJPAUHWND__@@IIJ@ZXZ
	DD	FLAT:?DoDataExchange@CWnd@@MAEXPAVCDataExchange@@@Z
	DD	FLAT:?BeginModalState@CWnd@@UAEXXZ
	DD	FLAT:?EndModalState@CWnd@@UAEXXZ
	DD	FLAT:?PreTranslateMessage@CDialog@@UAEHPAUtagMSG@@@Z
	DD	FLAT:?OnAmbientProperty@CWnd@@UAEHPAVCOleControlSite@@JPAUtagVARIANT@@@Z
	DD	FLAT:?WindowProc@CWnd@@MAEJIIJ@Z
	DD	FLAT:?OnWndMsg@CWnd@@MAEHIIJPAJ@Z
	DD	FLAT:?DefWindowProcW@CWnd@@MAEJIIJ@Z
	DD	FLAT:?PostNcDestroy@CWnd@@MAEXXZ
	DD	FLAT:?OnChildNotify@CWnd@@MAEHIIJPAJ@Z
	DD	FLAT:?OnTouchInputs@CWnd@@MAEHIPAUtagTOUCHINPUT@@@Z
	DD	FLAT:?OnTouchInput@CWnd@@MAEHVCPoint@@HHPAUtagTOUCHINPUT@@@Z
	DD	FLAT:?GetGestureStatus@CWnd@@MAEKVCPoint@@@Z
	DD	FLAT:?OnGestureZoom@CWnd@@MAEHVCPoint@@J@Z
	DD	FLAT:?OnGesturePan@CWnd@@MAEHVCPoint@@0@Z
	DD	FLAT:?OnGestureRotate@CWnd@@MAEHVCPoint@@N@Z
	DD	FLAT:?OnGestureTwoFingerTap@CWnd@@MAEHVCPoint@@@Z
	DD	FLAT:?OnGesturePressAndTap@CWnd@@MAEHVCPoint@@J@Z
	DD	FLAT:?CheckAutoCenter@CDialog@@UAEHXZ
	DD	FLAT:?IsFrameWnd@CWnd@@UBEHXZ
	DD	FLAT:?CreateControlContainer@CWnd@@MAEHPAPAVCOleControlContainer@@@Z
	DD	FLAT:?CreateControlSite@CWnd@@MAEHPAVCOleControlContainer@@PAPAVCOleControlSite@@IABU_GUID@@@Z
	DD	FLAT:?SetOccDialogInfo@CDialog@@MAEHPAU_AFX_OCC_DIALOG_INFO@@@Z
	DD	FLAT:?GetOccDialogInfo@CDialog@@MAEPAU_AFX_OCC_DIALOG_INFO@@XZ
	DD	FLAT:?Create@CDialog@@UAEHIPAVCWnd@@@Z
	DD	FLAT:?Create@CDialog@@UAEHPB_WPAVCWnd@@@Z
	DD	FLAT:?CreateIndirect@CDialog@@UAEHPAXPAVCWnd@@@Z
	DD	FLAT:?CreateIndirect@CDialog@@UAEHPBUDLGTEMPLATE@@PAVCWnd@@PAX@Z
	DD	FLAT:?DoModal@CDialog@@UAEHXZ
	DD	FLAT:?OnInitDialog@CDialog@@UAEHXZ
	DD	FLAT:?OnSetFont@CDialog@@UAEXPAVCFont@@@Z
	DD	FLAT:?OnOK@CCommonDialog@@MAEXXZ
	DD	FLAT:?OnCancel@CCommonDialog@@MAEXXZ
	DD	FLAT:?PreInitDialog@CDialog@@MAEXXZ
; Function compile flags: /Odtp /RTCsu
CONST	ENDS
;	COMDAT ??1CCommonDialog@@UAE@XZ
_TEXT	SEGMENT
_this$ = -4						; size = 4
??1CCommonDialog@@UAE@XZ PROC				; CCommonDialog::~CCommonDialog, COMDAT
; _this$ = ecx

; 116  :     virtual ~CCommonDialog() {};

	push	ebp
	mov	ebp, esp
	push	ecx
	mov	DWORD PTR [ebp-4], -858993460		; ccccccccH
	mov	DWORD PTR _this$[ebp], ecx
	mov	eax, DWORD PTR _this$[ebp]
	mov	DWORD PTR [eax], OFFSET ??_7CCommonDialog@@6B@
	mov	ecx, DWORD PTR _this$[ebp]
	call	??1CDialog@@UAE@XZ			; CDialog::~CDialog
	add	esp, 4
	cmp	ebp, esp
	call	__RTC_CheckEsp
	mov	esp, ebp
	pop	ebp
	ret	0
??1CCommonDialog@@UAE@XZ ENDP				; CCommonDialog::~CCommonDialog
; Function compile flags: /Odtp /RTCsu
_TEXT	ENDS
;	COMDAT ??_GCCommonDialog@@UAEPAXI@Z
_TEXT	SEGMENT
_this$ = -4						; size = 4
___flags$ = 8						; size = 4
??_GCCommonDialog@@UAEPAXI@Z PROC			; CCommonDialog::`scalar deleting destructor', COMDAT
; _this$ = ecx
	push	ebp
	mov	ebp, esp
	push	ecx
	mov	DWORD PTR [ebp-4], -858993460		; ccccccccH
	mov	DWORD PTR _this$[ebp], ecx
	mov	ecx, DWORD PTR _this$[ebp]
	call	??1CCommonDialog@@UAE@XZ		; CCommonDialog::~CCommonDialog
	mov	eax, DWORD PTR ___flags$[ebp]
	and	eax, 1
	je	SHORT $LN1@scalar@4
	mov	ecx, DWORD PTR _this$[ebp]
	push	ecx
	call	??3CObject@@SGXPAX@Z			; CObject::operator delete
$LN1@scalar@4:
	mov	eax, DWORD PTR _this$[ebp]
	add	esp, 4
	cmp	ebp, esp
	call	__RTC_CheckEsp
	mov	esp, ebp
	pop	ebp
	ret	4
??_GCCommonDialog@@UAEPAXI@Z ENDP			; CCommonDialog::`scalar deleting destructor'
_TEXT	ENDS
EXTRN	__imp__RegisterWindowMessageW@4:PROC
; Function compile flags: /Odtp /RTCsu
; File d:\_code\shared\urlricheditctrl.h
;	COMDAT ??__EWM_UREN_CUSTOMURL@@YAXXZ
text$yc	SEGMENT
??__EWM_UREN_CUSTOMURL@@YAXXZ PROC			; `dynamic initializer for 'WM_UREN_CUSTOMURL'', COMDAT

; 16   : const UINT WM_UREN_CUSTOMURL = ::RegisterWindowMessage(_T("WM_UREN_CUSTOMURL")); // lParam == full url

	push	ebp
	mov	ebp, esp
	push	esi
	mov	esi, esp
	push	OFFSET $SG171746
	call	DWORD PTR __imp__RegisterWindowMessageW@4
	cmp	esi, esp
	call	__RTC_CheckEsp
	mov	DWORD PTR _WM_UREN_CUSTOMURL, eax
	pop	esi
	cmp	ebp, esp
	call	__RTC_CheckEsp
	pop	ebp
	ret	0
??__EWM_UREN_CUSTOMURL@@YAXXZ ENDP			; `dynamic initializer for 'WM_UREN_CUSTOMURL''
; Function compile flags: /Odtp /RTCsu
text$yc	ENDS
;	COMDAT ??__EWM_UREN_FAILEDURL@@YAXXZ
text$yc	SEGMENT
??__EWM_UREN_FAILEDURL@@YAXXZ PROC			; `dynamic initializer for 'WM_UREN_FAILEDURL'', COMDAT

; 17   : const UINT WM_UREN_FAILEDURL = ::RegisterWindowMessage(_T("WM_UREN_FAILEDURL")); // lParam == full url

	push	ebp
	mov	ebp, esp
	push	esi
	mov	esi, esp
	push	OFFSET $SG171751
	call	DWORD PTR __imp__RegisterWindowMessageW@4
	cmp	esi, esp
	call	__RTC_CheckEsp
	mov	DWORD PTR _WM_UREN_FAILEDURL, eax
	pop	esi
	cmp	ebp, esp
	call	__RTC_CheckEsp
	pop	ebp
	ret	0
??__EWM_UREN_FAILEDURL@@YAXXZ ENDP			; `dynamic initializer for 'WM_UREN_FAILEDURL''
text$yc	ENDS
EXTRN	__imp__RegisterClipboardFormatW@4:PROC
; Function compile flags: /Odtp /RTCsu
; File d:\_code\shared\clipboard.h
;	COMDAT ??__ECBF_HTML@@YAXXZ
text$yc	SEGMENT
??__ECBF_HTML@@YAXXZ PROC				; `dynamic initializer for 'CBF_HTML'', COMDAT

; 42   : static UINT CBF_HTML		= ::RegisterClipboardFormat(_T("HTML Format"));

	push	ebp
	mov	ebp, esp
	push	esi
	mov	esi, esp
	push	OFFSET $SG174177
	call	DWORD PTR __imp__RegisterClipboardFormatW@4
	cmp	esi, esp
	call	__RTC_CheckEsp
	mov	DWORD PTR _CBF_HTML, eax
	pop	esi
	cmp	ebp, esp
	call	__RTC_CheckEsp
	pop	ebp
	ret	0
??__ECBF_HTML@@YAXXZ ENDP				; `dynamic initializer for 'CBF_HTML''
; Function compile flags: /Odtp /RTCsu
text$yc	ENDS
;	COMDAT ??__ECBF_MSURL@@YAXXZ
text$yc	SEGMENT
??__ECBF_MSURL@@YAXXZ PROC				; `dynamic initializer for 'CBF_MSURL'', COMDAT

; 43   : static UINT CBF_MSURL		= ::RegisterClipboardFormat(_T("msSourceUrl"));

	push	ebp
	mov	ebp, esp
	push	esi
	mov	esi, esp
	push	OFFSET $SG174182
	call	DWORD PTR __imp__RegisterClipboardFormatW@4
	cmp	esi, esp
	call	__RTC_CheckEsp
	mov	DWORD PTR _CBF_MSURL, eax
	pop	esi
	cmp	ebp, esp
	call	__RTC_CheckEsp
	pop	ebp
	ret	0
??__ECBF_MSURL@@YAXXZ ENDP				; `dynamic initializer for 'CBF_MSURL''
; Function compile flags: /Odtp /RTCsu
text$yc	ENDS
;	COMDAT ??__ECBF_RTF@@YAXXZ
text$yc	SEGMENT
??__ECBF_RTF@@YAXXZ PROC				; `dynamic initializer for 'CBF_RTF'', COMDAT

; 44   : static UINT CBF_RTF			= ::RegisterClipboardFormat(CF_RTF);

	push	ebp
	mov	ebp, esp
	push	esi
	mov	esi, esp
	push	OFFSET $SG174187
	call	DWORD PTR __imp__RegisterClipboardFormatW@4
	cmp	esi, esp
	call	__RTC_CheckEsp
	mov	DWORD PTR _CBF_RTF, eax
	pop	esi
	cmp	ebp, esp
	call	__RTC_CheckEsp
	pop	ebp
	ret	0
??__ECBF_RTF@@YAXXZ ENDP				; `dynamic initializer for 'CBF_RTF''
; Function compile flags: /Odtp /RTCsu
text$yc	ENDS
;	COMDAT ??__ECBF_RETEXTOBJ@@YAXXZ
text$yc	SEGMENT
??__ECBF_RETEXTOBJ@@YAXXZ PROC				; `dynamic initializer for 'CBF_RETEXTOBJ'', COMDAT

; 45   : static UINT CBF_RETEXTOBJ	= ::RegisterClipboardFormat(CF_RETEXTOBJ);

	push	ebp
	mov	ebp, esp
	push	esi
	mov	esi, esp
	push	OFFSET $SG174192
	call	DWORD PTR __imp__RegisterClipboardFormatW@4
	cmp	esi, esp
	call	__RTC_CheckEsp
	mov	DWORD PTR _CBF_RETEXTOBJ, eax
	pop	esi
	cmp	ebp, esp
	call	__RTC_CheckEsp
	pop	ebp
	ret	0
??__ECBF_RETEXTOBJ@@YAXXZ ENDP				; `dynamic initializer for 'CBF_RETEXTOBJ''
; Function compile flags: /Odtp /RTCsu
text$yc	ENDS
;	COMDAT ??__ECBF_EMBEDDEDOBJ@@YAXXZ
text$yc	SEGMENT
??__ECBF_EMBEDDEDOBJ@@YAXXZ PROC			; `dynamic initializer for 'CBF_EMBEDDEDOBJ'', COMDAT

; 46   : static UINT CBF_EMBEDDEDOBJ	= ::RegisterClipboardFormat(_T("Embedded Object"));

	push	ebp
	mov	ebp, esp
	push	esi
	mov	esi, esp
	push	OFFSET $SG174197
	call	DWORD PTR __imp__RegisterClipboardFormatW@4
	cmp	esi, esp
	call	__RTC_CheckEsp
	mov	DWORD PTR _CBF_EMBEDDEDOBJ, eax
	pop	esi
	cmp	ebp, esp
	call	__RTC_CheckEsp
	pop	ebp
	ret	0
??__ECBF_EMBEDDEDOBJ@@YAXXZ ENDP			; `dynamic initializer for 'CBF_EMBEDDEDOBJ''
; Function compile flags: /Odtp /RTCsu
text$yc	ENDS
;	COMDAT ??__ECBF_FILENAME@@YAXXZ
text$yc	SEGMENT
??__ECBF_FILENAME@@YAXXZ PROC				; `dynamic initializer for 'CBF_FILENAME'', COMDAT

; 54   : static UINT CBF_FILENAME	= ::RegisterClipboardFormat(CFSTR_FILENAME2);

	push	ebp
	mov	ebp, esp
	push	esi
	mov	esi, esp
	push	OFFSET $SG174202
	call	DWORD PTR __imp__RegisterClipboardFormatW@4
	cmp	esi, esp
	call	__RTC_CheckEsp
	mov	DWORD PTR _CBF_FILENAME, eax
	pop	esi
	cmp	ebp, esp
	call	__RTC_CheckEsp
	pop	ebp
	ret	0
??__ECBF_FILENAME@@YAXXZ ENDP				; `dynamic initializer for 'CBF_FILENAME''
; Function compile flags: /Odtp /RTCsu
text$yc	ENDS
;	COMDAT ??__Fmanager@?1??GetInstance@?$CHookMgr@VCFindReplaceDialogEx@@@@KAAAVCFindReplaceDialogEx@@XZ@YAXXZ
text$yd	SEGMENT
??__Fmanager@?1??GetInstance@?$CHookMgr@VCFindReplaceDialogEx@@@@KAAAVCFindReplaceDialogEx@@XZ@YAXXZ PROC ; `CHookMgr<CFindReplaceDialogEx>::GetInstance'::`2'::`dynamic atexit destructor for 'manager'', COMDAT
	push	ebp
	mov	ebp, esp
	mov	ecx, OFFSET ?manager@?1??GetInstance@?$CHookMgr@VCFindReplaceDialogEx@@@@KAAAVCFindReplaceDialogEx@@XZ@4V3@A
	call	??1CFindReplaceDialogEx@@UAE@XZ		; CFindReplaceDialogEx::~CFindReplaceDialogEx
	cmp	ebp, esp
	call	__RTC_CheckEsp
	pop	ebp
	ret	0
??__Fmanager@?1??GetInstance@?$CHookMgr@VCFindReplaceDialogEx@@@@KAAAVCFindReplaceDialogEx@@XZ@YAXXZ ENDP ; `CHookMgr<CFindReplaceDialogEx>::GetInstance'::`2'::`dynamic atexit destructor for 'manager''
text$yd	ENDS
_BSS	SEGMENT
_CBF_FILENAME DD 01H DUP (?)
_CBF_EMBEDDEDOBJ DD 01H DUP (?)
_CBF_RETEXTOBJ DD 01H DUP (?)
_CBF_RTF DD	01H DUP (?)
_CBF_MSURL DD	01H DUP (?)
_CBF_HTML DD	01H DUP (?)
_WM_UREN_FAILEDURL DD 01H DUP (?)
_WM_UREN_CUSTOMURL DD 01H DUP (?)
_BSS	ENDS
CRT$XCU	SEGMENT
_WM_UREN_CUSTOMURL$initializer$ DD FLAT:??__EWM_UREN_CUSTOMURL@@YAXXZ
_WM_UREN_FAILEDURL$initializer$ DD FLAT:??__EWM_UREN_FAILEDURL@@YAXXZ
_CBF_HTML$initializer$ DD FLAT:??__ECBF_HTML@@YAXXZ
_CBF_MSURL$initializer$ DD FLAT:??__ECBF_MSURL@@YAXXZ
_CBF_RTF$initializer$ DD FLAT:??__ECBF_RTF@@YAXXZ
_CBF_RETEXTOBJ$initializer$ DD FLAT:??__ECBF_RETEXTOBJ@@YAXXZ
_CBF_EMBEDDEDOBJ$initializer$ DD FLAT:??__ECBF_EMBEDDEDOBJ@@YAXXZ
_CBF_FILENAME$initializer$ DD FLAT:??__ECBF_FILENAME@@YAXXZ
CRT$XCU	ENDS
END
